
./../../../../../case/images/apps/launcher/wqvga_style_1/desktop.so:     file format elf32-tradlittlemips

Disassembly of section .init:

53000000 <_init>:
53000000:	27bdffe0 	addiu	sp,sp,-32
53000004:	afbf0014 	sw	ra,20(sp)
53000008:	0cc00c93 	jal	5300324c <__do_global_ctors_aux>
5300000c:	00000000 	nop
53000010:	8fbf0014 	lw	ra,20(sp)
53000014:	27bd0020 	addiu	sp,sp,32
53000018:	03e00008 	jr	ra
5300001c:	00000000 	nop
Disassembly of section .text:

53000020 <desktop_load_style>:
53000020:	27bdffb8 	addiu	sp,sp,-72
53000024:	afb10024 	sw	s1,36(sp)
53000028:	afbf0044 	sw	ra,68(sp)
5300002c:	afbe0040 	sw	s8,64(sp)
53000030:	afb7003c 	sw	s7,60(sp)
53000034:	afb60038 	sw	s6,56(sp)
53000038:	afb50034 	sw	s5,52(sp)
5300003c:	afb40030 	sw	s4,48(sp)
53000040:	afb3002c 	sw	s3,44(sp)
53000044:	afb20028 	sw	s2,40(sp)
53000048:	0cc00c4c 	jal	53003130 <sty_get_app_scene>
5300004c:	afb00020 	sw	s0,32(sp)
53000050:	00408821 	move	s1,v0
53000054:	10400088 	beqz	v0,53000278 <desktop_load_style+0x258>
53000058:	afa00018 	sw	zero,24(sp)
5300005c:	3c169fb1 	lui	s6,0x9fb1
53000060:	3c134323 	lui	s3,0x4323
53000064:	36c5cbbd 	ori	a1,s6,0xcbbd
53000068:	0cc00bf9 	jal	53002fe4 <get_scene_child>
5300006c:	00402021 	move	a0,v0
53000070:	3c155300 	lui	s5,0x5300
53000074:	02202021 	move	a0,s1
53000078:	366510b9 	ori	a1,s3,0x10b9
5300007c:	aea25318 	sw	v0,21272(s5)
53000080:	0cc00bf9 	jal	53002fe4 <get_scene_child>
53000084:	3c145300 	lui	s4,0x5300
53000088:	02202021 	move	a0,s1
5300008c:	366510ba 	ori	a1,s3,0x10ba
53000090:	ae8251b8 	sw	v0,20920(s4)
53000094:	0cc00bf9 	jal	53002fe4 <get_scene_child>
53000098:	3c125300 	lui	s2,0x5300
5300009c:	366510bb 	ori	a1,s3,0x10bb
530000a0:	02202021 	move	a0,s1
530000a4:	0cc00bf9 	jal	53002fe4 <get_scene_child>
530000a8:	ae4251b0 	sw	v0,20912(s2)
530000ac:	3c0faacd 	lui	t7,0xaacd
530000b0:	02202021 	move	a0,s1
530000b4:	35e5c789 	ori	a1,t7,0xc789
530000b8:	3c0e5300 	lui	t6,0x5300
530000bc:	0cc00bf9 	jal	53002fe4 <get_scene_child>
530000c0:	adc2522c 	sw	v0,21036(t6)
530000c4:	3c0d54d5 	lui	t5,0x54d5
530000c8:	35a51c85 	ori	a1,t5,0x1c85
530000cc:	00402021 	move	a0,v0
530000d0:	0cc00bfd 	jal	53002ff4 <get_resgroup_child>
530000d4:	00408021 	move	s0,v0
530000d8:	3c0c5300 	lui	t4,0x5300
530000dc:	ad8251a0 	sw	v0,20896(t4)
530000e0:	3c0b5300 	lui	t3,0x5300
530000e4:	3c0a5300 	lui	t2,0x5300
530000e8:	3c095300 	lui	t1,0x5300
530000ec:	3c085300 	lui	t0,0x5300
530000f0:	3c065300 	lui	a2,0x5300
530000f4:	3c055300 	lui	a1,0x5300
530000f8:	3c025300 	lui	v0,0x5300
530000fc:	3c035300 	lui	v1,0x5300
53000100:	afac001c 	sw	t4,28(sp)
53000104:	257e50c0 	addiu	s8,t3,20672
53000108:	255751bc 	addiu	s7,t2,20924
5300010c:	253650f8 	addiu	s6,t1,20728
53000110:	25155234 	addiu	s5,t0,21044
53000114:	24d45130 	addiu	s4,a2,20784
53000118:	24b3531c 	addiu	s3,a1,21276
5300011c:	24525168 	addiu	s2,v0,20840
53000120:	247152a8 	addiu	s1,v1,21160
53000124:	8e450000 	lw	a1,0(s2)
53000128:	0cc00bfd 	jal	53002ff4 <get_resgroup_child>
5300012c:	02002021 	move	a0,s0
53000130:	8e850000 	lw	a1,0(s4)
53000134:	02002021 	move	a0,s0
53000138:	0cc00bfd 	jal	53002ff4 <get_resgroup_child>
5300013c:	ae220000 	sw	v0,0(s1)
53000140:	8ec50000 	lw	a1,0(s6)
53000144:	02002021 	move	a0,s0
53000148:	0cc00bfd 	jal	53002ff4 <get_resgroup_child>
5300014c:	ae620000 	sw	v0,0(s3)
53000150:	8fa70018 	lw	a3,24(sp)
53000154:	8fc50000 	lw	a1,0(s8)
53000158:	24ff0001 	addiu	ra,a3,1
5300015c:	aea20000 	sw	v0,0(s5)
53000160:	afbf0018 	sw	ra,24(sp)
53000164:	0cc00bfd 	jal	53002ff4 <get_resgroup_child>
53000168:	02002021 	move	a0,s0
5300016c:	8fb90018 	lw	t9,24(sp)
53000170:	aee20000 	sw	v0,0(s7)
53000174:	2b38000e 	slti	t8,t9,14
53000178:	26310008 	addiu	s1,s1,8
5300017c:	26520004 	addiu	s2,s2,4
53000180:	26730008 	addiu	s3,s3,8
53000184:	26940004 	addiu	s4,s4,4
53000188:	26b50008 	addiu	s5,s5,8
5300018c:	26d60004 	addiu	s6,s6,4
53000190:	26f70008 	addiu	s7,s7,8
53000194:	1700ffe3 	bnez	t8,53000124 <desktop_load_style+0x104>
53000198:	27de0004 	addiu	s8,s8,4
5300019c:	3c115300 	lui	s1,0x5300
530001a0:	0cc00c13 	jal	5300304c <get_user_bg_pic>
530001a4:	26244378 	addiu	a0,s1,17272
530001a8:	8fa3001c 	lw	v1,28(sp)
530001ac:	247051a0 	addiu	s0,v1,20896
530001b0:	14400004 	bnez	v0,530001c4 <desktop_load_style+0x1a4>
530001b4:	ae020004 	sw	v0,4(s0)
530001b8:	8c6251a0 	lw	v0,20896(v1)
530001bc:	5440003a 	bnezl	v0,530002a8 <desktop_load_style+0x288>
530001c0:	90440013 	lbu	a0,19(v0)
530001c4:	8e020004 	lw	v0,4(s0)
530001c8:	1040000e 	beqz	v0,53000204 <desktop_load_style+0x1e4>
530001cc:	24030001 	li	v1,1
530001d0:	8fbf0044 	lw	ra,68(sp)
530001d4:	8fbe0040 	lw	s8,64(sp)
530001d8:	8fb7003c 	lw	s7,60(sp)
530001dc:	8fb60038 	lw	s6,56(sp)
530001e0:	8fb50034 	lw	s5,52(sp)
530001e4:	8fb40030 	lw	s4,48(sp)
530001e8:	8fb3002c 	lw	s3,44(sp)
530001ec:	8fb20028 	lw	s2,40(sp)
530001f0:	8fb10024 	lw	s1,36(sp)
530001f4:	8fb00020 	lw	s0,32(sp)
530001f8:	00601021 	move	v0,v1
530001fc:	03e00008 	jr	ra
53000200:	27bd0048 	addiu	sp,sp,72
53000204:	0cc00cb0 	jal	530032c0 <__errno>
53000208:	3c105300 	lui	s0,0x5300
5300020c:	0cc00cad 	jal	530032b4 <getpid>
53000210:	00409021 	move	s2,v0
53000214:	3c035300 	lui	v1,0x5300
53000218:	8e450000 	lw	a1,0(s2)
5300021c:	246443a0 	addiu	a0,v1,17312
53000220:	00403021 	move	a2,v0
53000224:	26074388 	addiu	a3,s0,17288
53000228:	240300ab 	li	v1,171
5300022c:	3c095300 	lui	t1,0x5300
53000230:	25283fc8 	addiu	t0,t1,16328
53000234:	afa30010 	sw	v1,16(sp)
53000238:	0cc00fe9 	jal	53003fa4 <printf>
5300023c:	afa80014 	sw	t0,20(sp)
53000240:	00001821 	move	v1,zero
53000244:	8fbf0044 	lw	ra,68(sp)
53000248:	8fbe0040 	lw	s8,64(sp)
5300024c:	8fb7003c 	lw	s7,60(sp)
53000250:	8fb60038 	lw	s6,56(sp)
53000254:	8fb50034 	lw	s5,52(sp)
53000258:	8fb40030 	lw	s4,48(sp)
5300025c:	8fb3002c 	lw	s3,44(sp)
53000260:	8fb20028 	lw	s2,40(sp)
53000264:	8fb10024 	lw	s1,36(sp)
53000268:	8fb00020 	lw	s0,32(sp)
5300026c:	00601021 	move	v0,v1
53000270:	03e00008 	jr	ra
53000274:	27bd0048 	addiu	sp,sp,72
53000278:	0cc00cb0 	jal	530032c0 <__errno>
5300027c:	00000000 	nop
53000280:	0cc00cad 	jal	530032b4 <getpid>
53000284:	00408021 	move	s0,v0
53000288:	3c045300 	lui	a0,0x5300
5300028c:	3c075300 	lui	a3,0x5300
53000290:	8e050000 	lw	a1,0(s0)
53000294:	248443ec 	addiu	a0,a0,17388
53000298:	00403021 	move	a2,v0
5300029c:	24e74388 	addiu	a3,a3,17288
530002a0:	1000ffe2 	b	5300022c <desktop_load_style+0x20c>
530002a4:	2403008e 	li	v1,142
530002a8:	905e0012 	lbu	s8,18(v0)
530002ac:	0004ba00 	sll	s7,a0,0x8
530002b0:	0cc00c5e 	jal	53003178 <sty_create_bitmap>
530002b4:	02fe2025 	or	a0,s7,s8
530002b8:	1000ffc2 	b	530001c4 <desktop_load_style+0x1a4>
530002bc:	ae020004 	sw	v0,4(s0)

530002c0 <desktop_buffer_resource>:
530002c0:	27bdffc8 	addiu	sp,sp,-56
530002c4:	3c055300 	lui	a1,0x5300
530002c8:	3c045300 	lui	a0,0x5300
530002cc:	3c025300 	lui	v0,0x5300
530002d0:	3c035300 	lui	v1,0x5300
530002d4:	afb7002c 	sw	s7,44(sp)
530002d8:	afb60028 	sw	s6,40(sp)
530002dc:	afb50024 	sw	s5,36(sp)
530002e0:	afb40020 	sw	s4,32(sp)
530002e4:	afb3001c 	sw	s3,28(sp)
530002e8:	afbf0030 	sw	ra,48(sp)
530002ec:	afb20018 	sw	s2,24(sp)
530002f0:	afb10014 	sw	s1,20(sp)
530002f4:	afb00010 	sw	s0,16(sp)
530002f8:	24b452a8 	addiu	s4,a1,21160
530002fc:	2495531c 	addiu	s5,a0,21276
53000300:	24565234 	addiu	s6,v0,21044
53000304:	247751bc 	addiu	s7,v1,20924
53000308:	00009821 	move	s3,zero
5300030c:	001380c0 	sll	s0,s3,0x3
53000310:	02148821 	addu	s1,s0,s4
53000314:	8e250000 	lw	a1,0(s1)
53000318:	02159021 	addu	s2,s0,s5
5300031c:	90a40013 	lbu	a0,19(a1)
53000320:	90a30012 	lbu	v1,18(a1)
53000324:	00041200 	sll	v0,a0,0x8
53000328:	0cc00c5e 	jal	53003178 <sty_create_bitmap>
5300032c:	00432025 	or	a0,v0,v1
53000330:	8e5f0000 	lw	ra,0(s2)
53000334:	ae220004 	sw	v0,4(s1)
53000338:	93f90013 	lbu	t9,19(ra)
5300033c:	93f80012 	lbu	t8,18(ra)
53000340:	00197a00 	sll	t7,t9,0x8
53000344:	01f82025 	or	a0,t7,t8
53000348:	0cc00c5e 	jal	53003178 <sty_create_bitmap>
5300034c:	02168821 	addu	s1,s0,s6
53000350:	8e2e0000 	lw	t6,0(s1)
53000354:	ae420004 	sw	v0,4(s2)
53000358:	91cd0013 	lbu	t5,19(t6)
5300035c:	91cc0012 	lbu	t4,18(t6)
53000360:	000d5a00 	sll	t3,t5,0x8
53000364:	016c2025 	or	a0,t3,t4
53000368:	0cc00c5e 	jal	53003178 <sty_create_bitmap>
5300036c:	02178021 	addu	s0,s0,s7
53000370:	8e0a0000 	lw	t2,0(s0)
53000374:	ae220004 	sw	v0,4(s1)
53000378:	91490013 	lbu	t1,19(t2)
5300037c:	91480012 	lbu	t0,18(t2)
53000380:	00093a00 	sll	a3,t1,0x8
53000384:	00e82025 	or	a0,a3,t0
53000388:	0cc00c5e 	jal	53003178 <sty_create_bitmap>
5300038c:	26730001 	addiu	s3,s3,1
53000390:	2a66000e 	slti	a2,s3,14
53000394:	14c0ffdd 	bnez	a2,5300030c <desktop_buffer_resource+0x4c>
53000398:	ae020004 	sw	v0,4(s0)
5300039c:	8e93006c 	lw	s3,108(s4)
530003a0:	12600008 	beqz	s3,530003c4 <desktop_buffer_resource+0x104>
530003a4:	00002021 	move	a0,zero
530003a8:	8eb4006c 	lw	s4,108(s5)
530003ac:	12800006 	beqz	s4,530003c8 <desktop_buffer_resource+0x108>
530003b0:	8fbf0030 	lw	ra,48(sp)
530003b4:	8ed5006c 	lw	s5,108(s6)
530003b8:	56a0000e 	bnezl	s5,530003f4 <desktop_buffer_resource+0x134>
530003bc:	8ef6006c 	lw	s6,108(s7)
530003c0:	00002021 	move	a0,zero
530003c4:	8fbf0030 	lw	ra,48(sp)
530003c8:	8fb7002c 	lw	s7,44(sp)
530003cc:	8fb60028 	lw	s6,40(sp)
530003d0:	8fb50024 	lw	s5,36(sp)
530003d4:	8fb40020 	lw	s4,32(sp)
530003d8:	8fb3001c 	lw	s3,28(sp)
530003dc:	8fb20018 	lw	s2,24(sp)
530003e0:	8fb10014 	lw	s1,20(sp)
530003e4:	8fb00010 	lw	s0,16(sp)
530003e8:	00801021 	move	v0,a0
530003ec:	03e00008 	jr	ra
530003f0:	27bd0038 	addiu	sp,sp,56
530003f4:	16c0fff3 	bnez	s6,530003c4 <desktop_buffer_resource+0x104>
530003f8:	24040001 	li	a0,1
530003fc:	1000fff1 	b	530003c4 <desktop_buffer_resource+0x104>
53000400:	00002021 	move	a0,zero

53000404 <desktop_release_resource>:
53000404:	27bdffc8 	addiu	sp,sp,-56
53000408:	3c025300 	lui	v0,0x5300
5300040c:	afb00010 	sw	s0,16(sp)
53000410:	afbf0034 	sw	ra,52(sp)
53000414:	afbe0030 	sw	s8,48(sp)
53000418:	afb7002c 	sw	s7,44(sp)
5300041c:	afb60028 	sw	s6,40(sp)
53000420:	afb50024 	sw	s5,36(sp)
53000424:	afb40020 	sw	s4,32(sp)
53000428:	afb3001c 	sw	s3,28(sp)
5300042c:	afb20018 	sw	s2,24(sp)
53000430:	afb10014 	sw	s1,20(sp)
53000434:	245051a0 	addiu	s0,v0,20896
53000438:	8e040004 	lw	a0,4(s0)
5300043c:	14800044 	bnez	a0,53000550 <desktop_release_resource+0x14c>
53000440:	00000000 	nop
53000444:	3c065300 	lui	a2,0x5300
53000448:	3c055300 	lui	a1,0x5300
5300044c:	3c045300 	lui	a0,0x5300
53000450:	3c035300 	lui	v1,0x5300
53000454:	24de52a8 	addiu	s8,a2,21160
53000458:	24b7531c 	addiu	s7,a1,21276
5300045c:	24965234 	addiu	s6,a0,21044
53000460:	247551bc 	addiu	s5,v1,20924
53000464:	1000000d 	b	5300049c <desktop_release_resource+0x98>
53000468:	00009821 	move	s3,zero
5300046c:	8e290004 	lw	t1,4(s1)
53000470:	15200019 	bnez	t1,530004d8 <desktop_release_resource+0xd4>
53000474:	01202021 	move	a0,t1
53000478:	8e4a0004 	lw	t2,4(s2)
5300047c:	1540001c 	bnez	t2,530004f0 <desktop_release_resource+0xec>
53000480:	01402021 	move	a0,t2
53000484:	8e8b0004 	lw	t3,4(s4)
53000488:	1560001f 	bnez	t3,53000508 <desktop_release_resource+0x104>
5300048c:	01602021 	move	a0,t3
53000490:	2a6c000e 	slti	t4,s3,14
53000494:	11800022 	beqz	t4,53000520 <desktop_release_resource+0x11c>
53000498:	8fbf0034 	lw	ra,52(sp)
5300049c:	001340c0 	sll	t0,s3,0x3
530004a0:	011e8021 	addu	s0,t0,s8
530004a4:	8e070004 	lw	a3,4(s0)
530004a8:	0115a021 	addu	s4,t0,s5
530004ac:	26730001 	addiu	s3,s3,1
530004b0:	01178821 	addu	s1,t0,s7
530004b4:	01169021 	addu	s2,t0,s6
530004b8:	10e0ffec 	beqz	a3,5300046c <desktop_release_resource+0x68>
530004bc:	00e02021 	move	a0,a3
530004c0:	0cc00c61 	jal	53003184 <sty_delete_bitmap>
530004c4:	00000000 	nop
530004c8:	ae000004 	sw	zero,4(s0)
530004cc:	8e290004 	lw	t1,4(s1)
530004d0:	1120ffe9 	beqz	t1,53000478 <desktop_release_resource+0x74>
530004d4:	01202021 	move	a0,t1
530004d8:	0cc00c61 	jal	53003184 <sty_delete_bitmap>
530004dc:	00000000 	nop
530004e0:	ae200004 	sw	zero,4(s1)
530004e4:	8e4a0004 	lw	t2,4(s2)
530004e8:	1140ffe6 	beqz	t2,53000484 <desktop_release_resource+0x80>
530004ec:	01402021 	move	a0,t2
530004f0:	0cc00c61 	jal	53003184 <sty_delete_bitmap>
530004f4:	00000000 	nop
530004f8:	ae400004 	sw	zero,4(s2)
530004fc:	8e8b0004 	lw	t3,4(s4)
53000500:	1160ffe3 	beqz	t3,53000490 <desktop_release_resource+0x8c>
53000504:	01602021 	move	a0,t3
53000508:	0cc00c61 	jal	53003184 <sty_delete_bitmap>
5300050c:	00000000 	nop
53000510:	2a6c000e 	slti	t4,s3,14
53000514:	1580ffe1 	bnez	t4,5300049c <desktop_release_resource+0x98>
53000518:	ae800004 	sw	zero,4(s4)
5300051c:	8fbf0034 	lw	ra,52(sp)
53000520:	8fbe0030 	lw	s8,48(sp)
53000524:	8fb7002c 	lw	s7,44(sp)
53000528:	8fb60028 	lw	s6,40(sp)
5300052c:	8fb50024 	lw	s5,36(sp)
53000530:	8fb40020 	lw	s4,32(sp)
53000534:	8fb3001c 	lw	s3,28(sp)
53000538:	8fb20018 	lw	s2,24(sp)
5300053c:	8fb10014 	lw	s1,20(sp)
53000540:	8fb00010 	lw	s0,16(sp)
53000544:	24020001 	li	v0,1
53000548:	03e00008 	jr	ra
5300054c:	27bd0038 	addiu	sp,sp,56
53000550:	0cc00c61 	jal	53003184 <sty_delete_bitmap>
53000554:	00000000 	nop
53000558:	1000ffba 	b	53000444 <desktop_release_resource+0x40>
5300055c:	ae000004 	sw	zero,4(s0)

53000560 <_get_app_macro>:
53000560:	27bdffd8 	addiu	sp,sp,-40
53000564:	3c025300 	lui	v0,0x5300
53000568:	afb20020 	sw	s2,32(sp)
5300056c:	afb1001c 	sw	s1,28(sp)
53000570:	afb00018 	sw	s0,24(sp)
53000574:	afbf0024 	sw	ra,36(sp)
53000578:	00809021 	move	s2,a0
5300057c:	24515050 	addiu	s1,v0,20560
53000580:	00008021 	move	s0,zero
53000584:	8e240000 	lw	a0,0(s1)
53000588:	02402821 	move	a1,s2
5300058c:	0cc00f7d 	jal	53003df4 <strcasecmp>
53000590:	26100001 	addiu	s0,s0,1
53000594:	1040001a 	beqz	v0,53000600 <_get_app_macro+0xa0>
53000598:	2a03000e 	slti	v1,s0,14
5300059c:	1460fff9 	bnez	v1,53000584 <_get_app_macro+0x24>
530005a0:	26310008 	addiu	s1,s1,8
530005a4:	0cc00cb0 	jal	530032c0 <__errno>
530005a8:	00000000 	nop
530005ac:	0cc00cad 	jal	530032b4 <getpid>
530005b0:	00408021 	move	s0,v0
530005b4:	8e050000 	lw	a1,0(s0)
530005b8:	3c085300 	lui	t0,0x5300
530005bc:	3c045300 	lui	a0,0x5300
530005c0:	3c075300 	lui	a3,0x5300
530005c4:	240900ff 	li	t1,255
530005c8:	25033fdc 	addiu	v1,t0,16348
530005cc:	2484442c 	addiu	a0,a0,17452
530005d0:	00403021 	move	a2,v0
530005d4:	24e74388 	addiu	a3,a3,17288
530005d8:	afa90010 	sw	t1,16(sp)
530005dc:	0cc00fe9 	jal	53003fa4 <printf>
530005e0:	afa30014 	sw	v1,20(sp)
530005e4:	8fbf0024 	lw	ra,36(sp)
530005e8:	8fb20020 	lw	s2,32(sp)
530005ec:	8fb1001c 	lw	s1,28(sp)
530005f0:	8fb00018 	lw	s0,24(sp)
530005f4:	2402000e 	li	v0,14
530005f8:	03e00008 	jr	ra
530005fc:	27bd0028 	addiu	sp,sp,40
53000600:	8e220004 	lw	v0,4(s1)
53000604:	8fbf0024 	lw	ra,36(sp)
53000608:	8fb20020 	lw	s2,32(sp)
5300060c:	8fb1001c 	lw	s1,28(sp)
53000610:	8fb00018 	lw	s0,24(sp)
53000614:	03e00008 	jr	ra
53000618:	27bd0028 	addiu	sp,sp,40

5300061c <desktop_get_headbar_appicon>:
5300061c:	27bdffe0 	addiu	sp,sp,-32
53000620:	afb00010 	sw	s0,16(sp)
53000624:	00808021 	move	s0,a0
53000628:	afbf0018 	sw	ra,24(sp)
5300062c:	0cc00c4c 	jal	53003130 <sty_get_app_scene>
53000630:	afb10014 	sw	s1,20(sp)
53000634:	8e04001c 	lw	a0,28(s0)
53000638:	0cc00158 	jal	53000560 <_get_app_macro>
5300063c:	00408821 	move	s1,v0
53000640:	3c0e9249 	lui	t6,0x9249
53000644:	00026842 	srl	t5,v0,0x1
53000648:	35cc2493 	ori	t4,t6,0x2493
5300064c:	01ac0019 	multu	t5,t4
53000650:	3c055300 	lui	a1,0x5300
53000654:	00005810 	mfhi	t3
53000658:	24a35018 	addiu	v1,a1,20504
5300065c:	000b5082 	srl	t2,t3,0x2
53000660:	000a48c0 	sll	t1,t2,0x3
53000664:	012a4023 	subu	t0,t1,t2
53000668:	00083840 	sll	a3,t0,0x1
5300066c:	00473023 	subu	a2,v0,a3
53000670:	00062080 	sll	a0,a2,0x2
53000674:	00831021 	addu	v0,a0,v1
53000678:	8c450000 	lw	a1,0(v0)
5300067c:	02202021 	move	a0,s1
53000680:	8fbf0018 	lw	ra,24(sp)
53000684:	8fb10014 	lw	s1,20(sp)
53000688:	8fb00010 	lw	s0,16(sp)
5300068c:	08c00bf9 	j	53002fe4 <get_scene_child>
53000690:	27bd0020 	addiu	sp,sp,32

53000694 <_draw_pic>:
53000694:	00c01021 	move	v0,a2
53000698:	afa60008 	sw	a2,8(sp)
5300069c:	afa50004 	sw	a1,4(sp)
530006a0:	00e03021 	move	a2,a3
530006a4:	10400004 	beqz	v0,530006b8 <_draw_pic+0x24>
530006a8:	8fa30010 	lw	v1,16(sp)
530006ac:	00402821 	move	a1,v0
530006b0:	08c00c5b 	j	5300316c <sty_draw_bitmap>
530006b4:	00603821 	move	a3,v1
530006b8:	90a60013 	lbu	a2,19(a1)
530006bc:	90a20012 	lbu	v0,18(a1)
530006c0:	00062a00 	sll	a1,a2,0x8
530006c4:	00a22825 	or	a1,a1,v0
530006c8:	00e03021 	move	a2,a3
530006cc:	08c00c58 	j	53003160 <sty_draw_picture_id>
530006d0:	00603821 	move	a3,v1

530006d4 <_draw_app_name>:
530006d4:	27bdff50 	addiu	sp,sp,-176
530006d8:	afb300a4 	sw	s3,164(sp)
530006dc:	27b30018 	addiu	s3,sp,24
530006e0:	afb1009c 	sw	s1,156(sp)
530006e4:	afb00098 	sw	s0,152(sp)
530006e8:	24060080 	li	a2,128
530006ec:	00808021 	move	s0,a0
530006f0:	00a08821 	move	s1,a1
530006f4:	02602021 	move	a0,s3
530006f8:	00002821 	move	a1,zero
530006fc:	afbf00a8 	sw	ra,168(sp)
53000700:	0cc00f6c 	jal	53003db0 <memset>
53000704:	afb200a0 	sw	s2,160(sp)
53000708:	3c035300 	lui	v1,0x5300
5300070c:	8c6251a8 	lw	v0,20904(v1)
53000710:	0cc00fd7 	jal	53003f5c <gui_dc_get>
53000714:	8c440034 	lw	a0,52(v0)
53000718:	00409021 	move	s2,v0
5300071c:	24020001 	li	v0,1
53000720:	5202002b 	beql	s0,v0,530007d0 <_draw_app_name+0xfc>
53000724:	8e23004c 	lw	v1,76(s1)
53000728:	5200000e 	beqzl	s0,53000764 <_draw_app_name+0x90>
5300072c:	8e23004c 	lw	v1,76(s1)
53000730:	24040002 	li	a0,2
53000734:	1204006e 	beq	s0,a0,530008f0 <_draw_app_name+0x21c>
53000738:	00000000 	nop
5300073c:	24050003 	li	a1,3
53000740:	52050080 	beql	s0,a1,53000944 <_draw_app_name+0x270>
53000744:	8e2a0048 	lw	t2,72(s1)
53000748:	8fbf00a8 	lw	ra,168(sp)
5300074c:	8fb300a4 	lw	s3,164(sp)
53000750:	8fb200a0 	lw	s2,160(sp)
53000754:	8fb1009c 	lw	s1,156(sp)
53000758:	8fb00098 	lw	s0,152(sp)
5300075c:	03e00008 	jr	ra
53000760:	27bd00b0 	addiu	sp,sp,176
53000764:	1062005c 	beq	v1,v0,530008d8 <_draw_app_name+0x204>
53000768:	240c0002 	li	t4,2
5300076c:	506c0027 	beql	v1,t4,5300080c <_draw_app_name+0x138>
53000770:	8e2d0048 	lw	t5,72(s1)
53000774:	0cc00cb0 	jal	530032c0 <__errno>
53000778:	00000000 	nop
5300077c:	0cc00cad 	jal	530032b4 <getpid>
53000780:	00408021 	move	s0,v0
53000784:	3c0f5300 	lui	t7,0x5300
53000788:	3c0e5300 	lui	t6,0x5300
5300078c:	8e050000 	lw	a1,0(s0)
53000790:	25e44454 	addiu	a0,t7,17492
53000794:	00403021 	move	a2,v0
53000798:	25c74388 	addiu	a3,t6,17288
5300079c:	24030133 	li	v1,307
530007a0:	3c095300 	lui	t1,0x5300
530007a4:	25283fec 	addiu	t0,t1,16364
530007a8:	afa30010 	sw	v1,16(sp)
530007ac:	0cc00fe9 	jal	53003fa4 <printf>
530007b0:	afa80014 	sw	t0,20(sp)
530007b4:	8fbf00a8 	lw	ra,168(sp)
530007b8:	8fb300a4 	lw	s3,164(sp)
530007bc:	8fb200a0 	lw	s2,160(sp)
530007c0:	8fb1009c 	lw	s1,156(sp)
530007c4:	8fb00098 	lw	s0,152(sp)
530007c8:	03e00008 	jr	ra
530007cc:	27bd00b0 	addiu	sp,sp,176
530007d0:	10700044 	beq	v1,s0,530008e4 <_draw_app_name+0x210>
530007d4:	24020002 	li	v0,2
530007d8:	5062002c 	beql	v1,v0,5300088c <_draw_app_name+0x1b8>
530007dc:	8e230048 	lw	v1,72(s1)
530007e0:	0cc00cb0 	jal	530032c0 <__errno>
530007e4:	3c125300 	lui	s2,0x5300
530007e8:	0cc00cad 	jal	530032b4 <getpid>
530007ec:	00408021 	move	s0,v0
530007f0:	3c045300 	lui	a0,0x5300
530007f4:	8e050000 	lw	a1,0(s0)
530007f8:	24844454 	addiu	a0,a0,17492
530007fc:	00403021 	move	a2,v0
53000800:	26474388 	addiu	a3,s2,17288
53000804:	1000ffe6 	b	530007a0 <_draw_app_name+0xcc>
53000808:	24030152 	li	v1,338
5300080c:	8db1002c 	lw	s1,44(t5)
53000810:	0cc00fe0 	jal	53003f80 <gui_dc_get_alpha>
53000814:	02402021 	move	a0,s2
53000818:	02402021 	move	a0,s2
5300081c:	240500b2 	li	a1,178
53000820:	0cc00fdd 	jal	53003f74 <gui_dc_set_alpha>
53000824:	00408021 	move	s0,v0
53000828:	8e380004 	lw	t8,4(s1)
5300082c:	8e330020 	lw	s3,32(s1)
53000830:	3c195300 	lui	t9,0x5300
53000834:	24050080 	li	a1,128
53000838:	272644a0 	addiu	a2,t9,17568
5300083c:	27070001 	addiu	a3,t8,1
53000840:	27a40018 	addiu	a0,sp,24
53000844:	3c115300 	lui	s1,0x5300
53000848:	0cc00cb3 	jal	530032cc <snprintf>
5300084c:	afb30010 	sw	s3,16(sp)
53000850:	8e2551b8 	lw	a1,20920(s1)
53000854:	02402021 	move	a0,s2
53000858:	27a60018 	addiu	a2,sp,24
5300085c:	0cc00c55 	jal	53003154 <sty_draw_string_res_ext>
53000860:	a3a00097 	sb	zero,151(sp)
53000864:	02402021 	move	a0,s2
53000868:	0cc00fdd 	jal	53003f74 <gui_dc_set_alpha>
5300086c:	02002821 	move	a1,s0
53000870:	8fbf00a8 	lw	ra,168(sp)
53000874:	8fb300a4 	lw	s3,164(sp)
53000878:	8fb200a0 	lw	s2,160(sp)
5300087c:	8fb1009c 	lw	s1,156(sp)
53000880:	8fb00098 	lw	s0,152(sp)
53000884:	03e00008 	jr	ra
53000888:	27bd00b0 	addiu	sp,sp,176
5300088c:	8c71002c 	lw	s1,44(v1)
53000890:	0cc00fe0 	jal	53003f80 <gui_dc_get_alpha>
53000894:	02402021 	move	a0,s2
53000898:	02402021 	move	a0,s2
5300089c:	2405004d 	li	a1,77
530008a0:	0cc00fdd 	jal	53003f74 <gui_dc_set_alpha>
530008a4:	00408021 	move	s0,v0
530008a8:	8e250004 	lw	a1,4(s1)
530008ac:	8e2a0020 	lw	t2,32(s1)
530008b0:	3c075300 	lui	a3,0x5300
530008b4:	24e644a0 	addiu	a2,a3,17568
530008b8:	27a40018 	addiu	a0,sp,24
530008bc:	24a70001 	addiu	a3,a1,1
530008c0:	24050080 	li	a1,128
530008c4:	0cc00cb3 	jal	530032cc <snprintf>
530008c8:	afaa0010 	sw	t2,16(sp)
530008cc:	3c065300 	lui	a2,0x5300
530008d0:	1000ffe0 	b	53000854 <_draw_app_name+0x180>
530008d4:	8cc551b0 	lw	a1,20912(a2)
530008d8:	8e2b0048 	lw	t3,72(s1)
530008dc:	1000ffcc 	b	53000810 <_draw_app_name+0x13c>
530008e0:	8d710030 	lw	s1,48(t3)
530008e4:	8e3f0048 	lw	ra,72(s1)
530008e8:	1000ffe9 	b	53000890 <_draw_app_name+0x1bc>
530008ec:	8ff10030 	lw	s1,48(ra)
530008f0:	0cc00fe0 	jal	53003f80 <gui_dc_get_alpha>
530008f4:	02402021 	move	a0,s2
530008f8:	02402021 	move	a0,s2
530008fc:	2405004d 	li	a1,77
53000900:	0cc00fdd 	jal	53003f74 <gui_dc_set_alpha>
53000904:	00408021 	move	s0,v0
53000908:	8e2f0048 	lw	t7,72(s1)
5300090c:	3c0e5300 	lui	t6,0x5300
53000910:	8ded0004 	lw	t5,4(t7)
53000914:	8dec0020 	lw	t4,32(t7)
53000918:	25c644a0 	addiu	a2,t6,17568
5300091c:	02602021 	move	a0,s3
53000920:	24050080 	li	a1,128
53000924:	25a70001 	addiu	a3,t5,1
53000928:	0cc00cb3 	jal	530032cc <snprintf>
5300092c:	afac0010 	sw	t4,16(sp)
53000930:	3c0b5300 	lui	t3,0x5300
53000934:	8d65522c 	lw	a1,21036(t3)
53000938:	02603021 	move	a2,s3
5300093c:	1000ffc7 	b	5300085c <_draw_app_name+0x188>
53000940:	02402021 	move	a0,s2
53000944:	3c095300 	lui	t1,0x5300
53000948:	8d470004 	lw	a3,4(t2)
5300094c:	8d480020 	lw	t0,32(t2)
53000950:	252644a0 	addiu	a2,t1,17568
53000954:	02602021 	move	a0,s3
53000958:	24e70001 	addiu	a3,a3,1
5300095c:	24050080 	li	a1,128
53000960:	0cc00cb3 	jal	530032cc <snprintf>
53000964:	afa80010 	sw	t0,16(sp)
53000968:	3c065300 	lui	a2,0x5300
5300096c:	8cc55318 	lw	a1,21272(a2)
53000970:	02402021 	move	a0,s2
53000974:	02603021 	move	a2,s3
53000978:	0cc00c55 	jal	53003154 <sty_draw_string_res_ext>
5300097c:	a3a00097 	sb	zero,151(sp)
53000980:	1000ff72 	b	5300074c <_draw_app_name+0x78>
53000984:	8fbf00a8 	lw	ra,168(sp)

53000988 <_draw_unsel_app_icon>:
53000988:	27bdffc0 	addiu	sp,sp,-64
5300098c:	afbe0038 	sw	s8,56(sp)
53000990:	afb70034 	sw	s7,52(sp)
53000994:	afb60030 	sw	s6,48(sp)
53000998:	afb5002c 	sw	s5,44(sp)
5300099c:	afb20020 	sw	s2,32(sp)
530009a0:	afb00018 	sw	s0,24(sp)
530009a4:	afbf003c 	sw	ra,60(sp)
530009a8:	afb40028 	sw	s4,40(sp)
530009ac:	afb30024 	sw	s3,36(sp)
530009b0:	afb1001c 	sw	s1,28(sp)
530009b4:	0080f021 	move	s8,a0
530009b8:	8ca40034 	lw	a0,52(a1)
530009bc:	0cc00fd7 	jal	53003f5c <gui_dc_get>
530009c0:	00a08021 	move	s0,a1
530009c4:	8fc40004 	lw	a0,4(s8)
530009c8:	0040a821 	move	s5,v0
530009cc:	24850003 	addiu	a1,a0,3
530009d0:	28860000 	slti	a2,a0,0
530009d4:	0086280a 	movz	a1,a0,a2
530009d8:	00051883 	sra	v1,a1,0x2
530009dc:	00031080 	sll	v0,v1,0x2
530009e0:	0082b023 	subu	s6,a0,v0
530009e4:	26c30004 	addiu	v1,s6,4
530009e8:	03c09021 	move	s2,s8
530009ec:	18600005 	blez	v1,53000a04 <_draw_unsel_app_icon+0x7c>
530009f0:	8e170048 	lw	s7,72(s0)
530009f4:	00601021 	move	v0,v1
530009f8:	2442ffff 	addiu	v0,v0,-1
530009fc:	1440fffe 	bnez	v0,530009f8 <_draw_unsel_app_icon+0x70>
53000a00:	8e52002c 	lw	s2,44(s2)
53000a04:	24130003 	li	s3,3
53000a08:	3c075300 	lui	a3,0x5300
53000a0c:	24f452a8 	addiu	s4,a3,21160
53000a10:	02a02021 	move	a0,s5
53000a14:	1257002e 	beq	s2,s7,53000ad0 <_draw_unsel_app_icon+0x148>
53000a18:	2673ffff 	addiu	s3,s3,-1
53000a1c:	8e4b0004 	lw	t3,4(s2)
53000a20:	296f0000 	slti	t7,t3,0
53000a24:	256e0003 	addiu	t6,t3,3
53000a28:	016f700a 	movz	t6,t3,t7
53000a2c:	000e6883 	sra	t5,t6,0x2
53000a30:	000d6080 	sll	t4,t5,0x2
53000a34:	016c5023 	subu	t2,t3,t4
53000a38:	000a88c0 	sll	s1,t2,0x3
53000a3c:	02341021 	addu	v0,s1,s4
53000a40:	0cc00fe0 	jal	53003f80 <gui_dc_get_alpha>
53000a44:	8c500040 	lw	s0,64(v0)
53000a48:	2405004d 	li	a1,77
53000a4c:	02a02021 	move	a0,s5
53000a50:	0cc00fdd 	jal	53003f74 <gui_dc_set_alpha>
53000a54:	00408821 	move	s1,v0
53000a58:	0cc00158 	jal	53000560 <_get_app_macro>
53000a5c:	8e44001c 	lw	a0,28(s2)
53000a60:	3c099249 	lui	t1,0x9249
53000a64:	00024042 	srl	t0,v0,0x1
53000a68:	35272493 	ori	a3,t1,0x2493
53000a6c:	01070019 	multu	t0,a3
53000a70:	820e000c 	lb	t6,12(s0)
53000a74:	00003010 	mfhi	a2
53000a78:	820f000a 	lb	t7,10(s0)
53000a7c:	00062082 	srl	a0,a2,0x2
53000a80:	000428c0 	sll	a1,a0,0x3
53000a84:	00a41823 	subu	v1,a1,a0
53000a88:	0003f840 	sll	ra,v1,0x1
53000a8c:	005fc823 	subu	t9,v0,ra
53000a90:	0019c0c0 	sll	t8,t9,0x3
53000a94:	03146821 	addu	t5,t8,s4
53000a98:	920a0009 	lbu	t2,9(s0)
53000a9c:	920c000b 	lbu	t4,11(s0)
53000aa0:	8da50000 	lw	a1,0(t5)
53000aa4:	000f4a00 	sll	t1,t7,0x8
53000aa8:	000e5a00 	sll	t3,t6,0x8
53000aac:	8da60004 	lw	a2,4(t5)
53000ab0:	016c4025 	or	t0,t3,t4
53000ab4:	02a02021 	move	a0,s5
53000ab8:	012a3825 	or	a3,t1,t2
53000abc:	0cc001a5 	jal	53000694 <_draw_pic>
53000ac0:	afa80010 	sw	t0,16(sp)
53000ac4:	02a02021 	move	a0,s5
53000ac8:	0cc00fdd 	jal	53003f74 <gui_dc_set_alpha>
53000acc:	02202821 	move	a1,s1
53000ad0:	0661ffcd 	bgez	s3,53000a08 <_draw_unsel_app_icon+0x80>
53000ad4:	8e520030 	lw	s2,48(s2)
53000ad8:	1ac00005 	blez	s6,53000af0 <_draw_unsel_app_icon+0x168>
53000adc:	03c08021 	move	s0,s8
53000ae0:	02c01021 	move	v0,s6
53000ae4:	2442ffff 	addiu	v0,v0,-1
53000ae8:	1440fffe 	bnez	v0,53000ae4 <_draw_unsel_app_icon+0x15c>
53000aec:	8e10002c 	lw	s0,44(s0)
53000af0:	3c135300 	lui	s3,0x5300
53000af4:	3c149249 	lui	s4,0x9249
53000af8:	267252a8 	addiu	s2,s3,21160
53000afc:	24110003 	li	s1,3
53000b00:	36932493 	ori	s3,s4,0x2493
53000b04:	8e04001c 	lw	a0,28(s0)
53000b08:	0cc00158 	jal	53000560 <_get_app_macro>
53000b0c:	2631ffff 	addiu	s1,s1,-1
53000b10:	0002f842 	srl	ra,v0,0x1
53000b14:	03f30019 	multu	ra,s3
53000b18:	8e0a0004 	lw	t2,4(s0)
53000b1c:	0000c810 	mfhi	t9
53000b20:	254c0003 	addiu	t4,t2,3
53000b24:	294f0000 	slti	t7,t2,0
53000b28:	0019c082 	srl	t8,t9,0x2
53000b2c:	014f600a 	movz	t4,t2,t7
53000b30:	0018a0c0 	sll	s4,t8,0x3
53000b34:	000c5883 	sra	t3,t4,0x2
53000b38:	02987023 	subu	t6,s4,t8
53000b3c:	000b2880 	sll	a1,t3,0x2
53000b40:	01453023 	subu	a2,t2,a1
53000b44:	000e6840 	sll	t5,t6,0x1
53000b48:	02174026 	xor	t0,s0,s7
53000b4c:	021e3826 	xor	a3,s0,s8
53000b50:	0006f8c0 	sll	ra,a2,0x3
53000b54:	0007202b 	sltu	a0,zero,a3
53000b58:	004d1023 	subu	v0,v0,t5
53000b5c:	0008182b 	sltu	v1,zero,t0
53000b60:	000248c0 	sll	t1,v0,0x3
53000b64:	0064c024 	and	t8,v1,a0
53000b68:	03f2c821 	addu	t9,ra,s2
53000b6c:	01322821 	addu	a1,t1,s2
53000b70:	02a02021 	move	a0,s5
53000b74:	1700004c 	bnez	t8,53000ca8 <_draw_unsel_app_icon+0x320>
53000b78:	8f260000 	lw	a2,0(t9)
53000b7c:	0621ffe1 	bgez	s1,53000b04 <_draw_unsel_app_icon+0x17c>
53000b80:	8e100030 	lw	s0,48(s0)
53000b84:	24120004 	li	s2,4
53000b88:	02561023 	subu	v0,s2,s6
53000b8c:	18400004 	blez	v0,53000ba0 <_draw_unsel_app_icon+0x218>
53000b90:	03c0a021 	move	s4,s8
53000b94:	2442ffff 	addiu	v0,v0,-1
53000b98:	1440fffe 	bnez	v0,53000b94 <_draw_unsel_app_icon+0x20c>
53000b9c:	8e940030 	lw	s4,48(s4)
53000ba0:	3c169249 	lui	s6,0x9249
53000ba4:	36de2493 	ori	s8,s6,0x2493
53000ba8:	24160003 	li	s6,3
53000bac:	12970030 	beq	s4,s7,53000c70 <_draw_unsel_app_icon+0x2e8>
53000bb0:	26d6ffff 	addiu	s6,s6,-1
53000bb4:	8e84001c 	lw	a0,28(s4)
53000bb8:	0cc00158 	jal	53000560 <_get_app_macro>
53000bbc:	3c135300 	lui	s3,0x5300
53000bc0:	8e8c0004 	lw	t4,4(s4)
53000bc4:	00408021 	move	s0,v0
53000bc8:	29860000 	slti	a2,t4,0
53000bcc:	258e0003 	addiu	t6,t4,3
53000bd0:	0186700a 	movz	t6,t4,a2
53000bd4:	000e6883 	sra	t5,t6,0x2
53000bd8:	000d2080 	sll	a0,t5,0x2
53000bdc:	01845823 	subu	t3,t4,a0
53000be0:	000b10c0 	sll	v0,t3,0x3
53000be4:	267252a8 	addiu	s2,s3,21160
53000be8:	00521821 	addu	v1,v0,s2
53000bec:	02a02021 	move	a0,s5
53000bf0:	0cc00fe0 	jal	53003f80 <gui_dc_get_alpha>
53000bf4:	8c710020 	lw	s1,32(v1)
53000bf8:	02a02021 	move	a0,s5
53000bfc:	2405004d 	li	a1,77
53000c00:	0cc00fdd 	jal	53003f74 <gui_dc_set_alpha>
53000c04:	00409821 	move	s3,v0
53000c08:	00105042 	srl	t2,s0,0x1
53000c0c:	015e0019 	multu	t2,s8
53000c10:	8226000c 	lb	a2,12(s1)
53000c14:	00004010 	mfhi	t0
53000c18:	8225000a 	lb	a1,10(s1)
53000c1c:	00083882 	srl	a3,t0,0x2
53000c20:	000748c0 	sll	t1,a3,0x3
53000c24:	0127f823 	subu	ra,t1,a3
53000c28:	001fc840 	sll	t9,ra,0x1
53000c2c:	0219c023 	subu	t8,s0,t9
53000c30:	001878c0 	sll	t7,t8,0x3
53000c34:	92240009 	lbu	a0,9(s1)
53000c38:	922d000b 	lbu	t5,11(s1)
53000c3c:	01f27021 	addu	t6,t7,s2
53000c40:	00066200 	sll	t4,a2,0x8
53000c44:	00058a00 	sll	s1,a1,0x8
53000c48:	8dc60004 	lw	a2,4(t6)
53000c4c:	8dc50000 	lw	a1,0(t6)
53000c50:	018d8025 	or	s0,t4,t5
53000c54:	02243825 	or	a3,s1,a0
53000c58:	02a02021 	move	a0,s5
53000c5c:	0cc001a5 	jal	53000694 <_draw_pic>
53000c60:	afb00010 	sw	s0,16(sp)
53000c64:	02a02021 	move	a0,s5
53000c68:	0cc00fdd 	jal	53003f74 <gui_dc_set_alpha>
53000c6c:	02602821 	move	a1,s3
53000c70:	06c1ffce 	bgez	s6,53000bac <_draw_unsel_app_icon+0x224>
53000c74:	8e940030 	lw	s4,48(s4)
53000c78:	8fbf003c 	lw	ra,60(sp)
53000c7c:	8fbe0038 	lw	s8,56(sp)
53000c80:	8fb70034 	lw	s7,52(sp)
53000c84:	8fb60030 	lw	s6,48(sp)
53000c88:	8fb5002c 	lw	s5,44(sp)
53000c8c:	8fb40028 	lw	s4,40(sp)
53000c90:	8fb30024 	lw	s3,36(sp)
53000c94:	8fb20020 	lw	s2,32(sp)
53000c98:	8fb1001c 	lw	s1,28(sp)
53000c9c:	8fb00018 	lw	s0,24(sp)
53000ca0:	03e00008 	jr	ra
53000ca4:	27bd0040 	addiu	sp,sp,64
53000ca8:	80c2000c 	lb	v0,12(a2)
53000cac:	80cb000a 	lb	t3,10(a2)
53000cb0:	90c80009 	lbu	t0,9(a2)
53000cb4:	90c3000b 	lbu	v1,11(a2)
53000cb8:	000b3a00 	sll	a3,t3,0x8
53000cbc:	8ca60004 	lw	a2,4(a1)
53000cc0:	00025200 	sll	t2,v0,0x8
53000cc4:	8ca50000 	lw	a1,0(a1)
53000cc8:	01434825 	or	t1,t2,v1
53000ccc:	00e83825 	or	a3,a3,t0
53000cd0:	0cc001a5 	jal	53000694 <_draw_pic>
53000cd4:	afa90010 	sw	t1,16(sp)
53000cd8:	1000ffa8 	b	53000b7c <_draw_unsel_app_icon+0x1f4>
53000cdc:	00000000 	nop

53000ce0 <_draw_app_icon>:
53000ce0:	27bdffc8 	addiu	sp,sp,-56
53000ce4:	afb60030 	sw	s6,48(sp)
53000ce8:	afb5002c 	sw	s5,44(sp)
53000cec:	afb30024 	sw	s3,36(sp)
53000cf0:	afb00018 	sw	s0,24(sp)
53000cf4:	afbf0034 	sw	ra,52(sp)
53000cf8:	afb40028 	sw	s4,40(sp)
53000cfc:	afb20020 	sw	s2,32(sp)
53000d00:	afb1001c 	sw	s1,28(sp)
53000d04:	00808021 	move	s0,a0
53000d08:	8ca40034 	lw	a0,52(a1)
53000d0c:	0cc00fd7 	jal	53003f5c <gui_dc_get>
53000d10:	00a09821 	move	s3,a1
53000d14:	0040a821 	move	s5,v0
53000d18:	24020001 	li	v0,1
53000d1c:	1202007b 	beq	s0,v0,53000f0c <_draw_app_icon+0x22c>
53000d20:	0000b021 	move	s6,zero
53000d24:	5200000d 	beqzl	s0,53000d5c <_draw_app_icon+0x7c>
53000d28:	8e63004c 	lw	v1,76(s3)
53000d2c:	2e020004 	sltiu	v0,s0,4
53000d30:	14400139 	bnez	v0,53001218 <_draw_app_icon+0x538>
53000d34:	8fbf0034 	lw	ra,52(sp)
53000d38:	8fb60030 	lw	s6,48(sp)
53000d3c:	8fb5002c 	lw	s5,44(sp)
53000d40:	8fb40028 	lw	s4,40(sp)
53000d44:	8fb30024 	lw	s3,36(sp)
53000d48:	8fb20020 	lw	s2,32(sp)
53000d4c:	8fb1001c 	lw	s1,28(sp)
53000d50:	8fb00018 	lw	s0,24(sp)
53000d54:	03e00008 	jr	ra
53000d58:	27bd0038 	addiu	sp,sp,56
53000d5c:	10620165 	beq	v1,v0,530012f4 <_draw_app_icon+0x614>
53000d60:	8e720048 	lw	s2,72(s3)
53000d64:	24140002 	li	s4,2
53000d68:	507400d5 	beql	v1,s4,530010c0 <_draw_app_icon+0x3e0>
53000d6c:	8e54002c 	lw	s4,44(s2)
53000d70:	0cc00cb0 	jal	530032c0 <__errno>
53000d74:	3c105300 	lui	s0,0x5300
53000d78:	0cc00cad 	jal	530032b4 <getpid>
53000d7c:	00408821 	move	s1,v0
53000d80:	8e250000 	lw	a1,0(s1)
53000d84:	3c0d5300 	lui	t5,0x5300
53000d88:	3c0c5300 	lui	t4,0x5300
53000d8c:	00403021 	move	a2,v0
53000d90:	260b3ffc 	addiu	t3,s0,16380
53000d94:	2402021f 	li	v0,543
53000d98:	3c145300 	lui	s4,0x5300
53000d9c:	25a4442c 	addiu	a0,t5,17452
53000da0:	25874388 	addiu	a3,t4,17288
53000da4:	afa20010 	sw	v0,16(sp)
53000da8:	0cc00fe9 	jal	53003fa4 <printf>
53000dac:	afab0014 	sw	t3,20(sp)
53000db0:	8e9152a8 	lw	s1,21160(s4)
53000db4:	8e740048 	lw	s4,72(s3)
53000db8:	0cc00158 	jal	53000560 <_get_app_macro>
53000dbc:	8e44001c 	lw	a0,28(s2)
53000dc0:	240e0001 	li	t6,1
53000dc4:	12ce00d8 	beq	s6,t6,53001128 <_draw_app_icon+0x448>
53000dc8:	00409021 	move	s2,v0
53000dcc:	3c0e9249 	lui	t6,0x9249
53000dd0:	00026842 	srl	t5,v0,0x1
53000dd4:	35cc2493 	ori	t4,t6,0x2493
53000dd8:	01ac0019 	multu	t5,t4
53000ddc:	3c0a5300 	lui	t2,0x5300
53000de0:	00001010 	mfhi	v0
53000de4:	8224000a 	lb	a0,10(s1)
53000de8:	00028082 	srl	s0,v0,0x2
53000dec:	001058c0 	sll	t3,s0,0x3
53000df0:	01703023 	subu	a2,t3,s0
53000df4:	00061840 	sll	v1,a2,0x1
53000df8:	02432823 	subu	a1,s2,v1
53000dfc:	8229000c 	lb	t1,12(s1)
53000e00:	000538c0 	sll	a3,a1,0x3
53000e04:	2548531c 	addiu	t0,t2,21276
53000e08:	00e8f821 	addu	ra,a3,t0
53000e0c:	92320009 	lbu	s2,9(s1)
53000e10:	9239000b 	lbu	t9,11(s1)
53000e14:	0004b200 	sll	s6,a0,0x8
53000e18:	0009c200 	sll	t8,t1,0x8
53000e1c:	8fe60004 	lw	a2,4(ra)
53000e20:	8fe50000 	lw	a1,0(ra)
53000e24:	03198825 	or	s1,t8,t9
53000e28:	02d23825 	or	a3,s6,s2
53000e2c:	02a02021 	move	a0,s5
53000e30:	0cc001a5 	jal	53000694 <_draw_pic>
53000e34:	afb10010 	sw	s1,16(sp)
53000e38:	8e8b0004 	lw	t3,4(s4)
53000e3c:	3c065300 	lui	a2,0x5300
53000e40:	256c0003 	addiu	t4,t3,3
53000e44:	296d0000 	slti	t5,t3,0
53000e48:	016d600a 	movz	t4,t3,t5
53000e4c:	000c1083 	sra	v0,t4,0x2
53000e50:	00028080 	sll	s0,v0,0x2
53000e54:	01701823 	subu	v1,t3,s0
53000e58:	000350c0 	sll	t2,v1,0x3
53000e5c:	24c552a8 	addiu	a1,a2,21160
53000e60:	8e84001c 	lw	a0,28(s4)
53000e64:	01454021 	addu	t0,t2,a1
53000e68:	0cc00158 	jal	53000560 <_get_app_macro>
53000e6c:	8d100000 	lw	s0,0(t0)
53000e70:	3c079249 	lui	a3,0x9249
53000e74:	00022042 	srl	a0,v0,0x1
53000e78:	34e92493 	ori	t1,a3,0x2493
53000e7c:	00890019 	multu	a0,t1
53000e80:	3c0f5300 	lui	t7,0x5300
53000e84:	0000f810 	mfhi	ra
53000e88:	8207000a 	lb	a3,10(s0)
53000e8c:	001fc882 	srl	t9,ra,0x2
53000e90:	0019c0c0 	sll	t8,t9,0x3
53000e94:	03199023 	subu	s2,t8,t9
53000e98:	0012b040 	sll	s6,s2,0x1
53000e9c:	00568823 	subu	s1,v0,s6
53000ea0:	8208000c 	lb	t0,12(s0)
53000ea4:	001110c0 	sll	v0,s1,0x3
53000ea8:	25e35234 	addiu	v1,t7,21044
53000eac:	92110009 	lbu	s1,9(s0)
53000eb0:	9212000b 	lbu	s2,11(s0)
53000eb4:	0043f821 	addu	ra,v0,v1
53000eb8:	8fe50000 	lw	a1,0(ra)
53000ebc:	0008b200 	sll	s6,t0,0x8
53000ec0:	8fe60004 	lw	a2,4(ra)
53000ec4:	0007ca00 	sll	t9,a3,0x8
53000ec8:	02d2c025 	or	t8,s6,s2
53000ecc:	02a02021 	move	a0,s5
53000ed0:	03313825 	or	a3,t9,s1
53000ed4:	0cc001a5 	jal	53000694 <_draw_pic>
53000ed8:	afb80010 	sw	t8,16(sp)
53000edc:	02802021 	move	a0,s4
53000ee0:	02602821 	move	a1,s3
53000ee4:	8fbf0034 	lw	ra,52(sp)
53000ee8:	8fb60030 	lw	s6,48(sp)
53000eec:	8fb5002c 	lw	s5,44(sp)
53000ef0:	8fb40028 	lw	s4,40(sp)
53000ef4:	8fb30024 	lw	s3,36(sp)
53000ef8:	8fb20020 	lw	s2,32(sp)
53000efc:	8fb1001c 	lw	s1,28(sp)
53000f00:	8fb00018 	lw	s0,24(sp)
53000f04:	08c00262 	j	53000988 <_draw_unsel_app_icon>
53000f08:	27bd0038 	addiu	sp,sp,56
53000f0c:	8e63004c 	lw	v1,76(s3)
53000f10:	10700131 	beq	v1,s0,530013d8 <_draw_app_icon+0x6f8>
53000f14:	8e720048 	lw	s2,72(s3)
53000f18:	24140002 	li	s4,2
53000f1c:	507400a8 	beql	v1,s4,530011c0 <_draw_app_icon+0x4e0>
53000f20:	8e54002c 	lw	s4,44(s2)
53000f24:	0cc00cb0 	jal	530032c0 <__errno>
53000f28:	3c115300 	lui	s1,0x5300
53000f2c:	0cc00cad 	jal	530032b4 <getpid>
53000f30:	00408021 	move	s0,v0
53000f34:	8e050000 	lw	a1,0(s0)
53000f38:	3c0f5300 	lui	t7,0x5300
53000f3c:	3c0d5300 	lui	t5,0x5300
53000f40:	2624442c 	addiu	a0,s1,17452
53000f44:	240e0260 	li	t6,608
53000f48:	25ac3ffc 	addiu	t4,t5,16380
53000f4c:	3c145300 	lui	s4,0x5300
53000f50:	00403021 	move	a2,v0
53000f54:	25e74388 	addiu	a3,t7,17288
53000f58:	afae0010 	sw	t6,16(sp)
53000f5c:	0cc00fe9 	jal	53003fa4 <printf>
53000f60:	afac0014 	sw	t4,20(sp)
53000f64:	8e9152a8 	lw	s1,21160(s4)
53000f68:	8e740048 	lw	s4,72(s3)
53000f6c:	0cc00158 	jal	53000560 <_get_app_macro>
53000f70:	8e44001c 	lw	a0,28(s2)
53000f74:	24180001 	li	t8,1
53000f78:	12d800f1 	beq	s6,t8,53001340 <_draw_app_icon+0x660>
53000f7c:	00409021 	move	s2,v0
53000f80:	3c189249 	lui	t8,0x9249
53000f84:	00028042 	srl	s0,v0,0x1
53000f88:	370f2493 	ori	t7,t8,0x2493
53000f8c:	020f0019 	multu	s0,t7
53000f90:	3c065300 	lui	a2,0x5300
53000f94:	00007010 	mfhi	t6
53000f98:	822a000c 	lb	t2,12(s1)
53000f9c:	000e6882 	srl	t5,t6,0x2
53000fa0:	000d60c0 	sll	t4,t5,0x3
53000fa4:	018d1023 	subu	v0,t4,t5
53000fa8:	00021840 	sll	v1,v0,0x1
53000fac:	02435823 	subu	t3,s2,v1
53000fb0:	8228000a 	lb	t0,10(s1)
53000fb4:	24c55234 	addiu	a1,a2,21044
53000fb8:	000b38c0 	sll	a3,t3,0x3
53000fbc:	00e52021 	addu	a0,a3,a1
53000fc0:	92320009 	lbu	s2,9(s1)
53000fc4:	9229000b 	lbu	t1,11(s1)
53000fc8:	8c860004 	lw	a2,4(a0)
53000fcc:	8c850000 	lw	a1,0(a0)
53000fd0:	0008b200 	sll	s6,t0,0x8
53000fd4:	000afa00 	sll	ra,t2,0x8
53000fd8:	03e98825 	or	s1,ra,t1
53000fdc:	02d23825 	or	a3,s6,s2
53000fe0:	02a02021 	move	a0,s5
53000fe4:	0cc001a5 	jal	53000694 <_draw_pic>
53000fe8:	afb10010 	sw	s1,16(sp)
53000fec:	8e8c0004 	lw	t4,4(s4)
53000ff0:	3c025300 	lui	v0,0x5300
53000ff4:	29900000 	slti	s0,t4,0
53000ff8:	258f0003 	addiu	t7,t4,3
53000ffc:	0190780a 	movz	t7,t4,s0
53001000:	000f7083 	sra	t6,t7,0x2
53001004:	000e6880 	sll	t5,t6,0x2
53001008:	018d1823 	subu	v1,t4,t5
5300100c:	000330c0 	sll	a2,v1,0x3
53001010:	8e84001c 	lw	a0,28(s4)
53001014:	244b52a8 	addiu	t3,v0,21160
53001018:	00cb2821 	addu	a1,a2,t3
5300101c:	0cc00158 	jal	53000560 <_get_app_macro>
53001020:	8cb00000 	lw	s0,0(a1)
53001024:	3c079249 	lui	a3,0x9249
53001028:	00024042 	srl	t0,v0,0x1
5300102c:	34ea2493 	ori	t2,a3,0x2493
53001030:	010a0019 	multu	t0,t2
53001034:	3c195300 	lui	t9,0x5300
53001038:	00002010 	mfhi	a0
5300103c:	8207000a 	lb	a3,10(s0)
53001040:	00044882 	srl	t1,a0,0x2
53001044:	0009f8c0 	sll	ra,t1,0x3
53001048:	03e99023 	subu	s2,ra,t1
5300104c:	0012b040 	sll	s6,s2,0x1
53001050:	00568823 	subu	s1,v0,s6
53001054:	8208000c 	lb	t0,12(s0)
53001058:	001110c0 	sll	v0,s1,0x3
5300105c:	2723531c 	addiu	v1,t9,21276
53001060:	92110009 	lbu	s1,9(s0)
53001064:	9212000b 	lbu	s2,11(s0)
53001068:	0043f821 	addu	ra,v0,v1
5300106c:	8fe50000 	lw	a1,0(ra)
53001070:	0008b200 	sll	s6,t0,0x8
53001074:	8fe60004 	lw	a2,4(ra)
53001078:	0007ca00 	sll	t9,a3,0x8
5300107c:	02d2c025 	or	t8,s6,s2
53001080:	02a02021 	move	a0,s5
53001084:	03313825 	or	a3,t9,s1
53001088:	0cc001a5 	jal	53000694 <_draw_pic>
5300108c:	afb80010 	sw	t8,16(sp)
53001090:	02802021 	move	a0,s4
53001094:	02602821 	move	a1,s3
53001098:	8fbf0034 	lw	ra,52(sp)
5300109c:	8fb60030 	lw	s6,48(sp)
530010a0:	8fb5002c 	lw	s5,44(sp)
530010a4:	8fb40028 	lw	s4,40(sp)
530010a8:	8fb30024 	lw	s3,36(sp)
530010ac:	8fb20020 	lw	s2,32(sp)
530010b0:	8fb1001c 	lw	s1,28(sp)
530010b4:	8fb00018 	lw	s0,24(sp)
530010b8:	08c00262 	j	53000988 <_draw_unsel_app_icon>
530010bc:	27bd0038 	addiu	sp,sp,56
530010c0:	8e8a0004 	lw	t2,4(s4)
530010c4:	25450003 	addiu	a1,t2,3
530010c8:	29460000 	slti	a2,t2,0
530010cc:	0146280a 	movz	a1,t2,a2
530010d0:	00051883 	sra	v1,a1,0x2
530010d4:	00034080 	sll	t0,v1,0x2
530010d8:	2544fffd 	addiu	a0,t2,-3
530010dc:	510400d1 	beql	t0,a0,53001424 <_draw_app_icon+0x744>
530010e0:	8e4e0004 	lw	t6,4(s2)
530010e4:	8e480004 	lw	t0,4(s2)
530010e8:	3c075300 	lui	a3,0x5300
530010ec:	25050003 	addiu	a1,t0,3
530010f0:	29060000 	slti	a2,t0,0
530010f4:	0106280a 	movz	a1,t0,a2
530010f8:	00051883 	sra	v1,a1,0x2
530010fc:	00035080 	sll	t2,v1,0x2
53001100:	010a2023 	subu	a0,t0,t2
53001104:	0004f8c0 	sll	ra,a0,0x3
53001108:	24e952a8 	addiu	t1,a3,21160
5300110c:	8e44001c 	lw	a0,28(s2)
53001110:	03e9c821 	addu	t9,ra,t1
53001114:	0cc00158 	jal	53000560 <_get_app_macro>
53001118:	8f310000 	lw	s1,0(t9)
5300111c:	240e0001 	li	t6,1
53001120:	16ceff2a 	bne	s6,t6,53000dcc <_draw_app_icon+0xec>
53001124:	00409021 	move	s2,v0
53001128:	0cc00fe0 	jal	53003f80 <gui_dc_get_alpha>
5300112c:	02a02021 	move	a0,s5
53001130:	02a02021 	move	a0,s5
53001134:	2405004d 	li	a1,77
53001138:	0cc00fdd 	jal	53003f74 <gui_dc_set_alpha>
5300113c:	0040b021 	move	s6,v0
53001140:	3c0f9249 	lui	t7,0x9249
53001144:	00127042 	srl	t6,s2,0x1
53001148:	35ed2493 	ori	t5,t7,0x2493
5300114c:	01cd0019 	multu	t6,t5
53001150:	3c055300 	lui	a1,0x5300
53001154:	00006010 	mfhi	t4
53001158:	8224000c 	lb	a0,12(s1)
5300115c:	000c1082 	srl	v0,t4,0x2
53001160:	000280c0 	sll	s0,v0,0x3
53001164:	02025823 	subu	t3,s0,v0
53001168:	000b3040 	sll	a2,t3,0x1
5300116c:	02461823 	subu	v1,s2,a2
53001170:	8227000a 	lb	a3,10(s1)
53001174:	24aa531c 	addiu	t2,a1,21276
53001178:	000340c0 	sll	t0,v1,0x3
5300117c:	010a4821 	addu	t1,t0,t2
53001180:	92380009 	lbu	t8,9(s1)
53001184:	923f000b 	lbu	ra,11(s1)
53001188:	0004ca00 	sll	t9,a0,0x8
5300118c:	8d250000 	lw	a1,0(t1)
53001190:	00077a00 	sll	t7,a3,0x8
53001194:	8d260004 	lw	a2,4(t1)
53001198:	033f9025 	or	s2,t9,ra
5300119c:	02a02021 	move	a0,s5
530011a0:	01f83825 	or	a3,t7,t8
530011a4:	0cc001a5 	jal	53000694 <_draw_pic>
530011a8:	afb20010 	sw	s2,16(sp)
530011ac:	02a02021 	move	a0,s5
530011b0:	0cc00fdd 	jal	53003f74 <gui_dc_set_alpha>
530011b4:	02c02821 	move	a1,s6
530011b8:	1000ff20 	b	53000e3c <_draw_app_icon+0x15c>
530011bc:	8e8b0004 	lw	t3,4(s4)
530011c0:	8e8b0004 	lw	t3,4(s4)
530011c4:	25700003 	addiu	s0,t3,3
530011c8:	29620000 	slti	v0,t3,0
530011cc:	0162800a 	movz	s0,t3,v0
530011d0:	00101883 	sra	v1,s0,0x2
530011d4:	00033080 	sll	a2,v1,0x2
530011d8:	2565fffd 	addiu	a1,t3,-3
530011dc:	50c5009e 	beql	a2,a1,53001458 <_draw_app_icon+0x778>
530011e0:	8e510004 	lw	s1,4(s2)
530011e4:	8e460004 	lw	a2,4(s2)
530011e8:	3c0a5300 	lui	t2,0x5300
530011ec:	24d00003 	addiu	s0,a2,3
530011f0:	28c20000 	slti	v0,a2,0
530011f4:	00c2800a 	movz	s0,a2,v0
530011f8:	00101883 	sra	v1,s0,0x2
530011fc:	00035880 	sll	t3,v1,0x2
53001200:	00cb2823 	subu	a1,a2,t3
53001204:	000538c0 	sll	a3,a1,0x3
53001208:	254852a8 	addiu	t0,t2,21160
5300120c:	00e82021 	addu	a0,a3,t0
53001210:	1000ff56 	b	53000f6c <_draw_app_icon+0x28c>
53001214:	8c910000 	lw	s1,0(a0)
53001218:	8e640048 	lw	a0,72(s3)
5300121c:	0cc00262 	jal	53000988 <_draw_unsel_app_icon>
53001220:	02602821 	move	a1,s3
53001224:	8e700048 	lw	s0,72(s3)
53001228:	0cc00158 	jal	53000560 <_get_app_macro>
5300122c:	8e04001c 	lw	a0,28(s0)
53001230:	8e070004 	lw	a3,4(s0)
53001234:	3c069249 	lui	a2,0x9249
53001238:	00022842 	srl	a1,v0,0x1
5300123c:	34c32493 	ori	v1,a2,0x2493
53001240:	00a30019 	multu	a1,v1
53001244:	28eb0000 	slti	t3,a3,0
53001248:	24ea0003 	addiu	t2,a3,3
5300124c:	00eb500a 	movz	t2,a3,t3
53001250:	00004810 	mfhi	t1
53001254:	000a4083 	sra	t0,t2,0x2
53001258:	00082080 	sll	a0,t0,0x2
5300125c:	00e4f823 	subu	ra,a3,a0
53001260:	0009a082 	srl	s4,t1,0x2
53001264:	3c195300 	lui	t9,0x5300
53001268:	001fb0c0 	sll	s6,ra,0x3
5300126c:	001498c0 	sll	s3,s4,0x3
53001270:	273852a8 	addiu	t8,t9,21160
53001274:	02d89021 	addu	s2,s6,t8
53001278:	02748823 	subu	s1,s3,s4
5300127c:	8e4b0000 	lw	t3,0(s2)
53001280:	00118040 	sll	s0,s1,0x1
53001284:	00507823 	subu	t7,v0,s0
53001288:	3c0e5300 	lui	t6,0x5300
5300128c:	8165000c 	lb	a1,12(t3)
53001290:	8166000a 	lb	a2,10(t3)
53001294:	000f60c0 	sll	t4,t7,0x3
53001298:	25cd51bc 	addiu	t5,t6,20924
5300129c:	91640009 	lbu	a0,9(t3)
530012a0:	018d5021 	addu	t2,t4,t5
530012a4:	9163000b 	lbu	v1,11(t3)
530012a8:	00054200 	sll	t0,a1,0x8
530012ac:	00063a00 	sll	a3,a2,0x8
530012b0:	8d450000 	lw	a1,0(t2)
530012b4:	8d460004 	lw	a2,4(t2)
530012b8:	01034825 	or	t1,t0,v1
530012bc:	00e43825 	or	a3,a3,a0
530012c0:	02a02021 	move	a0,s5
530012c4:	0cc001a5 	jal	53000694 <_draw_pic>
530012c8:	afa90010 	sw	t1,16(sp)
530012cc:	8fbf0034 	lw	ra,52(sp)
530012d0:	8fb60030 	lw	s6,48(sp)
530012d4:	8fb5002c 	lw	s5,44(sp)
530012d8:	8fb40028 	lw	s4,40(sp)
530012dc:	8fb30024 	lw	s3,36(sp)
530012e0:	8fb20020 	lw	s2,32(sp)
530012e4:	8fb1001c 	lw	s1,28(sp)
530012e8:	8fb00018 	lw	s0,24(sp)
530012ec:	03e00008 	jr	ra
530012f0:	27bd0038 	addiu	sp,sp,56
530012f4:	8e540030 	lw	s4,48(s2)
530012f8:	8e8c0004 	lw	t4,4(s4)
530012fc:	31820003 	andi	v0,t4,0x3
53001300:	5440ff79 	bnezl	v0,530010e8 <_draw_app_icon+0x408>
53001304:	8e480004 	lw	t0,4(s2)
53001308:	8e580004 	lw	t8,4(s2)
5300130c:	3c115300 	lui	s1,0x5300
53001310:	27090003 	addiu	t1,t8,3
53001314:	2b070000 	slti	a3,t8,0
53001318:	0307480a 	movz	t1,t8,a3
5300131c:	0009f883 	sra	ra,t1,0x2
53001320:	001fc880 	sll	t9,ra,0x2
53001324:	0319b023 	subu	s6,t8,t9
53001328:	001670c0 	sll	t6,s6,0x3
5300132c:	262f52a8 	addiu	t7,s1,21160
53001330:	01cf6821 	addu	t5,t6,t7
53001334:	8db10040 	lw	s1,64(t5)
53001338:	1000fe9f 	b	53000db8 <_draw_app_icon+0xd8>
5300133c:	24160001 	li	s6,1
53001340:	0cc00fe0 	jal	53003f80 <gui_dc_get_alpha>
53001344:	02a02021 	move	a0,s5
53001348:	02a02021 	move	a0,s5
5300134c:	2405004d 	li	a1,77
53001350:	0cc00fdd 	jal	53003f74 <gui_dc_set_alpha>
53001354:	0040b021 	move	s6,v0
53001358:	3c199249 	lui	t9,0x9249
5300135c:	0012c042 	srl	t8,s2,0x1
53001360:	37302493 	ori	s0,t9,0x2493
53001364:	03100019 	multu	t8,s0
53001368:	3c0b5300 	lui	t3,0x5300
5300136c:	00007810 	mfhi	t7
53001370:	8227000a 	lb	a3,10(s1)
53001374:	000f7082 	srl	t6,t7,0x2
53001378:	000e68c0 	sll	t5,t6,0x3
5300137c:	01ae6023 	subu	t4,t5,t6
53001380:	000c1040 	sll	v0,t4,0x1
53001384:	02421823 	subu	v1,s2,v0
53001388:	8228000c 	lb	t0,12(s1)
5300138c:	000328c0 	sll	a1,v1,0x3
53001390:	25665234 	addiu	a2,t3,21044
53001394:	9224000b 	lbu	a0,11(s1)
53001398:	00a65021 	addu	t2,a1,a2
5300139c:	923f0009 	lbu	ra,9(s1)
530013a0:	8d450000 	lw	a1,0(t2)
530013a4:	0007ca00 	sll	t9,a3,0x8
530013a8:	00084a00 	sll	t1,t0,0x8
530013ac:	8d460004 	lw	a2,4(t2)
530013b0:	01249025 	or	s2,t1,a0
530013b4:	033f3825 	or	a3,t9,ra
530013b8:	02a02021 	move	a0,s5
530013bc:	0cc001a5 	jal	53000694 <_draw_pic>
530013c0:	afb20010 	sw	s2,16(sp)
530013c4:	02a02021 	move	a0,s5
530013c8:	0cc00fdd 	jal	53003f74 <gui_dc_set_alpha>
530013cc:	02c02821 	move	a1,s6
530013d0:	1000ff07 	b	53000ff0 <_draw_app_icon+0x310>
530013d4:	8e8c0004 	lw	t4,4(s4)
530013d8:	8e540030 	lw	s4,48(s2)
530013dc:	8e8f0004 	lw	t7,4(s4)
530013e0:	31ee0003 	andi	t6,t7,0x3
530013e4:	55c0ff80 	bnezl	t6,530011e8 <_draw_app_icon+0x508>
530013e8:	8e460004 	lw	a2,4(s2)
530013ec:	8e490004 	lw	t1,4(s2)
530013f0:	3c195300 	lui	t9,0x5300
530013f4:	25280003 	addiu	t0,t1,3
530013f8:	292a0000 	slti	t2,t1,0
530013fc:	012a400a 	movz	t0,t1,t2
53001400:	00083883 	sra	a3,t0,0x2
53001404:	00072080 	sll	a0,a3,0x2
53001408:	0124f823 	subu	ra,t1,a0
5300140c:	001f88c0 	sll	s1,ra,0x3
53001410:	273852a8 	addiu	t8,t9,21160
53001414:	0238b021 	addu	s6,s1,t8
53001418:	8ed10040 	lw	s1,64(s6)
5300141c:	1000fed3 	b	53000f6c <_draw_app_icon+0x28c>
53001420:	24160001 	li	s6,1
53001424:	3c0c5300 	lui	t4,0x5300
53001428:	25d60003 	addiu	s6,t6,3
5300142c:	29d80000 	slti	t8,t6,0
53001430:	01d8b00a 	movz	s6,t6,t8
53001434:	00168883 	sra	s1,s6,0x2
53001438:	00117880 	sll	t7,s1,0x2
5300143c:	01cf6823 	subu	t5,t6,t7
53001440:	000d80c0 	sll	s0,t5,0x3
53001444:	258252a8 	addiu	v0,t4,21160
53001448:	02025821 	addu	t3,s0,v0
5300144c:	8d710020 	lw	s1,32(t3)
53001450:	1000fe59 	b	53000db8 <_draw_app_icon+0xd8>
53001454:	24160001 	li	s6,1
53001458:	3c0f5300 	lui	t7,0x5300
5300145c:	263f0003 	addiu	ra,s1,3
53001460:	2a290000 	slti	t1,s1,0
53001464:	0229f80a 	movz	ra,s1,t1
53001468:	001fc883 	sra	t9,ra,0x2
5300146c:	0019c080 	sll	t8,t9,0x2
53001470:	0238b023 	subu	s6,s1,t8
53001474:	001668c0 	sll	t5,s6,0x3
53001478:	25ee52a8 	addiu	t6,t7,21160
5300147c:	01ae6021 	addu	t4,t5,t6
53001480:	8d910020 	lw	s1,32(t4)
53001484:	1000feb9 	b	53000f6c <_draw_app_icon+0x28c>
53001488:	24160001 	li	s6,1

5300148c <show_desktop_bg>:
5300148c:	27bdffe0 	addiu	sp,sp,-32
53001490:	afbf0018 	sw	ra,24(sp)
53001494:	3c025300 	lui	v0,0x5300
53001498:	8c4551a8 	lw	a1,20904(v0)
5300149c:	0cc00fd7 	jal	53003f5c <gui_dc_get>
530014a0:	8ca40034 	lw	a0,52(a1)
530014a4:	3c0c5300 	lui	t4,0x5300
530014a8:	8d8551a0 	lw	a1,20896(t4)
530014ac:	258451a0 	addiu	a0,t4,20896
530014b0:	80a6000c 	lb	a2,12(a1)
530014b4:	80ab000a 	lb	t3,10(a1)
530014b8:	90a90009 	lbu	t1,9(a1)
530014bc:	90a8000b 	lbu	t0,11(a1)
530014c0:	00065200 	sll	t2,a2,0x8
530014c4:	000b3a00 	sll	a3,t3,0x8
530014c8:	8c860004 	lw	a2,4(a0)
530014cc:	01481825 	or	v1,t2,t0
530014d0:	00e93825 	or	a3,a3,t1
530014d4:	00402021 	move	a0,v0
530014d8:	0cc001a5 	jal	53000694 <_draw_pic>
530014dc:	afa30010 	sw	v1,16(sp)
530014e0:	8fbf0018 	lw	ra,24(sp)
530014e4:	03e00008 	jr	ra
530014e8:	27bd0020 	addiu	sp,sp,32

530014ec <show_next_desktop>:
530014ec:	27bdffe0 	addiu	sp,sp,-32
530014f0:	afb10014 	sw	s1,20(sp)
530014f4:	afb00010 	sw	s0,16(sp)
530014f8:	afbf0018 	sw	ra,24(sp)
530014fc:	00808821 	move	s1,a0
53001500:	00008021 	move	s0,zero
53001504:	0cc00523 	jal	5300148c <show_desktop_bg>
53001508:	00000000 	nop
5300150c:	02002021 	move	a0,s0
53001510:	0cc00338 	jal	53000ce0 <_draw_app_icon>
53001514:	02202821 	move	a1,s1
53001518:	02002021 	move	a0,s0
5300151c:	02202821 	move	a1,s1
53001520:	0cc001b5 	jal	530006d4 <_draw_app_name>
53001524:	26100001 	addiu	s0,s0,1
53001528:	0cc00fc5 	jal	53003f14 <gui_screen_update>
5300152c:	00000000 	nop
53001530:	2e020004 	sltiu	v0,s0,4
53001534:	1440fff3 	bnez	v0,53001504 <show_next_desktop+0x18>
53001538:	8fbf0018 	lw	ra,24(sp)
5300153c:	8fb10014 	lw	s1,20(sp)
53001540:	8fb00010 	lw	s0,16(sp)
53001544:	03e00008 	jr	ra
53001548:	27bd0020 	addiu	sp,sp,32

5300154c <show_child_desktop>:
5300154c:	03e00008 	jr	ra
53001550:	00000000 	nop

53001554 <show_current_desktop>:
53001554:	27bdffe8 	addiu	sp,sp,-24
53001558:	afb00010 	sw	s0,16(sp)
5300155c:	afbf0014 	sw	ra,20(sp)
53001560:	0cc00523 	jal	5300148c <show_desktop_bg>
53001564:	00808021 	move	s0,a0
53001568:	02002821 	move	a1,s0
5300156c:	0cc00338 	jal	53000ce0 <_draw_app_icon>
53001570:	24040003 	li	a0,3
53001574:	02002821 	move	a1,s0
53001578:	8fbf0014 	lw	ra,20(sp)
5300157c:	8fb00010 	lw	s0,16(sp)
53001580:	24040003 	li	a0,3
53001584:	08c001b5 	j	530006d4 <_draw_app_name>
53001588:	27bd0018 	addiu	sp,sp,24

5300158c <desktop_api_init>:
5300158c:	3c055300 	lui	a1,0x5300
53001590:	27bdffe8 	addiu	sp,sp,-24
53001594:	24a5400c 	addiu	a1,a1,16396
53001598:	afbf0010 	sw	ra,16(sp)
5300159c:	0cc00fe3 	jal	53003f8c <api_install>
530015a0:	24040013 	li	a0,19
530015a4:	8fbf0010 	lw	ra,16(sp)
530015a8:	00001021 	move	v0,zero
530015ac:	03e00008 	jr	ra
530015b0:	27bd0018 	addiu	sp,sp,24

530015b4 <desktop_api_exit>:
530015b4:	08c00fe6 	j	53003f98 <api_uninstall>
530015b8:	24040013 	li	a0,19

530015bc <_create_menuview_widget>:
530015bc:	27bdffb0 	addiu	sp,sp,-80
530015c0:	afb20048 	sw	s2,72(sp)
530015c4:	afb10044 	sw	s1,68(sp)
530015c8:	afbf004c 	sw	ra,76(sp)
530015cc:	afb00040 	sw	s0,64(sp)
530015d0:	3c125300 	lui	s2,0x5300
530015d4:	3c055300 	lui	a1,0x5300
530015d8:	8e5051a8 	lw	s0,20904(s2)
530015dc:	24a51ae8 	addiu	a1,a1,6888
530015e0:	24040002 	li	a0,2
530015e4:	afa00018 	sw	zero,24(sp)
530015e8:	afa0001c 	sw	zero,28(sp)
530015ec:	afa00020 	sw	zero,32(sp)
530015f0:	afa00024 	sw	zero,36(sp)
530015f4:	afa00028 	sw	zero,40(sp)
530015f8:	afa0002c 	sw	zero,44(sp)
530015fc:	afa00030 	sw	zero,48(sp)
53001600:	afa00034 	sw	zero,52(sp)
53001604:	0cc00bac 	jal	53002eb0 <menuview_create>
53001608:	afa00038 	sw	zero,56(sp)
5300160c:	8e5151a8 	lw	s1,20904(s2)
53001610:	ae020028 	sw	v0,40(s0)
53001614:	8e220028 	lw	v0,40(s1)
53001618:	14400018 	bnez	v0,5300167c <_create_menuview_widget+0xc0>
5300161c:	00000000 	nop
53001620:	0cc00cb0 	jal	530032c0 <__errno>
53001624:	00000000 	nop
53001628:	0cc00cad 	jal	530032b4 <getpid>
5300162c:	00408821 	move	s1,v0
53001630:	3c045300 	lui	a0,0x5300
53001634:	3c075300 	lui	a3,0x5300
53001638:	8e250000 	lw	a1,0(s1)
5300163c:	248444a8 	addiu	a0,a0,17576
53001640:	00403021 	move	a2,v0
53001644:	24e744ec 	addiu	a3,a3,17644
53001648:	240300c6 	li	v1,198
5300164c:	3c0a5300 	lui	t2,0x5300
53001650:	25494018 	addiu	t1,t2,16408
53001654:	afa30010 	sw	v1,16(sp)
53001658:	0cc00fe9 	jal	53003fa4 <printf>
5300165c:	afa90014 	sw	t1,20(sp)
53001660:	8fbf004c 	lw	ra,76(sp)
53001664:	8fb20048 	lw	s2,72(sp)
53001668:	8fb10044 	lw	s1,68(sp)
5300166c:	8fb00040 	lw	s0,64(sp)
53001670:	00001021 	move	v0,zero
53001674:	03e00008 	jr	ra
53001678:	27bd0050 	addiu	sp,sp,80
5300167c:	0cc00ba0 	jal	53002e80 <menu_create>
53001680:	00000000 	nop
53001684:	8e4351a8 	lw	v1,20904(s2)
53001688:	ae220024 	sw	v0,36(s1)
5300168c:	8c660024 	lw	a2,36(v1)
53001690:	10c00020 	beqz	a2,53001714 <_create_menuview_widget+0x158>
53001694:	00000000 	nop
53001698:	8c700040 	lw	s0,64(v1)
5300169c:	8e0c0020 	lw	t4,32(s0)
530016a0:	8c640024 	lw	a0,36(v1)
530016a4:	27a50018 	addiu	a1,sp,24
530016a8:	0cc00ba9 	jal	53002ea4 <menu_append_item>
530016ac:	afac002c 	sw	t4,44(sp)
530016b0:	8e4351a8 	lw	v1,20904(s2)
530016b4:	8e100030 	lw	s0,48(s0)
530016b8:	8c6b0040 	lw	t3,64(v1)
530016bc:	5570fff8 	bnel	t3,s0,530016a0 <_create_menuview_widget+0xe4>
530016c0:	8e0c0020 	lw	t4,32(s0)
530016c4:	8c650024 	lw	a1,36(v1)
530016c8:	0cc00bbb 	jal	53002eec <menuview_set_menu>
530016cc:	8c640028 	lw	a0,40(v1)
530016d0:	8e4f51a8 	lw	t7,20904(s2)
530016d4:	8dee0048 	lw	t6,72(t7)
530016d8:	8de40024 	lw	a0,36(t7)
530016dc:	0cc00ba6 	jal	53002e98 <menu_set_cur_index>
530016e0:	8dc50004 	lw	a1,4(t6)
530016e4:	0cc00523 	jal	5300148c <show_desktop_bg>
530016e8:	00000000 	nop
530016ec:	8e4d51a8 	lw	t5,20904(s2)
530016f0:	0cc00bb2 	jal	53002ec8 <menuview_paint>
530016f4:	8da40028 	lw	a0,40(t5)
530016f8:	8fbf004c 	lw	ra,76(sp)
530016fc:	8fb20048 	lw	s2,72(sp)
53001700:	8fb10044 	lw	s1,68(sp)
53001704:	8fb00040 	lw	s0,64(sp)
53001708:	24020001 	li	v0,1
5300170c:	03e00008 	jr	ra
53001710:	27bd0050 	addiu	sp,sp,80
53001714:	0cc00cb0 	jal	530032c0 <__errno>
53001718:	00000000 	nop
5300171c:	0cc00cad 	jal	530032b4 <getpid>
53001720:	00409021 	move	s2,v0
53001724:	3c035300 	lui	v1,0x5300
53001728:	3c085300 	lui	t0,0x5300
5300172c:	8e450000 	lw	a1,0(s2)
53001730:	246744ec 	addiu	a3,v1,17644
53001734:	25044508 	addiu	a0,t0,17672
53001738:	00403021 	move	a2,v0
5300173c:	1000ffc3 	b	5300164c <_create_menuview_widget+0x90>
53001740:	240300ce 	li	v1,206

53001744 <_delete_menuview_widget>:
53001744:	27bdffe8 	addiu	sp,sp,-24
53001748:	afb00010 	sw	s0,16(sp)
5300174c:	afbf0014 	sw	ra,20(sp)
53001750:	3c105300 	lui	s0,0x5300
53001754:	8e0351a8 	lw	v1,20904(s0)
53001758:	8c620024 	lw	v0,36(v1)
5300175c:	14400009 	bnez	v0,53001784 <_delete_menuview_widget+0x40>
53001760:	00402021 	move	a0,v0
53001764:	8c650028 	lw	a1,40(v1)
53001768:	14a0000d 	bnez	a1,530017a0 <_delete_menuview_widget+0x5c>
5300176c:	00a02021 	move	a0,a1
53001770:	8fbf0014 	lw	ra,20(sp)
53001774:	8fb00010 	lw	s0,16(sp)
53001778:	24020001 	li	v0,1
5300177c:	03e00008 	jr	ra
53001780:	27bd0018 	addiu	sp,sp,24
53001784:	0cc00ba3 	jal	53002e8c <menu_delete>
53001788:	00000000 	nop
5300178c:	8e0351a8 	lw	v1,20904(s0)
53001790:	8c650028 	lw	a1,40(v1)
53001794:	ac600024 	sw	zero,36(v1)
53001798:	10a0fff5 	beqz	a1,53001770 <_delete_menuview_widget+0x2c>
5300179c:	00a02021 	move	a0,a1
530017a0:	0cc00baf 	jal	53002ebc <menuview_delete>
530017a4:	00000000 	nop
530017a8:	8e0351a8 	lw	v1,20904(s0)
530017ac:	8fbf0014 	lw	ra,20(sp)
530017b0:	8fb00010 	lw	s0,16(sp)
530017b4:	24020001 	li	v0,1
530017b8:	27bd0018 	addiu	sp,sp,24
530017bc:	03e00008 	jr	ra
530017c0:	ac600028 	sw	zero,40(v1)

530017c4 <_scene_desktop_quit>:
530017c4:	27bdffe8 	addiu	sp,sp,-24
530017c8:	24060001 	li	a2,1
530017cc:	3c055300 	lui	a1,0x5300
530017d0:	afbf0010 	sw	ra,16(sp)
530017d4:	0cc00c25 	jal	53003094 <exit_msg_loop>
530017d8:	aca651ac 	sw	a2,20908(a1)
530017dc:	3c025300 	lui	v0,0x5300
530017e0:	8c4451a8 	lw	a0,20904(v0)
530017e4:	8fbf0010 	lw	ra,16(sp)
530017e8:	24030002 	li	v1,2
530017ec:	27bd0018 	addiu	sp,sp,24
530017f0:	03e00008 	jr	ra
530017f4:	ac830050 	sw	v1,80(a0)

530017f8 <_msgbox_cb>:
530017f8:	24a2fffe 	addiu	v0,a1,-2
530017fc:	27bdffe8 	addiu	sp,sp,-24
53001800:	2c450005 	sltiu	a1,v0,5
53001804:	14a00004 	bnez	a1,53001818 <_msgbox_cb+0x20>
53001808:	afbf0010 	sw	ra,16(sp)
5300180c:	8fbf0010 	lw	ra,16(sp)
53001810:	03e00008 	jr	ra
53001814:	27bd0018 	addiu	sp,sp,24
53001818:	24080001 	li	t0,1
5300181c:	3c075300 	lui	a3,0x5300
53001820:	0cc00c25 	jal	53003094 <exit_msg_loop>
53001824:	ace851ac 	sw	t0,20908(a3)
53001828:	3c065300 	lui	a2,0x5300
5300182c:	8cc451a8 	lw	a0,20904(a2)
53001830:	8fbf0010 	lw	ra,16(sp)
53001834:	24030003 	li	v1,3
53001838:	27bd0018 	addiu	sp,sp,24
5300183c:	03e00008 	jr	ra
53001840:	ac830050 	sw	v1,80(a0)

53001844 <_create_headbar>:
53001844:	27bdffd0 	addiu	sp,sp,-48
53001848:	afb10024 	sw	s1,36(sp)
5300184c:	afbf0028 	sw	ra,40(sp)
53001850:	afb00020 	sw	s0,32(sp)
53001854:	3c115300 	lui	s1,0x5300
53001858:	afa0001c 	sw	zero,28(sp)
5300185c:	1480001a 	bnez	a0,530018c8 <_create_headbar+0x84>
53001860:	afa40018 	sw	a0,24(sp)
53001864:	8e3051a8 	lw	s0,20904(s1)
53001868:	8e030054 	lw	v1,84(s0)
5300186c:	10600018 	beqz	v1,530018d0 <_create_headbar+0x8c>
53001870:	3c085300 	lui	t0,0x5300
53001874:	90650013 	lbu	a1,19(v1)
53001878:	90630012 	lbu	v1,18(v1)
5300187c:	00052200 	sll	a0,a1,0x8
53001880:	00831025 	or	v0,a0,v1
53001884:	25051948 	addiu	a1,t0,6472
53001888:	27a40018 	addiu	a0,sp,24
5300188c:	0cc00b9a 	jal	53002e68 <headbar_create>
53001890:	a7a2001c 	sh	v0,28(sp)
53001894:	8e2751a8 	lw	a3,20904(s1)
53001898:	ae020020 	sw	v0,32(s0)
5300189c:	8ce60020 	lw	a2,32(a3)
530018a0:	10c00013 	beqz	a2,530018f0 <_create_headbar+0xac>
530018a4:	00c02021 	move	a0,a2
530018a8:	0cc00b97 	jal	53002e5c <headbar_paint>
530018ac:	00000000 	nop
530018b0:	8fbf0028 	lw	ra,40(sp)
530018b4:	8fb10024 	lw	s1,36(sp)
530018b8:	8fb00020 	lw	s0,32(sp)
530018bc:	24020001 	li	v0,1
530018c0:	03e00008 	jr	ra
530018c4:	27bd0030 	addiu	sp,sp,48
530018c8:	8e3051a8 	lw	s0,20904(s1)
530018cc:	3c085300 	lui	t0,0x5300
530018d0:	27a40018 	addiu	a0,sp,24
530018d4:	0cc00b9a 	jal	53002e68 <headbar_create>
530018d8:	25051948 	addiu	a1,t0,6472
530018dc:	8e2751a8 	lw	a3,20904(s1)
530018e0:	ae020020 	sw	v0,32(s0)
530018e4:	8ce60020 	lw	a2,32(a3)
530018e8:	14c0ffef 	bnez	a2,530018a8 <_create_headbar+0x64>
530018ec:	00c02021 	move	a0,a2
530018f0:	0cc00cb0 	jal	530032c0 <__errno>
530018f4:	00000000 	nop
530018f8:	0cc00cad 	jal	530032b4 <getpid>
530018fc:	00408021 	move	s0,v0
53001900:	8e050000 	lw	a1,0(s0)
53001904:	3c0d5300 	lui	t5,0x5300
53001908:	3c0c5300 	lui	t4,0x5300
5300190c:	3c0a5300 	lui	t2,0x5300
53001910:	240b0140 	li	t3,320
53001914:	25494030 	addiu	t1,t2,16432
53001918:	25a44540 	addiu	a0,t5,17728
5300191c:	00403021 	move	a2,v0
53001920:	258744ec 	addiu	a3,t4,17644
53001924:	afab0010 	sw	t3,16(sp)
53001928:	0cc00fe9 	jal	53003fa4 <printf>
5300192c:	afa90014 	sw	t1,20(sp)
53001930:	8fbf0028 	lw	ra,40(sp)
53001934:	8fb10024 	lw	s1,36(sp)
53001938:	8fb00020 	lw	s0,32(sp)
5300193c:	00001021 	move	v0,zero
53001940:	03e00008 	jr	ra
53001944:	27bd0030 	addiu	sp,sp,48

53001948 <_headbar_callback>:
53001948:	03e00008 	jr	ra
5300194c:	00000000 	nop

53001950 <_delete_headbar>:
53001950:	27bdffe8 	addiu	sp,sp,-24
53001954:	afb00010 	sw	s0,16(sp)
53001958:	afbf0014 	sw	ra,20(sp)
5300195c:	3c105300 	lui	s0,0x5300
53001960:	8e0251a8 	lw	v0,20904(s0)
53001964:	8c430020 	lw	v1,32(v0)
53001968:	14600005 	bnez	v1,53001980 <_delete_headbar+0x30>
5300196c:	00602021 	move	a0,v1
53001970:	8fbf0014 	lw	ra,20(sp)
53001974:	8fb00010 	lw	s0,16(sp)
53001978:	03e00008 	jr	ra
5300197c:	27bd0018 	addiu	sp,sp,24
53001980:	0cc00b9d 	jal	53002e74 <headbar_delete>
53001984:	00000000 	nop
53001988:	8e0451a8 	lw	a0,20904(s0)
5300198c:	8fbf0014 	lw	ra,20(sp)
53001990:	8fb00010 	lw	s0,16(sp)
53001994:	27bd0018 	addiu	sp,sp,24
53001998:	03e00008 	jr	ra
5300199c:	ac800020 	sw	zero,32(a0)

530019a0 <_volumebar_callback>:
530019a0:	27bdffe8 	addiu	sp,sp,-24
530019a4:	24020001 	li	v0,1
530019a8:	afb00010 	sw	s0,16(sp)
530019ac:	afbf0014 	sw	ra,20(sp)
530019b0:	10a20005 	beq	a1,v0,530019c8 <_volumebar_callback+0x28>
530019b4:	3c105300 	lui	s0,0x5300
530019b8:	8fbf0014 	lw	ra,20(sp)
530019bc:	8fb00010 	lw	s0,16(sp)
530019c0:	03e00008 	jr	ra
530019c4:	27bd0018 	addiu	sp,sp,24
530019c8:	8e0451a8 	lw	a0,20904(s0)
530019cc:	8c83002c 	lw	v1,44(a0)
530019d0:	1060fff9 	beqz	v1,530019b8 <_volumebar_callback+0x18>
530019d4:	00602021 	move	a0,v1
530019d8:	0cc00bd6 	jal	53002f58 <volumebar_delete>
530019dc:	00000000 	nop
530019e0:	8e0551a8 	lw	a1,20904(s0)
530019e4:	8fbf0014 	lw	ra,20(sp)
530019e8:	8fb00010 	lw	s0,16(sp)
530019ec:	27bd0018 	addiu	sp,sp,24
530019f0:	03e00008 	jr	ra
530019f4:	aca0002c 	sw	zero,44(a1)

530019f8 <_scene_desktop_paint>:
530019f8:	27bdffe0 	addiu	sp,sp,-32
530019fc:	afb10014 	sw	s1,20(sp)
53001a00:	afb00010 	sw	s0,16(sp)
53001a04:	afbf0018 	sw	ra,24(sp)
53001a08:	3c115300 	lui	s1,0x5300
53001a0c:	8e2551a8 	lw	a1,20904(s1)
53001a10:	8ca20040 	lw	v0,64(a1)
53001a14:	8c430034 	lw	v1,52(v0)
53001a18:	1060000d 	beqz	v1,53001a50 <_scene_desktop_paint+0x58>
53001a1c:	00808021 	move	s0,a0
53001a20:	8ca40028 	lw	a0,40(a1)
53001a24:	1080001a 	beqz	a0,53001a90 <_scene_desktop_paint+0x98>
53001a28:	00000000 	nop
53001a2c:	0cc00523 	jal	5300148c <show_desktop_bg>
53001a30:	00000000 	nop
53001a34:	8e2551a8 	lw	a1,20904(s1)
53001a38:	8fbf0018 	lw	ra,24(sp)
53001a3c:	8ca40028 	lw	a0,40(a1)
53001a40:	8fb10014 	lw	s1,20(sp)
53001a44:	8fb00010 	lw	s0,16(sp)
53001a48:	08c00bb2 	j	53002ec8 <menuview_paint>
53001a4c:	27bd0020 	addiu	sp,sp,32
53001a50:	8c83004c 	lw	v1,76(a0)
53001a54:	2c670003 	sltiu	a3,v1,3
53001a58:	10e00007 	beqz	a3,53001a78 <_scene_desktop_paint+0x80>
53001a5c:	24080003 	li	t0,3
53001a60:	14600019 	bnez	v1,53001ac8 <_scene_desktop_paint+0xd0>
53001a64:	8fbf0018 	lw	ra,24(sp)
53001a68:	8fb10014 	lw	s1,20(sp)
53001a6c:	8fb00010 	lw	s0,16(sp)
53001a70:	08c00555 	j	53001554 <show_current_desktop>
53001a74:	27bd0020 	addiu	sp,sp,32
53001a78:	10680017 	beq	v1,t0,53001ad8 <_scene_desktop_paint+0xe0>
53001a7c:	8fbf0018 	lw	ra,24(sp)
53001a80:	8fb10014 	lw	s1,20(sp)
53001a84:	8fb00010 	lw	s0,16(sp)
53001a88:	03e00008 	jr	ra
53001a8c:	27bd0020 	addiu	sp,sp,32
53001a90:	0cc00654 	jal	53001950 <_delete_headbar>
53001a94:	00000000 	nop
53001a98:	8e060040 	lw	a2,64(s0)
53001a9c:	8e3051a8 	lw	s0,20904(s1)
53001aa0:	0cc00187 	jal	5300061c <desktop_get_headbar_appicon>
53001aa4:	8cc40034 	lw	a0,52(a2)
53001aa8:	ae020054 	sw	v0,84(s0)
53001aac:	0cc00611 	jal	53001844 <_create_headbar>
53001ab0:	00002021 	move	a0,zero
53001ab4:	8fbf0018 	lw	ra,24(sp)
53001ab8:	8fb10014 	lw	s1,20(sp)
53001abc:	8fb00010 	lw	s0,16(sp)
53001ac0:	08c0056f 	j	530015bc <_create_menuview_widget>
53001ac4:	27bd0020 	addiu	sp,sp,32
53001ac8:	8fb10014 	lw	s1,20(sp)
53001acc:	8fb00010 	lw	s0,16(sp)
53001ad0:	08c0053b 	j	530014ec <show_next_desktop>
53001ad4:	27bd0020 	addiu	sp,sp,32
53001ad8:	8fb10014 	lw	s1,20(sp)
53001adc:	8fb00010 	lw	s0,16(sp)
53001ae0:	08c00553 	j	5300154c <show_child_desktop>
53001ae4:	27bd0020 	addiu	sp,sp,32

53001ae8 <_menuview_widget_callback>:
53001ae8:	27bdffe0 	addiu	sp,sp,-32
53001aec:	24020001 	li	v0,1
53001af0:	afbf001c 	sw	ra,28(sp)
53001af4:	10a20014 	beq	a1,v0,53001b48 <_menuview_widget_callback+0x60>
53001af8:	afb00018 	sw	s0,24(sp)
53001afc:	10a0000a 	beqz	a1,53001b28 <_menuview_widget_callback+0x40>
53001b00:	3c065300 	lui	a2,0x5300
53001b04:	24030002 	li	v1,2
53001b08:	10a30039 	beq	a1,v1,53001bf0 <_menuview_widget_callback+0x108>
53001b0c:	24040003 	li	a0,3
53001b10:	10a40013 	beq	a1,a0,53001b60 <_menuview_widget_callback+0x78>
53001b14:	3c105300 	lui	s0,0x5300
53001b18:	8fbf001c 	lw	ra,28(sp)
53001b1c:	8fb00018 	lw	s0,24(sp)
53001b20:	03e00008 	jr	ra
53001b24:	27bd0020 	addiu	sp,sp,32
53001b28:	8cc451a8 	lw	a0,20904(a2)
53001b2c:	8c850048 	lw	a1,72(a0)
53001b30:	8ca2002c 	lw	v0,44(a1)
53001b34:	ac820048 	sw	v0,72(a0)
53001b38:	8fbf001c 	lw	ra,28(sp)
53001b3c:	8fb00018 	lw	s0,24(sp)
53001b40:	03e00008 	jr	ra
53001b44:	27bd0020 	addiu	sp,sp,32
53001b48:	3c085300 	lui	t0,0x5300
53001b4c:	8d0451a8 	lw	a0,20904(t0)
53001b50:	8c870048 	lw	a3,72(a0)
53001b54:	8ce20030 	lw	v0,48(a3)
53001b58:	1000fff7 	b	53001b38 <_menuview_widget_callback+0x50>
53001b5c:	ac820048 	sw	v0,72(a0)
53001b60:	8e0b51a8 	lw	t3,20904(s0)
53001b64:	8d6a0040 	lw	t2,64(t3)
53001b68:	8d490034 	lw	t1,52(t2)
53001b6c:	1120ffeb 	beqz	t1,53001b1c <_menuview_widget_callback+0x34>
53001b70:	8fbf001c 	lw	ra,28(sp)
53001b74:	27a60010 	addiu	a2,sp,16
53001b78:	24050001 	li	a1,1
53001b7c:	0cc00be8 	jal	53002fa0 <fusion_get_config>
53001b80:	00002021 	move	a0,zero
53001b84:	0cc00beb 	jal	53002fac <fusion_set_effect>
53001b88:	27a40010 	addiu	a0,sp,16
53001b8c:	0cc00bdf 	jal	53002f7c <fusion_set_first_frame>
53001b90:	00002021 	move	a0,zero
53001b94:	8e0d51a8 	lw	t5,20904(s0)
53001b98:	8db80040 	lw	t8,64(t5)
53001b9c:	8daf0044 	lw	t7,68(t5)
53001ba0:	8f0e0034 	lw	t6,52(t8)
53001ba4:	adaf0040 	sw	t7,64(t5)
53001ba8:	0cc005d1 	jal	53001744 <_delete_menuview_widget>
53001bac:	adae0048 	sw	t6,72(t5)
53001bb0:	0cc00654 	jal	53001950 <_delete_headbar>
53001bb4:	00000000 	nop
53001bb8:	0cc00611 	jal	53001844 <_create_headbar>
53001bbc:	24040001 	li	a0,1
53001bc0:	8e0c51a8 	lw	t4,20904(s0)
53001bc4:	01802021 	move	a0,t4
53001bc8:	0cc0067e 	jal	530019f8 <_scene_desktop_paint>
53001bcc:	ad80004c 	sw	zero,76(t4)
53001bd0:	0cc00be2 	jal	53002f88 <fusion_set_last_frame>
53001bd4:	00002021 	move	a0,zero
53001bd8:	0cc00be5 	jal	53002f94 <fusion_display>
53001bdc:	00002021 	move	a0,zero
53001be0:	8fbf001c 	lw	ra,28(sp)
53001be4:	8fb00018 	lw	s0,24(sp)
53001be8:	03e00008 	jr	ra
53001bec:	27bd0020 	addiu	sp,sp,32
53001bf0:	0cc005f1 	jal	530017c4 <_scene_desktop_quit>
53001bf4:	00000000 	nop
53001bf8:	8fbf001c 	lw	ra,28(sp)
53001bfc:	8fb00018 	lw	s0,24(sp)
53001c00:	03e00008 	jr	ra
53001c04:	27bd0020 	addiu	sp,sp,32

53001c08 <_scene_desktop_open_theme>:
53001c08:	27bdf7d0 	addiu	sp,sp,-2096
53001c0c:	afbf082c 	sw	ra,2092(sp)
53001c10:	afb10824 	sw	s1,2084(sp)
53001c14:	afb00820 	sw	s0,2080(sp)
53001c18:	0cc00c64 	jal	53003190 <sty_get_view_rotation>
53001c1c:	afb20828 	sw	s2,2088(sp)
53001c20:	00408821 	move	s1,v0
53001c24:	0cc00c67 	jal	5300319c <sty_set_screen_rotation>
53001c28:	00402021 	move	a0,v0
53001c2c:	3a2400b4 	xori	a0,s1,0xb4
53001c30:	2c830001 	sltiu	v1,a0,1
53001c34:	2e220001 	sltiu	v0,s1,1
53001c38:	00438025 	or	s0,v0,v1
53001c3c:	1200002c 	beqz	s0,53001cf0 <_scene_desktop_open_theme+0xe8>
53001c40:	3c125300 	lui	s2,0x5300
53001c44:	8e5151a8 	lw	s1,20904(s2)
53001c48:	3c065b65 	lui	a2,0x5b65
53001c4c:	8e240014 	lw	a0,20(s1)
53001c50:	0cc00bf1 	jal	53002fc4 <load_scene>
53001c54:	34c592b2 	ori	a1,a2,0x92b2
53001c58:	8e5051a8 	lw	s0,20904(s2)
53001c5c:	3c05e9dc 	lui	a1,0xe9dc
53001c60:	8e040010 	lw	a0,16(s0)
53001c64:	ae22001c 	sw	v0,28(s1)
53001c68:	34a58b71 	ori	a1,a1,0x8b71
53001c6c:	0cc00bf1 	jal	53002fc4 <load_scene>
53001c70:	3c115300 	lui	s1,0x5300
53001c74:	ae020018 	sw	v0,24(s0)
53001c78:	8e4251a8 	lw	v0,20904(s2)
53001c7c:	8c44001c 	lw	a0,28(v0)
53001c80:	10800004 	beqz	a0,53001c94 <_scene_desktop_open_theme+0x8c>
53001c84:	00000000 	nop
53001c88:	8c490018 	lw	t1,24(v0)
53001c8c:	15200023 	bnez	t1,53001d1c <_scene_desktop_open_theme+0x114>
53001c90:	00000000 	nop
53001c94:	0cc00cb0 	jal	530032c0 <__errno>
53001c98:	00000000 	nop
53001c9c:	0cc00cad 	jal	530032b4 <getpid>
53001ca0:	00409021 	move	s2,v0
53001ca4:	8e450000 	lw	a1,0(s2)
53001ca8:	3c0e5300 	lui	t6,0x5300
53001cac:	3c0d5300 	lui	t5,0x5300
53001cb0:	3c0b5300 	lui	t3,0x5300
53001cb4:	240c021d 	li	t4,541
53001cb8:	256a4040 	addiu	t2,t3,16448
53001cbc:	25c4457c 	addiu	a0,t6,17788
53001cc0:	00403021 	move	a2,v0
53001cc4:	25a744ec 	addiu	a3,t5,17644
53001cc8:	afac0010 	sw	t4,16(sp)
53001ccc:	0cc00fe9 	jal	53003fa4 <printf>
53001cd0:	afaa0014 	sw	t2,20(sp)
53001cd4:	00001021 	move	v0,zero
53001cd8:	8fbf082c 	lw	ra,2092(sp)
53001cdc:	8fb20828 	lw	s2,2088(sp)
53001ce0:	8fb10824 	lw	s1,2084(sp)
53001ce4:	8fb00820 	lw	s0,2080(sp)
53001ce8:	03e00008 	jr	ra
53001cec:	27bd0830 	addiu	sp,sp,2096
53001cf0:	8e5151a8 	lw	s1,20904(s2)
53001cf4:	3c08220f 	lui	t0,0x220f
53001cf8:	8e240014 	lw	a0,20(s1)
53001cfc:	0cc00bf1 	jal	53002fc4 <load_scene>
53001d00:	3505bd5a 	ori	a1,t0,0xbd5a
53001d04:	8e5051a8 	lw	s0,20904(s2)
53001d08:	3c07f83f 	lui	a3,0xf83f
53001d0c:	8e040010 	lw	a0,16(s0)
53001d10:	34e5c037 	ori	a1,a3,0xc037
53001d14:	1000ffd5 	b	53001c6c <_scene_desktop_open_theme+0x64>
53001d18:	ae22001c 	sw	v0,28(s1)
53001d1c:	0cc00c4f 	jal	5300313c <sty_set_common_scene>
53001d20:	00000000 	nop
53001d24:	8e3951a8 	lw	t9,20904(s1)
53001d28:	0cc00c49 	jal	53003124 <sty_set_app_scene>
53001d2c:	8f240018 	lw	a0,24(t9)
53001d30:	0cc00c0a 	jal	53003028 <sys_get_common_theme_res_dir>
53001d34:	00000000 	nop
53001d38:	3c185300 	lui	t8,0x5300
53001d3c:	271045bc 	addiu	s0,t8,17852
53001d40:	3c0f5300 	lui	t7,0x5300
53001d44:	27a40020 	addiu	a0,sp,32
53001d48:	00403021 	move	a2,v0
53001d4c:	25e745c8 	addiu	a3,t7,17864
53001d50:	0cc00cbc 	jal	530032f0 <sprintf>
53001d54:	02002821 	move	a1,s0
53001d58:	0cc00c31 	jal	530030c4 <sty_open_common_pic_res>
53001d5c:	27a40020 	addiu	a0,sp,32
53001d60:	10400021 	beqz	v0,53001de8 <_scene_desktop_open_theme+0x1e0>
53001d64:	00000000 	nop
53001d68:	0cc00c6a 	jal	530031a8 <sys_get_app_theme_res_dir>
53001d6c:	00000000 	nop
53001d70:	27b20420 	addiu	s2,sp,1056
53001d74:	3c085300 	lui	t0,0x5300
53001d78:	02402021 	move	a0,s2
53001d7c:	02002821 	move	a1,s0
53001d80:	00403021 	move	a2,v0
53001d84:	0cc00cbc 	jal	530032f0 <sprintf>
53001d88:	250745d4 	addiu	a3,t0,17876
53001d8c:	0cc00c3d 	jal	530030f4 <sty_open_app_pic_res>
53001d90:	02402021 	move	a0,s2
53001d94:	54400028 	bnezl	v0,53001e38 <_scene_desktop_open_theme+0x230>
53001d98:	8e3251a8 	lw	s2,20904(s1)
53001d9c:	0cc00cb0 	jal	530032c0 <__errno>
53001da0:	00000000 	nop
53001da4:	0cc00cad 	jal	530032b4 <getpid>
53001da8:	00408021 	move	s0,v0
53001dac:	8e050000 	lw	a1,0(s0)
53001db0:	3c065300 	lui	a2,0x5300
53001db4:	3c0c5300 	lui	t4,0x5300
53001db8:	3c0a5300 	lui	t2,0x5300
53001dbc:	24c445e0 	addiu	a0,a2,17888
53001dc0:	240b0232 	li	t3,562
53001dc4:	25494040 	addiu	t1,t2,16448
53001dc8:	00403021 	move	a2,v0
53001dcc:	258744ec 	addiu	a3,t4,17644
53001dd0:	afab0010 	sw	t3,16(sp)
53001dd4:	afa90014 	sw	t1,20(sp)
53001dd8:	0cc00fe9 	jal	53003fa4 <printf>
53001ddc:	afb20018 	sw	s2,24(sp)
53001de0:	1000ffbd 	b	53001cd8 <_scene_desktop_open_theme+0xd0>
53001de4:	00001021 	move	v0,zero
53001de8:	0cc00cb0 	jal	530032c0 <__errno>
53001dec:	00000000 	nop
53001df0:	0cc00cad 	jal	530032b4 <getpid>
53001df4:	00408821 	move	s1,v0
53001df8:	00403021 	move	a2,v0
53001dfc:	8e250000 	lw	a1,0(s1)
53001e00:	3c045300 	lui	a0,0x5300
53001e04:	3c075300 	lui	a3,0x5300
53001e08:	3c025300 	lui	v0,0x5300
53001e0c:	2403022a 	li	v1,554
53001e10:	24504040 	addiu	s0,v0,16448
53001e14:	27bf0020 	addiu	ra,sp,32
53001e18:	248445e0 	addiu	a0,a0,17888
53001e1c:	afa30010 	sw	v1,16(sp)
53001e20:	afb00014 	sw	s0,20(sp)
53001e24:	afbf0018 	sw	ra,24(sp)
53001e28:	0cc00fe9 	jal	53003fa4 <printf>
53001e2c:	24e744ec 	addiu	a3,a3,17644
53001e30:	1000ffa9 	b	53001cd8 <_scene_desktop_open_theme+0xd0>
53001e34:	00001021 	move	v0,zero
53001e38:	3c050ff8 	lui	a1,0xff8
53001e3c:	8e440018 	lw	a0,24(s2)
53001e40:	0cc00bf9 	jal	53002fe4 <get_scene_child>
53001e44:	34a5f0fd 	ori	a1,a1,0xf0fd
53001e48:	ae420054 	sw	v0,84(s2)
53001e4c:	1000ffa2 	b	53001cd8 <_scene_desktop_open_theme+0xd0>
53001e50:	24020001 	li	v0,1

53001e54 <_scene_desktop_close_theme>:
53001e54:	27bdffe0 	addiu	sp,sp,-32
53001e58:	afbf001c 	sw	ra,28(sp)
53001e5c:	afb00018 	sw	s0,24(sp)
53001e60:	3c105300 	lui	s0,0x5300
53001e64:	8e0551a8 	lw	a1,20904(s0)
53001e68:	0cc00bf5 	jal	53002fd4 <free_scene>
53001e6c:	8ca4001c 	lw	a0,28(a1)
53001e70:	8e0351a8 	lw	v1,20904(s0)
53001e74:	8c640018 	lw	a0,24(v1)
53001e78:	0cc00bf5 	jal	53002fd4 <free_scene>
53001e7c:	ac60001c 	sw	zero,28(v1)
53001e80:	8e0251a8 	lw	v0,20904(s0)
53001e84:	0cc00c37 	jal	530030dc <sty_close_common_pic_res>
53001e88:	ac400018 	sw	zero,24(v0)
53001e8c:	14400017 	bnez	v0,53001eec <_scene_desktop_close_theme+0x98>
53001e90:	00000000 	nop
53001e94:	0cc00cb0 	jal	530032c0 <__errno>
53001e98:	00000000 	nop
53001e9c:	0cc00cad 	jal	530032b4 <getpid>
53001ea0:	00408021 	move	s0,v0
53001ea4:	3c045300 	lui	a0,0x5300
53001ea8:	3c075300 	lui	a3,0x5300
53001eac:	8e050000 	lw	a1,0(s0)
53001eb0:	24844614 	addiu	a0,a0,17940
53001eb4:	00403021 	move	a2,v0
53001eb8:	24e744ec 	addiu	a3,a3,17644
53001ebc:	24030245 	li	v1,581
53001ec0:	3c0a5300 	lui	t2,0x5300
53001ec4:	2549405c 	addiu	t1,t2,16476
53001ec8:	afa30010 	sw	v1,16(sp)
53001ecc:	0cc00fe9 	jal	53003fa4 <printf>
53001ed0:	afa90014 	sw	t1,20(sp)
53001ed4:	00001821 	move	v1,zero
53001ed8:	8fbf001c 	lw	ra,28(sp)
53001edc:	8fb00018 	lw	s0,24(sp)
53001ee0:	00601021 	move	v0,v1
53001ee4:	03e00008 	jr	ra
53001ee8:	27bd0020 	addiu	sp,sp,32
53001eec:	0cc00c43 	jal	5300310c <sty_close_app_pic_res>
53001ef0:	00000000 	nop
53001ef4:	1440fff8 	bnez	v0,53001ed8 <_scene_desktop_close_theme+0x84>
53001ef8:	24030001 	li	v1,1
53001efc:	0cc00cb0 	jal	530032c0 <__errno>
53001f00:	00000000 	nop
53001f04:	0cc00cad 	jal	530032b4 <getpid>
53001f08:	00408021 	move	s0,v0
53001f0c:	3c065300 	lui	a2,0x5300
53001f10:	3c085300 	lui	t0,0x5300
53001f14:	8e050000 	lw	a1,0(s0)
53001f18:	24c44660 	addiu	a0,a2,18016
53001f1c:	250744ec 	addiu	a3,t0,17644
53001f20:	00403021 	move	a2,v0
53001f24:	1000ffe6 	b	53001ec0 <_scene_desktop_close_theme+0x6c>
53001f28:	2403024b 	li	v1,587

53001f2c <_scene_desktop_set_default_font>:
53001f2c:	27bdffd8 	addiu	sp,sp,-40
53001f30:	afb1001c 	sw	s1,28(sp)
53001f34:	afbf0020 	sw	ra,32(sp)
53001f38:	afb00018 	sw	s0,24(sp)
53001f3c:	3c115300 	lui	s1,0x5300
53001f40:	8e3051a8 	lw	s0,20904(s1)
53001f44:	8e02003c 	lw	v0,60(s0)
53001f48:	18400007 	blez	v0,53001f68 <_scene_desktop_set_default_font+0x3c>
53001f4c:	00001821 	move	v1,zero
53001f50:	8fbf0020 	lw	ra,32(sp)
53001f54:	8fb1001c 	lw	s1,28(sp)
53001f58:	8fb00018 	lw	s0,24(sp)
53001f5c:	00601021 	move	v0,v1
53001f60:	03e00008 	jr	ra
53001f64:	27bd0028 	addiu	sp,sp,40
53001f68:	0cc00c76 	jal	530031d8 <sys_get_default_font_file>
53001f6c:	00000000 	nop
53001f70:	00402021 	move	a0,v0
53001f74:	0cc00fbf 	jal	53003efc <gui_create_font>
53001f78:	24050010 	li	a1,16
53001f7c:	8e2351a8 	lw	v1,20904(s1)
53001f80:	ae02003c 	sw	v0,60(s0)
53001f84:	8c65003c 	lw	a1,60(v1)
53001f88:	04a00017 	bltz	a1,53001fe8 <_scene_desktop_set_default_font+0xbc>
53001f8c:	00a02021 	move	a0,a1
53001f90:	0cc00fda 	jal	53003f68 <gui_dc_set_default_fontface>
53001f94:	00000000 	nop
53001f98:	0441ffed 	bgez	v0,53001f50 <_scene_desktop_set_default_font+0x24>
53001f9c:	24030001 	li	v1,1
53001fa0:	0cc00cb0 	jal	530032c0 <__errno>
53001fa4:	00000000 	nop
53001fa8:	0cc00cad 	jal	530032b4 <getpid>
53001fac:	00408821 	move	s1,v0
53001fb0:	3c065300 	lui	a2,0x5300
53001fb4:	3c085300 	lui	t0,0x5300
53001fb8:	8e250000 	lw	a1,0(s1)
53001fbc:	24c446a8 	addiu	a0,a2,18088
53001fc0:	250744ec 	addiu	a3,t0,17644
53001fc4:	00403021 	move	a2,v0
53001fc8:	24030294 	li	v1,660
53001fcc:	3c0a5300 	lui	t2,0x5300
53001fd0:	25494078 	addiu	t1,t2,16504
53001fd4:	afa30010 	sw	v1,16(sp)
53001fd8:	0cc00fe9 	jal	53003fa4 <printf>
53001fdc:	afa90014 	sw	t1,20(sp)
53001fe0:	1000ffdb 	b	53001f50 <_scene_desktop_set_default_font+0x24>
53001fe4:	00001821 	move	v1,zero
53001fe8:	0cc00cb0 	jal	530032c0 <__errno>
53001fec:	00000000 	nop
53001ff0:	0cc00cad 	jal	530032b4 <getpid>
53001ff4:	00408021 	move	s0,v0
53001ff8:	3c045300 	lui	a0,0x5300
53001ffc:	3c075300 	lui	a3,0x5300
53002000:	8e050000 	lw	a1,0(s0)
53002004:	248446f0 	addiu	a0,a0,18160
53002008:	00403021 	move	a2,v0
5300200c:	24e744ec 	addiu	a3,a3,17644
53002010:	1000ffee 	b	53001fcc <_scene_desktop_set_default_font+0xa0>
53002014:	2403028e 	li	v1,654

53002018 <_scene_desktop_proc_gui>:
53002018:	27bdffc8 	addiu	sp,sp,-56
5300201c:	afb20028 	sw	s2,40(sp)
53002020:	afb10024 	sw	s1,36(sp)
53002024:	afb00020 	sw	s0,32(sp)
53002028:	afbf0030 	sw	ra,48(sp)
5300202c:	afb3002c 	sw	s3,44(sp)
53002030:	8ca30000 	lw	v1,0(a1)
53002034:	24100003 	li	s0,3
53002038:	00808821 	move	s1,a0
5300203c:	10700009 	beq	v1,s0,53002064 <_scene_desktop_proc_gui+0x4c>
53002040:	00009021 	move	s2,zero
53002044:	28620004 	slti	v0,v1,4
53002048:	1040000f 	beqz	v0,53002088 <_scene_desktop_proc_gui+0x70>
5300204c:	2406000d 	li	a2,13
53002050:	24040001 	li	a0,1
53002054:	10640004 	beq	v1,a0,53002068 <_scene_desktop_proc_gui+0x50>
53002058:	02402021 	move	a0,s2
5300205c:	0cc00fc8 	jal	53003f20 <gui_wm_default_callback>
53002060:	00a02021 	move	a0,a1
53002064:	02402021 	move	a0,s2
53002068:	8fbf0030 	lw	ra,48(sp)
5300206c:	8fb3002c 	lw	s3,44(sp)
53002070:	8fb20028 	lw	s2,40(sp)
53002074:	8fb10024 	lw	s1,36(sp)
53002078:	8fb00020 	lw	s0,32(sp)
5300207c:	00801021 	move	v0,a0
53002080:	03e00008 	jr	ra
53002084:	27bd0038 	addiu	sp,sp,56
53002088:	1466fff4 	bne	v1,a2,5300205c <_scene_desktop_proc_gui+0x44>
5300208c:	3c042000 	lui	a0,0x2000
53002090:	8ca70008 	lw	a3,8(a1)
53002094:	8ce50004 	lw	a1,4(a3)
53002098:	8ce30000 	lw	v1,0(a3)
5300209c:	34820001 	ori	v0,a0,0x1
530020a0:	00651825 	or	v1,v1,a1
530020a4:	10620061 	beq	v1,v0,5300222c <_scene_desktop_proc_gui+0x214>
530020a8:	0043402b 	sltu	t0,v0,v1
530020ac:	1500000d 	bnez	t0,530020e4 <_scene_desktop_proc_gui+0xcc>
530020b0:	34820004 	ori	v0,a0,0x4
530020b4:	3c040800 	lui	a0,0x800
530020b8:	34820001 	ori	v0,a0,0x1
530020bc:	1062005b 	beq	v1,v0,5300222c <_scene_desktop_proc_gui+0x214>
530020c0:	0043482b 	sltu	t1,v0,v1
530020c4:	1520000c 	bnez	t1,530020f8 <_scene_desktop_proc_gui+0xe0>
530020c8:	348c0002 	ori	t4,a0,0x2
530020cc:	3c0a0400 	lui	t2,0x400
530020d0:	35450040 	ori	a1,t2,0x40
530020d4:	1065001d 	beq	v1,a1,5300214c <_scene_desktop_proc_gui+0x134>
530020d8:	3c135300 	lui	s3,0x5300
530020dc:	1000ffe1 	b	53002064 <_scene_desktop_proc_gui+0x4c>
530020e0:	00009021 	move	s2,zero
530020e4:	10620061 	beq	v1,v0,5300226c <_scene_desktop_proc_gui+0x254>
530020e8:	0043582b 	sltu	t3,v0,v1
530020ec:	1560005b 	bnez	t3,5300225c <_scene_desktop_proc_gui+0x244>
530020f0:	348d0008 	ori	t5,a0,0x8
530020f4:	348c0002 	ori	t4,a0,0x2
530020f8:	546cffda 	bnel	v1,t4,53002064 <_scene_desktop_proc_gui+0x4c>
530020fc:	00009021 	move	s2,zero
53002100:	3c045300 	lui	a0,0x5300
53002104:	8c8651a8 	lw	a2,20904(a0)
53002108:	8cc20028 	lw	v0,40(a2)
5300210c:	1440ffd6 	bnez	v0,53002068 <_scene_desktop_proc_gui+0x50>
53002110:	00002021 	move	a0,zero
53002114:	8e280048 	lw	t0,72(s1)
53002118:	3c030800 	lui	v1,0x800
5300211c:	8d070030 	lw	a3,48(t0)
53002120:	10a30072 	beq	a1,v1,530022ec <_scene_desktop_proc_gui+0x2d4>
53002124:	ae270048 	sw	a3,72(s1)
53002128:	24020002 	li	v0,2
5300212c:	ae22004c 	sw	v0,76(s1)
53002130:	0cc0067e 	jal	530019f8 <_scene_desktop_paint>
53002134:	02202021 	move	a0,s1
53002138:	2404ffff 	li	a0,-1
5300213c:	0cc00c28 	jal	530030a0 <clear_key_msg_queue>
53002140:	2405ffff 	li	a1,-1
53002144:	1000ffc8 	b	53002068 <_scene_desktop_proc_gui+0x50>
53002148:	02402021 	move	a0,s2
5300214c:	8e6551a8 	lw	a1,20904(s3)
53002150:	8ca90028 	lw	t1,40(a1)
53002154:	1520ffc4 	bnez	t1,53002068 <_scene_desktop_proc_gui+0x50>
53002158:	00002021 	move	a0,zero
5300215c:	8e2b0048 	lw	t3,72(s1)
53002160:	3c0a5300 	lui	t2,0x5300
53002164:	8d650010 	lw	a1,16(t3)
53002168:	0cc00f7d 	jal	53003df4 <strcasecmp>
5300216c:	25444730 	addiu	a0,t2,18224
53002170:	14400005 	bnez	v0,53002188 <_scene_desktop_proc_gui+0x170>
53002174:	00000000 	nop
53002178:	8e230048 	lw	v1,72(s1)
5300217c:	8c6c0038 	lw	t4,56(v1)
53002180:	55800005 	bnezl	t4,53002198 <_scene_desktop_proc_gui+0x180>
53002184:	8e380040 	lw	t8,64(s1)
53002188:	0cc005f1 	jal	530017c4 <_scene_desktop_quit>
5300218c:	00000000 	nop
53002190:	1000ffb5 	b	53002068 <_scene_desktop_proc_gui+0x50>
53002194:	02402021 	move	a0,s2
53002198:	00002821 	move	a1,zero
5300219c:	ae380044 	sw	t8,68(s1)
530021a0:	8c6f0038 	lw	t7,56(v1)
530021a4:	27a60018 	addiu	a2,sp,24
530021a8:	ae2f0048 	sw	t7,72(s1)
530021ac:	ae2f0040 	sw	t7,64(s1)
530021b0:	00002021 	move	a0,zero
530021b4:	0cc00be8 	jal	53002fa0 <fusion_get_config>
530021b8:	ae30004c 	sw	s0,76(s1)
530021bc:	0cc00beb 	jal	53002fac <fusion_set_effect>
530021c0:	27a40018 	addiu	a0,sp,24
530021c4:	0cc00bdf 	jal	53002f7c <fusion_set_first_frame>
530021c8:	00002021 	move	a0,zero
530021cc:	8e6e51a8 	lw	t6,20904(s3)
530021d0:	8dcd0028 	lw	t5,40(t6)
530021d4:	11a0004b 	beqz	t5,53002304 <_scene_desktop_proc_gui+0x2ec>
530021d8:	00000000 	nop
530021dc:	0cc00523 	jal	5300148c <show_desktop_bg>
530021e0:	00000000 	nop
530021e4:	8e7051a8 	lw	s0,20904(s3)
530021e8:	0cc00bb2 	jal	53002ec8 <menuview_paint>
530021ec:	8e040028 	lw	a0,40(s0)
530021f0:	0cc00654 	jal	53001950 <_delete_headbar>
530021f4:	00000000 	nop
530021f8:	8e390040 	lw	t9,64(s1)
530021fc:	8e7151a8 	lw	s1,20904(s3)
53002200:	0cc00187 	jal	5300061c <desktop_get_headbar_appicon>
53002204:	8f240034 	lw	a0,52(t9)
53002208:	ae220054 	sw	v0,84(s1)
5300220c:	0cc00611 	jal	53001844 <_create_headbar>
53002210:	00002021 	move	a0,zero
53002214:	0cc00be2 	jal	53002f88 <fusion_set_last_frame>
53002218:	00002021 	move	a0,zero
5300221c:	0cc00be5 	jal	53002f94 <fusion_display>
53002220:	00002021 	move	a0,zero
53002224:	1000ff90 	b	53002068 <_scene_desktop_proc_gui+0x50>
53002228:	02402021 	move	a0,s2
5300222c:	3c135300 	lui	s3,0x5300
53002230:	8e7051a8 	lw	s0,20904(s3)
53002234:	8e0f0028 	lw	t7,40(s0)
53002238:	15e0ff8b 	bnez	t7,53002068 <_scene_desktop_proc_gui+0x50>
5300223c:	00002021 	move	a0,zero
53002240:	8e3f0048 	lw	ra,72(s1)
53002244:	3c180800 	lui	t8,0x800
53002248:	8ff9002c 	lw	t9,44(ra)
5300224c:	10b80027 	beq	a1,t8,530022ec <_scene_desktop_proc_gui+0x2d4>
53002250:	ae390048 	sw	t9,72(s1)
53002254:	1000ffb5 	b	5300212c <_scene_desktop_proc_gui+0x114>
53002258:	24020001 	li	v0,1
5300225c:	106d0003 	beq	v1,t5,5300226c <_scene_desktop_proc_gui+0x254>
53002260:	348e0010 	ori	t6,a0,0x10
53002264:	146eff7f 	bne	v1,t6,53002064 <_scene_desktop_proc_gui+0x4c>
53002268:	00009021 	move	s2,zero
5300226c:	3c115300 	lui	s1,0x5300
53002270:	8e3051a8 	lw	s0,20904(s1)
53002274:	8e13002c 	lw	s3,44(s0)
53002278:	1660ff7a 	bnez	s3,53002064 <_scene_desktop_proc_gui+0x4c>
5300227c:	00009021 	move	s2,zero
53002280:	3c1f5300 	lui	ra,0x5300
53002284:	27e519a0 	addiu	a1,ra,6560
53002288:	0cc00bd3 	jal	53002f4c <volumebar_create>
5300228c:	00002021 	move	a0,zero
53002290:	8e3251a8 	lw	s2,20904(s1)
53002294:	ae02002c 	sw	v0,44(s0)
53002298:	8e44002c 	lw	a0,44(s2)
5300229c:	14800015 	bnez	a0,530022f4 <_scene_desktop_proc_gui+0x2dc>
530022a0:	00000000 	nop
530022a4:	0cc00cb0 	jal	530032c0 <__errno>
530022a8:	24120001 	li	s2,1
530022ac:	0cc00cad 	jal	530032b4 <getpid>
530022b0:	00408021 	move	s0,v0
530022b4:	8e050000 	lw	a1,0(s0)
530022b8:	3c065300 	lui	a2,0x5300
530022bc:	3c035300 	lui	v1,0x5300
530022c0:	3c075300 	lui	a3,0x5300
530022c4:	24c4473c 	addiu	a0,a2,18236
530022c8:	2408015c 	li	t0,348
530022cc:	00403021 	move	a2,v0
530022d0:	24e744ec 	addiu	a3,a3,17644
530022d4:	24624098 	addiu	v0,v1,16536
530022d8:	afa80010 	sw	t0,16(sp)
530022dc:	0cc00fe9 	jal	53003fa4 <printf>
530022e0:	afa20014 	sw	v0,20(sp)
530022e4:	1000ff60 	b	53002068 <_scene_desktop_proc_gui+0x50>
530022e8:	02402021 	move	a0,s2
530022ec:	1000ff90 	b	53002130 <_scene_desktop_proc_gui+0x118>
530022f0:	ae20004c 	sw	zero,76(s1)
530022f4:	0cc00bd9 	jal	53002f64 <volumebar_paint>
530022f8:	24120001 	li	s2,1
530022fc:	1000ff5a 	b	53002068 <_scene_desktop_proc_gui+0x50>
53002300:	02402021 	move	a0,s2
53002304:	0cc0056f 	jal	530015bc <_create_menuview_widget>
53002308:	00000000 	nop
5300230c:	1000ffb8 	b	530021f0 <_scene_desktop_proc_gui+0x1d8>
53002310:	00000000 	nop

53002314 <_scene_desktop_callback>:
53002314:	3c055300 	lui	a1,0x5300
53002318:	8ca351ac 	lw	v1,20908(a1)
5300231c:	27bdffe0 	addiu	sp,sp,-32
53002320:	24020001 	li	v0,1
53002324:	afb00010 	sw	s0,16(sp)
53002328:	afbf0018 	sw	ra,24(sp)
5300232c:	afb10014 	sw	s1,20(sp)
53002330:	10620023 	beq	v1,v0,530023c0 <_scene_desktop_callback+0xac>
53002334:	00808021 	move	s0,a0
53002338:	0cc00c10 	jal	53003040 <canvas_get_focus>
5300233c:	3c115300 	lui	s1,0x5300
53002340:	8e2351a8 	lw	v1,20904(s1)
53002344:	8c64002c 	lw	a0,44(v1)
53002348:	14800014 	bnez	a0,5300239c <_scene_desktop_callback+0x88>
5300234c:	00402821 	move	a1,v0
53002350:	8c640028 	lw	a0,40(v1)
53002354:	50800005 	beqzl	a0,5300236c <_scene_desktop_callback+0x58>
53002358:	8c640030 	lw	a0,48(v1)
5300235c:	8c870004 	lw	a3,4(a0)
53002360:	10e5001c 	beq	a3,a1,530023d4 <_scene_desktop_callback+0xc0>
53002364:	00000000 	nop
53002368:	8c640030 	lw	a0,48(v1)
5300236c:	50800005 	beqzl	a0,53002384 <_scene_desktop_callback+0x70>
53002370:	00602021 	move	a0,v1
53002374:	8c880000 	lw	t0,0(a0)
53002378:	1105001a 	beq	t0,a1,530023e4 <_scene_desktop_callback+0xd0>
5300237c:	02002821 	move	a1,s0
53002380:	00602021 	move	a0,v1
53002384:	02002821 	move	a1,s0
53002388:	8fbf0018 	lw	ra,24(sp)
5300238c:	8fb10014 	lw	s1,20(sp)
53002390:	8fb00010 	lw	s0,16(sp)
53002394:	08c00806 	j	53002018 <_scene_desktop_proc_gui>
53002398:	27bd0020 	addiu	sp,sp,32
5300239c:	8c860010 	lw	a2,16(a0)
530023a0:	54c2ffec 	bnel	a2,v0,53002354 <_scene_desktop_callback+0x40>
530023a4:	8c640028 	lw	a0,40(v1)
530023a8:	02002821 	move	a1,s0
530023ac:	8fbf0018 	lw	ra,24(sp)
530023b0:	8fb10014 	lw	s1,20(sp)
530023b4:	8fb00010 	lw	s0,16(sp)
530023b8:	08c00bd0 	j	53002f40 <volumebar_proc_gui>
530023bc:	27bd0020 	addiu	sp,sp,32
530023c0:	8fbf0018 	lw	ra,24(sp)
530023c4:	8fb10014 	lw	s1,20(sp)
530023c8:	8fb00010 	lw	s0,16(sp)
530023cc:	03e00008 	jr	ra
530023d0:	27bd0020 	addiu	sp,sp,32
530023d4:	0cc00bb5 	jal	53002ed4 <menuview_proc_gui>
530023d8:	02002821 	move	a1,s0
530023dc:	1000ffe9 	b	53002384 <_scene_desktop_callback+0x70>
530023e0:	8e2451a8 	lw	a0,20904(s1)
530023e4:	8fbf0018 	lw	ra,24(sp)
530023e8:	8fb10014 	lw	s1,20(sp)
530023ec:	8fb00010 	lw	s0,16(sp)
530023f0:	08c00bbe 	j	53002ef8 <msgbox_proc_gui>
530023f4:	27bd0020 	addiu	sp,sp,32

530023f8 <_scene_desktop_proc_sys>:
530023f8:	27bdfbc8 	addiu	sp,sp,-1080
530023fc:	afbf0430 	sw	ra,1072(sp)
53002400:	afb1042c 	sw	s1,1068(sp)
53002404:	afb00428 	sw	s0,1064(sp)
53002408:	8c830000 	lw	v1,0(a0)
5300240c:	240207da 	li	v0,2010
53002410:	10620028 	beq	v1,v0,530024b4 <_scene_desktop_proc_sys+0xbc>
53002414:	00802821 	move	a1,a0
53002418:	2c6407db 	sltiu	a0,v1,2011
5300241c:	14800010 	bnez	a0,53002460 <_scene_desktop_proc_sys+0x68>
53002420:	240603e9 	li	a2,1001
53002424:	240707dd 	li	a3,2013
53002428:	10670017 	beq	v1,a3,53002488 <_scene_desktop_proc_sys+0x90>
5300242c:	24080fb1 	li	t0,4017
53002430:	10680032 	beq	v1,t0,530024fc <_scene_desktop_proc_sys+0x104>
53002434:	3c185300 	lui	t8,0x5300
53002438:	8f1151a8 	lw	s1,20904(t8)
5300243c:	8e240030 	lw	a0,48(s1)
53002440:	14800026 	bnez	a0,530024dc <_scene_desktop_proc_sys+0xe4>
53002444:	00000000 	nop
53002448:	8fbf0430 	lw	ra,1072(sp)
5300244c:	8fb1042c 	lw	s1,1068(sp)
53002450:	8fb00428 	lw	s0,1064(sp)
53002454:	00001021 	move	v0,zero
53002458:	03e00008 	jr	ra
5300245c:	27bd0438 	addiu	sp,sp,1080
53002460:	1466fff5 	bne	v1,a2,53002438 <_scene_desktop_proc_sys+0x40>
53002464:	3c185300 	lui	t8,0x5300
53002468:	240f0001 	li	t7,1
5300246c:	3c0e5300 	lui	t6,0x5300
53002470:	0cc00c25 	jal	53003094 <exit_msg_loop>
53002474:	adcf51ac 	sw	t7,20908(t6)
53002478:	3c0d5300 	lui	t5,0x5300
5300247c:	8da451a8 	lw	a0,20904(t5)
53002480:	1000fff1 	b	53002448 <_scene_desktop_proc_sys+0x50>
53002484:	ac800050 	sw	zero,80(a0)
53002488:	0cc007cb 	jal	53001f2c <_scene_desktop_set_default_font>
5300248c:	3c105300 	lui	s0,0x5300
53002490:	0cc00c2e 	jal	530030b8 <enter_foreground_mode>
53002494:	00000000 	nop
53002498:	8e0b51a8 	lw	t3,20904(s0)
5300249c:	0cc00fce 	jal	53003f38 <gui_wm_set_focus>
530024a0:	8d640034 	lw	a0,52(t3)
530024a4:	8e0a51a8 	lw	t2,20904(s0)
530024a8:	01402021 	move	a0,t2
530024ac:	0cc0067e 	jal	530019f8 <_scene_desktop_paint>
530024b0:	ad40004c 	sw	zero,76(t2)
530024b4:	27a40018 	addiu	a0,sp,24
530024b8:	240c0001 	li	t4,1
530024bc:	0cc00c19 	jal	53003064 <reply_sync_msg>
530024c0:	afac0018 	sw	t4,24(sp)
530024c4:	8fbf0430 	lw	ra,1072(sp)
530024c8:	8fb1042c 	lw	s1,1068(sp)
530024cc:	8fb00428 	lw	s0,1064(sp)
530024d0:	00001021 	move	v0,zero
530024d4:	03e00008 	jr	ra
530024d8:	27bd0438 	addiu	sp,sp,1080
530024dc:	0cc00bc1 	jal	53002f04 <msgbox_proc_sys>
530024e0:	00000000 	nop
530024e4:	8fbf0430 	lw	ra,1072(sp)
530024e8:	8fb1042c 	lw	s1,1068(sp)
530024ec:	8fb00428 	lw	s0,1064(sp)
530024f0:	00001021 	move	v0,zero
530024f4:	03e00008 	jr	ra
530024f8:	27bd0438 	addiu	sp,sp,1080
530024fc:	0cc00cad 	jal	530032b4 <getpid>
53002500:	00000000 	nop
53002504:	3c0a5300 	lui	t2,0x5300
53002508:	255144ec 	addiu	s1,t2,17644
5300250c:	3c095300 	lui	t1,0x5300
53002510:	3c055300 	lui	a1,0x5300
53002514:	252340ac 	addiu	v1,t1,16556
53002518:	2407043d 	li	a3,1085
5300251c:	24a44780 	addiu	a0,a1,18304
53002520:	02203021 	move	a2,s1
53002524:	00402821 	move	a1,v0
53002528:	27b00420 	addiu	s0,sp,1056
5300252c:	0cc00fe9 	jal	53003fa4 <printf>
53002530:	afa30010 	sw	v1,16(sp)
53002534:	00002821 	move	a1,zero
53002538:	02003021 	move	a2,s0
5300253c:	0cc00be8 	jal	53002fa0 <fusion_get_config>
53002540:	24040004 	li	a0,4
53002544:	0cc00beb 	jal	53002fac <fusion_set_effect>
53002548:	02002021 	move	a0,s0
5300254c:	0cc00bdf 	jal	53002f7c <fusion_set_first_frame>
53002550:	00002021 	move	a0,zero
53002554:	0cc00795 	jal	53001e54 <_scene_desktop_close_theme>
53002558:	00000000 	nop
5300255c:	0cc00702 	jal	53001c08 <_scene_desktop_open_theme>
53002560:	00000000 	nop
53002564:	0cc00101 	jal	53000404 <desktop_release_resource>
53002568:	00000000 	nop
5300256c:	0cc00008 	jal	53000020 <desktop_load_style>
53002570:	00000000 	nop
53002574:	14400032 	bnez	v0,53002640 <_scene_desktop_proc_sys+0x248>
53002578:	00000000 	nop
5300257c:	0cc00cb0 	jal	530032c0 <__errno>
53002580:	00000000 	nop
53002584:	0cc00cad 	jal	530032b4 <getpid>
53002588:	00408021 	move	s0,v0
5300258c:	8e050000 	lw	a1,0(s0)
53002590:	3c0e5300 	lui	t6,0x5300
53002594:	3c0c5300 	lui	t4,0x5300
53002598:	240d0194 	li	t5,404
5300259c:	258b40c4 	addiu	t3,t4,16580
530025a0:	25c447c4 	addiu	a0,t6,18372
530025a4:	00403021 	move	a2,v0
530025a8:	02203821 	move	a3,s1
530025ac:	afad0010 	sw	t5,16(sp)
530025b0:	0cc00fe9 	jal	53003fa4 <printf>
530025b4:	afab0014 	sw	t3,20(sp)
530025b8:	3c105300 	lui	s0,0x5300
530025bc:	8e0751a8 	lw	a3,20904(s0)
530025c0:	8ce20018 	lw	v0,24(a3)
530025c4:	8ce40034 	lw	a0,52(a3)
530025c8:	80460005 	lb	a2,5(v0)
530025cc:	805f0007 	lb	ra,7(v0)
530025d0:	90590004 	lbu	t9,4(v0)
530025d4:	90510006 	lbu	s1,6(v0)
530025d8:	0006c200 	sll	t8,a2,0x8
530025dc:	001f7a00 	sll	t7,ra,0x8
530025e0:	03192825 	or	a1,t8,t9
530025e4:	0cc00fd4 	jal	53003f50 <gui_wm_set_size>
530025e8:	01f13025 	or	a2,t7,s1
530025ec:	8e0451a8 	lw	a0,20904(s0)
530025f0:	8c820020 	lw	v0,32(a0)
530025f4:	1440002d 	bnez	v0,530026ac <_scene_desktop_proc_sys+0x2b4>
530025f8:	ac80004c 	sw	zero,76(a0)
530025fc:	8c820028 	lw	v0,40(a0)
53002600:	54400023 	bnezl	v0,53002690 <_scene_desktop_proc_sys+0x298>
53002604:	00402021 	move	a0,v0
53002608:	8c82002c 	lw	v0,44(a0)
5300260c:	14400019 	bnez	v0,53002674 <_scene_desktop_proc_sys+0x27c>
53002610:	00000000 	nop
53002614:	8c820030 	lw	v0,48(a0)
53002618:	1440000f 	bnez	v0,53002658 <_scene_desktop_proc_sys+0x260>
5300261c:	00000000 	nop
53002620:	0cc0067e 	jal	530019f8 <_scene_desktop_paint>
53002624:	00000000 	nop
53002628:	0cc00be2 	jal	53002f88 <fusion_set_last_frame>
5300262c:	00002021 	move	a0,zero
53002630:	0cc00be5 	jal	53002f94 <fusion_display>
53002634:	00002021 	move	a0,zero
53002638:	1000ff84 	b	5300244c <_scene_desktop_proc_sys+0x54>
5300263c:	8fbf0430 	lw	ra,1072(sp)
53002640:	0cc000b0 	jal	530002c0 <desktop_buffer_resource>
53002644:	00000000 	nop
53002648:	1440ffdc 	bnez	v0,530025bc <_scene_desktop_proc_sys+0x1c4>
5300264c:	3c105300 	lui	s0,0x5300
53002650:	1000ffca 	b	5300257c <_scene_desktop_proc_sys+0x184>
53002654:	00000000 	nop
53002658:	0cc00bcd 	jal	53002f34 <msgbox_load_style>
5300265c:	00402021 	move	a0,v0
53002660:	8e0551a8 	lw	a1,20904(s0)
53002664:	0cc00bc7 	jal	53002f1c <msgbox_paint>
53002668:	8ca40030 	lw	a0,48(a1)
5300266c:	1000ffec 	b	53002620 <_scene_desktop_proc_sys+0x228>
53002670:	8e0451a8 	lw	a0,20904(s0)
53002674:	0cc00bdc 	jal	53002f70 <volumebar_load_style>
53002678:	00402021 	move	a0,v0
5300267c:	8e0951a8 	lw	t1,20904(s0)
53002680:	0cc00bd9 	jal	53002f64 <volumebar_paint>
53002684:	8d24002c 	lw	a0,44(t1)
53002688:	1000ffe2 	b	53002614 <_scene_desktop_proc_sys+0x21c>
5300268c:	8e0451a8 	lw	a0,20904(s0)
53002690:	0cc00bb8 	jal	53002ee0 <menuview_load_style>
53002694:	24050002 	li	a1,2
53002698:	8e0351a8 	lw	v1,20904(s0)
5300269c:	0cc00bb2 	jal	53002ec8 <menuview_paint>
530026a0:	8c640028 	lw	a0,40(v1)
530026a4:	1000ffd8 	b	53002608 <_scene_desktop_proc_sys+0x210>
530026a8:	8e0451a8 	lw	a0,20904(s0)
530026ac:	0cc00b94 	jal	53002e50 <headbar_load_style>
530026b0:	00402021 	move	a0,v0
530026b4:	8e0851a8 	lw	t0,20904(s0)
530026b8:	0cc00b97 	jal	53002e5c <headbar_paint>
530026bc:	8d040020 	lw	a0,32(t0)
530026c0:	1000ffce 	b	530025fc <_scene_desktop_proc_sys+0x204>
530026c4:	8e0451a8 	lw	a0,20904(s0)

530026c8 <launcher_scene_desktop>:
530026c8:	27bdefa8 	addiu	sp,sp,-4184
530026cc:	3c025300 	lui	v0,0x5300
530026d0:	afb7104c 	sw	s7,4172(sp)
530026d4:	24574010 	addiu	s7,v0,16400
530026d8:	afb61048 	sw	s6,4168(sp)
530026dc:	0080b021 	move	s6,a0
530026e0:	02e02021 	move	a0,s7
530026e4:	afbf1050 	sw	ra,4176(sp)
530026e8:	afb51044 	sw	s5,4164(sp)
530026ec:	afb41040 	sw	s4,4160(sp)
530026f0:	afb3103c 	sw	s3,4156(sp)
530026f4:	afb21038 	sw	s2,4152(sp)
530026f8:	afb11034 	sw	s1,4148(sp)
530026fc:	0cc00c04 	jal	53003010 <sys_pm_set_clk_domain>
53002700:	afb01030 	sw	s0,4144(sp)
53002704:	3c045300 	lui	a0,0x5300
53002708:	2484480c 	addiu	a0,a0,18444
5300270c:	0cc00fec 	jal	53003fb0 <dlopen>
53002710:	24050001 	li	a1,1
53002714:	1440002b 	bnez	v0,530027c4 <launcher_scene_desktop+0xfc>
53002718:	aec20000 	sw	v0,0(s6)
5300271c:	0cc00cb0 	jal	530032c0 <__errno>
53002720:	3c165300 	lui	s6,0x5300
53002724:	0cc00cad 	jal	530032b4 <getpid>
53002728:	00408021 	move	s0,v0
5300272c:	3c035300 	lui	v1,0x5300
53002730:	24644814 	addiu	a0,v1,18452
53002734:	3c075300 	lui	a3,0x5300
53002738:	240302b8 	li	v1,696
5300273c:	8e050000 	lw	a1,0(s0)
53002740:	00403021 	move	a2,v0
53002744:	24e744ec 	addiu	a3,a3,17644
53002748:	afa30010 	sw	v1,16(sp)
5300274c:	26c240f4 	addiu	v0,s6,16628
53002750:	0cc00fe9 	jal	53003fa4 <printf>
53002754:	afa20014 	sw	v0,20(sp)
53002758:	0cc00cb0 	jal	530032c0 <__errno>
5300275c:	3c125300 	lui	s2,0x5300
53002760:	0cc00cad 	jal	530032b4 <getpid>
53002764:	00409821 	move	s3,v0
53002768:	3c175300 	lui	s7,0x5300
5300276c:	8e650000 	lw	a1,0(s3)
53002770:	2644484c 	addiu	a0,s2,18508
53002774:	00403021 	move	a2,v0
53002778:	26e744ec 	addiu	a3,s7,17644
5300277c:	2403047a 	li	v1,1146
53002780:	afa30010 	sw	v1,16(sp)
53002784:	3c035300 	lui	v1,0x5300
53002788:	246240dc 	addiu	v0,v1,16604
5300278c:	0cc00fe9 	jal	53003fa4 <printf>
53002790:	afa20014 	sw	v0,20(sp)
53002794:	2402ffff 	li	v0,-1
53002798:	8fbf1050 	lw	ra,4176(sp)
5300279c:	8fb7104c 	lw	s7,4172(sp)
530027a0:	8fb61048 	lw	s6,4168(sp)
530027a4:	8fb51044 	lw	s5,4164(sp)
530027a8:	8fb41040 	lw	s4,4160(sp)
530027ac:	8fb3103c 	lw	s3,4156(sp)
530027b0:	8fb21038 	lw	s2,4152(sp)
530027b4:	8fb11034 	lw	s1,4148(sp)
530027b8:	8fb01030 	lw	s0,4144(sp)
530027bc:	03e00008 	jr	ra
530027c0:	27bd1058 	addiu	sp,sp,4184
530027c4:	3c135300 	lui	s3,0x5300
530027c8:	0cc00c0a 	jal	53003028 <sys_get_common_theme_res_dir>
530027cc:	ae7651a8 	sw	s6,20904(s3)
530027d0:	3c085300 	lui	t0,0x5300
530027d4:	3c065300 	lui	a2,0x5300
530027d8:	25114884 	addiu	s1,t0,18564
530027dc:	24d445c8 	addiu	s4,a2,17864
530027e0:	27b00430 	addiu	s0,sp,1072
530027e4:	02202821 	move	a1,s1
530027e8:	00403021 	move	a2,v0
530027ec:	02803821 	move	a3,s4
530027f0:	0cc00cbc 	jal	530032f0 <sprintf>
530027f4:	02002021 	move	a0,s0
530027f8:	02002021 	move	a0,s0
530027fc:	0cc00c01 	jal	53003004 <open_style_file>
53002800:	8e7551a8 	lw	s5,20904(s3)
53002804:	0cc00c6a 	jal	530031a8 <sys_get_app_theme_res_dir>
53002808:	aea20014 	sw	v0,20(s5)
5300280c:	3c055300 	lui	a1,0x5300
53002810:	24b545d4 	addiu	s5,a1,17876
53002814:	27b20830 	addiu	s2,sp,2096
53002818:	02202821 	move	a1,s1
5300281c:	00403021 	move	a2,v0
53002820:	02402021 	move	a0,s2
53002824:	0cc00cbc 	jal	530032f0 <sprintf>
53002828:	02a03821 	move	a3,s5
5300282c:	8e7151a8 	lw	s1,20904(s3)
53002830:	0cc00c01 	jal	53003004 <open_style_file>
53002834:	02402021 	move	a0,s2
53002838:	0cc00702 	jal	53001c08 <_scene_desktop_open_theme>
5300283c:	ae220010 	sw	v0,16(s1)
53002840:	1040ffc5 	beqz	v0,53002758 <launcher_scene_desktop+0x90>
53002844:	00000000 	nop
53002848:	0cc00c0d 	jal	53003034 <sys_get_common_string_res_dir>
5300284c:	00000000 	nop
53002850:	0cc00c70 	jal	530031c0 <sys_get_cur_language_codes>
53002854:	00408021 	move	s0,v0
53002858:	3c095300 	lui	t1,0x5300
5300285c:	25324890 	addiu	s2,t1,18576
53002860:	27b10c30 	addiu	s1,sp,3120
53002864:	02202021 	move	a0,s1
53002868:	02003021 	move	a2,s0
5300286c:	02803821 	move	a3,s4
53002870:	02402821 	move	a1,s2
53002874:	0cc00cbc 	jal	530032f0 <sprintf>
53002878:	afa20010 	sw	v0,16(sp)
5300287c:	0cc00c34 	jal	530030d0 <sty_open_common_str_res>
53002880:	02202021 	move	a0,s1
53002884:	14400014 	bnez	v0,530028d8 <launcher_scene_desktop+0x210>
53002888:	00000000 	nop
5300288c:	0cc00cb0 	jal	530032c0 <__errno>
53002890:	00000000 	nop
53002894:	0cc00cad 	jal	530032b4 <getpid>
53002898:	00409821 	move	s3,v0
5300289c:	3c0b5300 	lui	t3,0x5300
530028a0:	3c0a5300 	lui	t2,0x5300
530028a4:	8e650000 	lw	a1,0(s3)
530028a8:	256445e0 	addiu	a0,t3,17888
530028ac:	00403021 	move	a2,v0
530028b0:	254744ec 	addiu	a3,t2,17644
530028b4:	2403025c 	li	v1,604
530028b8:	3c0f5300 	lui	t7,0x5300
530028bc:	25ee4108 	addiu	t6,t7,16648
530028c0:	afa30010 	sw	v1,16(sp)
530028c4:	afae0014 	sw	t6,20(sp)
530028c8:	0cc00fe9 	jal	53003fa4 <printf>
530028cc:	afb10018 	sw	s1,24(sp)
530028d0:	1000ffa1 	b	53002758 <launcher_scene_desktop+0x90>
530028d4:	00000000 	nop
530028d8:	0cc00c6d 	jal	530031b4 <sys_get_app_string_res_dir>
530028dc:	00000000 	nop
530028e0:	0cc00c70 	jal	530031c0 <sys_get_cur_language_codes>
530028e4:	0040a021 	move	s4,v0
530028e8:	02202021 	move	a0,s1
530028ec:	02402821 	move	a1,s2
530028f0:	02803021 	move	a2,s4
530028f4:	02a03821 	move	a3,s5
530028f8:	0cc00cbc 	jal	530032f0 <sprintf>
530028fc:	afa20010 	sw	v0,16(sp)
53002900:	0cc00c40 	jal	53003100 <sty_open_app_str_res>
53002904:	02202021 	move	a0,s1
53002908:	10400049 	beqz	v0,53002a30 <launcher_scene_desktop+0x368>
5300290c:	00000000 	nop
53002910:	0cc00c52 	jal	53003148 <sty_set_text_encoding>
53002914:	24040001 	li	a0,1
53002918:	0cc00c73 	jal	530031cc <sys_get_cur_language_id>
5300291c:	00000000 	nop
53002920:	0cc00fbc 	jal	53003ef0 <gui_set_language_mode>
53002924:	00402021 	move	a0,v0
53002928:	0cc007cb 	jal	53001f2c <_scene_desktop_set_default_font>
5300292c:	00000000 	nop
53002930:	1040ff89 	beqz	v0,53002758 <launcher_scene_desktop+0x90>
53002934:	8e7151a8 	lw	s1,20904(s3)
53002938:	24120001 	li	s2,1
5300293c:	8e38000c 	lw	t8,12(s1)
53002940:	531200da 	beql	t8,s2,53002cac <launcher_scene_desktop+0x5e4>
53002944:	27b10428 	addiu	s1,sp,1064
53002948:	8e2d0018 	lw	t5,24(s1)
5300294c:	3c025300 	lui	v0,0x5300
53002950:	81aa0007 	lb	t2,7(t5)
53002954:	81ac0001 	lb	t4,1(t5)
53002958:	81b40003 	lb	s4,3(t5)
5300295c:	81ab0005 	lb	t3,5(t5)
53002960:	91b00004 	lbu	s0,4(t5)
53002964:	91a90000 	lbu	t1,0(t5)
53002968:	91a80002 	lbu	t0,2(t5)
5300296c:	91b50006 	lbu	s5,6(t5)
53002970:	000c2200 	sll	a0,t4,0x8
53002974:	000b3200 	sll	a2,t3,0x8
53002978:	000a3a00 	sll	a3,t2,0x8
5300297c:	00142a00 	sll	a1,s4,0x8
53002980:	00892025 	or	a0,a0,t1
53002984:	00d03025 	or	a2,a2,s0
53002988:	24030002 	li	v1,2
5300298c:	245f2314 	addiu	ra,v0,8980
53002990:	00a82825 	or	a1,a1,t0
53002994:	00f53825 	or	a3,a3,s5
53002998:	afa30010 	sw	v1,16(sp)
5300299c:	afbf0014 	sw	ra,20(sp)
530029a0:	0cc00fcb 	jal	53003f2c <gui_wm_create_window>
530029a4:	afa00018 	sw	zero,24(sp)
530029a8:	8e7051a8 	lw	s0,20904(s3)
530029ac:	ae220034 	sw	v0,52(s1)
530029b0:	8e040034 	lw	a0,52(s0)
530029b4:	2419ffff 	li	t9,-1
530029b8:	1099ff67 	beq	a0,t9,53002758 <launcher_scene_desktop+0x90>
530029bc:	00000000 	nop
530029c0:	0cc00fd7 	jal	53003f5c <gui_dc_get>
530029c4:	00000000 	nop
530029c8:	8e6e51a8 	lw	t6,20904(s3)
530029cc:	ae020038 	sw	v0,56(s0)
530029d0:	0cc00fce 	jal	53003f38 <gui_wm_set_focus>
530029d4:	8dc40034 	lw	a0,52(t6)
530029d8:	0cc00008 	jal	53000020 <desktop_load_style>
530029dc:	00000000 	nop
530029e0:	104000a1 	beqz	v0,53002c68 <launcher_scene_desktop+0x5a0>
530029e4:	00000000 	nop
530029e8:	0cc00611 	jal	53001844 <_create_headbar>
530029ec:	24040001 	li	a0,1
530029f0:	5440001b 	bnezl	v0,53002a60 <launcher_scene_desktop+0x398>
530029f4:	8e6751a8 	lw	a3,20904(s3)
530029f8:	0cc00cb0 	jal	530032c0 <__errno>
530029fc:	3c125300 	lui	s2,0x5300
53002a00:	0cc00cad 	jal	530032b4 <getpid>
53002a04:	00409821 	move	s3,v0
53002a08:	3c175300 	lui	s7,0x5300
53002a0c:	8e650000 	lw	a1,0(s3)
53002a10:	3c165300 	lui	s6,0x5300
53002a14:	00403021 	move	a2,v0
53002a18:	240302fc 	li	v1,764
53002a1c:	26444540 	addiu	a0,s2,17728
53002a20:	26e744ec 	addiu	a3,s7,17644
53002a24:	26c240f4 	addiu	v0,s6,16628
53002a28:	1000ff49 	b	53002750 <launcher_scene_desktop+0x88>
53002a2c:	afa30010 	sw	v1,16(sp)
53002a30:	0cc00cb0 	jal	530032c0 <__errno>
53002a34:	00000000 	nop
53002a38:	0cc00cad 	jal	530032b4 <getpid>
53002a3c:	0040b021 	move	s6,v0
53002a40:	3c0d5300 	lui	t5,0x5300
53002a44:	3c0c5300 	lui	t4,0x5300
53002a48:	8ec50000 	lw	a1,0(s6)
53002a4c:	25a445e0 	addiu	a0,t5,17888
53002a50:	00403021 	move	a2,v0
53002a54:	258744ec 	addiu	a3,t4,17644
53002a58:	1000ff97 	b	530028b8 <launcher_scene_desktop+0x1f0>
53002a5c:	24030266 	li	v1,614
53002a60:	0cc00b97 	jal	53002e5c <headbar_paint>
53002a64:	8ce40020 	lw	a0,32(a3)
53002a68:	3c035300 	lui	v1,0x5300
53002a6c:	246417f8 	addiu	a0,v1,6136
53002a70:	0cc00bc4 	jal	53002f10 <msgbox_create>
53002a74:	8e7051a8 	lw	s0,20904(s3)
53002a78:	8e6451a8 	lw	a0,20904(s3)
53002a7c:	ae020030 	sw	v0,48(s0)
53002a80:	8c820030 	lw	v0,48(a0)
53002a84:	10400093 	beqz	v0,53002cd4 <launcher_scene_desktop+0x60c>
53002a88:	00000000 	nop
53002a8c:	0cc0067e 	jal	530019f8 <_scene_desktop_paint>
53002a90:	ac80004c 	sw	zero,76(a0)
53002a94:	8e6451a8 	lw	a0,20904(s3)
53002a98:	24060001 	li	a2,1
53002a9c:	8c85000c 	lw	a1,12(a0)
53002aa0:	10a600de 	beq	a1,a2,53002e1c <launcher_scene_desktop+0x754>
53002aa4:	00000000 	nop
53002aa8:	8c880004 	lw	t0,4(a0)
53002aac:	111200c6 	beq	t0,s2,53002dc8 <launcher_scene_desktop+0x700>
53002ab0:	00000000 	nop
53002ab4:	0cc00c2e 	jal	530030b8 <enter_foreground_mode>
53002ab8:	00000000 	nop
53002abc:	0cc00fc5 	jal	53003f14 <gui_screen_update>
53002ac0:	00000000 	nop
53002ac4:	0cc000b0 	jal	530002c0 <desktop_buffer_resource>
53002ac8:	00000000 	nop
53002acc:	104000ad 	beqz	v0,53002d84 <launcher_scene_desktop+0x6bc>
53002ad0:	00000000 	nop
53002ad4:	2404ffff 	li	a0,-1
53002ad8:	0cc00c28 	jal	530030a0 <clear_key_msg_queue>
53002adc:	2405ffff 	li	a1,-1
53002ae0:	3c0e5300 	lui	t6,0x5300
53002ae4:	3c0d5300 	lui	t5,0x5300
53002ae8:	25c423f8 	addiu	a0,t6,9208
53002aec:	ada051ac 	sw	zero,20908(t5)
53002af0:	0cc00c1f 	jal	5300307c <register_sys_dispatcher>
53002af4:	24100001 	li	s0,1
53002af8:	10000003 	b	53002b08 <launcher_scene_desktop+0x440>
53002afc:	00000000 	nop
53002b00:	0cc00c1c 	jal	53003070 <dispatch_msg>
53002b04:	00000000 	nop
53002b08:	0cc00c16 	jal	53003058 <get_msg>
53002b0c:	27a40020 	addiu	a0,sp,32
53002b10:	1050fffb 	beq	v0,s0,53002b00 <launcher_scene_desktop+0x438>
53002b14:	27a40020 	addiu	a0,sp,32
53002b18:	0cc00c22 	jal	53003088 <unregister_sys_dispatcher>
53002b1c:	00000000 	nop
53002b20:	0cc00c2b 	jal	530030ac <enter_background_mode>
53002b24:	00000000 	nop
53002b28:	0cc00fd1 	jal	53003f44 <gui_wm_delete_window>
53002b2c:	8ec40034 	lw	a0,52(s6)
53002b30:	8ec40020 	lw	a0,32(s6)
53002b34:	1480008f 	bnez	a0,53002d74 <launcher_scene_desktop+0x6ac>
53002b38:	aec00034 	sw	zero,52(s6)
53002b3c:	0cc00101 	jal	53000404 <desktop_release_resource>
53002b40:	00000000 	nop
53002b44:	8ec4002c 	lw	a0,44(s6)
53002b48:	14800086 	bnez	a0,53002d64 <launcher_scene_desktop+0x69c>
53002b4c:	00000000 	nop
53002b50:	0cc005d1 	jal	53001744 <_delete_menuview_widget>
53002b54:	3c105300 	lui	s0,0x5300
53002b58:	8e0251a8 	lw	v0,20904(s0)
53002b5c:	8c440030 	lw	a0,48(v0)
53002b60:	1480007b 	bnez	a0,53002d50 <launcher_scene_desktop+0x688>
53002b64:	00000000 	nop
53002b68:	0cc00bf5 	jal	53002fd4 <free_scene>
53002b6c:	8ec40018 	lw	a0,24(s6)
53002b70:	8e0551a8 	lw	a1,20904(s0)
53002b74:	aec00018 	sw	zero,24(s6)
53002b78:	0cc00bed 	jal	53002fb4 <close_style_file>
53002b7c:	8ca40014 	lw	a0,20(a1)
53002b80:	8e0651a8 	lw	a2,20904(s0)
53002b84:	0cc00bed 	jal	53002fb4 <close_style_file>
53002b88:	8cc40010 	lw	a0,16(a2)
53002b8c:	8e0751a8 	lw	a3,20904(s0)
53002b90:	8ce4003c 	lw	a0,60(a3)
53002b94:	18800005 	blez	a0,53002bac <launcher_scene_desktop+0x4e4>
53002b98:	00000000 	nop
53002b9c:	0cc00fc2 	jal	53003f08 <gui_destroy_font>
53002ba0:	00000000 	nop
53002ba4:	8e0851a8 	lw	t0,20904(s0)
53002ba8:	ad00003c 	sw	zero,60(t0)
53002bac:	0cc00c3a 	jal	530030e8 <sty_close_common_str_res>
53002bb0:	00000000 	nop
53002bb4:	14400056 	bnez	v0,53002d10 <launcher_scene_desktop+0x648>
53002bb8:	00000000 	nop
53002bbc:	0cc00cb0 	jal	530032c0 <__errno>
53002bc0:	3c105300 	lui	s0,0x5300
53002bc4:	0cc00cad 	jal	530032b4 <getpid>
53002bc8:	0040a021 	move	s4,v0
53002bcc:	3c165300 	lui	s6,0x5300
53002bd0:	8e850000 	lw	a1,0(s4)
53002bd4:	260448a0 	addiu	a0,s0,18592
53002bd8:	00403021 	move	a2,v0
53002bdc:	26c744ec 	addiu	a3,s6,17644
53002be0:	24030275 	li	v1,629
53002be4:	3c0d5300 	lui	t5,0x5300
53002be8:	25ac414c 	addiu	t4,t5,16716
53002bec:	afa30010 	sw	v1,16(sp)
53002bf0:	0cc00fe9 	jal	53003fa4 <printf>
53002bf4:	afac0014 	sw	t4,20(sp)
53002bf8:	0cc00cb0 	jal	530032c0 <__errno>
53002bfc:	3c135300 	lui	s3,0x5300
53002c00:	0cc00cad 	jal	530032b4 <getpid>
53002c04:	0040a821 	move	s5,v0
53002c08:	3c0b5300 	lui	t3,0x5300
53002c0c:	3c0a5300 	lui	t2,0x5300
53002c10:	8ea50000 	lw	a1,0(s5)
53002c14:	256448e8 	addiu	a0,t3,18664
53002c18:	00403021 	move	a2,v0
53002c1c:	254744ec 	addiu	a3,t2,17644
53002c20:	2403035a 	li	v1,858
53002c24:	267f4134 	addiu	ra,s3,16692
53002c28:	afa30010 	sw	v1,16(sp)
53002c2c:	afbf0014 	sw	ra,20(sp)
53002c30:	0cc00fe9 	jal	53003fa4 <printf>
53002c34:	00000000 	nop
53002c38:	0cc00cb0 	jal	530032c0 <__errno>
53002c3c:	00000000 	nop
53002c40:	0cc00cad 	jal	530032b4 <getpid>
53002c44:	00409021 	move	s2,v0
53002c48:	3c195300 	lui	t9,0x5300
53002c4c:	3c185300 	lui	t8,0x5300
53002c50:	8e450000 	lw	a1,0(s2)
53002c54:	27244930 	addiu	a0,t9,18736
53002c58:	00403021 	move	a2,v0
53002c5c:	270744ec 	addiu	a3,t8,17644
53002c60:	1000fec7 	b	53002780 <launcher_scene_desktop+0xb8>
53002c64:	2403048e 	li	v1,1166
53002c68:	0cc00cb0 	jal	530032c0 <__errno>
53002c6c:	241102f7 	li	s1,759
53002c70:	0cc00cad 	jal	530032b4 <getpid>
53002c74:	0040a821 	move	s5,v0
53002c78:	8ea50000 	lw	a1,0(s5)
53002c7c:	3c1f5300 	lui	ra,0x5300
53002c80:	3c195300 	lui	t9,0x5300
53002c84:	3c185300 	lui	t8,0x5300
53002c88:	270f40f4 	addiu	t7,t8,16628
53002c8c:	27e447c4 	addiu	a0,ra,18372
53002c90:	00403021 	move	a2,v0
53002c94:	272744ec 	addiu	a3,t9,17644
53002c98:	afb10010 	sw	s1,16(sp)
53002c9c:	0cc00fe9 	jal	53003fa4 <printf>
53002ca0:	afaf0014 	sw	t7,20(sp)
53002ca4:	1000ff50 	b	530029e8 <launcher_scene_desktop+0x320>
53002ca8:	00000000 	nop
53002cac:	02203021 	move	a2,s1
53002cb0:	24050001 	li	a1,1
53002cb4:	0cc00be8 	jal	53002fa0 <fusion_get_config>
53002cb8:	24040001 	li	a0,1
53002cbc:	0cc00beb 	jal	53002fac <fusion_set_effect>
53002cc0:	02202021 	move	a0,s1
53002cc4:	0cc00bdf 	jal	53002f7c <fusion_set_first_frame>
53002cc8:	00002021 	move	a0,zero
53002ccc:	1000ff1e 	b	53002948 <launcher_scene_desktop+0x280>
53002cd0:	8e7151a8 	lw	s1,20904(s3)
53002cd4:	0cc00cb0 	jal	530032c0 <__errno>
53002cd8:	00000000 	nop
53002cdc:	0cc00cad 	jal	530032b4 <getpid>
53002ce0:	0040a821 	move	s5,v0
53002ce4:	8ea50000 	lw	a1,0(s5)
53002ce8:	3c1f5300 	lui	ra,0x5300
53002cec:	3c195300 	lui	t9,0x5300
53002cf0:	3c0f5300 	lui	t7,0x5300
53002cf4:	00403021 	move	a2,v0
53002cf8:	241800fc 	li	t8,252
53002cfc:	27e44968 	addiu	a0,ra,18792
53002d00:	272744ec 	addiu	a3,t9,17644
53002d04:	25e24124 	addiu	v0,t7,16676
53002d08:	1000fe91 	b	53002750 <launcher_scene_desktop+0x88>
53002d0c:	afb80010 	sw	t8,16(sp)
53002d10:	0cc00c46 	jal	53003118 <sty_close_app_str_res>
53002d14:	00000000 	nop
53002d18:	14400030 	bnez	v0,53002ddc <launcher_scene_desktop+0x714>
53002d1c:	00000000 	nop
53002d20:	0cc00cb0 	jal	530032c0 <__errno>
53002d24:	00000000 	nop
53002d28:	0cc00cad 	jal	530032b4 <getpid>
53002d2c:	00408821 	move	s1,v0
53002d30:	3c045300 	lui	a0,0x5300
53002d34:	3c095300 	lui	t1,0x5300
53002d38:	8e250000 	lw	a1,0(s1)
53002d3c:	248449a4 	addiu	a0,a0,18852
53002d40:	00403021 	move	a2,v0
53002d44:	252744ec 	addiu	a3,t1,17644
53002d48:	1000ffa6 	b	53002be4 <launcher_scene_desktop+0x51c>
53002d4c:	2403027b 	li	v1,635
53002d50:	0cc00bca 	jal	53002f28 <msgbox_delete>
53002d54:	00000000 	nop
53002d58:	8e0351a8 	lw	v1,20904(s0)
53002d5c:	1000ff82 	b	53002b68 <launcher_scene_desktop+0x4a0>
53002d60:	ac600030 	sw	zero,48(v1)
53002d64:	0cc00bd6 	jal	53002f58 <volumebar_delete>
53002d68:	00000000 	nop
53002d6c:	1000ff78 	b	53002b50 <launcher_scene_desktop+0x488>
53002d70:	aec0002c 	sw	zero,44(s6)
53002d74:	0cc00b9d 	jal	53002e74 <headbar_delete>
53002d78:	00000000 	nop
53002d7c:	1000ff6f 	b	53002b3c <launcher_scene_desktop+0x474>
53002d80:	aec00020 	sw	zero,32(s6)
53002d84:	0cc00cb0 	jal	530032c0 <__errno>
53002d88:	3c145300 	lui	s4,0x5300
53002d8c:	0cc00cad 	jal	530032b4 <getpid>
53002d90:	00408821 	move	s1,v0
53002d94:	8e250000 	lw	a1,0(s1)
53002d98:	3c0c5300 	lui	t4,0x5300
53002d9c:	3c0a5300 	lui	t2,0x5300
53002da0:	240b0322 	li	t3,802
53002da4:	254940f4 	addiu	t1,t2,16628
53002da8:	258447c4 	addiu	a0,t4,18372
53002dac:	00403021 	move	a2,v0
53002db0:	268744ec 	addiu	a3,s4,17644
53002db4:	afab0010 	sw	t3,16(sp)
53002db8:	0cc00fe9 	jal	53003fa4 <printf>
53002dbc:	afa90014 	sw	t1,20(sp)
53002dc0:	1000ff45 	b	53002ad8 <launcher_scene_desktop+0x410>
53002dc4:	2404ffff 	li	a0,-1
53002dc8:	0cc00c2b 	jal	530030ac <enter_background_mode>
53002dcc:	00000000 	nop
53002dd0:	8e6451a8 	lw	a0,20904(s3)
53002dd4:	1000ff3b 	b	53002ac4 <launcher_scene_desktop+0x3fc>
53002dd8:	ac800004 	sw	zero,4(a0)
53002ddc:	0cc00795 	jal	53001e54 <_scene_desktop_close_theme>
53002de0:	00000000 	nop
53002de4:	14400013 	bnez	v0,53002e34 <launcher_scene_desktop+0x76c>
53002de8:	00000000 	nop
53002dec:	0cc00cb0 	jal	530032c0 <__errno>
53002df0:	3c135300 	lui	s3,0x5300
53002df4:	0cc00cad 	jal	530032b4 <getpid>
53002df8:	0040b821 	move	s7,v0
53002dfc:	3c0f5300 	lui	t7,0x5300
53002e00:	3c0e5300 	lui	t6,0x5300
53002e04:	8ee50000 	lw	a1,0(s7)
53002e08:	25e449ec 	addiu	a0,t7,18924
53002e0c:	00403021 	move	a2,v0
53002e10:	25c744ec 	addiu	a3,t6,17644
53002e14:	1000ff83 	b	53002c24 <launcher_scene_desktop+0x55c>
53002e18:	24030360 	li	v1,864
53002e1c:	0cc00be2 	jal	53002f88 <fusion_set_last_frame>
53002e20:	00002021 	move	a0,zero
53002e24:	0cc00be5 	jal	53002f94 <fusion_display>
53002e28:	00002021 	move	a0,zero
53002e2c:	1000ff1e 	b	53002aa8 <launcher_scene_desktop+0x3e0>
53002e30:	8e6451a8 	lw	a0,20904(s3)
53002e34:	0cc00fef 	jal	53003fbc <dlclose>
53002e38:	8ec40000 	lw	a0,0(s6)
53002e3c:	0cc00c07 	jal	5300301c <sys_pm_clear_clk_domain>
53002e40:	02e02021 	move	a0,s7
53002e44:	8e0751a8 	lw	a3,20904(s0)
53002e48:	1000fe53 	b	53002798 <launcher_scene_desktop+0xd0>
53002e4c:	8ce20050 	lw	v0,80(a3)

53002e50 <headbar_load_style>:
53002e50:	3c030013 	lui	v1,0x13
53002e54:	34630026 	ori	v1,v1,0x26
53002e58:	0000000c 	syscall

53002e5c <headbar_paint>:
53002e5c:	3c030013 	lui	v1,0x13
53002e60:	34630027 	ori	v1,v1,0x27
53002e64:	0000000c 	syscall

53002e68 <headbar_create>:
53002e68:	3c030013 	lui	v1,0x13
53002e6c:	34630029 	ori	v1,v1,0x29
53002e70:	0000000c 	syscall

53002e74 <headbar_delete>:
53002e74:	3c030013 	lui	v1,0x13
53002e78:	3463002a 	ori	v1,v1,0x2a
53002e7c:	0000000c 	syscall

53002e80 <menu_create>:
53002e80:	3c030013 	lui	v1,0x13
53002e84:	34630032 	ori	v1,v1,0x32
53002e88:	0000000c 	syscall

53002e8c <menu_delete>:
53002e8c:	3c030013 	lui	v1,0x13
53002e90:	34630033 	ori	v1,v1,0x33
53002e94:	0000000c 	syscall

53002e98 <menu_set_cur_index>:
53002e98:	3c030013 	lui	v1,0x13
53002e9c:	34630034 	ori	v1,v1,0x34
53002ea0:	0000000c 	syscall

53002ea4 <menu_append_item>:
53002ea4:	3c030013 	lui	v1,0x13
53002ea8:	3463003e 	ori	v1,v1,0x3e
53002eac:	0000000c 	syscall

53002eb0 <menuview_create>:
53002eb0:	3c030013 	lui	v1,0x13
53002eb4:	34630048 	ori	v1,v1,0x48
53002eb8:	0000000c 	syscall

53002ebc <menuview_delete>:
53002ebc:	3c030013 	lui	v1,0x13
53002ec0:	34630049 	ori	v1,v1,0x49
53002ec4:	0000000c 	syscall

53002ec8 <menuview_paint>:
53002ec8:	3c030013 	lui	v1,0x13
53002ecc:	3463004a 	ori	v1,v1,0x4a
53002ed0:	0000000c 	syscall

53002ed4 <menuview_proc_gui>:
53002ed4:	3c030013 	lui	v1,0x13
53002ed8:	3463004b 	ori	v1,v1,0x4b
53002edc:	0000000c 	syscall

53002ee0 <menuview_load_style>:
53002ee0:	3c030013 	lui	v1,0x13
53002ee4:	3463004c 	ori	v1,v1,0x4c
53002ee8:	0000000c 	syscall

53002eec <menuview_set_menu>:
53002eec:	3c030013 	lui	v1,0x13
53002ef0:	3463004f 	ori	v1,v1,0x4f
53002ef4:	0000000c 	syscall

53002ef8 <msgbox_proc_gui>:
53002ef8:	3c030013 	lui	v1,0x13
53002efc:	34630056 	ori	v1,v1,0x56
53002f00:	0000000c 	syscall

53002f04 <msgbox_proc_sys>:
53002f04:	3c030013 	lui	v1,0x13
53002f08:	34630057 	ori	v1,v1,0x57
53002f0c:	0000000c 	syscall

53002f10 <msgbox_create>:
53002f10:	3c030013 	lui	v1,0x13
53002f14:	34630058 	ori	v1,v1,0x58
53002f18:	0000000c 	syscall

53002f1c <msgbox_paint>:
53002f1c:	3c030013 	lui	v1,0x13
53002f20:	34630059 	ori	v1,v1,0x59
53002f24:	0000000c 	syscall

53002f28 <msgbox_delete>:
53002f28:	3c030013 	lui	v1,0x13
53002f2c:	3463005a 	ori	v1,v1,0x5a
53002f30:	0000000c 	syscall

53002f34 <msgbox_load_style>:
53002f34:	3c030013 	lui	v1,0x13
53002f38:	3463005b 	ori	v1,v1,0x5b
53002f3c:	0000000c 	syscall

53002f40 <volumebar_proc_gui>:
53002f40:	3c030013 	lui	v1,0x13
53002f44:	3463006b 	ori	v1,v1,0x6b
53002f48:	0000000c 	syscall

53002f4c <volumebar_create>:
53002f4c:	3c030013 	lui	v1,0x13
53002f50:	3463006c 	ori	v1,v1,0x6c
53002f54:	0000000c 	syscall

53002f58 <volumebar_delete>:
53002f58:	3c030013 	lui	v1,0x13
53002f5c:	3463006d 	ori	v1,v1,0x6d
53002f60:	0000000c 	syscall

53002f64 <volumebar_paint>:
53002f64:	3c030013 	lui	v1,0x13
53002f68:	3463006e 	ori	v1,v1,0x6e
53002f6c:	0000000c 	syscall

53002f70 <volumebar_load_style>:
53002f70:	3c030013 	lui	v1,0x13
53002f74:	3463006f 	ori	v1,v1,0x6f
53002f78:	0000000c 	syscall

53002f7c <fusion_set_first_frame>:
53002f7c:	3c030017 	lui	v1,0x17
53002f80:	34630001 	ori	v1,v1,0x1
53002f84:	0000000c 	syscall

53002f88 <fusion_set_last_frame>:
53002f88:	3c030017 	lui	v1,0x17
53002f8c:	34630002 	ori	v1,v1,0x2
53002f90:	0000000c 	syscall

53002f94 <fusion_display>:
53002f94:	3c030017 	lui	v1,0x17
53002f98:	34630003 	ori	v1,v1,0x3
53002f9c:	0000000c 	syscall

53002fa0 <fusion_get_config>:
53002fa0:	3c030017 	lui	v1,0x17
53002fa4:	34630005 	ori	v1,v1,0x5
53002fa8:	0000000c 	syscall

53002fac <fusion_set_effect>:
53002fac:	3c030017 	lui	v1,0x17
53002fb0:	0000000c 	syscall

53002fb4 <close_style_file>:
53002fb4:	3c03000d 	lui	v1,0xd
53002fb8:	34630001 	ori	v1,v1,0x1
53002fbc:	0000000c 	syscall
53002fc0:	00000000 	nop

53002fc4 <load_scene>:
53002fc4:	3c03000d 	lui	v1,0xd
53002fc8:	34630002 	ori	v1,v1,0x2
53002fcc:	0000000c 	syscall
53002fd0:	00000000 	nop

53002fd4 <free_scene>:
53002fd4:	3c03000d 	lui	v1,0xd
53002fd8:	34630003 	ori	v1,v1,0x3
53002fdc:	0000000c 	syscall
53002fe0:	00000000 	nop

53002fe4 <get_scene_child>:
53002fe4:	3c03000d 	lui	v1,0xd
53002fe8:	34630004 	ori	v1,v1,0x4
53002fec:	0000000c 	syscall
53002ff0:	00000000 	nop

53002ff4 <get_resgroup_child>:
53002ff4:	3c03000d 	lui	v1,0xd
53002ff8:	34630005 	ori	v1,v1,0x5
53002ffc:	0000000c 	syscall
53003000:	00000000 	nop

53003004 <open_style_file>:
53003004:	3c03000d 	lui	v1,0xd
53003008:	0000000c 	syscall
5300300c:	00000000 	nop

53003010 <sys_pm_set_clk_domain>:
53003010:	3c030012 	lui	v1,0x12
53003014:	3463008f 	ori	v1,v1,0x8f
53003018:	0000000c 	syscall

5300301c <sys_pm_clear_clk_domain>:
5300301c:	3c030012 	lui	v1,0x12
53003020:	34630090 	ori	v1,v1,0x90
53003024:	0000000c 	syscall

53003028 <sys_get_common_theme_res_dir>:
53003028:	3c030012 	lui	v1,0x12
5300302c:	34630094 	ori	v1,v1,0x94
53003030:	0000000c 	syscall

53003034 <sys_get_common_string_res_dir>:
53003034:	3c030012 	lui	v1,0x12
53003038:	34630095 	ori	v1,v1,0x95
5300303c:	0000000c 	syscall

53003040 <canvas_get_focus>:
53003040:	3c030012 	lui	v1,0x12
53003044:	3463009f 	ori	v1,v1,0x9f
53003048:	0000000c 	syscall

5300304c <get_user_bg_pic>:
5300304c:	3c030012 	lui	v1,0x12
53003050:	34630023 	ori	v1,v1,0x23
53003054:	0000000c 	syscall

53003058 <get_msg>:
53003058:	3c030012 	lui	v1,0x12
5300305c:	34630038 	ori	v1,v1,0x38
53003060:	0000000c 	syscall

53003064 <reply_sync_msg>:
53003064:	3c030012 	lui	v1,0x12
53003068:	3463003a 	ori	v1,v1,0x3a
5300306c:	0000000c 	syscall

53003070 <dispatch_msg>:
53003070:	3c030012 	lui	v1,0x12
53003074:	3463003d 	ori	v1,v1,0x3d
53003078:	0000000c 	syscall

5300307c <register_sys_dispatcher>:
5300307c:	3c030012 	lui	v1,0x12
53003080:	3463003e 	ori	v1,v1,0x3e
53003084:	0000000c 	syscall

53003088 <unregister_sys_dispatcher>:
53003088:	3c030012 	lui	v1,0x12
5300308c:	3463003f 	ori	v1,v1,0x3f
53003090:	0000000c 	syscall

53003094 <exit_msg_loop>:
53003094:	3c030012 	lui	v1,0x12
53003098:	34630040 	ori	v1,v1,0x40
5300309c:	0000000c 	syscall

530030a0 <clear_key_msg_queue>:
530030a0:	3c030012 	lui	v1,0x12
530030a4:	34630042 	ori	v1,v1,0x42
530030a8:	0000000c 	syscall

530030ac <enter_background_mode>:
530030ac:	3c030012 	lui	v1,0x12
530030b0:	34630043 	ori	v1,v1,0x43
530030b4:	0000000c 	syscall

530030b8 <enter_foreground_mode>:
530030b8:	3c030012 	lui	v1,0x12
530030bc:	34630044 	ori	v1,v1,0x44
530030c0:	0000000c 	syscall

530030c4 <sty_open_common_pic_res>:
530030c4:	3c030012 	lui	v1,0x12
530030c8:	34630047 	ori	v1,v1,0x47
530030cc:	0000000c 	syscall

530030d0 <sty_open_common_str_res>:
530030d0:	3c030012 	lui	v1,0x12
530030d4:	34630048 	ori	v1,v1,0x48
530030d8:	0000000c 	syscall

530030dc <sty_close_common_pic_res>:
530030dc:	3c030012 	lui	v1,0x12
530030e0:	34630049 	ori	v1,v1,0x49
530030e4:	0000000c 	syscall

530030e8 <sty_close_common_str_res>:
530030e8:	3c030012 	lui	v1,0x12
530030ec:	3463004a 	ori	v1,v1,0x4a
530030f0:	0000000c 	syscall

530030f4 <sty_open_app_pic_res>:
530030f4:	3c030012 	lui	v1,0x12
530030f8:	3463004b 	ori	v1,v1,0x4b
530030fc:	0000000c 	syscall

53003100 <sty_open_app_str_res>:
53003100:	3c030012 	lui	v1,0x12
53003104:	3463004c 	ori	v1,v1,0x4c
53003108:	0000000c 	syscall

5300310c <sty_close_app_pic_res>:
5300310c:	3c030012 	lui	v1,0x12
53003110:	3463004d 	ori	v1,v1,0x4d
53003114:	0000000c 	syscall

53003118 <sty_close_app_str_res>:
53003118:	3c030012 	lui	v1,0x12
5300311c:	3463004e 	ori	v1,v1,0x4e
53003120:	0000000c 	syscall

53003124 <sty_set_app_scene>:
53003124:	3c030012 	lui	v1,0x12
53003128:	3463004f 	ori	v1,v1,0x4f
5300312c:	0000000c 	syscall

53003130 <sty_get_app_scene>:
53003130:	3c030012 	lui	v1,0x12
53003134:	34630050 	ori	v1,v1,0x50
53003138:	0000000c 	syscall

5300313c <sty_set_common_scene>:
5300313c:	3c030012 	lui	v1,0x12
53003140:	34630051 	ori	v1,v1,0x51
53003144:	0000000c 	syscall

53003148 <sty_set_text_encoding>:
53003148:	3c030012 	lui	v1,0x12
5300314c:	34630053 	ori	v1,v1,0x53
53003150:	0000000c 	syscall

53003154 <sty_draw_string_res_ext>:
53003154:	3c030012 	lui	v1,0x12
53003158:	3463005c 	ori	v1,v1,0x5c
5300315c:	0000000c 	syscall

53003160 <sty_draw_picture_id>:
53003160:	3c030012 	lui	v1,0x12
53003164:	34630061 	ori	v1,v1,0x61
53003168:	0000000c 	syscall

5300316c <sty_draw_bitmap>:
5300316c:	3c030012 	lui	v1,0x12
53003170:	34630066 	ori	v1,v1,0x66
53003174:	0000000c 	syscall

53003178 <sty_create_bitmap>:
53003178:	3c030012 	lui	v1,0x12
5300317c:	34630068 	ori	v1,v1,0x68
53003180:	0000000c 	syscall

53003184 <sty_delete_bitmap>:
53003184:	3c030012 	lui	v1,0x12
53003188:	3463006a 	ori	v1,v1,0x6a
5300318c:	0000000c 	syscall

53003190 <sty_get_view_rotation>:
53003190:	3c030012 	lui	v1,0x12
53003194:	3463006d 	ori	v1,v1,0x6d
53003198:	0000000c 	syscall

5300319c <sty_set_screen_rotation>:
5300319c:	3c030012 	lui	v1,0x12
530031a0:	3463006e 	ori	v1,v1,0x6e
530031a4:	0000000c 	syscall

530031a8 <sys_get_app_theme_res_dir>:
530031a8:	3c030012 	lui	v1,0x12
530031ac:	34630072 	ori	v1,v1,0x72
530031b0:	0000000c 	syscall

530031b4 <sys_get_app_string_res_dir>:
530031b4:	3c030012 	lui	v1,0x12
530031b8:	34630074 	ori	v1,v1,0x74
530031bc:	0000000c 	syscall

530031c0 <sys_get_cur_language_codes>:
530031c0:	3c030012 	lui	v1,0x12
530031c4:	34630075 	ori	v1,v1,0x75
530031c8:	0000000c 	syscall

530031cc <sys_get_cur_language_id>:
530031cc:	3c030012 	lui	v1,0x12
530031d0:	34630076 	ori	v1,v1,0x76
530031d4:	0000000c 	syscall

530031d8 <sys_get_default_font_file>:
530031d8:	3c030012 	lui	v1,0x12
530031dc:	3463007b 	ori	v1,v1,0x7b
530031e0:	0000000c 	syscall

530031e4 <__do_global_dtors_aux>:
530031e4:	27bdffe0 	addiu	sp,sp,-32
530031e8:	afbf001c 	sw	ra,28(sp)
530031ec:	afbe0018 	sw	s8,24(sp)
530031f0:	03a0f021 	move	s8,sp
530031f4:	3c025300 	lui	v0,0x5300
530031f8:	24425010 	addiu	v0,v0,20496
530031fc:	afc20010 	sw	v0,16(s8)
53003200:	8fc20010 	lw	v0,16(s8)
53003204:	8c420000 	lw	v0,0(v0)
53003208:	1040000a 	beqz	v0,53003234 <__do_global_dtors_aux+0x50>
5300320c:	00000000 	nop
53003210:	8fc20010 	lw	v0,16(s8)
53003214:	8c420000 	lw	v0,0(v0)
53003218:	0040f809 	jalr	v0
5300321c:	00000000 	nop
53003220:	8fc20010 	lw	v0,16(s8)
53003224:	24420004 	addiu	v0,v0,4
53003228:	afc20010 	sw	v0,16(s8)
5300322c:	1000fff4 	b	53003200 <__do_global_dtors_aux+0x1c>
53003230:	00000000 	nop
53003234:	03c0e821 	move	sp,s8
53003238:	8fbf001c 	lw	ra,28(sp)
5300323c:	8fbe0018 	lw	s8,24(sp)
53003240:	27bd0020 	addiu	sp,sp,32
53003244:	03e00008 	jr	ra
53003248:	00000000 	nop

5300324c <__do_global_ctors_aux>:
5300324c:	27bdffe0 	addiu	sp,sp,-32
53003250:	afbf001c 	sw	ra,28(sp)
53003254:	afbe0018 	sw	s8,24(sp)
53003258:	03a0f021 	move	s8,sp
5300325c:	3c025300 	lui	v0,0x5300
53003260:	24425004 	addiu	v0,v0,20484
53003264:	afc20010 	sw	v0,16(s8)
53003268:	8fc20010 	lw	v0,16(s8)
5300326c:	8c420000 	lw	v0,0(v0)
53003270:	1040000a 	beqz	v0,5300329c <__do_global_ctors_aux+0x50>
53003274:	00000000 	nop
53003278:	8fc20010 	lw	v0,16(s8)
5300327c:	8c420000 	lw	v0,0(v0)
53003280:	0040f809 	jalr	v0
53003284:	00000000 	nop
53003288:	8fc20010 	lw	v0,16(s8)
5300328c:	24420004 	addiu	v0,v0,4
53003290:	afc20010 	sw	v0,16(s8)
53003294:	1000fff4 	b	53003268 <__do_global_ctors_aux+0x1c>
53003298:	00000000 	nop
5300329c:	03c0e821 	move	sp,s8
530032a0:	8fbf001c 	lw	ra,28(sp)
530032a4:	8fbe0018 	lw	s8,24(sp)
530032a8:	27bd0020 	addiu	sp,sp,32
530032ac:	03e00008 	jr	ra
530032b0:	00000000 	nop

530032b4 <getpid>:
530032b4:	3c030007 	lui	v1,0x7
530032b8:	34630016 	ori	v1,v1,0x16
530032bc:	0000000c 	syscall

530032c0 <__errno>:
530032c0:	3c030007 	lui	v1,0x7
530032c4:	34630024 	ori	v1,v1,0x24
530032c8:	0000000c 	syscall

530032cc <snprintf>:
530032cc:	27bdffe8 	addiu	sp,sp,-24
530032d0:	afa70024 	sw	a3,36(sp)
530032d4:	27a70024 	addiu	a3,sp,36
530032d8:	afbf0010 	sw	ra,16(sp)
530032dc:	0cc00cc6 	jal	53003318 <vsnprintf>
530032e0:	afa60020 	sw	a2,32(sp)
530032e4:	8fbf0010 	lw	ra,16(sp)
530032e8:	03e00008 	jr	ra
530032ec:	27bd0018 	addiu	sp,sp,24

530032f0 <sprintf>:
530032f0:	27bdffe8 	addiu	sp,sp,-24
530032f4:	afa60020 	sw	a2,32(sp)
530032f8:	27a60020 	addiu	a2,sp,32
530032fc:	afbf0010 	sw	ra,16(sp)
53003300:	afa70024 	sw	a3,36(sp)
53003304:	0cc00d9d 	jal	53003674 <vsprintf>
53003308:	afa5001c 	sw	a1,28(sp)
5300330c:	8fbf0010 	lw	ra,16(sp)
53003310:	03e00008 	jr	ra
53003314:	27bd0018 	addiu	sp,sp,24

53003318 <vsnprintf>:
53003318:	27bdfee0 	addiu	sp,sp,-288
5300331c:	afb10114 	sw	s1,276(sp)
53003320:	00a08821 	move	s1,a1
53003324:	afb00110 	sw	s0,272(sp)
53003328:	00918021 	addu	s0,a0,s1
5300332c:	00c01821 	move	v1,a2
53003330:	00c02821 	move	a1,a2
53003334:	afbf0118 	sw	ra,280(sp)
53003338:	00e03021 	move	a2,a3
5300333c:	1220000e 	beqz	s1,53003378 <vsnprintf+0x60>
53003340:	2602ffff 	addiu	v0,s0,-1
53003344:	10820013 	beq	a0,v0,53003394 <vsnprintf+0x7c>
53003348:	00602821 	move	a1,v1
5300334c:	0cc00d9d 	jal	53003674 <vsprintf>
53003350:	00000000 	nop
53003354:	0051182a 	slt	v1,v0,s1
53003358:	14600003 	bnez	v1,53003368 <vsnprintf+0x50>
5300335c:	8fbf0118 	lw	ra,280(sp)
53003360:	a200ffff 	sb	zero,-1(s0)
53003364:	2622ffff 	addiu	v0,s1,-1
53003368:	8fb10114 	lw	s1,276(sp)
5300336c:	8fb00110 	lw	s0,272(sp)
53003370:	03e00008 	jr	ra
53003374:	27bd0120 	addiu	sp,sp,288
53003378:	0cc00d9d 	jal	53003674 <vsprintf>
5300337c:	27a40010 	addiu	a0,sp,16
53003380:	8fbf0118 	lw	ra,280(sp)
53003384:	8fb10114 	lw	s1,276(sp)
53003388:	8fb00110 	lw	s0,272(sp)
5300338c:	03e00008 	jr	ra
53003390:	27bd0120 	addiu	sp,sp,288
53003394:	0cc00d9d 	jal	53003674 <vsprintf>
53003398:	27a40010 	addiu	a0,sp,16
5300339c:	a200ffff 	sb	zero,-1(s0)
530033a0:	8fbf0118 	lw	ra,280(sp)
530033a4:	8fb10114 	lw	s1,276(sp)
530033a8:	8fb00110 	lw	s0,272(sp)
530033ac:	03e00008 	jr	ra
530033b0:	27bd0120 	addiu	sp,sp,288

530033b4 <skip_atoi>:
530033b4:	8c870000 	lw	a3,0(a0)
530033b8:	00804821 	move	t1,a0
530033bc:	90e50000 	lbu	a1,0(a3)
530033c0:	00004021 	move	t0,zero
530033c4:	24a4ffd0 	addiu	a0,a1,-48
530033c8:	308300ff 	andi	v1,a0,0xff
530033cc:	2c62000a 	sltiu	v0,v1,10
530033d0:	1040000f 	beqz	v0,53003410 <skip_atoi+0x5c>
530033d4:	00e03021 	move	a2,a3
530033d8:	24c60001 	addiu	a2,a2,1
530033dc:	ad260000 	sw	a2,0(t1)
530033e0:	24e70001 	addiu	a3,a3,1
530033e4:	7c056c20 	seb	t5,a1
530033e8:	90e50000 	lbu	a1,0(a3)
530033ec:	0008c080 	sll	t8,t0,0x2
530033f0:	03087821 	addu	t7,t8,t0
530033f4:	24aeffd0 	addiu	t6,a1,-48
530033f8:	31c800ff 	andi	t0,t6,0xff
530033fc:	000f6040 	sll	t4,t7,0x1
53003400:	018d5821 	addu	t3,t4,t5
53003404:	2d0a000a 	sltiu	t2,t0,10
53003408:	1540fff3 	bnez	t2,530033d8 <skip_atoi+0x24>
5300340c:	2568ffd0 	addiu	t0,t3,-48
53003410:	03e00008 	jr	ra
53003414:	01001021 	move	v0,t0

53003418 <number_signed>:
53003418:	27bdffb8 	addiu	sp,sp,-72
5300341c:	8fab005c 	lw	t3,92(sp)
53003420:	3c025300 	lui	v0,0x5300
53003424:	31630040 	andi	v1,t3,0x40
53003428:	00804021 	move	t0,a0
5300342c:	244d4a34 	addiu	t5,v0,18996
53003430:	10600003 	beqz	v1,53003440 <number_signed+0x28>
53003434:	8fb80058 	lw	t8,88(sp)
53003438:	3c045300 	lui	a0,0x5300
5300343c:	248d4a5c 	addiu	t5,a0,19036
53003440:	31690010 	andi	t1,t3,0x10
53003444:	11200003 	beqz	t1,53003454 <number_signed+0x3c>
53003448:	24cefffe 	addiu	t6,a2,-2
5300344c:	240afffe 	li	t2,-2
53003450:	016a5824 	and	t3,t3,t2
53003454:	2dcc0023 	sltiu	t4,t6,35
53003458:	11800050 	beqz	t4,5300359c <number_signed+0x184>
5300345c:	00001821 	move	v1,zero
53003460:	240f0020 	li	t7,32
53003464:	31630001 	andi	v1,t3,0x1
53003468:	240c0030 	li	t4,48
5300346c:	31790002 	andi	t9,t3,0x2
53003470:	01e3600a 	movz	t4,t7,v1
53003474:	17200064 	bnez	t9,53003608 <number_signed+0x1f0>
53003478:	00007821 	move	t7,zero
5300347c:	316e0020 	andi	t6,t3,0x20
53003480:	11c00007 	beqz	t6,530034a0 <number_signed+0x88>
53003484:	00005021 	move	t2,zero
53003488:	24090010 	li	t1,16
5300348c:	10c9006e 	beq	a2,t1,53003648 <number_signed+0x230>
53003490:	38d90008 	xori	t9,a2,0x8
53003494:	2f2a0001 	sltiu	t2,t9,1
53003498:	00ea3823 	subu	a3,a3,t2
5300349c:	00005021 	move	t2,zero
530034a0:	14a00041 	bnez	a1,530035a8 <number_signed+0x190>
530034a4:	03a04821 	move	t1,sp
530034a8:	24050030 	li	a1,48
530034ac:	240a0001 	li	t2,1
530034b0:	a3a50000 	sb	a1,0(sp)
530034b4:	030a482a 	slt	t1,t8,t2
530034b8:	01402021 	move	a0,t2
530034bc:	0309200a 	movz	a0,t8,t1
530034c0:	31780011 	andi	t8,t3,0x11
530034c4:	17000008 	bnez	t8,530034e8 <number_signed+0xd0>
530034c8:	00e43823 	subu	a3,a3,a0
530034cc:	18e00006 	blez	a3,530034e8 <number_signed+0xd0>
530034d0:	00000000 	nop
530034d4:	24020020 	li	v0,32
530034d8:	24e7ffff 	addiu	a3,a3,-1
530034dc:	a1020000 	sb	v0,0(t0)
530034e0:	1ce0fffd 	bgtz	a3,530034d8 <number_signed+0xc0>
530034e4:	25080001 	addiu	t0,t0,1
530034e8:	11e00003 	beqz	t7,530034f8 <number_signed+0xe0>
530034ec:	00000000 	nop
530034f0:	a10f0000 	sb	t7,0(t0)
530034f4:	25080001 	addiu	t0,t0,1
530034f8:	51c00007 	beqzl	t6,53003518 <number_signed+0x100>
530034fc:	316d0010 	andi	t5,t3,0x10
53003500:	240e0008 	li	t6,8
53003504:	10ce004c 	beq	a2,t6,53003638 <number_signed+0x220>
53003508:	240f0010 	li	t7,16
5300350c:	10cf0054 	beq	a2,t7,53003660 <number_signed+0x248>
53003510:	24030030 	li	v1,48
53003514:	316d0010 	andi	t5,t3,0x10
53003518:	15a00008 	bnez	t5,5300353c <number_signed+0x124>
5300351c:	0144582a 	slt	t3,t2,a0
53003520:	10000003 	b	53003530 <number_signed+0x118>
53003524:	00000000 	nop
53003528:	24e7ffff 	addiu	a3,a3,-1
5300352c:	25080001 	addiu	t0,t0,1
53003530:	5ce0fffd 	bgtzl	a3,53003528 <number_signed+0x110>
53003534:	a10c0000 	sb	t4,0(t0)
53003538:	0144582a 	slt	t3,t2,a0
5300353c:	11600007 	beqz	t3,5300355c <number_signed+0x144>
53003540:	00000000 	nop
53003544:	24030030 	li	v1,48
53003548:	2484ffff 	addiu	a0,a0,-1
5300354c:	0144602a 	slt	t4,t2,a0
53003550:	a1030000 	sb	v1,0(t0)
53003554:	1580fffc 	bnez	t4,53003548 <number_signed+0x130>
53003558:	25080001 	addiu	t0,t0,1
5300355c:	19400008 	blez	t2,53003580 <number_signed+0x168>
53003560:	00000000 	nop
53003564:	015d1821 	addu	v1,t2,sp
53003568:	2463ffff 	addiu	v1,v1,-1
5300356c:	90640000 	lbu	a0,0(v1)
53003570:	254affff 	addiu	t2,t2,-1
53003574:	a1040000 	sb	a0,0(t0)
53003578:	1d40fffb 	bgtz	t2,53003568 <number_signed+0x150>
5300357c:	25080001 	addiu	t0,t0,1
53003580:	18e00005 	blez	a3,53003598 <number_signed+0x180>
53003584:	24020020 	li	v0,32
53003588:	24e7ffff 	addiu	a3,a3,-1
5300358c:	a1020000 	sb	v0,0(t0)
53003590:	1ce0fffd 	bgtz	a3,53003588 <number_signed+0x170>
53003594:	25080001 	addiu	t0,t0,1
53003598:	01001821 	move	v1,t0
5300359c:	00601021 	move	v0,v1
530035a0:	03e00008 	jr	ra
530035a4:	27bd0048 	addiu	sp,sp,72
530035a8:	00a6001a 	div	zero,a1,a2
530035ac:	00c001f4 	teq	a2,zero,0x7
530035b0:	254a0001 	addiu	t2,t2,1
530035b4:	0000c810 	mfhi	t9
530035b8:	00002012 	mflo	a0
530035bc:	032d1021 	addu	v0,t9,t5
530035c0:	90430000 	lbu	v1,0(v0)
530035c4:	00002812 	mflo	a1
530035c8:	a1230000 	sb	v1,0(t1)
530035cc:	1080ffb9 	beqz	a0,530034b4 <number_signed+0x9c>
530035d0:	25290001 	addiu	t1,t1,1
530035d4:	00a6001a 	div	zero,a1,a2
530035d8:	00c001f4 	teq	a2,zero,0x7
530035dc:	254a0001 	addiu	t2,t2,1
530035e0:	0000c810 	mfhi	t9
530035e4:	00002012 	mflo	a0
530035e8:	032d1021 	addu	v0,t9,t5
530035ec:	90430000 	lbu	v1,0(v0)
530035f0:	00002812 	mflo	a1
530035f4:	a1230000 	sb	v1,0(t1)
530035f8:	1480ffeb 	bnez	a0,530035a8 <number_signed+0x190>
530035fc:	25290001 	addiu	t1,t1,1
53003600:	1000ffad 	b	530034b8 <number_signed+0xa0>
53003604:	030a482a 	slt	t1,t8,t2
53003608:	04a00011 	bltz	a1,53003650 <number_signed+0x238>
5300360c:	31620004 	andi	v0,t3,0x4
53003610:	54400007 	bnezl	v0,53003630 <number_signed+0x218>
53003614:	24e7ffff 	addiu	a3,a3,-1
53003618:	31640008 	andi	a0,t3,0x8
5300361c:	1080ff98 	beqz	a0,53003480 <number_signed+0x68>
53003620:	316e0020 	andi	t6,t3,0x20
53003624:	24e7ffff 	addiu	a3,a3,-1
53003628:	1000ff95 	b	53003480 <number_signed+0x68>
5300362c:	240f0020 	li	t7,32
53003630:	1000ff92 	b	5300347c <number_signed+0x64>
53003634:	240f002b 	li	t7,43
53003638:	24060030 	li	a2,48
5300363c:	a1060000 	sb	a2,0(t0)
53003640:	1000ffb4 	b	53003514 <number_signed+0xfc>
53003644:	25080001 	addiu	t0,t0,1
53003648:	1000ff94 	b	5300349c <number_signed+0x84>
5300364c:	24e7fffe 	addiu	a3,a3,-2
53003650:	00052823 	negu	a1,a1
53003654:	24e7ffff 	addiu	a3,a3,-1
53003658:	1000ff88 	b	5300347c <number_signed+0x64>
5300365c:	240f002d 	li	t7,45
53003660:	a1030000 	sb	v1,0(t0)
53003664:	91a50021 	lbu	a1,33(t5)
53003668:	a1050001 	sb	a1,1(t0)
5300366c:	1000ffa9 	b	53003514 <number_signed+0xfc>
53003670:	25080002 	addiu	t0,t0,2

53003674 <vsprintf>:
53003674:	27bdff80 	addiu	sp,sp,-128
53003678:	2ca20001 	sltiu	v0,a1,1
5300367c:	afb40070 	sw	s4,112(sp)
53003680:	0080a021 	move	s4,a0
53003684:	2c840001 	sltiu	a0,a0,1
53003688:	00821825 	or	v1,a0,v0
5300368c:	afb3006c 	sw	s3,108(sp)
53003690:	afbf0078 	sw	ra,120(sp)
53003694:	afb50074 	sw	s5,116(sp)
53003698:	afb20068 	sw	s2,104(sp)
5300369c:	afb10064 	sw	s1,100(sp)
530036a0:	afb00060 	sw	s0,96(sp)
530036a4:	00a04021 	move	t0,a1
530036a8:	afa50084 	sw	a1,132(sp)
530036ac:	00c09821 	move	s3,a2
530036b0:	14600013 	bnez	v1,53003700 <vsprintf+0x8c>
530036b4:	00001021 	move	v0,zero
530036b8:	91040000 	lbu	a0,0(t0)
530036bc:	7c041c20 	seb	v1,a0
530036c0:	1060000d 	beqz	v1,530036f8 <vsprintf+0x84>
530036c4:	02808021 	move	s0,s4
530036c8:	24050025 	li	a1,37
530036cc:	10650016 	beq	v1,a1,53003728 <vsprintf+0xb4>
530036d0:	00008821 	move	s1,zero
530036d4:	a2040000 	sb	a0,0(s0)
530036d8:	8fa80084 	lw	t0,132(sp)
530036dc:	26100001 	addiu	s0,s0,1
530036e0:	25080001 	addiu	t0,t0,1
530036e4:	afa80084 	sw	t0,132(sp)
530036e8:	91040000 	lbu	a0,0(t0)
530036ec:	7c041c20 	seb	v1,a0
530036f0:	1460fff6 	bnez	v1,530036cc <vsprintf+0x58>
530036f4:	24050025 	li	a1,37
530036f8:	02141023 	subu	v0,s0,s4
530036fc:	a2000000 	sb	zero,0(s0)
53003700:	8fbf0078 	lw	ra,120(sp)
53003704:	8fb50074 	lw	s5,116(sp)
53003708:	8fb40070 	lw	s4,112(sp)
5300370c:	8fb3006c 	lw	s3,108(sp)
53003710:	8fb20068 	lw	s2,104(sp)
53003714:	8fb10064 	lw	s1,100(sp)
53003718:	8fb00060 	lw	s0,96(sp)
5300371c:	03e00008 	jr	ra
53003720:	27bd0080 	addiu	sp,sp,128
53003724:	36310001 	ori	s1,s1,0x1
53003728:	25080001 	addiu	t0,t0,1
5300372c:	afa80084 	sw	t0,132(sp)
53003730:	91070000 	lbu	a3,0(t0)
53003734:	7c072420 	seb	a0,a3
53003738:	388d002d 	xori	t5,a0,0x2d
5300373c:	388c002b 	xori	t4,a0,0x2b
53003740:	2daa0001 	sltiu	t2,t5,1
53003744:	2d8b0001 	sltiu	t3,t4,1
53003748:	014b4825 	or	t1,t2,t3
5300374c:	15200008 	bnez	t1,53003770 <vsprintf+0xfc>
53003750:	01003021 	move	a2,t0
53003754:	240e0023 	li	t6,35
53003758:	108e0005 	beq	a0,t6,53003770 <vsprintf+0xfc>
5300375c:	240f0030 	li	t7,48
53003760:	108f0003 	beq	a0,t7,53003770 <vsprintf+0xfc>
53003764:	24120020 	li	s2,32
53003768:	14920015 	bne	a0,s2,530037c0 <vsprintf+0x14c>
5300376c:	24eaffd0 	addiu	t2,a3,-48
53003770:	80c70000 	lb	a3,0(a2)
53003774:	24e2ffe0 	addiu	v0,a3,-32
53003778:	2c460011 	sltiu	a2,v0,17
5300377c:	50c0ffeb 	beqzl	a2,5300372c <vsprintf+0xb8>
53003780:	25080001 	addiu	t0,t0,1
53003784:	3c045300 	lui	a0,0x5300
53003788:	0002f880 	sll	ra,v0,0x2
5300378c:	2483416c 	addiu	v1,a0,16748
53003790:	03e3c821 	addu	t9,ra,v1
53003794:	8f380000 	lw	t8,0(t9)
53003798:	03000008 	jr	t8
5300379c:	00000000 	nop
530037a0:	1000ffe1 	b	53003728 <vsprintf+0xb4>
530037a4:	36310010 	ori	s1,s1,0x10
530037a8:	1000ffdf 	b	53003728 <vsprintf+0xb4>
530037ac:	36310004 	ori	s1,s1,0x4
530037b0:	1000ffdd 	b	53003728 <vsprintf+0xb4>
530037b4:	36310020 	ori	s1,s1,0x20
530037b8:	1000ffdb 	b	53003728 <vsprintf+0xb4>
530037bc:	36310008 	ori	s1,s1,0x8
530037c0:	314900ff 	andi	t1,t2,0xff
530037c4:	2d22000a 	sltiu	v0,t1,10
530037c8:	14400030 	bnez	v0,5300388c <vsprintf+0x218>
530037cc:	2412ffff 	li	s2,-1
530037d0:	240b002a 	li	t3,42
530037d4:	508b004b 	beql	a0,t3,53003904 <vsprintf+0x290>
530037d8:	26730004 	addiu	s3,s3,4
530037dc:	91050000 	lbu	a1,0(t0)
530037e0:	240d002e 	li	t5,46
530037e4:	7c057420 	seb	t6,a1
530037e8:	11cd0031 	beq	t6,t5,530038b0 <vsprintf+0x23c>
530037ec:	240cffff 	li	t4,-1
530037f0:	7c052420 	seb	a0,a1
530037f4:	38830068 	xori	v1,a0,0x68
530037f8:	3889006c 	xori	t1,a0,0x6c
530037fc:	2c7f0001 	sltiu	ra,v1,1
53003800:	2d220001 	sltiu	v0,t1,1
53003804:	03e2c825 	or	t9,ra,v0
53003808:	17200010 	bnez	t9,5300384c <vsprintf+0x1d8>
5300380c:	2407ffff 	li	a3,-1
53003810:	240a0071 	li	t2,113
53003814:	108a000d 	beq	a0,t2,5300384c <vsprintf+0x1d8>
53003818:	2482ffdb 	addiu	v0,a0,-37
5300381c:	2c450054 	sltiu	a1,v0,84
53003820:	14a00013 	bnez	a1,53003870 <vsprintf+0x1fc>
53003824:	2406000a 	li	a2,10
53003828:	240a0025 	li	t2,37
5300382c:	a20a0000 	sb	t2,0(s0)
53003830:	8fa30084 	lw	v1,132(sp)
53003834:	26100001 	addiu	s0,s0,1
53003838:	90640000 	lbu	a0,0(v1)
5300383c:	1080ffa8 	beqz	a0,530036e0 <vsprintf+0x6c>
53003840:	2468ffff 	addiu	t0,v1,-1
53003844:	1000ffa4 	b	530036d8 <vsprintf+0x64>
53003848:	a2040000 	sb	a0,0(s0)
5300384c:	25080001 	addiu	t0,t0,1
53003850:	afa80084 	sw	t0,132(sp)
53003854:	91050000 	lbu	a1,0(t0)
53003858:	00803821 	move	a3,a0
5300385c:	7c052420 	seb	a0,a1
53003860:	2482ffdb 	addiu	v0,a0,-37
53003864:	2c450054 	sltiu	a1,v0,84
53003868:	10a0ffef 	beqz	a1,53003828 <vsprintf+0x1b4>
5300386c:	2406000a 	li	a2,10
53003870:	3c185300 	lui	t8,0x5300
53003874:	00027080 	sll	t6,v0,0x2
53003878:	270f41b0 	addiu	t7,t8,16816
5300387c:	01cf6821 	addu	t5,t6,t7
53003880:	8dab0000 	lw	t3,0(t5)
53003884:	01600008 	jr	t3
53003888:	00000000 	nop
5300388c:	0cc00ced 	jal	530033b4 <skip_atoi>
53003890:	27a40084 	addiu	a0,sp,132
53003894:	8fa80084 	lw	t0,132(sp)
53003898:	240d002e 	li	t5,46
5300389c:	91050000 	lbu	a1,0(t0)
530038a0:	00409021 	move	s2,v0
530038a4:	7c057420 	seb	t6,a1
530038a8:	15cdffd1 	bne	t6,t5,530037f0 <vsprintf+0x17c>
530038ac:	240cffff 	li	t4,-1
530038b0:	25080001 	addiu	t0,t0,1
530038b4:	afa80084 	sw	t0,132(sp)
530038b8:	91030000 	lbu	v1,0(t0)
530038bc:	2466ffd0 	addiu	a2,v1,-48
530038c0:	30cf00ff 	andi	t7,a2,0xff
530038c4:	2dec000a 	sltiu	t4,t7,10
530038c8:	15800015 	bnez	t4,53003920 <vsprintf+0x2ac>
530038cc:	7c03c420 	seb	t8,v1
530038d0:	2407002a 	li	a3,42
530038d4:	53070004 	beql	t8,a3,530038e8 <vsprintf+0x274>
530038d8:	26730004 	addiu	s3,s3,4
530038dc:	91050000 	lbu	a1,0(t0)
530038e0:	1000ffc3 	b	530037f0 <vsprintf+0x17c>
530038e4:	00006021 	move	t4,zero
530038e8:	25080001 	addiu	t0,t0,1
530038ec:	8e6cfffc 	lw	t4,-4(s3)
530038f0:	afa80084 	sw	t0,132(sp)
530038f4:	0580fffa 	bltz	t4,530038e0 <vsprintf+0x26c>
530038f8:	91050000 	lbu	a1,0(t0)
530038fc:	1000ffbd 	b	530037f4 <vsprintf+0x180>
53003900:	7c052420 	seb	a0,a1
53003904:	8e72fffc 	lw	s2,-4(s3)
53003908:	25080001 	addiu	t0,t0,1
5300390c:	0641ffb3 	bgez	s2,530037dc <vsprintf+0x168>
53003910:	afa80084 	sw	t0,132(sp)
53003914:	00129023 	negu	s2,s2
53003918:	1000ffb0 	b	530037dc <vsprintf+0x168>
5300391c:	36310010 	ori	s1,s1,0x10
53003920:	0cc00ced 	jal	530033b4 <skip_atoi>
53003924:	27a40084 	addiu	a0,sp,132
53003928:	8fa80084 	lw	t0,132(sp)
5300392c:	1000fff1 	b	530038f4 <vsprintf+0x280>
53003930:	00406021 	move	t4,v0
53003934:	36310040 	ori	s1,s1,0x40
53003938:	24060010 	li	a2,16
5300393c:	2405006c 	li	a1,108
53003940:	10e50003 	beq	a3,a1,53003950 <vsprintf+0x2dc>
53003944:	24040068 	li	a0,104
53003948:	10e400fb 	beq	a3,a0,53003d38 <vsprintf+0x6c4>
5300394c:	32220002 	andi	v0,s1,0x2
53003950:	32220002 	andi	v0,s1,0x2
53003954:	104000f6 	beqz	v0,53003d30 <vsprintf+0x6bc>
53003958:	26730004 	addiu	s3,s3,4
5300395c:	8e65fffc 	lw	a1,-4(s3)
53003960:	144000f9 	bnez	v0,53003d48 <vsprintf+0x6d4>
53003964:	02002021 	move	a0,s0
53003968:	02002821 	move	a1,s0
5300396c:	322e0040 	andi	t6,s1,0x40
53003970:	3c105300 	lui	s0,0x5300
53003974:	260d4a34 	addiu	t5,s0,18996
53003978:	02205821 	move	t3,s1
5300397c:	02403821 	move	a3,s2
53003980:	02a05021 	move	t2,s5
53003984:	11c00003 	beqz	t6,53003994 <vsprintf+0x320>
53003988:	01808021 	move	s0,t4
5300398c:	3c0f5300 	lui	t7,0x5300
53003990:	25ed4a5c 	addiu	t5,t7,19036
53003994:	31780010 	andi	t8,t3,0x10
53003998:	13000003 	beqz	t8,530039a8 <vsprintf+0x334>
5300399c:	24dffffe 	addiu	ra,a2,-2
530039a0:	2411fffe 	li	s1,-2
530039a4:	01715824 	and	t3,t3,s1
530039a8:	2ff90023 	sltiu	t9,ra,35
530039ac:	13200057 	beqz	t9,53003b0c <vsprintf+0x498>
530039b0:	00002021 	move	a0,zero
530039b4:	31620001 	andi	v0,t3,0x1
530039b8:	240e0030 	li	t6,48
530039bc:	24120020 	li	s2,32
530039c0:	31680002 	andi	t0,t3,0x2
530039c4:	0242700a 	movz	t6,s2,v0
530039c8:	11000006 	beqz	t0,530039e4 <vsprintf+0x370>
530039cc:	00008821 	move	s1,zero
530039d0:	31690004 	andi	t1,t3,0x4
530039d4:	112000e4 	beqz	t1,53003d68 <vsprintf+0x6f4>
530039d8:	31630008 	andi	v1,t3,0x8
530039dc:	24e7ffff 	addiu	a3,a3,-1
530039e0:	2411002b 	li	s1,43
530039e4:	316f0020 	andi	t7,t3,0x20
530039e8:	11e00007 	beqz	t7,53003a08 <vsprintf+0x394>
530039ec:	00004821 	move	t1,zero
530039f0:	24040010 	li	a0,16
530039f4:	10c400e1 	beq	a2,a0,53003d7c <vsprintf+0x708>
530039f8:	38d90008 	xori	t9,a2,0x8
530039fc:	2f380001 	sltiu	t8,t9,1
53003a00:	00f83823 	subu	a3,a3,t8
53003a04:	00004821 	move	t1,zero
53003a08:	16a00044 	bnez	s5,53003b1c <vsprintf+0x4a8>
53003a0c:	27a80018 	addiu	t0,sp,24
53003a10:	240a0030 	li	t2,48
53003a14:	24090001 	li	t1,1
53003a18:	a3aa0018 	sb	t2,24(sp)
53003a1c:	0189402a 	slt	t0,t4,t1
53003a20:	01202021 	move	a0,t1
53003a24:	0208200a 	movz	a0,s0,t0
53003a28:	316c0011 	andi	t4,t3,0x11
53003a2c:	15800008 	bnez	t4,53003a50 <vsprintf+0x3dc>
53003a30:	00e43823 	subu	a3,a3,a0
53003a34:	18e00006 	blez	a3,53003a50 <vsprintf+0x3dc>
53003a38:	00000000 	nop
53003a3c:	24020020 	li	v0,32
53003a40:	24e7ffff 	addiu	a3,a3,-1
53003a44:	a0a20000 	sb	v0,0(a1)
53003a48:	1ce0fffd 	bgtz	a3,53003a40 <vsprintf+0x3cc>
53003a4c:	24a50001 	addiu	a1,a1,1
53003a50:	12200003 	beqz	s1,53003a60 <vsprintf+0x3ec>
53003a54:	00000000 	nop
53003a58:	a0b10000 	sb	s1,0(a1)
53003a5c:	24a50001 	addiu	a1,a1,1
53003a60:	11e00007 	beqz	t7,53003a80 <vsprintf+0x40c>
53003a64:	31780010 	andi	t8,t3,0x10
53003a68:	24100008 	li	s0,8
53003a6c:	10d000c5 	beq	a2,s0,53003d84 <vsprintf+0x710>
53003a70:	240f0010 	li	t7,16
53003a74:	10cf00c9 	beq	a2,t7,53003d9c <vsprintf+0x728>
53003a78:	24110030 	li	s1,48
53003a7c:	31780010 	andi	t8,t3,0x10
53003a80:	17000008 	bnez	t8,53003aa4 <vsprintf+0x430>
53003a84:	0124582a 	slt	t3,t1,a0
53003a88:	10000003 	b	53003a98 <vsprintf+0x424>
53003a8c:	00000000 	nop
53003a90:	24e7ffff 	addiu	a3,a3,-1
53003a94:	24a50001 	addiu	a1,a1,1
53003a98:	5ce0fffd 	bgtzl	a3,53003a90 <vsprintf+0x41c>
53003a9c:	a0ae0000 	sb	t6,0(a1)
53003aa0:	0124582a 	slt	t3,t1,a0
53003aa4:	11600007 	beqz	t3,53003ac4 <vsprintf+0x450>
53003aa8:	00000000 	nop
53003aac:	24030030 	li	v1,48
53003ab0:	2484ffff 	addiu	a0,a0,-1
53003ab4:	0124702a 	slt	t6,t1,a0
53003ab8:	a0a30000 	sb	v1,0(a1)
53003abc:	15c0fffc 	bnez	t6,53003ab0 <vsprintf+0x43c>
53003ac0:	24a50001 	addiu	a1,a1,1
53003ac4:	19200008 	blez	t1,53003ae8 <vsprintf+0x474>
53003ac8:	27a40018 	addiu	a0,sp,24
53003acc:	01241821 	addu	v1,t1,a0
53003ad0:	2463ffff 	addiu	v1,v1,-1
53003ad4:	90790000 	lbu	t9,0(v1)
53003ad8:	2529ffff 	addiu	t1,t1,-1
53003adc:	a0b90000 	sb	t9,0(a1)
53003ae0:	1d20fffb 	bgtz	t1,53003ad0 <vsprintf+0x45c>
53003ae4:	24a50001 	addiu	a1,a1,1
53003ae8:	18e00007 	blez	a3,53003b08 <vsprintf+0x494>
53003aec:	8fa80084 	lw	t0,132(sp)
53003af0:	24020020 	li	v0,32
53003af4:	24e7ffff 	addiu	a3,a3,-1
53003af8:	a0a20000 	sb	v0,0(a1)
53003afc:	1ce0fffd 	bgtz	a3,53003af4 <vsprintf+0x480>
53003b00:	24a50001 	addiu	a1,a1,1
53003b04:	8fa80084 	lw	t0,132(sp)
53003b08:	00a02021 	move	a0,a1
53003b0c:	25080001 	addiu	t0,t0,1
53003b10:	00808021 	move	s0,a0
53003b14:	1000fef4 	b	530036e8 <vsprintf+0x74>
53003b18:	afa80084 	sw	t0,132(sp)
53003b1c:	0146001b 	divu	zero,t2,a2
53003b20:	00c001f4 	teq	a2,zero,0x7
53003b24:	25290001 	addiu	t1,t1,1
53003b28:	00001810 	mfhi	v1
53003b2c:	0000f812 	mflo	ra
53003b30:	006d1021 	addu	v0,v1,t5
53003b34:	90520000 	lbu	s2,0(v0)
53003b38:	00005012 	mflo	t2
53003b3c:	a1120000 	sb	s2,0(t0)
53003b40:	13e0ffb6 	beqz	ra,53003a1c <vsprintf+0x3a8>
53003b44:	25080001 	addiu	t0,t0,1
53003b48:	0146001b 	divu	zero,t2,a2
53003b4c:	00c001f4 	teq	a2,zero,0x7
53003b50:	25290001 	addiu	t1,t1,1
53003b54:	00001810 	mfhi	v1
53003b58:	0000f812 	mflo	ra
53003b5c:	006d1021 	addu	v0,v1,t5
53003b60:	90520000 	lbu	s2,0(v0)
53003b64:	00005012 	mflo	t2
53003b68:	a1120000 	sb	s2,0(t0)
53003b6c:	17e0ffeb 	bnez	ra,53003b1c <vsprintf+0x4a8>
53003b70:	25080001 	addiu	t0,t0,1
53003b74:	1000ffaa 	b	53003a20 <vsprintf+0x3ac>
53003b78:	0189402a 	slt	t0,t4,t1
53003b7c:	26730004 	addiu	s3,s3,4
53003b80:	8e64fffc 	lw	a0,-4(s3)
53003b84:	10800083 	beqz	a0,53003d94 <vsprintf+0x720>
53003b88:	3c065300 	lui	a2,0x5300
53003b8c:	01802821 	move	a1,t4
53003b90:	1180000a 	beqz	t4,53003bbc <vsprintf+0x548>
53003b94:	00801821 	move	v1,a0
53003b98:	80820000 	lb	v0,0(a0)
53003b9c:	10400008 	beqz	v0,53003bc0 <vsprintf+0x54c>
53003ba0:	00643023 	subu	a2,v1,a0
53003ba4:	24a5ffff 	addiu	a1,a1,-1
53003ba8:	10a00004 	beqz	a1,53003bbc <vsprintf+0x548>
53003bac:	24630001 	addiu	v1,v1,1
53003bb0:	80620000 	lb	v0,0(v1)
53003bb4:	1440fffc 	bnez	v0,53003ba8 <vsprintf+0x534>
53003bb8:	24a5ffff 	addiu	a1,a1,-1
53003bbc:	00643023 	subu	a2,v1,a0
53003bc0:	322c0010 	andi	t4,s1,0x10
53003bc4:	15800009 	bnez	t4,53003bec <vsprintf+0x578>
53003bc8:	00d2282a 	slt	a1,a2,s2
53003bcc:	10a00007 	beqz	a1,53003bec <vsprintf+0x578>
53003bd0:	00000000 	nop
53003bd4:	24020020 	li	v0,32
53003bd8:	2652ffff 	addiu	s2,s2,-1
53003bdc:	00d2282a 	slt	a1,a2,s2
53003be0:	a2020000 	sb	v0,0(s0)
53003be4:	14a0fffc 	bnez	a1,53003bd8 <vsprintf+0x564>
53003be8:	26100001 	addiu	s0,s0,1
53003bec:	18c00007 	blez	a2,53003c0c <vsprintf+0x598>
53003bf0:	00c01821 	move	v1,a2
53003bf4:	90870000 	lbu	a3,0(a0)
53003bf8:	2463ffff 	addiu	v1,v1,-1
53003bfc:	a2070000 	sb	a3,0(s0)
53003c00:	24840001 	addiu	a0,a0,1
53003c04:	1460fffb 	bnez	v1,53003bf4 <vsprintf+0x580>
53003c08:	26100001 	addiu	s0,s0,1
53003c0c:	10a00006 	beqz	a1,53003c28 <vsprintf+0x5b4>
53003c10:	24030020 	li	v1,32
53003c14:	2652ffff 	addiu	s2,s2,-1
53003c18:	00d2c82a 	slt	t9,a2,s2
53003c1c:	a2030000 	sb	v1,0(s0)
53003c20:	1720fffc 	bnez	t9,53003c14 <vsprintf+0x5a0>
53003c24:	26100001 	addiu	s0,s0,1
53003c28:	8fa80084 	lw	t0,132(sp)
53003c2c:	25080001 	addiu	t0,t0,1
53003c30:	1000fead 	b	530036e8 <vsprintf+0x74>
53003c34:	afa80084 	sw	t0,132(sp)
53003c38:	241fffff 	li	ra,-1
53003c3c:	125f0035 	beq	s2,ra,53003d14 <vsprintf+0x6a0>
53003c40:	26730004 	addiu	s3,s3,4
53003c44:	8e65fffc 	lw	a1,-4(s3)
53003c48:	02002021 	move	a0,s0
53003c4c:	02403821 	move	a3,s2
53003c50:	24060010 	li	a2,16
53003c54:	afac0010 	sw	t4,16(sp)
53003c58:	0cc00d06 	jal	53003418 <number_signed>
53003c5c:	afb10014 	sw	s1,20(sp)
53003c60:	00408021 	move	s0,v0
53003c64:	1000fff1 	b	53003c2c <vsprintf+0x5b8>
53003c68:	8fa80084 	lw	t0,132(sp)
53003c6c:	1000ff33 	b	5300393c <vsprintf+0x2c8>
53003c70:	24060008 	li	a2,8
53003c74:	26730004 	addiu	s3,s3,4
53003c78:	8e72fffc 	lw	s2,-4(s3)
53003c7c:	02141023 	subu	v0,s0,s4
53003c80:	25080001 	addiu	t0,t0,1
53003c84:	ae420000 	sw	v0,0(s2)
53003c88:	1000fe97 	b	530036e8 <vsprintf+0x74>
53003c8c:	afa80084 	sw	t0,132(sp)
53003c90:	1000ff2a 	b	5300393c <vsprintf+0x2c8>
53003c94:	36310080 	ori	s1,s1,0x80
53003c98:	1000ff28 	b	5300393c <vsprintf+0x2c8>
53003c9c:	36310002 	ori	s1,s1,0x2
53003ca0:	32280010 	andi	t0,s1,0x10
53003ca4:	5500000a 	bnezl	t0,53003cd0 <vsprintf+0x65c>
53003ca8:	26730004 	addiu	s3,s3,4
53003cac:	2652ffff 	addiu	s2,s2,-1
53003cb0:	5a400007 	blezl	s2,53003cd0 <vsprintf+0x65c>
53003cb4:	26730004 	addiu	s3,s3,4
53003cb8:	24020020 	li	v0,32
53003cbc:	2652ffff 	addiu	s2,s2,-1
53003cc0:	a2020000 	sb	v0,0(s0)
53003cc4:	1e40fffd 	bgtz	s2,53003cbc <vsprintf+0x648>
53003cc8:	26100001 	addiu	s0,s0,1
53003ccc:	26730004 	addiu	s3,s3,4
53003cd0:	8e71fffc 	lw	s1,-4(s3)
53003cd4:	2647ffff 	addiu	a3,s2,-1
53003cd8:	a2110000 	sb	s1,0(s0)
53003cdc:	18e0ffd2 	blez	a3,53003c28 <vsprintf+0x5b4>
53003ce0:	26100001 	addiu	s0,s0,1
53003ce4:	24020020 	li	v0,32
53003ce8:	24e7ffff 	addiu	a3,a3,-1
53003cec:	a2020000 	sb	v0,0(s0)
53003cf0:	1ce0fffd 	bgtz	a3,53003ce8 <vsprintf+0x674>
53003cf4:	26100001 	addiu	s0,s0,1
53003cf8:	1000ffcc 	b	53003c2c <vsprintf+0x5b8>
53003cfc:	8fa80084 	lw	t0,132(sp)
53003d00:	24090025 	li	t1,37
53003d04:	a2090000 	sb	t1,0(s0)
53003d08:	8fa80084 	lw	t0,132(sp)
53003d0c:	1000fe74 	b	530036e0 <vsprintf+0x6c>
53003d10:	26100001 	addiu	s0,s0,1
53003d14:	24120008 	li	s2,8
53003d18:	8e65fffc 	lw	a1,-4(s3)
53003d1c:	36310001 	ori	s1,s1,0x1
53003d20:	02002021 	move	a0,s0
53003d24:	02403821 	move	a3,s2
53003d28:	1000ffca 	b	53003c54 <vsprintf+0x5e0>
53003d2c:	24060010 	li	a2,16
53003d30:	1000ff0d 	b	53003968 <vsprintf+0x2f4>
53003d34:	8e75fffc 	lw	s5,-4(s3)
53003d38:	10400009 	beqz	v0,53003d60 <vsprintf+0x6ec>
53003d3c:	26730004 	addiu	s3,s3,4
53003d40:	1000ff07 	b	53003960 <vsprintf+0x2ec>
53003d44:	8665fffc 	lh	a1,-4(s3)
53003d48:	02403821 	move	a3,s2
53003d4c:	afac0010 	sw	t4,16(sp)
53003d50:	0cc00d06 	jal	53003418 <number_signed>
53003d54:	afb10014 	sw	s1,20(sp)
53003d58:	1000ffc2 	b	53003c64 <vsprintf+0x5f0>
53003d5c:	00408021 	move	s0,v0
53003d60:	1000ff01 	b	53003968 <vsprintf+0x2f4>
53003d64:	9675fffc 	lhu	s5,-4(s3)
53003d68:	1060ff1f 	beqz	v1,530039e8 <vsprintf+0x374>
53003d6c:	316f0020 	andi	t7,t3,0x20
53003d70:	24e7ffff 	addiu	a3,a3,-1
53003d74:	1000ff1c 	b	530039e8 <vsprintf+0x374>
53003d78:	24110020 	li	s1,32
53003d7c:	1000ff21 	b	53003a04 <vsprintf+0x390>
53003d80:	24e7fffe 	addiu	a3,a3,-2
53003d84:	240d0030 	li	t5,48
53003d88:	a0ad0000 	sb	t5,0(a1)
53003d8c:	1000ff3b 	b	53003a7c <vsprintf+0x408>
53003d90:	24a50001 	addiu	a1,a1,1
53003d94:	1000ff7d 	b	53003b8c <vsprintf+0x518>
53003d98:	24c44a84 	addiu	a0,a2,19076
53003d9c:	a0b10000 	sb	s1,0(a1)
53003da0:	91a60021 	lbu	a2,33(t5)
53003da4:	a0a60001 	sb	a2,1(a1)
53003da8:	1000ff34 	b	53003a7c <vsprintf+0x408>
53003dac:	24a50002 	addiu	a1,a1,2

53003db0 <memset>:
53003db0:	00801021 	move	v0,a0
53003db4:	10000003 	b	53003dc4 <memset+0x14>
53003db8:	00801821 	move	v1,a0
53003dbc:	24c6ffff 	addiu	a2,a2,-1
53003dc0:	24630001 	addiu	v1,v1,1
53003dc4:	54c0fffd 	bnezl	a2,53003dbc <memset+0xc>
53003dc8:	a0650000 	sb	a1,0(v1)
53003dcc:	03e00008 	jr	ra
53003dd0:	00000000 	nop

53003dd4 <bzero>:
53003dd4:	10a00005 	beqz	a1,53003dec <bzero+0x18>
53003dd8:	00000000 	nop
53003ddc:	a0800000 	sb	zero,0(a0)
53003de0:	24a5ffff 	addiu	a1,a1,-1
53003de4:	14a0fffd 	bnez	a1,53003ddc <bzero+0x8>
53003de8:	24840001 	addiu	a0,a0,1
53003dec:	03e00008 	jr	ra
53003df0:	00000000 	nop

53003df4 <strcasecmp>:
53003df4:	10850018 	beq	a0,a1,53003e58 <strcasecmp+0x64>
53003df8:	00001021 	move	v0,zero
53003dfc:	90860000 	lbu	a2,0(a0)
53003e00:	24840001 	addiu	a0,a0,1
53003e04:	24c8ffbf 	addiu	t0,a2,-65
53003e08:	310700ff 	andi	a3,t0,0xff
53003e0c:	2ce2001a 	sltiu	v0,a3,26
53003e10:	24c30020 	addiu	v1,a2,32
53003e14:	14400002 	bnez	v0,53003e20 <strcasecmp+0x2c>
53003e18:	306700ff 	andi	a3,v1,0xff
53003e1c:	30c700ff 	andi	a3,a2,0xff
53003e20:	90a60000 	lbu	a2,0(a1)
53003e24:	24a50001 	addiu	a1,a1,1
53003e28:	24ccffbf 	addiu	t4,a2,-65
53003e2c:	318b00ff 	andi	t3,t4,0xff
53003e30:	24ca0020 	addiu	t2,a2,32
53003e34:	2d69001a 	sltiu	t1,t3,26
53003e38:	15200002 	bnez	t1,53003e44 <strcasecmp+0x50>
53003e3c:	314300ff 	andi	v1,t2,0xff
53003e40:	30c300ff 	andi	v1,a2,0xff
53003e44:	10e00004 	beqz	a3,53003e58 <strcasecmp+0x64>
53003e48:	00e31023 	subu	v0,a3,v1
53003e4c:	50e3ffec 	beql	a3,v1,53003e00 <strcasecmp+0xc>
53003e50:	90860000 	lbu	a2,0(a0)
53003e54:	00e31023 	subu	v0,a3,v1
53003e58:	03e00008 	jr	ra
53003e5c:	00000000 	nop

53003e60 <strncasecmp>:
53003e60:	00854026 	xor	t0,a0,a1
53003e64:	2cc30001 	sltiu	v1,a2,1
53003e68:	2d070001 	sltiu	a3,t0,1
53003e6c:	00e31025 	or	v0,a3,v1
53003e70:	1440001d 	bnez	v0,53003ee8 <strncasecmp+0x88>
53003e74:	00001821 	move	v1,zero
53003e78:	90870000 	lbu	a3,0(a0)
53003e7c:	24c6ffff 	addiu	a2,a2,-1
53003e80:	24ecffbf 	addiu	t4,a3,-65
53003e84:	318b00ff 	andi	t3,t4,0xff
53003e88:	24ea0020 	addiu	t2,a3,32
53003e8c:	2d69001a 	sltiu	t1,t3,26
53003e90:	15200002 	bnez	t1,53003e9c <strncasecmp+0x3c>
53003e94:	314800ff 	andi	t0,t2,0xff
53003e98:	30e800ff 	andi	t0,a3,0xff
53003e9c:	90a70000 	lbu	a3,0(a1)
53003ea0:	2d090001 	sltiu	t1,t0,1
53003ea4:	24f8ffbf 	addiu	t8,a3,-65
53003ea8:	330f00ff 	andi	t7,t8,0xff
53003eac:	24ee0020 	addiu	t6,a3,32
53003eb0:	2ded001a 	sltiu	t5,t7,26
53003eb4:	24840001 	addiu	a0,a0,1
53003eb8:	24a50001 	addiu	a1,a1,1
53003ebc:	15a00002 	bnez	t5,53003ec8 <strncasecmp+0x68>
53003ec0:	31c300ff 	andi	v1,t6,0xff
53003ec4:	30e300ff 	andi	v1,a3,0xff
53003ec8:	01033826 	xor	a3,t0,v1
53003ecc:	0007102b 	sltu	v0,zero,a3
53003ed0:	0122c825 	or	t9,t1,v0
53003ed4:	57200004 	bnezl	t9,53003ee8 <strncasecmp+0x88>
53003ed8:	01031823 	subu	v1,t0,v1
53003edc:	54c0ffe7 	bnezl	a2,53003e7c <strncasecmp+0x1c>
53003ee0:	90870000 	lbu	a3,0(a0)
53003ee4:	01031823 	subu	v1,t0,v1
53003ee8:	03e00008 	jr	ra
53003eec:	00601021 	move	v0,v1

53003ef0 <gui_set_language_mode>:
53003ef0:	3c030003 	lui	v1,0x3
53003ef4:	34630021 	ori	v1,v1,0x21
53003ef8:	0000000c 	syscall

53003efc <gui_create_font>:
53003efc:	3c030003 	lui	v1,0x3
53003f00:	3463002b 	ori	v1,v1,0x2b
53003f04:	0000000c 	syscall

53003f08 <gui_destroy_font>:
53003f08:	3c030003 	lui	v1,0x3
53003f0c:	3463002c 	ori	v1,v1,0x2c
53003f10:	0000000c 	syscall

53003f14 <gui_screen_update>:
53003f14:	3c030003 	lui	v1,0x3
53003f18:	3463003c 	ori	v1,v1,0x3c
53003f1c:	0000000c 	syscall

53003f20 <gui_wm_default_callback>:
53003f20:	3c030003 	lui	v1,0x3
53003f24:	34630040 	ori	v1,v1,0x40
53003f28:	0000000c 	syscall

53003f2c <gui_wm_create_window>:
53003f2c:	3c030003 	lui	v1,0x3
53003f30:	34630048 	ori	v1,v1,0x48
53003f34:	0000000c 	syscall

53003f38 <gui_wm_set_focus>:
53003f38:	3c030003 	lui	v1,0x3
53003f3c:	3463004a 	ori	v1,v1,0x4a
53003f40:	0000000c 	syscall

53003f44 <gui_wm_delete_window>:
53003f44:	3c030003 	lui	v1,0x3
53003f48:	3463004b 	ori	v1,v1,0x4b
53003f4c:	0000000c 	syscall

53003f50 <gui_wm_set_size>:
53003f50:	3c030003 	lui	v1,0x3
53003f54:	34630050 	ori	v1,v1,0x50
53003f58:	0000000c 	syscall

53003f5c <gui_dc_get>:
53003f5c:	3c030003 	lui	v1,0x3
53003f60:	34630056 	ori	v1,v1,0x56
53003f64:	0000000c 	syscall

53003f68 <gui_dc_set_default_fontface>:
53003f68:	3c030003 	lui	v1,0x3
53003f6c:	34630058 	ori	v1,v1,0x58
53003f70:	0000000c 	syscall

53003f74 <gui_dc_set_alpha>:
53003f74:	3c030003 	lui	v1,0x3
53003f78:	3463005c 	ori	v1,v1,0x5c
53003f7c:	0000000c 	syscall

53003f80 <gui_dc_get_alpha>:
53003f80:	3c030003 	lui	v1,0x3
53003f84:	34630064 	ori	v1,v1,0x64
53003f88:	0000000c 	syscall

53003f8c <api_install>:
53003f8c:	3c030001 	lui	v1,0x1
53003f90:	34630028 	ori	v1,v1,0x28
53003f94:	0000000c 	syscall

53003f98 <api_uninstall>:
53003f98:	3c030001 	lui	v1,0x1
53003f9c:	34630029 	ori	v1,v1,0x29
53003fa0:	0000000c 	syscall

53003fa4 <printf>:
53003fa4:	3c030001 	lui	v1,0x1
53003fa8:	34630032 	ori	v1,v1,0x32
53003fac:	0000000c 	syscall

53003fb0 <dlopen>:
53003fb0:	3c030001 	lui	v1,0x1
53003fb4:	3463006c 	ori	v1,v1,0x6c
53003fb8:	0000000c 	syscall

53003fbc <dlclose>:
53003fbc:	3c030001 	lui	v1,0x1
53003fc0:	3463006d 	ori	v1,v1,0x6d
53003fc4:	0000000c 	syscall

53003fc8 <__func__.3>:
53003fc8:	6b736564 	0x6b736564
53003fcc:	5f706f74 	0x5f706f74
53003fd0:	64616f6c 	0x64616f6c
53003fd4:	7974735f 	0x7974735f
53003fd8:	0000656c 	0x656c

53003fdc <__func__.1>:
53003fdc:	7465675f 	jalx	51959d7c <_init-0x16a6284>
53003fe0:	7070615f 	udi15	v1,s0,t4,0x5
53003fe4:	63616d5f 	0x63616d5f
53003fe8:	00006f72 	tlt	zero,zero,0x1bd

53003fec <__func__.2>:
53003fec:	6172645f 	0x6172645f
53003ff0:	70615f77 	0x70615f77
53003ff4:	616e5f70 	0x616e5f70
53003ff8:	0000656d 	0x656d

53003ffc <__func__.0>:
53003ffc:	6172645f 	0x6172645f
53004000:	70615f77 	0x70615f77
53004004:	63695f70 	0x63695f70
53004008:	00006e6f 	0x6e6f

5300400c <desktop_apitbl>:
5300400c:	530026c8 	beqzl	t8,5300db30 <app_icon2_data+0x8814>

53004010 <s_clk_domain>:
53004010:	00000000 	nop
53004014:	00000003 	sra	zero,zero,0x0

53004018 <__func__.7>:
53004018:	6572635f 	0x6572635f
5300401c:	5f657461 	0x5f657461
53004020:	756e656d 	jalx	55b995b4 <app_icon2_data+0x2b94298>
53004024:	77656976 	jalx	5d95a5d8 <app_icon2_data+0xa9552bc>
53004028:	6469775f 	0x6469775f
5300402c:	00746567 	0x746567

53004030 <__func__.5>:
53004030:	6572635f 	0x6572635f
53004034:	5f657461 	0x5f657461
53004038:	64616568 	0x64616568
5300403c:	00726162 	0x726162

53004040 <__func__.2>:
53004040:	6563735f 	0x6563735f
53004044:	645f656e 	0x645f656e
53004048:	746b7365 	jalx	51adcd94 <_init-0x152326c>
5300404c:	6f5f706f 	0x6f5f706f
53004050:	5f6e6570 	0x5f6e6570
53004054:	6d656874 	0x6d656874
53004058:	00000065 	0x65

5300405c <__func__.11>:
5300405c:	6563735f 	0x6563735f
53004060:	645f656e 	0x645f656e
53004064:	746b7365 	jalx	51adcd94 <_init-0x152326c>
53004068:	635f706f 	0x635f706f
5300406c:	65736f6c 	0x65736f6c
53004070:	6568745f 	0x6568745f
53004074:	0000656d 	0x656d

53004078 <__func__.4>:
53004078:	6563735f 	0x6563735f
5300407c:	645f656e 	0x645f656e
53004080:	746b7365 	jalx	51adcd94 <_init-0x152326c>
53004084:	735f706f 	0x735f706f
53004088:	645f7465 	0x645f7465
5300408c:	75616665 	jalx	55859994 <app_icon2_data+0x2854678>
53004090:	665f746c 	0x665f746c
53004094:	00746e6f 	0x746e6f

53004098 <__func__.8>:
53004098:	6572635f 	0x6572635f
5300409c:	5f657461 	0x5f657461
530040a0:	756c6f76 	jalx	55b1bdd8 <app_icon2_data+0x2b16abc>
530040a4:	6162656d 	0x6162656d
530040a8:	00000072 	tlt	zero,zero,0x1

530040ac <__func__.12>:
530040ac:	6563735f 	0x6563735f
530040b0:	645f656e 	0x645f656e
530040b4:	746b7365 	jalx	51adcd94 <_init-0x152326c>
530040b8:	705f706f 	0x705f706f
530040bc:	5f636f72 	0x5f636f72
530040c0:	00737973 	tltu	v1,s3,0x1e5

530040c4 <__func__.13>:
530040c4:	6563735f 	0x6563735f
530040c8:	645f656e 	0x645f656e
530040cc:	746b7365 	jalx	51adcd94 <_init-0x152326c>
530040d0:	725f706f 	0x725f706f
530040d4:	7461746f 	jalx	5185d1bc <_init-0x17a2e44>
530040d8:	00000065 	0x65

530040dc <__func__.0>:
530040dc:	6e75616c 	0x6e75616c
530040e0:	72656863 	0x72656863
530040e4:	6563735f 	0x6563735f
530040e8:	645f656e 	0x645f656e
530040ec:	746b7365 	jalx	51adcd94 <_init-0x152326c>
530040f0:	0000706f 	0x706f

530040f4 <__func__.1>:
530040f4:	6563735f 	0x6563735f
530040f8:	645f656e 	0x645f656e
530040fc:	746b7365 	jalx	51adcd94 <_init-0x152326c>
53004100:	695f706f 	0x695f706f
53004104:	0074696e 	0x74696e

53004108 <__func__.3>:
53004108:	6563735f 	0x6563735f
5300410c:	645f656e 	0x645f656e
53004110:	746b7365 	jalx	51adcd94 <_init-0x152326c>
53004114:	6f5f706f 	0x6f5f706f
53004118:	5f6e6570 	0x5f6e6570
5300411c:	5f727473 	0x5f727473
53004120:	00736572 	tlt	v1,s3,0x195

53004124 <__func__.6>:
53004124:	6572635f 	0x6572635f
53004128:	5f657461 	0x5f657461
5300412c:	6267736d 	0x6267736d
53004130:	0000786f 	0x786f

53004134 <__func__.9>:
53004134:	6563735f 	0x6563735f
53004138:	645f656e 	0x645f656e
5300413c:	746b7365 	jalx	51adcd94 <_init-0x152326c>
53004140:	645f706f 	0x645f706f
53004144:	696e6965 	0x696e6965
53004148:	00000074 	teq	zero,zero,0x1

5300414c <__func__.10>:
5300414c:	6563735f 	0x6563735f
53004150:	645f656e 	0x645f656e
53004154:	746b7365 	jalx	51adcd94 <_init-0x152326c>
53004158:	635f706f 	0x635f706f
5300415c:	65736f6c 	0x65736f6c
53004160:	7274735f 	udi15	s3,s4,t6,0xd
53004164:	7365725f 	udi15	k1,a1,t6,0x9
53004168:	00000000 	nop
5300416c:	530037b8 	beqzl	t8,53012050 <app_icon2_data+0xcd34>
53004170:	53003728 	beqzl	t8,53011e14 <app_icon2_data+0xcaf8>
53004174:	53003728 	beqzl	t8,53011e18 <app_icon2_data+0xcafc>
53004178:	530037b0 	beqzl	t8,5301203c <app_icon2_data+0xcd20>
5300417c:	53003728 	beqzl	t8,53011e20 <app_icon2_data+0xcb04>
53004180:	53003728 	beqzl	t8,53011e24 <app_icon2_data+0xcb08>
53004184:	53003728 	beqzl	t8,53011e28 <app_icon2_data+0xcb0c>
53004188:	53003728 	beqzl	t8,53011e2c <app_icon2_data+0xcb10>
5300418c:	53003728 	beqzl	t8,53011e30 <app_icon2_data+0xcb14>
53004190:	53003728 	beqzl	t8,53011e34 <app_icon2_data+0xcb18>
53004194:	53003728 	beqzl	t8,53011e38 <app_icon2_data+0xcb1c>
53004198:	530037a8 	beqzl	t8,5301203c <app_icon2_data+0xcd20>
5300419c:	53003728 	beqzl	t8,53011e40 <app_icon2_data+0xcb24>
530041a0:	530037a0 	beqzl	t8,53012024 <app_icon2_data+0xcd08>
530041a4:	53003728 	beqzl	t8,53011e48 <app_icon2_data+0xcb2c>
530041a8:	53003728 	beqzl	t8,53011e4c <app_icon2_data+0xcb30>
530041ac:	53003724 	beqzl	t8,53011e40 <app_icon2_data+0xcb24>
530041b0:	53003d00 	beqzl	t8,530135b4 <app_icon2_data+0xe298>
530041b4:	53003828 	beqzl	t8,53012258 <app_icon2_data+0xcf3c>
530041b8:	53003828 	beqzl	t8,5301225c <app_icon2_data+0xcf40>
530041bc:	53003828 	beqzl	t8,53012260 <app_icon2_data+0xcf44>
530041c0:	53003828 	beqzl	t8,53012264 <app_icon2_data+0xcf48>
530041c4:	53003828 	beqzl	t8,53012268 <app_icon2_data+0xcf4c>
530041c8:	53003828 	beqzl	t8,5301226c <app_icon2_data+0xcf50>
530041cc:	53003828 	beqzl	t8,53012270 <app_icon2_data+0xcf54>
530041d0:	53003828 	beqzl	t8,53012274 <app_icon2_data+0xcf58>
530041d4:	53003828 	beqzl	t8,53012278 <app_icon2_data+0xcf5c>
530041d8:	53003828 	beqzl	t8,5301227c <app_icon2_data+0xcf60>
530041dc:	53003828 	beqzl	t8,53012280 <app_icon2_data+0xcf64>
530041e0:	53003828 	beqzl	t8,53012284 <app_icon2_data+0xcf68>
530041e4:	53003828 	beqzl	t8,53012288 <app_icon2_data+0xcf6c>
530041e8:	53003828 	beqzl	t8,5301228c <app_icon2_data+0xcf70>
530041ec:	53003828 	beqzl	t8,53012290 <app_icon2_data+0xcf74>
530041f0:	53003828 	beqzl	t8,53012294 <app_icon2_data+0xcf78>
530041f4:	53003828 	beqzl	t8,53012298 <app_icon2_data+0xcf7c>
530041f8:	53003828 	beqzl	t8,5301229c <app_icon2_data+0xcf80>
530041fc:	53003828 	beqzl	t8,530122a0 <app_icon2_data+0xcf84>
53004200:	53003828 	beqzl	t8,530122a4 <app_icon2_data+0xcf88>
53004204:	53003828 	beqzl	t8,530122a8 <app_icon2_data+0xcf8c>
53004208:	53003828 	beqzl	t8,530122ac <app_icon2_data+0xcf90>
5300420c:	53003828 	beqzl	t8,530122b0 <app_icon2_data+0xcf94>
53004210:	53003828 	beqzl	t8,530122b4 <app_icon2_data+0xcf98>
53004214:	53003828 	beqzl	t8,530122b8 <app_icon2_data+0xcf9c>
53004218:	53003828 	beqzl	t8,530122bc <app_icon2_data+0xcfa0>
5300421c:	53003828 	beqzl	t8,530122c0 <app_icon2_data+0xcfa4>
53004220:	53003828 	beqzl	t8,530122c4 <app_icon2_data+0xcfa8>
53004224:	53003828 	beqzl	t8,530122c8 <app_icon2_data+0xcfac>
53004228:	53003828 	beqzl	t8,530122cc <app_icon2_data+0xcfb0>
5300422c:	53003828 	beqzl	t8,530122d0 <app_icon2_data+0xcfb4>
53004230:	53003828 	beqzl	t8,530122d4 <app_icon2_data+0xcfb8>
53004234:	53003828 	beqzl	t8,530122d8 <app_icon2_data+0xcfbc>
53004238:	53003828 	beqzl	t8,530122dc <app_icon2_data+0xcfc0>
5300423c:	53003828 	beqzl	t8,530122e0 <app_icon2_data+0xcfc4>
53004240:	53003828 	beqzl	t8,530122e4 <app_icon2_data+0xcfc8>
53004244:	53003828 	beqzl	t8,530122e8 <app_icon2_data+0xcfcc>
53004248:	53003828 	beqzl	t8,530122ec <app_icon2_data+0xcfd0>
5300424c:	53003828 	beqzl	t8,530122f0 <app_icon2_data+0xcfd4>
53004250:	53003828 	beqzl	t8,530122f4 <app_icon2_data+0xcfd8>
53004254:	53003828 	beqzl	t8,530122f8 <app_icon2_data+0xcfdc>
53004258:	53003828 	beqzl	t8,530122fc <app_icon2_data+0xcfe0>
5300425c:	53003828 	beqzl	t8,53012300 <app_icon2_data+0xcfe4>
53004260:	53003828 	beqzl	t8,53012304 <app_icon2_data+0xcfe8>
53004264:	53003828 	beqzl	t8,53012308 <app_icon2_data+0xcfec>
53004268:	53003828 	beqzl	t8,5301230c <app_icon2_data+0xcff0>
5300426c:	53003828 	beqzl	t8,53012310 <app_icon2_data+0xcff4>
53004270:	53003828 	beqzl	t8,53012314 <app_icon2_data+0xcff8>
53004274:	53003828 	beqzl	t8,53012318 <app_icon2_data+0xcffc>
53004278:	53003828 	beqzl	t8,5301231c <app_icon2_data+0xd000>
5300427c:	53003934 	beqzl	t8,53012750 <app_icon2_data+0xd434>
53004280:	53003828 	beqzl	t8,53012324 <app_icon2_data+0xd008>
53004284:	53003828 	beqzl	t8,53012328 <app_icon2_data+0xd00c>
53004288:	53003828 	beqzl	t8,5301232c <app_icon2_data+0xd010>
5300428c:	53003828 	beqzl	t8,53012330 <app_icon2_data+0xd014>
53004290:	53003828 	beqzl	t8,53012334 <app_icon2_data+0xd018>
53004294:	53003828 	beqzl	t8,53012338 <app_icon2_data+0xd01c>
53004298:	53003828 	beqzl	t8,5301233c <app_icon2_data+0xd020>
5300429c:	53003828 	beqzl	t8,53012340 <app_icon2_data+0xd024>
530042a0:	53003828 	beqzl	t8,53012344 <app_icon2_data+0xd028>
530042a4:	53003828 	beqzl	t8,53012348 <app_icon2_data+0xd02c>
530042a8:	53003ca0 	beqzl	t8,5301352c <app_icon2_data+0xe210>
530042ac:	53003c98 	beqzl	t8,53013510 <app_icon2_data+0xe1f4>
530042b0:	53003828 	beqzl	t8,53012354 <app_icon2_data+0xd038>
530042b4:	53003828 	beqzl	t8,53012358 <app_icon2_data+0xd03c>
530042b8:	53003828 	beqzl	t8,5301235c <app_icon2_data+0xd040>
530042bc:	53003828 	beqzl	t8,53012360 <app_icon2_data+0xd044>
530042c0:	53003c98 	beqzl	t8,53013524 <app_icon2_data+0xe208>
530042c4:	53003828 	beqzl	t8,53012368 <app_icon2_data+0xd04c>
530042c8:	53003828 	beqzl	t8,5301236c <app_icon2_data+0xd050>
530042cc:	53003828 	beqzl	t8,53012370 <app_icon2_data+0xd054>
530042d0:	53003828 	beqzl	t8,53012374 <app_icon2_data+0xd058>
530042d4:	53003c74 	beqzl	t8,530134a8 <app_icon2_data+0xe18c>
530042d8:	53003c6c 	beqzl	t8,5301348c <app_icon2_data+0xe170>
530042dc:	53003c38 	beqzl	t8,530133c0 <app_icon2_data+0xe0a4>
530042e0:	53003828 	beqzl	t8,53012384 <app_icon2_data+0xd068>
530042e4:	53003828 	beqzl	t8,53012388 <app_icon2_data+0xd06c>
530042e8:	53003b7c 	beqzl	t8,530130dc <app_icon2_data+0xddc0>
530042ec:	53003828 	beqzl	t8,53012390 <app_icon2_data+0xd074>
530042f0:	53003c90 	beqzl	t8,53013534 <app_icon2_data+0xe218>
530042f4:	53003828 	beqzl	t8,53012398 <app_icon2_data+0xd07c>
530042f8:	53003828 	beqzl	t8,5301239c <app_icon2_data+0xd080>
530042fc:	53003938 	beqzl	t8,530127e0 <app_icon2_data+0xd4c4>
53004300:	6973756d 	0x6973756d
53004304:	00000063 	0x63
53004308:	65646976 	0x65646976
5300430c:	0000006f 	0x6f
53004310:	6e697674 	0x6e697674
53004314:	00000000 	nop
53004318:	746f6870 	jalx	51bda1c0 <_init-0x1425e40>
5300431c:	0000006f 	0x6f
53004320:	656d6163 	0x656d6163
53004324:	00006172 	tlt	zero,zero,0x185
53004328:	6f636572 	0x6f636572
5300432c:	72656472 	0x72656472
53004330:	00000000 	nop
53004334:	69646172 	0x69646172
53004338:	0000006f 	0x6f
5300433c:	6f6f6265 	0x6f6f6265
53004340:	0000006b 	0x6b
53004344:	656d6167 	0x656d6167
53004348:	00000073 	tltu	zero,zero,0x1
5300434c:	6c6f6f74 	0x6c6f6f74
53004350:	00000073 	tltu	zero,zero,0x1
53004354:	776f7262 	jalx	5dbdc988 <app_icon2_data+0xabd766c>
53004358:	00726573 	tltu	v1,s2,0x195
5300435c:	74746573 	jalx	51d195cc <_init-0x12e6a34>
53004360:	00676e69 	0x676e69
53004364:	74736554 	jalx	51cd9550 <_init-0x1326ab0>
53004368:	6d6f4320 	0x6d6f4320
5300436c:	746e6f6d 	jalx	51b9bdb4 <_init-0x146424c>
53004370:	00495520 	0x495520
53004374:	00627375 	0x627375
53004378:	6c5f6762 	0x6c5f6762
5300437c:	636e7561 	0x636e7561
53004380:	2e726568 	sltiu	s2,s3,25960
53004384:	006e6962 	0x6e6962
53004388:	6e75614c 	0x6e75614c
5300438c:	72656863 	0x72656863
53004390:	7365645f 	udi15	k1,a1,t4,0x11
53004394:	706f746b 	0x706f746b
53004398:	2e69755f 	sltiu	t1,s3,30047
5300439c:	00000063 	0x63
530043a0:	4f525245 	c3	0x1525245
530043a4:	72652852 	udi2	s3,a1,a1,0x1
530043a8:	3d6f6e72 	0x3d6f6e72
530043ac:	2d296425 	sltiu	t1,t1,25637
530043b0:	3a646970 	xori	a0,s3,0x6970
530043b4:	252d6425 	addiu	t5,t1,25637
530043b8:	64252c73 	0x64252c73
530043bc:	2d73252c 	sltiu	s3,t3,9516
530043c0:	73202d2d 	0x73202d2d
530043c4:	656e6563 	0x656e6563
530043c8:	63616220 	0x63616220
530043cc:	6f72676b 	0x6f72676b
530043d0:	20646e75 	addi	a0,v1,28277
530043d4:	74636970 	jalx	518da5c0 <_init-0x1725a40>
530043d8:	20657275 	addi	a1,v1,29301
530043dc:	64616f6c 	0x64616f6c
530043e0:	6c616620 	0x6c616620
530043e4:	0a216573 	j	588595cc <app_icon2_data+0x58542b0>
530043e8:	00000000 	nop
530043ec:	4f525245 	c3	0x1525245
530043f0:	72652852 	udi2	s3,a1,a1,0x1
530043f4:	3d6f6e72 	0x3d6f6e72
530043f8:	2d296425 	sltiu	t1,t1,25637
530043fc:	3a646970 	xori	a0,s3,0x6970
53004400:	252d6425 	addiu	t5,t1,25637
53004404:	64252c73 	0x64252c73
53004408:	2d73252c 	sltiu	s3,t3,9516
5300440c:	63202d2d 	0x63202d2d
53004410:	276e6e61 	addiu	t6,k1,28257
53004414:	69662074 	0x69662074
53004418:	6420646e 	0x6420646e
5300441c:	746b7365 	jalx	51adcd94 <_init-0x152326c>
53004420:	7320706f 	0x7320706f
53004424:	656e6563 	0x656e6563
53004428:	00000a21 	0xa21
5300442c:	4f525245 	c3	0x1525245
53004430:	72652852 	udi2	s3,a1,a1,0x1
53004434:	3d6f6e72 	0x3d6f6e72
53004438:	2d296425 	sltiu	t1,t1,25637
5300443c:	3a646970 	xori	a0,s3,0x6970
53004440:	252d6425 	addiu	t5,t1,25637
53004444:	64252c73 	0x64252c73
53004448:	2d73252c 	sltiu	s3,t3,9516
5300444c:	0a202d2d 	j	5880b4b4 <app_icon2_data+0x5806198>
53004450:	00000000 	nop
53004454:	4f525245 	c3	0x1525245
53004458:	72652852 	udi2	s3,a1,a1,0x1
5300445c:	3d6f6e72 	0x3d6f6e72
53004460:	2d296425 	sltiu	t1,t1,25637
53004464:	3a646970 	xori	a0,s3,0x6970
53004468:	252d6425 	addiu	t5,t1,25637
5300446c:	64252c73 	0x64252c73
53004470:	2d73252c 	sltiu	s3,t3,9516
53004474:	74202d2d 	jalx	5080b4b4 <_init-0x27f4b4c>
53004478:	64206568 	0x64206568
5300447c:	2d617461 	sltiu	at,t3,29793
53004480:	7369643e 	0x7369643e
53004484:	79616c70 	0x79616c70
53004488:	646f6d5f 	0x646f6d5f
5300448c:	73692065 	0x73692065
53004490:	72726520 	0x72726520
53004494:	7620726f 	jalx	5881c9bc <app_icon2_data+0x58176a0>
53004498:	65756c61 	0x65756c61
5300449c:	00000a2e 	0xa2e
530044a0:	202e6425 	addi	t6,at,25637
530044a4:	00007325 	0x7325
530044a8:	4f525245 	c3	0x1525245
530044ac:	72652852 	udi2	s3,a1,a1,0x1
530044b0:	3d6f6e72 	0x3d6f6e72
530044b4:	2d296425 	sltiu	t1,t1,25637
530044b8:	3a646970 	xori	a0,s3,0x6970
530044bc:	252d6425 	addiu	t5,t1,25637
530044c0:	64252c73 	0x64252c73
530044c4:	2d73252c 	sltiu	s3,t3,9516
530044c8:	63202d2d 	0x63202d2d
530044cc:	74616572 	jalx	518595c8 <_init-0x17a6a38>
530044d0:	656d2065 	0x656d2065
530044d4:	6976756e 	0x6976756e
530044d8:	63207765 	0x63207765
530044dc:	6f6d6d6f 	0x6f6d6d6f
530044e0:	7265206e 	0x7265206e
530044e4:	0a726f72 	j	59c9bdc8 <app_icon2_data+0x6c96aac>
530044e8:	00000000 	nop
530044ec:	6e75616c 	0x6e75616c
530044f0:	72656863 	0x72656863
530044f4:	6563735f 	0x6563735f
530044f8:	645f656e 	0x645f656e
530044fc:	746b7365 	jalx	51adcd94 <_init-0x152326c>
53004500:	632e706f 	0x632e706f
53004504:	00000000 	nop
53004508:	4f525245 	c3	0x1525245
5300450c:	72652852 	udi2	s3,a1,a1,0x1
53004510:	3d6f6e72 	0x3d6f6e72
53004514:	2d296425 	sltiu	t1,t1,25637
53004518:	3a646970 	xori	a0,s3,0x6970
5300451c:	252d6425 	addiu	t5,t1,25637
53004520:	64252c73 	0x64252c73
53004524:	2d73252c 	sltiu	s3,t3,9516
53004528:	63202d2d 	0x63202d2d
5300452c:	74616572 	jalx	518595c8 <_init-0x17a6a38>
53004530:	656d2065 	0x656d2065
53004534:	6620756e 	0x6620756e
53004538:	656c6961 	0x656c6961
5300453c:	000a2164 	0xa2164
53004540:	4f525245 	c3	0x1525245
53004544:	72652852 	udi2	s3,a1,a1,0x1
53004548:	3d6f6e72 	0x3d6f6e72
5300454c:	2d296425 	sltiu	t1,t1,25637
53004550:	3a646970 	xori	a0,s3,0x6970
53004554:	252d6425 	addiu	t5,t1,25637
53004558:	64252c73 	0x64252c73
5300455c:	2d73252c 	sltiu	s3,t3,9516
53004560:	68202d2d 	0x68202d2d
53004564:	62646165 	0x62646165
53004568:	635f7261 	0x635f7261
5300456c:	74616572 	jalx	518595c8 <_init-0x17a6a38>
53004570:	61662065 	0x61662065
53004574:	64656c69 	0x64656c69
53004578:	000a0a0a 	0xa0a0a
5300457c:	4f525245 	c3	0x1525245
53004580:	72652852 	udi2	s3,a1,a1,0x1
53004584:	3d6f6e72 	0x3d6f6e72
53004588:	2d296425 	sltiu	t1,t1,25637
5300458c:	3a646970 	xori	a0,s3,0x6970
53004590:	252d6425 	addiu	t5,t1,25637
53004594:	64252c73 	0x64252c73
53004598:	2d73252c 	sltiu	s3,t3,9516
5300459c:	6c202d2d 	0x6c202d2d
530045a0:	2064616f 	addi	a0,v1,24943
530045a4:	6b736564 	0x6b736564
530045a8:	20706f74 	addi	s0,v1,28532
530045ac:	6e656373 	0x6e656373
530045b0:	61662065 	0x61662065
530045b4:	64656c69 	0x64656c69
530045b8:	0000000a 	movz	zero,zero,zero
530045bc:	252f7325 	addiu	t7,t1,29477
530045c0:	65722e73 	0x65722e73
530045c4:	00000073 	tltu	zero,zero,0x1
530045c8:	6d6d6f63 	0x6d6d6f63
530045cc:	69756e6f 	0x69756e6f
530045d0:	00000000 	nop
530045d4:	6e75616c 	0x6e75616c
530045d8:	72656863 	0x72656863
530045dc:	00000000 	nop
530045e0:	4f525245 	c3	0x1525245
530045e4:	72652852 	udi2	s3,a1,a1,0x1
530045e8:	3d6f6e72 	0x3d6f6e72
530045ec:	2d296425 	sltiu	t1,t1,25637
530045f0:	3a646970 	xori	a0,s3,0x6970
530045f4:	252d6425 	addiu	t5,t1,25637
530045f8:	64252c73 	0x64252c73
530045fc:	2d73252c 	sltiu	s3,t3,9516
53004600:	6f202d2d 	0x6f202d2d
53004604:	206e6570 	addi	t6,v1,25968
53004608:	66207325 	0x66207325
5300460c:	656c6961 	0x656c6961
53004610:	000a2164 	0xa2164
53004614:	4f525245 	c3	0x1525245
53004618:	72652852 	udi2	s3,a1,a1,0x1
5300461c:	3d6f6e72 	0x3d6f6e72
53004620:	2d296425 	sltiu	t1,t1,25637
53004624:	3a646970 	xori	a0,s3,0x6970
53004628:	252d6425 	addiu	t5,t1,25637
5300462c:	64252c73 	0x64252c73
53004630:	2d73252c 	sltiu	s3,t3,9516
53004634:	63202d2d 	0x63202d2d
53004638:	65736f6c 	0x65736f6c
5300463c:	6d6f6320 	0x6d6f6320
53004640:	206e6f6d 	addi	t6,v1,28525
53004644:	74636970 	jalx	518da5c0 <_init-0x1725a40>
53004648:	20657275 	addi	a1,v1,29301
5300464c:	6f736572 	0x6f736572
53004650:	65637275 	0x65637275
53004654:	72726520 	0x72726520
53004658:	0a21726f 	j	5885c9bc <app_icon2_data+0x58576a0>
5300465c:	00000000 	nop
53004660:	4f525245 	c3	0x1525245
53004664:	72652852 	udi2	s3,a1,a1,0x1
53004668:	3d6f6e72 	0x3d6f6e72
5300466c:	2d296425 	sltiu	t1,t1,25637
53004670:	3a646970 	xori	a0,s3,0x6970
53004674:	252d6425 	addiu	t5,t1,25637
53004678:	64252c73 	0x64252c73
5300467c:	2d73252c 	sltiu	s3,t3,9516
53004680:	63202d2d 	0x63202d2d
53004684:	65736f6c 	0x65736f6c
53004688:	70706120 	0x70706120
5300468c:	63697020 	0x63697020
53004690:	65727574 	0x65727574
53004694:	73657220 	0x73657220
53004698:	6372756f 	0x6372756f
5300469c:	72652065 	0x72652065
530046a0:	21726f72 	addi	s2,t3,28530
530046a4:	0000000a 	movz	zero,zero,zero
530046a8:	4f525245 	c3	0x1525245
530046ac:	72652852 	udi2	s3,a1,a1,0x1
530046b0:	3d6f6e72 	0x3d6f6e72
530046b4:	2d296425 	sltiu	t1,t1,25637
530046b8:	3a646970 	xori	a0,s3,0x6970
530046bc:	252d6425 	addiu	t5,t1,25637
530046c0:	64252c73 	0x64252c73
530046c4:	2d73252c 	sltiu	s3,t3,9516
530046c8:	67202d2d 	0x67202d2d
530046cc:	645f6975 	0x645f6975
530046d0:	65735f63 	0x65735f63
530046d4:	65645f74 	0x65645f74
530046d8:	6c756166 	0x6c756166
530046dc:	6f665f74 	0x6f665f74
530046e0:	6166746e 	0x6166746e
530046e4:	66206563 	0x66206563
530046e8:	656c6961 	0x656c6961
530046ec:	00000a64 	0xa64
530046f0:	4f525245 	c3	0x1525245
530046f4:	72652852 	udi2	s3,a1,a1,0x1
530046f8:	3d6f6e72 	0x3d6f6e72
530046fc:	2d296425 	sltiu	t1,t1,25637
53004700:	3a646970 	xori	a0,s3,0x6970
53004704:	252d6425 	addiu	t5,t1,25637
53004708:	64252c73 	0x64252c73
5300470c:	2d73252c 	sltiu	s3,t3,9516
53004710:	63202d2d 	0x63202d2d
53004714:	206c6c61 	addi	t4,v1,27745
53004718:	5f697567 	0x5f697567
5300471c:	61657263 	0x61657263
53004720:	665f6574 	0x665f6574
53004724:	20746e6f 	addi	s4,v1,28271
53004728:	6c696166 	0x6c696166
5300472c:	000a6465 	0xa6465
53004730:	65726964 	0x65726964
53004734:	726f7463 	0x726f7463
53004738:	00000079 	0x79
5300473c:	4f525245 	c3	0x1525245
53004740:	72652852 	udi2	s3,a1,a1,0x1
53004744:	3d6f6e72 	0x3d6f6e72
53004748:	2d296425 	sltiu	t1,t1,25637
5300474c:	3a646970 	xori	a0,s3,0x6970
53004750:	252d6425 	addiu	t5,t1,25637
53004754:	64252c73 	0x64252c73
53004758:	2d73252c 	sltiu	s3,t3,9516
5300475c:	63202d2d 	0x63202d2d
53004760:	74616572 	jalx	518595c8 <_init-0x17a6a38>
53004764:	6f762065 	0x6f762065
53004768:	656d756c 	0x656d756c
5300476c:	20726162 	addi	s2,v1,24930
53004770:	6d6d6f63 	0x6d6d6f63
53004774:	65206e6f 	0x65206e6f
53004778:	726f7272 	0x726f7272
5300477c:	0000000a 	movz	zero,zero,zero
53004780:	4f464e49 	c3	0x1464e49
53004784:	6469702d 	0x6469702d
53004788:	2d64253a 	sltiu	a0,t3,9530
5300478c:	252c7325 	addiu	t4,t1,29477
53004790:	73252c64 	0x73252c64
53004794:	202d2d2d 	addi	t5,at,11565
53004798:	65636572 	0x65636572
5300479c:	64657669 	0x64657669
530047a0:	67736d20 	0x67736d20
530047a4:	534d203a 	beql	k0,t5,5300c890 <app_icon2_data+0x7574>
530047a8:	53475f47 	beql	k0,a3,5301c4c8 <app_icon2_data+0x171ac>
530047ac:	4f534e45 	c3	0x1534e45
530047b0:	4f525f52 	c3	0x1525f52
530047b4:	49544154 	0x49544154
530047b8:	435f4e4f 	c0	0x15f4e4f
530047bc:	474e4148 	c1	0x14e4148
530047c0:	000a4445 	0xa4445
530047c4:	4f525245 	c3	0x1525245
530047c8:	72652852 	udi2	s3,a1,a1,0x1
530047cc:	3d6f6e72 	0x3d6f6e72
530047d0:	2d296425 	sltiu	t1,t1,25637
530047d4:	3a646970 	xori	a0,s3,0x6970
530047d8:	252d6425 	addiu	t5,t1,25637
530047dc:	64252c73 	0x64252c73
530047e0:	2d73252c 	sltiu	s3,t3,9516
530047e4:	64202d2d 	0x64202d2d
530047e8:	746b7365 	jalx	51adcd94 <_init-0x152326c>
530047ec:	7320706f 	0x7320706f
530047f0:	656e6563 	0x656e6563
530047f4:	616f6c20 	0x616f6c20
530047f8:	65722064 	0x65722064
530047fc:	72756f73 	0x72756f73
53004800:	66206563 	0x66206563
53004804:	65736c61 	0x65736c61
53004808:	00000a21 	0xa21
5300480c:	2e697567 	sltiu	t1,s3,30055
53004810:	00006f73 	tltu	zero,zero,0x1bd
53004814:	4f525245 	c3	0x1525245
53004818:	72652852 	udi2	s3,a1,a1,0x1
5300481c:	3d6f6e72 	0x3d6f6e72
53004820:	2d296425 	sltiu	t1,t1,25637
53004824:	3a646970 	xori	a0,s3,0x6970
53004828:	252d6425 	addiu	t5,t1,25637
5300482c:	64252c73 	0x64252c73
53004830:	2d73252c 	sltiu	s3,t3,9516
53004834:	6f202d2d 	0x6f202d2d
53004838:	206e6570 	addi	t6,v1,25968
5300483c:	20697567 	addi	t1,v1,30055
53004840:	2062696c 	addi	v0,v1,26988
53004844:	21727265 	addi	s2,t3,29285
53004848:	0000000a 	movz	zero,zero,zero
5300484c:	4f525245 	c3	0x1525245
53004850:	72652852 	udi2	s3,a1,a1,0x1
53004854:	3d6f6e72 	0x3d6f6e72
53004858:	2d296425 	sltiu	t1,t1,25637
5300485c:	3a646970 	xori	a0,s3,0x6970
53004860:	252d6425 	addiu	t5,t1,25637
53004864:	64252c73 	0x64252c73
53004868:	2d73252c 	sltiu	s3,t3,9516
5300486c:	73202d2d 	0x73202d2d
53004870:	656e6563 	0x656e6563
53004874:	696e6920 	0x696e6920
53004878:	72652074 	0x72652074
5300487c:	21726f72 	addi	s2,t3,28530
53004880:	0000000a 	movz	zero,zero,zero
53004884:	252f7325 	addiu	t7,t1,29477
53004888:	74732e73 	jalx	51ccb9cc <_init-0x1334634>
5300488c:	00000079 	0x79
53004890:	252f7325 	addiu	t7,t1,29477
53004894:	73255f73 	0x73255f73
53004898:	7274732e 	0x7274732e
5300489c:	00000000 	nop
530048a0:	4f525245 	c3	0x1525245
530048a4:	72652852 	udi2	s3,a1,a1,0x1
530048a8:	3d6f6e72 	0x3d6f6e72
530048ac:	2d296425 	sltiu	t1,t1,25637
530048b0:	3a646970 	xori	a0,s3,0x6970
530048b4:	252d6425 	addiu	t5,t1,25637
530048b8:	64252c73 	0x64252c73
530048bc:	2d73252c 	sltiu	s3,t3,9516
530048c0:	63202d2d 	0x63202d2d
530048c4:	65736f6c 	0x65736f6c
530048c8:	6d6f6320 	0x6d6f6320
530048cc:	206e6f6d 	addi	t6,v1,28525
530048d0:	69727473 	0x69727473
530048d4:	7220676e 	0x7220676e
530048d8:	756f7365 	jalx	55bdcd94 <app_icon2_data+0x2bd7a78>
530048dc:	20656372 	addi	a1,v1,25458
530048e0:	6f727265 	0x6f727265
530048e4:	000a2172 	tlt	zero,t2,0x85
530048e8:	4f525245 	c3	0x1525245
530048ec:	72652852 	udi2	s3,a1,a1,0x1
530048f0:	3d6f6e72 	0x3d6f6e72
530048f4:	2d296425 	sltiu	t1,t1,25637
530048f8:	3a646970 	xori	a0,s3,0x6970
530048fc:	252d6425 	addiu	t5,t1,25637
53004900:	64252c73 	0x64252c73
53004904:	2d73252c 	sltiu	s3,t3,9516
53004908:	63202d2d 	0x63202d2d
5300490c:	65736f6c 	0x65736f6c
53004910:	73656420 	0x73656420
53004914:	706f746b 	0x706f746b
53004918:	72747320 	0x72747320
5300491c:	73657220 	0x73657220
53004920:	6372756f 	0x6372756f
53004924:	61662065 	0x61662065
53004928:	2165736c 	addi	a1,t3,29548
5300492c:	0000000a 	movz	zero,zero,zero
53004930:	4f525245 	c3	0x1525245
53004934:	72652852 	udi2	s3,a1,a1,0x1
53004938:	3d6f6e72 	0x3d6f6e72
5300493c:	2d296425 	sltiu	t1,t1,25637
53004940:	3a646970 	xori	a0,s3,0x6970
53004944:	252d6425 	addiu	t5,t1,25637
53004948:	64252c73 	0x64252c73
5300494c:	2d73252c 	sltiu	s3,t3,9516
53004950:	73202d2d 	0x73202d2d
53004954:	656e6563 	0x656e6563
53004958:	69786520 	0x69786520
5300495c:	72652074 	0x72652074
53004960:	21726f72 	addi	s2,t3,28530
53004964:	0000000a 	movz	zero,zero,zero
53004968:	4f525245 	c3	0x1525245
5300496c:	72652852 	udi2	s3,a1,a1,0x1
53004970:	3d6f6e72 	0x3d6f6e72
53004974:	2d296425 	sltiu	t1,t1,25637
53004978:	3a646970 	xori	a0,s3,0x6970
5300497c:	252d6425 	addiu	t5,t1,25637
53004980:	64252c73 	0x64252c73
53004984:	2d73252c 	sltiu	s3,t3,9516
53004988:	63202d2d 	0x63202d2d
5300498c:	74616572 	jalx	518595c8 <_init-0x17a6a38>
53004990:	736d2065 	0x736d2065
53004994:	786f6267 	0x786f6267
53004998:	69616620 	0x69616620
5300499c:	2164656c 	addi	a0,t3,25964
530049a0:	0000000a 	movz	zero,zero,zero
530049a4:	4f525245 	c3	0x1525245
530049a8:	72652852 	udi2	s3,a1,a1,0x1
530049ac:	3d6f6e72 	0x3d6f6e72
530049b0:	2d296425 	sltiu	t1,t1,25637
530049b4:	3a646970 	xori	a0,s3,0x6970
530049b8:	252d6425 	addiu	t5,t1,25637
530049bc:	64252c73 	0x64252c73
530049c0:	2d73252c 	sltiu	s3,t3,9516
530049c4:	63202d2d 	0x63202d2d
530049c8:	65736f6c 	0x65736f6c
530049cc:	70706120 	0x70706120
530049d0:	72747320 	0x72747320
530049d4:	20676e69 	addi	a3,v1,28265
530049d8:	6f736572 	0x6f736572
530049dc:	65637275 	0x65637275
530049e0:	72726520 	0x72726520
530049e4:	0a21726f 	j	5885c9bc <app_icon2_data+0x58576a0>
530049e8:	00000000 	nop
530049ec:	4f525245 	c3	0x1525245
530049f0:	72652852 	udi2	s3,a1,a1,0x1
530049f4:	3d6f6e72 	0x3d6f6e72
530049f8:	2d296425 	sltiu	t1,t1,25637
530049fc:	3a646970 	xori	a0,s3,0x6970
53004a00:	252d6425 	addiu	t5,t1,25637
53004a04:	64252c73 	0x64252c73
53004a08:	2d73252c 	sltiu	s3,t3,9516
53004a0c:	63202d2d 	0x63202d2d
53004a10:	65736f6c 	0x65736f6c
53004a14:	73656420 	0x73656420
53004a18:	706f746b 	0x706f746b
53004a1c:	65687420 	0x65687420
53004a20:	7220656d 	0x7220656d
53004a24:	756f7365 	jalx	55bdcd94 <app_icon2_data+0x2bd7a78>
53004a28:	20656372 	addi	a1,v1,25458
53004a2c:	736c6166 	0x736c6166
53004a30:	000a2165 	0xa2165
53004a34:	33323130 	andi	s2,t9,0x3130
53004a38:	37363534 	ori	s6,t9,0x3534
53004a3c:	62613938 	0x62613938
53004a40:	66656463 	0x66656463
53004a44:	6a696867 	0x6a696867
53004a48:	6e6d6c6b 	0x6e6d6c6b
53004a4c:	7271706f 	0x7271706f
53004a50:	76757473 	jalx	59d5d1cc <app_icon2_data+0x6d57eb0>
53004a54:	7a797877 	0x7a797877
53004a58:	00000000 	nop
53004a5c:	33323130 	andi	s2,t9,0x3130
53004a60:	37363534 	ori	s6,t9,0x3534
53004a64:	42413938 	c0	0x413938
53004a68:	46454443 	c1	0x454443
53004a6c:	4a494847 	c2	0x494847
53004a70:	4e4d4c4b 	c3	0x4d4c4b
53004a74:	5251504f 	beql	s2,s1,53018bb4 <app_icon2_data+0x13898>
53004a78:	56555453 	bnel	s2,s5,53019bc8 <app_icon2_data+0x148ac>
53004a7c:	5a595857 	0x5a595857
53004a80:	00000000 	nop
53004a84:	4c554e3c 	0x4c554e3c
53004a88:	Address 0x53004a88 is out of bounds.

Disassembly of section .fini:

53004a8c <_fini>:
53004a8c:	27bdffe0 	addiu	sp,sp,-32
53004a90:	afbf0014 	sw	ra,20(sp)
53004a94:	0cc00c79 	jal	530031e4 <__do_global_dtors_aux>
53004a98:	00000000 	nop
53004a9c:	8fbf0014 	lw	ra,20(sp)
53004aa0:	27bd0020 	addiu	sp,sp,32
53004aa4:	03e00008 	jr	ra
53004aa8:	00000000 	nop
Disassembly of section .ctors:

53005000 <__CTOR_LIST__>:
53005000:	ffffffff 	sdc3	$31,-1(ra)
53005004:	5300158c 	beqzl	t8,5300a638 <app_icon2_data+0x531c>

53005008 <__CTOR_END__>:
53005008:	00000000 	nop
Disassembly of section .dtors:

5300500c <__DTOR_LIST__>:
5300500c:	ffffffff 	sdc3	$31,-1(ra)
53005010:	530015b4 	beqzl	t8,5300a6e4 <app_icon2_data+0x53c8>

53005014 <__DTOR_END__>:
53005014:	00000000 	nop
Disassembly of section .data:

53005018 <headbar_appicon>:
53005018:	3a7d1915 	xori	sp,s3,0x1915
5300501c:	566f078d 	bnel	s3,t7,53006e54 <app_icon2_data+0x1b38>
53005020:	9de77675 	0x9de77675
53005024:	8d8ef170 	lw	t6,-3728(t4)
53005028:	8c27a047 	lw	a3,-24505(at)
5300502c:	28aeff28 	slti	t6,a1,-216
53005030:	fb4ac795 	sdc2	$10,-14443(k0)
53005034:	4ae1d76a 	c2	0xe1d76a
53005038:	ad9e93fd 	sw	s8,-27651(t4)
5300503c:	0ff8f0fd 	jal	5fe3c3f4 <app_icon2_data+0xce370d8>
53005040:	0d7baaf4 	jal	55eeabd0 <app_icon2_data+0x2ee58b4>
53005044:	9f28e3b8 	0x9f28e3b8
53005048:	9f28e3b8 	0x9f28e3b8
5300504c:	9f28e3b8 	0x9f28e3b8

53005050 <app_map>:
53005050:	53004300 	beqzl	t8,53015c54 <app_icon2_data+0x10938>
53005054:	00000000 	nop
53005058:	53004308 	beqzl	t8,53015c7c <app_icon2_data+0x10960>
5300505c:	00000001 	movf	zero,zero,$fcc0
53005060:	53004310 	beqzl	t8,53015ca4 <app_icon2_data+0x10988>
53005064:	00000002 	srl	zero,zero,0x0
53005068:	53004318 	beqzl	t8,53015ccc <app_icon2_data+0x109b0>
5300506c:	00000003 	sra	zero,zero,0x0
53005070:	53004320 	beqzl	t8,53015cf4 <app_icon2_data+0x109d8>
53005074:	00000004 	sllv	zero,zero,zero
53005078:	53004328 	beqzl	t8,53015d1c <app_icon2_data+0x10a00>
5300507c:	00000005 	0x5
53005080:	53004334 	beqzl	t8,53015d54 <app_icon2_data+0x10a38>
53005084:	00000006 	srlv	zero,zero,zero
53005088:	5300433c 	beqzl	t8,53015d7c <app_icon2_data+0x10a60>
5300508c:	00000007 	srav	zero,zero,zero
53005090:	53004344 	beqzl	t8,53015da4 <app_icon2_data+0x10a88>
53005094:	00000008 	jr	zero
53005098:	5300434c 	beqzl	t8,53015dcc <app_icon2_data+0x10ab0>
5300509c:	00000009 	jalr	zero,zero
530050a0:	53004354 	beqzl	t8,53015df4 <app_icon2_data+0x10ad8>
530050a4:	0000000a 	movz	zero,zero,zero
530050a8:	5300435c 	beqzl	t8,53015e1c <app_icon2_data+0x10b00>
530050ac:	0000000b 	movn	zero,zero,zero
530050b0:	53004364 	beqzl	t8,53015e44 <app_icon2_data+0x10b28>
530050b4:	0000000c 	syscall
530050b8:	53004374 	beqzl	t8,53015e8c <app_icon2_data+0x10b70>
530050bc:	0000000d 	break

530050c0 <app_icon4>:
530050c0:	3a7d1915 	xori	sp,s3,0x1915
530050c4:	566f078d 	bnel	s3,t7,53006efc <app_icon2_data+0x1be0>
530050c8:	9de77675 	0x9de77675
530050cc:	8d8ef170 	lw	t6,-3728(t4)
530050d0:	8c27a047 	lw	a3,-24505(at)
530050d4:	28aeff28 	slti	t6,a1,-216
530050d8:	fb4ac795 	sdc2	$10,-14443(k0)
530050dc:	4ae1d76a 	c2	0xe1d76a
530050e0:	9faf849d 	0x9faf849d
530050e4:	5a18fbbd 	0x5a18fbbd
530050e8:	0d7baaf4 	jal	55eeabd0 <app_icon2_data+0x2ee58b4>
530050ec:	9f28e3b8 	0x9f28e3b8
530050f0:	9f28e3b8 	0x9f28e3b8
530050f4:	9f28e3b8 	0x9f28e3b8

530050f8 <app_icon3>:
530050f8:	3a7d1912 	xori	sp,s3,0x1912
530050fc:	566f078a 	bnel	s3,t7,53006f28 <app_icon2_data+0x1c0c>
53005100:	9de77672 	0x9de77672
53005104:	8d8ef177 	lw	t6,-3721(t4)
53005108:	8c27a040 	lw	a3,-24512(at)
5300510c:	28aeff2f 	slti	t6,a1,-209
53005110:	fb4ac792 	sdc2	$10,-14446(k0)
53005114:	4ae1d76d 	c2	0xe1d76d
53005118:	9faf849a 	0x9faf849a
5300511c:	5a18fbba 	0x5a18fbba
53005120:	0d7baaf3 	jal	55eeabcc <app_icon2_data+0x2ee58b0>
53005124:	9f28e3bf 	0x9f28e3bf
53005128:	9f28e3bf 	0x9f28e3bf
5300512c:	9f28e3bf 	0x9f28e3bf

53005130 <app_icon2>:
53005130:	3a7d1913 	xori	sp,s3,0x1913
53005134:	566f078b 	bnel	s3,t7,53006f64 <app_icon2_data+0x1c48>
53005138:	9de77673 	0x9de77673
5300513c:	8d8ef176 	lw	t6,-3722(t4)
53005140:	8c27a041 	lw	a3,-24511(at)
53005144:	28aeff2e 	slti	t6,a1,-210
53005148:	fb4ac793 	sdc2	$10,-14445(k0)
5300514c:	4ae1d76c 	c2	0xe1d76c
53005150:	9faf849b 	0x9faf849b
53005154:	5a18fbbb 	0x5a18fbbb
53005158:	0d7baaf2 	jal	55eeabc8 <app_icon2_data+0x2ee58ac>
5300515c:	9f28e3be 	0x9f28e3be
53005160:	9f28e3be 	0x9f28e3be
53005164:	9f28e3be 	0x9f28e3be

53005168 <app_icon1>:
53005168:	3a7d1910 	xori	sp,s3,0x1910
5300516c:	566f0788 	bnel	s3,t7,53006f90 <app_icon2_data+0x1c74>
53005170:	9de77670 	0x9de77670
53005174:	8d8ef175 	lw	t6,-3723(t4)
53005178:	8c27a042 	lw	a3,-24510(at)
5300517c:	28aeff2d 	slti	t6,a1,-211
53005180:	fb4ac790 	sdc2	$10,-14448(k0)
53005184:	4ae1d76f 	c2	0xe1d76f
53005188:	9faf8498 	0x9faf8498
5300518c:	5a18fbb8 	0x5a18fbb8
53005190:	0d7baaf1 	jal	55eeabc4 <app_icon2_data+0x2ee58a8>
53005194:	9f28e3bd 	0x9f28e3bd
53005198:	9f28e3bd 	0x9f28e3bd
5300519c:	9f28e3bd 	0x9f28e3bd
Disassembly of section .bss:

530051a0 <desktop_bg>:
	...

530051a8 <g_scene_desktop>:
530051a8:	00000000 	nop

530051ac <s_exiting_scene>:
530051ac:	00000000 	nop

530051b0 <str_app_name_p2>:
530051b0:	00000000 	nop

530051b4 <pthread_mutex_type_t>:
530051b4:	00000000 	nop

530051b8 <str_app_name_p1>:
530051b8:	00000000 	nop

530051bc <app_icon4_data>:
	...

5300522c <str_app_name_p3>:
5300522c:	00000000 	nop

53005230 <debug_time>:
53005230:	00000000 	nop

53005234 <app_icon3_data>:
	...

530052a4 <pthread_share_type_t>:
530052a4:	00000000 	nop

530052a8 <app_icon1_data>:
	...

53005318 <str_app_name>:
53005318:	00000000 	nop

5300531c <app_icon2_data>:
	...
Disassembly of section .reginfo:

00000000 <.reginfo>:
   0:	e3fffffc 	sc	ra,-4(ra)
	...
Disassembly of section .pdr:

00000000 <.pdr>:
       0:	53000020 	beqzl	t8,84 <_init-0x52ffff7c>
       4:	c0ff0000 	ll	ra,0(a3)
       8:	fffffffc 	sdc3	$31,-4(ra)
	...
      14:	00000048 	0x48
      18:	0000001d 	0x1d
      1c:	0000001f 	0x1f
      20:	530002c0 	beqzl	t8,b24 <_init-0x52fff4dc>
      24:	80ff0000 	lb	ra,0(a3)
      28:	fffffff8 	sdc3	$31,-8(ra)
	...
      34:	00000038 	0x38
      38:	0000001d 	0x1d
      3c:	0000001f 	0x1f
      40:	53000404 	beqzl	t8,1054 <_init-0x52ffefac>
      44:	c0ff0000 	ll	ra,0(a3)
      48:	fffffffc 	sdc3	$31,-4(ra)
	...
      54:	00000038 	0x38
      58:	0000001d 	0x1d
      5c:	0000001f 	0x1f
      60:	53000560 	beqzl	t8,15e4 <_init-0x52ffea1c>
      64:	80070000 	lb	a3,0(zero)
      68:	fffffffc 	sdc3	$31,-4(ra)
	...
      74:	00000028 	0x28
      78:	0000001d 	0x1d
      7c:	0000001f 	0x1f
      80:	5300061c 	beqzl	t8,18f4 <_init-0x52ffe70c>
      84:	80030000 	lb	v1,0(zero)
      88:	fffffff8 	sdc3	$31,-8(ra)
	...
      94:	00000020 	add	zero,zero,zero
      98:	0000001d 	0x1d
      9c:	0000001f 	0x1f
      a0:	53000694 	beqzl	t8,1af4 <_init-0x52ffe50c>
      a4:	00000000 	nop
	...
      b8:	0000001d 	0x1d
      bc:	0000001f 	0x1f
      c0:	530006d4 	beqzl	t8,1c14 <_init-0x52ffe3ec>
      c4:	800f0000 	lb	t7,0(zero)
      c8:	fffffff8 	sdc3	$31,-8(ra)
	...
      d4:	000000b0 	tge	zero,zero,0x2
      d8:	0000001d 	0x1d
      dc:	0000001f 	0x1f
      e0:	53000988 	beqzl	t8,2704 <_init-0x52ffd8fc>
      e4:	c0ff0000 	ll	ra,0(a3)
      e8:	fffffffc 	sdc3	$31,-4(ra)
	...
      f4:	00000040 	ssnop
      f8:	0000001d 	0x1d
      fc:	0000001f 	0x1f
     100:	53000ce0 	beqzl	t8,3484 <_init-0x52ffcb7c>
     104:	807f0000 	lb	ra,0(v1)
     108:	fffffffc 	sdc3	$31,-4(ra)
	...
     114:	00000038 	0x38
     118:	0000001d 	0x1d
     11c:	0000001f 	0x1f
     120:	5300148c 	beqzl	t8,5354 <_init-0x52ffacac>
     124:	80000000 	lb	zero,0(zero)
     128:	fffffff8 	sdc3	$31,-8(ra)
	...
     134:	00000020 	add	zero,zero,zero
     138:	0000001d 	0x1d
     13c:	0000001f 	0x1f
     140:	530014ec 	beqzl	t8,54f4 <_init-0x52ffab0c>
     144:	80030000 	lb	v1,0(zero)
     148:	fffffff8 	sdc3	$31,-8(ra)
	...
     154:	00000020 	add	zero,zero,zero
     158:	0000001d 	0x1d
     15c:	0000001f 	0x1f
     160:	5300154c 	beqzl	t8,5694 <_init-0x52ffa96c>
     164:	00000000 	nop
	...
     178:	0000001d 	0x1d
     17c:	0000001f 	0x1f
     180:	53001554 	beqzl	t8,56d4 <_init-0x52ffa92c>
     184:	80010000 	lb	at,0(zero)
     188:	fffffffc 	sdc3	$31,-4(ra)
	...
     194:	00000018 	mult	zero,zero
     198:	0000001d 	0x1d
     19c:	0000001f 	0x1f
     1a0:	5300158c 	beqzl	t8,57d4 <_init-0x52ffa82c>
     1a4:	80000000 	lb	zero,0(zero)
     1a8:	fffffff8 	sdc3	$31,-8(ra)
	...
     1b4:	00000018 	mult	zero,zero
     1b8:	0000001d 	0x1d
     1bc:	0000001f 	0x1f
     1c0:	530015b4 	beqzl	t8,5894 <_init-0x52ffa76c>
     1c4:	00000000 	nop
	...
     1d8:	0000001d 	0x1d
     1dc:	0000001f 	0x1f
     1e0:	530015bc 	beqzl	t8,58d4 <_init-0x52ffa72c>
     1e4:	80070000 	lb	a3,0(zero)
     1e8:	fffffffc 	sdc3	$31,-4(ra)
	...
     1f4:	00000050 	0x50
     1f8:	0000001d 	0x1d
     1fc:	0000001f 	0x1f
     200:	53001744 	beqzl	t8,5f14 <_init-0x52ffa0ec>
     204:	80010000 	lb	at,0(zero)
     208:	fffffffc 	sdc3	$31,-4(ra)
	...
     214:	00000018 	mult	zero,zero
     218:	0000001d 	0x1d
     21c:	0000001f 	0x1f
     220:	530017c4 	beqzl	t8,6134 <_init-0x52ff9ecc>
     224:	80000000 	lb	zero,0(zero)
     228:	fffffff8 	sdc3	$31,-8(ra)
	...
     234:	00000018 	mult	zero,zero
     238:	0000001d 	0x1d
     23c:	0000001f 	0x1f
     240:	530017f8 	beqzl	t8,6224 <_init-0x52ff9ddc>
     244:	80000000 	lb	zero,0(zero)
     248:	fffffff8 	sdc3	$31,-8(ra)
	...
     254:	00000018 	mult	zero,zero
     258:	0000001d 	0x1d
     25c:	0000001f 	0x1f
     260:	53001844 	beqzl	t8,6374 <_init-0x52ff9c8c>
     264:	80030000 	lb	v1,0(zero)
     268:	fffffff8 	sdc3	$31,-8(ra)
	...
     274:	00000030 	tge	zero,zero
     278:	0000001d 	0x1d
     27c:	0000001f 	0x1f
     280:	53001948 	beqzl	t8,67a4 <_init-0x52ff985c>
     284:	00000000 	nop
	...
     298:	0000001d 	0x1d
     29c:	0000001f 	0x1f
     2a0:	53001950 	beqzl	t8,67e4 <_init-0x52ff981c>
     2a4:	80010000 	lb	at,0(zero)
     2a8:	fffffffc 	sdc3	$31,-4(ra)
	...
     2b4:	00000018 	mult	zero,zero
     2b8:	0000001d 	0x1d
     2bc:	0000001f 	0x1f
     2c0:	530019a0 	beqzl	t8,6944 <_init-0x52ff96bc>
     2c4:	80010000 	lb	at,0(zero)
     2c8:	fffffffc 	sdc3	$31,-4(ra)
	...
     2d4:	00000018 	mult	zero,zero
     2d8:	0000001d 	0x1d
     2dc:	0000001f 	0x1f
     2e0:	530019f8 	beqzl	t8,6ac4 <_init-0x52ff953c>
     2e4:	80030000 	lb	v1,0(zero)
     2e8:	fffffff8 	sdc3	$31,-8(ra)
	...
     2f4:	00000020 	add	zero,zero,zero
     2f8:	0000001d 	0x1d
     2fc:	0000001f 	0x1f
     300:	53001ae8 	beqzl	t8,6ea4 <_init-0x52ff915c>
     304:	80010000 	lb	at,0(zero)
     308:	fffffffc 	sdc3	$31,-4(ra)
	...
     314:	00000020 	add	zero,zero,zero
     318:	0000001d 	0x1d
     31c:	0000001f 	0x1f
     320:	53001c08 	beqzl	t8,7344 <_init-0x52ff8cbc>
     324:	80070000 	lb	a3,0(zero)
     328:	fffffffc 	sdc3	$31,-4(ra)
	...
     334:	00000830 	tge	zero,zero,0x20
     338:	0000001d 	0x1d
     33c:	0000001f 	0x1f
     340:	53001e54 	beqzl	t8,7c94 <_init-0x52ff836c>
     344:	80010000 	lb	at,0(zero)
     348:	fffffffc 	sdc3	$31,-4(ra)
	...
     354:	00000020 	add	zero,zero,zero
     358:	0000001d 	0x1d
     35c:	0000001f 	0x1f
     360:	53001f2c 	beqzl	t8,8014 <_init-0x52ff7fec>
     364:	80030000 	lb	v1,0(zero)
     368:	fffffff8 	sdc3	$31,-8(ra)
	...
     374:	00000028 	0x28
     378:	0000001d 	0x1d
     37c:	0000001f 	0x1f
     380:	53002018 	beqzl	t8,83e4 <_init-0x52ff7c1c>
     384:	800f0000 	lb	t7,0(zero)
     388:	fffffff8 	sdc3	$31,-8(ra)
	...
     394:	00000038 	0x38
     398:	0000001d 	0x1d
     39c:	0000001f 	0x1f
     3a0:	53002314 	beqzl	t8,8ff4 <_init-0x52ff700c>
     3a4:	80030000 	lb	v1,0(zero)
     3a8:	fffffff8 	sdc3	$31,-8(ra)
	...
     3b4:	00000020 	add	zero,zero,zero
     3b8:	0000001d 	0x1d
     3bc:	0000001f 	0x1f
     3c0:	530023f8 	beqzl	t8,93a4 <_init-0x52ff6c5c>
     3c4:	80030000 	lb	v1,0(zero)
     3c8:	fffffff8 	sdc3	$31,-8(ra)
	...
     3d4:	00000438 	0x438
     3d8:	0000001d 	0x1d
     3dc:	0000001f 	0x1f
     3e0:	530026c8 	beqzl	t8,9f04 <_init-0x52ff60fc>
     3e4:	80ff0000 	lb	ra,0(a3)
     3e8:	fffffff8 	sdc3	$31,-8(ra)
	...
     3f4:	00001058 	0x1058
     3f8:	0000001d 	0x1d
     3fc:	0000001f 	0x1f
     400:	53002e50 	beqzl	t8,bd44 <_init-0x52ff42bc>
     404:	00000000 	nop
	...
     418:	0000001d 	0x1d
     41c:	0000001f 	0x1f
     420:	53002e5c 	beqzl	t8,bd94 <_init-0x52ff426c>
     424:	00000000 	nop
	...
     438:	0000001d 	0x1d
     43c:	0000001f 	0x1f
     440:	53002e68 	beqzl	t8,bde4 <_init-0x52ff421c>
     444:	00000000 	nop
	...
     458:	0000001d 	0x1d
     45c:	0000001f 	0x1f
     460:	53002e74 	beqzl	t8,be34 <_init-0x52ff41cc>
     464:	00000000 	nop
	...
     478:	0000001d 	0x1d
     47c:	0000001f 	0x1f
     480:	53002e80 	beqzl	t8,be84 <_init-0x52ff417c>
     484:	00000000 	nop
	...
     498:	0000001d 	0x1d
     49c:	0000001f 	0x1f
     4a0:	53002e8c 	beqzl	t8,bed4 <_init-0x52ff412c>
     4a4:	00000000 	nop
	...
     4b8:	0000001d 	0x1d
     4bc:	0000001f 	0x1f
     4c0:	53002e98 	beqzl	t8,bf24 <_init-0x52ff40dc>
     4c4:	00000000 	nop
	...
     4d8:	0000001d 	0x1d
     4dc:	0000001f 	0x1f
     4e0:	53002ea4 	beqzl	t8,bf74 <_init-0x52ff408c>
     4e4:	00000000 	nop
	...
     4f8:	0000001d 	0x1d
     4fc:	0000001f 	0x1f
     500:	53002eb0 	beqzl	t8,bfc4 <_init-0x52ff403c>
     504:	00000000 	nop
	...
     518:	0000001d 	0x1d
     51c:	0000001f 	0x1f
     520:	53002ebc 	beqzl	t8,c014 <_init-0x52ff3fec>
     524:	00000000 	nop
	...
     538:	0000001d 	0x1d
     53c:	0000001f 	0x1f
     540:	53002ec8 	beqzl	t8,c064 <_init-0x52ff3f9c>
     544:	00000000 	nop
	...
     558:	0000001d 	0x1d
     55c:	0000001f 	0x1f
     560:	53002ed4 	beqzl	t8,c0b4 <_init-0x52ff3f4c>
     564:	00000000 	nop
	...
     578:	0000001d 	0x1d
     57c:	0000001f 	0x1f
     580:	53002ee0 	beqzl	t8,c104 <_init-0x52ff3efc>
     584:	00000000 	nop
	...
     598:	0000001d 	0x1d
     59c:	0000001f 	0x1f
     5a0:	53002eec 	beqzl	t8,c154 <_init-0x52ff3eac>
     5a4:	00000000 	nop
	...
     5b8:	0000001d 	0x1d
     5bc:	0000001f 	0x1f
     5c0:	53002ef8 	beqzl	t8,c1a4 <_init-0x52ff3e5c>
     5c4:	00000000 	nop
	...
     5d8:	0000001d 	0x1d
     5dc:	0000001f 	0x1f
     5e0:	53002f04 	beqzl	t8,c1f4 <_init-0x52ff3e0c>
     5e4:	00000000 	nop
	...
     5f8:	0000001d 	0x1d
     5fc:	0000001f 	0x1f
     600:	53002f10 	beqzl	t8,c244 <_init-0x52ff3dbc>
     604:	00000000 	nop
	...
     618:	0000001d 	0x1d
     61c:	0000001f 	0x1f
     620:	53002f1c 	beqzl	t8,c294 <_init-0x52ff3d6c>
     624:	00000000 	nop
	...
     638:	0000001d 	0x1d
     63c:	0000001f 	0x1f
     640:	53002f28 	beqzl	t8,c2e4 <_init-0x52ff3d1c>
     644:	00000000 	nop
	...
     658:	0000001d 	0x1d
     65c:	0000001f 	0x1f
     660:	53002f34 	beqzl	t8,c334 <_init-0x52ff3ccc>
     664:	00000000 	nop
	...
     678:	0000001d 	0x1d
     67c:	0000001f 	0x1f
     680:	53002f40 	beqzl	t8,c384 <_init-0x52ff3c7c>
     684:	00000000 	nop
	...
     698:	0000001d 	0x1d
     69c:	0000001f 	0x1f
     6a0:	53002f4c 	beqzl	t8,c3d4 <_init-0x52ff3c2c>
     6a4:	00000000 	nop
	...
     6b8:	0000001d 	0x1d
     6bc:	0000001f 	0x1f
     6c0:	53002f58 	beqzl	t8,c424 <_init-0x52ff3bdc>
     6c4:	00000000 	nop
	...
     6d8:	0000001d 	0x1d
     6dc:	0000001f 	0x1f
     6e0:	53002f64 	beqzl	t8,c474 <_init-0x52ff3b8c>
     6e4:	00000000 	nop
	...
     6f8:	0000001d 	0x1d
     6fc:	0000001f 	0x1f
     700:	53002f70 	beqzl	t8,c4c4 <_init-0x52ff3b3c>
     704:	00000000 	nop
	...
     718:	0000001d 	0x1d
     71c:	0000001f 	0x1f
     720:	53002f7c 	beqzl	t8,c514 <_init-0x52ff3aec>
     724:	00000000 	nop
	...
     738:	0000001d 	0x1d
     73c:	0000001f 	0x1f
     740:	53002f88 	beqzl	t8,c564 <_init-0x52ff3a9c>
     744:	00000000 	nop
	...
     758:	0000001d 	0x1d
     75c:	0000001f 	0x1f
     760:	53002f94 	beqzl	t8,c5b4 <_init-0x52ff3a4c>
     764:	00000000 	nop
	...
     778:	0000001d 	0x1d
     77c:	0000001f 	0x1f
     780:	53002fa0 	beqzl	t8,c604 <_init-0x52ff39fc>
     784:	00000000 	nop
	...
     798:	0000001d 	0x1d
     79c:	0000001f 	0x1f
     7a0:	53002fac 	beqzl	t8,c654 <_init-0x52ff39ac>
     7a4:	00000000 	nop
	...
     7b8:	0000001d 	0x1d
     7bc:	0000001f 	0x1f
     7c0:	53002fb4 	beqzl	t8,c694 <_init-0x52ff396c>
     7c4:	00000000 	nop
	...
     7d8:	0000001d 	0x1d
     7dc:	0000001f 	0x1f
     7e0:	53002fc4 	beqzl	t8,c6f4 <_init-0x52ff390c>
     7e4:	00000000 	nop
	...
     7f8:	0000001d 	0x1d
     7fc:	0000001f 	0x1f
     800:	53002fd4 	beqzl	t8,c754 <_init-0x52ff38ac>
     804:	00000000 	nop
	...
     818:	0000001d 	0x1d
     81c:	0000001f 	0x1f
     820:	53002fe4 	beqzl	t8,c7b4 <_init-0x52ff384c>
     824:	00000000 	nop
	...
     838:	0000001d 	0x1d
     83c:	0000001f 	0x1f
     840:	53002ff4 	beqzl	t8,c814 <_init-0x52ff37ec>
     844:	00000000 	nop
	...
     858:	0000001d 	0x1d
     85c:	0000001f 	0x1f
     860:	53003004 	beqzl	t8,c874 <_init-0x52ff378c>
     864:	00000000 	nop
	...
     878:	0000001d 	0x1d
     87c:	0000001f 	0x1f
     880:	53003010 	beqzl	t8,c8c4 <_init-0x52ff373c>
     884:	00000000 	nop
	...
     898:	0000001d 	0x1d
     89c:	0000001f 	0x1f
     8a0:	5300301c 	beqzl	t8,c914 <_init-0x52ff36ec>
     8a4:	00000000 	nop
	...
     8b8:	0000001d 	0x1d
     8bc:	0000001f 	0x1f
     8c0:	53003028 	beqzl	t8,c964 <_init-0x52ff369c>
     8c4:	00000000 	nop
	...
     8d8:	0000001d 	0x1d
     8dc:	0000001f 	0x1f
     8e0:	53003034 	beqzl	t8,c9b4 <_init-0x52ff364c>
     8e4:	00000000 	nop
	...
     8f8:	0000001d 	0x1d
     8fc:	0000001f 	0x1f
     900:	53003040 	beqzl	t8,ca04 <_init-0x52ff35fc>
     904:	00000000 	nop
	...
     918:	0000001d 	0x1d
     91c:	0000001f 	0x1f
     920:	5300304c 	beqzl	t8,ca54 <_init-0x52ff35ac>
     924:	00000000 	nop
	...
     938:	0000001d 	0x1d
     93c:	0000001f 	0x1f
     940:	53003058 	beqzl	t8,caa4 <_init-0x52ff355c>
     944:	00000000 	nop
	...
     958:	0000001d 	0x1d
     95c:	0000001f 	0x1f
     960:	53003064 	beqzl	t8,caf4 <_init-0x52ff350c>
     964:	00000000 	nop
	...
     978:	0000001d 	0x1d
     97c:	0000001f 	0x1f
     980:	53003070 	beqzl	t8,cb44 <_init-0x52ff34bc>
     984:	00000000 	nop
	...
     998:	0000001d 	0x1d
     99c:	0000001f 	0x1f
     9a0:	5300307c 	beqzl	t8,cb94 <_init-0x52ff346c>
     9a4:	00000000 	nop
	...
     9b8:	0000001d 	0x1d
     9bc:	0000001f 	0x1f
     9c0:	53003088 	beqzl	t8,cbe4 <_init-0x52ff341c>
     9c4:	00000000 	nop
	...
     9d8:	0000001d 	0x1d
     9dc:	0000001f 	0x1f
     9e0:	53003094 	beqzl	t8,cc34 <_init-0x52ff33cc>
     9e4:	00000000 	nop
	...
     9f8:	0000001d 	0x1d
     9fc:	0000001f 	0x1f
     a00:	530030a0 	beqzl	t8,cc84 <_init-0x52ff337c>
     a04:	00000000 	nop
	...
     a18:	0000001d 	0x1d
     a1c:	0000001f 	0x1f
     a20:	530030ac 	beqzl	t8,ccd4 <_init-0x52ff332c>
     a24:	00000000 	nop
	...
     a38:	0000001d 	0x1d
     a3c:	0000001f 	0x1f
     a40:	530030b8 	beqzl	t8,cd24 <_init-0x52ff32dc>
     a44:	00000000 	nop
	...
     a58:	0000001d 	0x1d
     a5c:	0000001f 	0x1f
     a60:	530030c4 	beqzl	t8,cd74 <_init-0x52ff328c>
     a64:	00000000 	nop
	...
     a78:	0000001d 	0x1d
     a7c:	0000001f 	0x1f
     a80:	530030d0 	beqzl	t8,cdc4 <_init-0x52ff323c>
     a84:	00000000 	nop
	...
     a98:	0000001d 	0x1d
     a9c:	0000001f 	0x1f
     aa0:	530030dc 	beqzl	t8,ce14 <_init-0x52ff31ec>
     aa4:	00000000 	nop
	...
     ab8:	0000001d 	0x1d
     abc:	0000001f 	0x1f
     ac0:	530030e8 	beqzl	t8,ce64 <_init-0x52ff319c>
     ac4:	00000000 	nop
	...
     ad8:	0000001d 	0x1d
     adc:	0000001f 	0x1f
     ae0:	530030f4 	beqzl	t8,ceb4 <_init-0x52ff314c>
     ae4:	00000000 	nop
	...
     af8:	0000001d 	0x1d
     afc:	0000001f 	0x1f
     b00:	53003100 	beqzl	t8,cf04 <_init-0x52ff30fc>
     b04:	00000000 	nop
	...
     b18:	0000001d 	0x1d
     b1c:	0000001f 	0x1f
     b20:	5300310c 	beqzl	t8,cf54 <_init-0x52ff30ac>
     b24:	00000000 	nop
	...
     b38:	0000001d 	0x1d
     b3c:	0000001f 	0x1f
     b40:	53003118 	beqzl	t8,cfa4 <_init-0x52ff305c>
     b44:	00000000 	nop
	...
     b58:	0000001d 	0x1d
     b5c:	0000001f 	0x1f
     b60:	53003124 	beqzl	t8,cff4 <_init-0x52ff300c>
     b64:	00000000 	nop
	...
     b78:	0000001d 	0x1d
     b7c:	0000001f 	0x1f
     b80:	53003130 	beqzl	t8,d044 <_init-0x52ff2fbc>
     b84:	00000000 	nop
	...
     b98:	0000001d 	0x1d
     b9c:	0000001f 	0x1f
     ba0:	5300313c 	beqzl	t8,d094 <_init-0x52ff2f6c>
     ba4:	00000000 	nop
	...
     bb8:	0000001d 	0x1d
     bbc:	0000001f 	0x1f
     bc0:	53003148 	beqzl	t8,d0e4 <_init-0x52ff2f1c>
     bc4:	00000000 	nop
	...
     bd8:	0000001d 	0x1d
     bdc:	0000001f 	0x1f
     be0:	53003154 	beqzl	t8,d134 <_init-0x52ff2ecc>
     be4:	00000000 	nop
	...
     bf8:	0000001d 	0x1d
     bfc:	0000001f 	0x1f
     c00:	53003160 	beqzl	t8,d184 <_init-0x52ff2e7c>
     c04:	00000000 	nop
	...
     c18:	0000001d 	0x1d
     c1c:	0000001f 	0x1f
     c20:	5300316c 	beqzl	t8,d1d4 <_init-0x52ff2e2c>
     c24:	00000000 	nop
	...
     c38:	0000001d 	0x1d
     c3c:	0000001f 	0x1f
     c40:	53003178 	beqzl	t8,d224 <_init-0x52ff2ddc>
     c44:	00000000 	nop
	...
     c58:	0000001d 	0x1d
     c5c:	0000001f 	0x1f
     c60:	53003184 	beqzl	t8,d274 <_init-0x52ff2d8c>
     c64:	00000000 	nop
	...
     c78:	0000001d 	0x1d
     c7c:	0000001f 	0x1f
     c80:	53003190 	beqzl	t8,d2c4 <_init-0x52ff2d3c>
     c84:	00000000 	nop
	...
     c98:	0000001d 	0x1d
     c9c:	0000001f 	0x1f
     ca0:	5300319c 	beqzl	t8,d314 <_init-0x52ff2cec>
     ca4:	00000000 	nop
	...
     cb8:	0000001d 	0x1d
     cbc:	0000001f 	0x1f
     cc0:	530031a8 	beqzl	t8,d364 <_init-0x52ff2c9c>
     cc4:	00000000 	nop
	...
     cd8:	0000001d 	0x1d
     cdc:	0000001f 	0x1f
     ce0:	530031b4 	beqzl	t8,d3b4 <_init-0x52ff2c4c>
     ce4:	00000000 	nop
	...
     cf8:	0000001d 	0x1d
     cfc:	0000001f 	0x1f
     d00:	530031c0 	beqzl	t8,d404 <_init-0x52ff2bfc>
     d04:	00000000 	nop
	...
     d18:	0000001d 	0x1d
     d1c:	0000001f 	0x1f
     d20:	530031cc 	beqzl	t8,d454 <_init-0x52ff2bac>
     d24:	00000000 	nop
	...
     d38:	0000001d 	0x1d
     d3c:	0000001f 	0x1f
     d40:	530031d8 	beqzl	t8,d4a4 <_init-0x52ff2b5c>
     d44:	00000000 	nop
	...
     d58:	0000001d 	0x1d
     d5c:	0000001f 	0x1f
     d60:	530031e4 	beqzl	t8,d4f4 <_init-0x52ff2b0c>
     d64:	c0000000 	ll	zero,0(zero)
     d68:	fffffffc 	sdc3	$31,-4(ra)
	...
     d74:	00000020 	add	zero,zero,zero
     d78:	0000001e 	0x1e
     d7c:	0000001f 	0x1f
     d80:	5300324c 	beqzl	t8,d6b4 <_init-0x52ff294c>
     d84:	c0000000 	ll	zero,0(zero)
     d88:	fffffffc 	sdc3	$31,-4(ra)
	...
     d94:	00000020 	add	zero,zero,zero
     d98:	0000001e 	0x1e
     d9c:	0000001f 	0x1f
     da0:	530032b4 	beqzl	t8,d874 <_init-0x52ff278c>
     da4:	00000000 	nop
	...
     db8:	0000001d 	0x1d
     dbc:	0000001f 	0x1f
     dc0:	530032c0 	beqzl	t8,d8c4 <_init-0x52ff273c>
     dc4:	00000000 	nop
	...
     dd8:	0000001d 	0x1d
     ddc:	0000001f 	0x1f
     de0:	530032cc 	beqzl	t8,d914 <_init-0x52ff26ec>
     de4:	80000000 	lb	zero,0(zero)
     de8:	fffffff8 	sdc3	$31,-8(ra)
	...
     df4:	00000018 	mult	zero,zero
     df8:	0000001d 	0x1d
     dfc:	0000001f 	0x1f
     e00:	530032f0 	beqzl	t8,d9c4 <_init-0x52ff263c>
     e04:	80000000 	lb	zero,0(zero)
     e08:	fffffff8 	sdc3	$31,-8(ra)
	...
     e14:	00000018 	mult	zero,zero
     e18:	0000001d 	0x1d
     e1c:	0000001f 	0x1f
     e20:	53003318 	beqzl	t8,da84 <_init-0x52ff257c>
     e24:	80030000 	lb	v1,0(zero)
     e28:	fffffff8 	sdc3	$31,-8(ra)
	...
     e34:	00000120 	0x120
     e38:	0000001d 	0x1d
     e3c:	0000001f 	0x1f
     e40:	530033b4 	beqzl	t8,dd14 <_init-0x52ff22ec>
     e44:	00000000 	nop
	...
     e58:	0000001d 	0x1d
     e5c:	0000001f 	0x1f
     e60:	53003418 	beqzl	t8,dec4 <_init-0x52ff213c>
     e64:	00000000 	nop
	...
     e74:	00000048 	0x48
     e78:	0000001d 	0x1d
     e7c:	0000001f 	0x1f
     e80:	53003674 	beqzl	t8,e854 <_init-0x52ff17ac>
     e84:	803f0000 	lb	ra,0(at)
     e88:	fffffff8 	sdc3	$31,-8(ra)
	...
     e94:	00000080 	sll	zero,zero,0x2
     e98:	0000001d 	0x1d
     e9c:	0000001f 	0x1f
     ea0:	53003db0 	beqzl	t8,10564 <_init-0x52fefa9c>
     ea4:	00000000 	nop
	...
     eb8:	0000001d 	0x1d
     ebc:	0000001f 	0x1f
     ec0:	53003dd4 	beqzl	t8,10614 <_init-0x52fef9ec>
     ec4:	00000000 	nop
	...
     ed8:	0000001d 	0x1d
     edc:	0000001f 	0x1f
     ee0:	53003df4 	beqzl	t8,106b4 <_init-0x52fef94c>
     ee4:	00000000 	nop
	...
     ef8:	0000001d 	0x1d
     efc:	0000001f 	0x1f
     f00:	53003e60 	beqzl	t8,10884 <_init-0x52fef77c>
     f04:	00000000 	nop
	...
     f18:	0000001d 	0x1d
     f1c:	0000001f 	0x1f
     f20:	53003ef0 	beqzl	t8,10ae4 <_init-0x52fef51c>
     f24:	00000000 	nop
	...
     f38:	0000001d 	0x1d
     f3c:	0000001f 	0x1f
     f40:	53003efc 	beqzl	t8,10b34 <_init-0x52fef4cc>
     f44:	00000000 	nop
	...
     f58:	0000001d 	0x1d
     f5c:	0000001f 	0x1f
     f60:	53003f08 	beqzl	t8,10b84 <_init-0x52fef47c>
     f64:	00000000 	nop
	...
     f78:	0000001d 	0x1d
     f7c:	0000001f 	0x1f
     f80:	53003f14 	beqzl	t8,10bd4 <_init-0x52fef42c>
     f84:	00000000 	nop
	...
     f98:	0000001d 	0x1d
     f9c:	0000001f 	0x1f
     fa0:	53003f20 	beqzl	t8,10c24 <_init-0x52fef3dc>
     fa4:	00000000 	nop
	...
     fb8:	0000001d 	0x1d
     fbc:	0000001f 	0x1f
     fc0:	53003f2c 	beqzl	t8,10c74 <_init-0x52fef38c>
     fc4:	00000000 	nop
	...
     fd8:	0000001d 	0x1d
     fdc:	0000001f 	0x1f
     fe0:	53003f38 	beqzl	t8,10cc4 <_init-0x52fef33c>
     fe4:	00000000 	nop
	...
     ff8:	0000001d 	0x1d
     ffc:	0000001f 	0x1f
    1000:	53003f44 	beqzl	t8,10d14 <_init-0x52fef2ec>
    1004:	00000000 	nop
	...
    1018:	0000001d 	0x1d
    101c:	0000001f 	0x1f
    1020:	53003f50 	beqzl	t8,10d64 <_init-0x52fef29c>
    1024:	00000000 	nop
	...
    1038:	0000001d 	0x1d
    103c:	0000001f 	0x1f
    1040:	53003f5c 	beqzl	t8,10db4 <_init-0x52fef24c>
    1044:	00000000 	nop
	...
    1058:	0000001d 	0x1d
    105c:	0000001f 	0x1f
    1060:	53003f68 	beqzl	t8,10e04 <_init-0x52fef1fc>
    1064:	00000000 	nop
	...
    1078:	0000001d 	0x1d
    107c:	0000001f 	0x1f
    1080:	53003f74 	beqzl	t8,10e54 <_init-0x52fef1ac>
    1084:	00000000 	nop
	...
    1098:	0000001d 	0x1d
    109c:	0000001f 	0x1f
    10a0:	53003f80 	beqzl	t8,10ea4 <_init-0x52fef15c>
    10a4:	00000000 	nop
	...
    10b8:	0000001d 	0x1d
    10bc:	0000001f 	0x1f
    10c0:	53003f8c 	beqzl	t8,10ef4 <_init-0x52fef10c>
    10c4:	00000000 	nop
	...
    10d8:	0000001d 	0x1d
    10dc:	0000001f 	0x1f
    10e0:	53003f98 	beqzl	t8,10f44 <_init-0x52fef0bc>
    10e4:	00000000 	nop
	...
    10f8:	0000001d 	0x1d
    10fc:	0000001f 	0x1f
    1100:	53003fa4 	beqzl	t8,10f94 <_init-0x52fef06c>
    1104:	00000000 	nop
	...
    1118:	0000001d 	0x1d
    111c:	0000001f 	0x1f
    1120:	53003fb0 	beqzl	t8,10fe4 <_init-0x52fef01c>
    1124:	00000000 	nop
	...
    1138:	0000001d 	0x1d
    113c:	0000001f 	0x1f
    1140:	53003fbc 	beqzl	t8,11034 <_init-0x52feefcc>
    1144:	00000000 	nop
	...
    1158:	0000001d 	0x1d
    115c:	0000001f 	0x1f
Disassembly of section .debug_abbrev:

00000000 <.debug_abbrev>:
   0:	10011101 	beq	zero,at,4408 <_init-0x52ffbbf8>
   4:	11011206 	beq	t0,at,4820 <_init-0x52ffb7e0>
   8:	130e2501 	beq	t8,t6,9410 <_init-0x52ff6bf0>
   c:	1b0e030b 	0x1b0e030b
  10:	0200000e 	0x200000e
  14:	0e030024 	jal	80c0090 <_init-0x4af3ff70>
  18:	0b3e0b0b 	j	cf82c2c <_init-0x4607d3d4>
  1c:	0f030000 	jal	c0c0000 <_init-0x46f40000>
  20:	000b0b00 	sll	at,t3,0xc
  24:	000f0400 	sll	zero,t7,0x10
  28:	13490b0b 	beq	k0,t1,2c58 <_init-0x52ffd3a8>
  2c:	04050000 	0x4050000
  30:	0b130101 	j	c4c0404 <_init-0x46b3fbfc>
  34:	3b0b3a0b 	xori	t3,t8,0x3a0b
  38:	0600000b 	bltz	s0,68 <_init-0x52ffff98>
  3c:	0e030028 	jal	80c00a0 <_init-0x4af3ff60>
  40:	00000d1c 	0xd1c
  44:	03001607 	0x3001607
  48:	3b0b3a0e 	xori	t3,t8,0x3a0e
  4c:	0013490b 	0x13490b
  50:	00240800 	0x240800
  54:	0b0b0803 	j	c2c200c <_init-0x46d3dff4>
  58:	00000b3e 	0xb3e
  5c:	49002609 	bc2f	9884 <_init-0x52ff677c>
  60:	0a000013 	j	800004c <_init-0x4affffb4>
  64:	13010101 	beq	t8,at,46c <_init-0x52fffb94>
  68:	00001349 	0x1349
  6c:	4900210b 	bc2f	849c <_init-0x52ff7b64>
  70:	000b2f13 	0xb2f13
  74:	01130c00 	0x1130c00
  78:	0b0b1301 	j	c2c4c04 <_init-0x46d3b3fc>
  7c:	0b3b0b3a 	j	cec2ce8 <_init-0x4613d318>
  80:	0d0d0000 	jal	4340000 <_init-0x4ecc0000>
  84:	3a0e0300 	xori	t6,s0,0x300
  88:	490b3b0b 	bc2tl	$cc2,ecb8 <_init-0x52ff1348>
  8c:	000a3813 	0xa3813
  90:	01130e00 	0x1130e00
  94:	0e031301 	jal	80c4c04 <_init-0x4af3b3fc>
  98:	0b3a0b0b 	j	ce82c2c <_init-0x4617d3d4>
  9c:	00000b3b 	0xb3b
  a0:	03000d0f 	0x3000d0f
  a4:	3b0b3a08 	xori	t3,t8,0x3a08
  a8:	3813490b 	xori	s3,zero,0x490b
  ac:	1000000a 	b	d8 <_init-0x52ffff28>
  b0:	13010113 	beq	t8,at,500 <_init-0x52fffb00>
  b4:	0b3a0b0b 	j	ce82c2c <_init-0x4617d3d4>
  b8:	0000053b 	0x53b
  bc:	03000d11 	0x3000d11
  c0:	3b0b3a0e 	xori	t3,t8,0x3a0e
  c4:	38134905 	xori	s3,zero,0x4905
  c8:	1200000a 	beqz	s0,f4 <_init-0x52ffff0c>
  cc:	0e030016 	jal	80c0058 <_init-0x4af3ffa8>
  d0:	053b0b3a 	0x53b0b3a
  d4:	00001349 	0x1349
  d8:	03001313 	0x3001313
  dc:	000c3c0e 	0xc3c0e
  e0:	01151400 	0x1151400
  e4:	0c271301 	jal	9c4c04 <_init-0x5263b3fc>
  e8:	05150000 	0x5150000
  ec:	00134900 	sll	t1,s3,0x4
  f0:	01151600 	0x1151600
  f4:	0c271301 	jal	9c4c04 <_init-0x5263b3fc>
  f8:	00001349 	0x1349
  fc:	01012e17 	0x1012e17
 100:	030c3f13 	0x30c3f13
 104:	3b0b3a0e 	xori	t3,t8,0x3a0e
 108:	490c270b 	bc2f	$cc3,9d38 <_init-0x52ff62c8>
 10c:	12011113 	beq	s0,at,455c <_init-0x52ffbaa4>
 110:	000a4001 	0xa4001
 114:	00341800 	0x341800
 118:	0b3a0e03 	j	ce8380c <_init-0x4617c7f4>
 11c:	13490b3b 	beq	k0,t1,2e0c <_init-0x52ffd1f4>
 120:	00000a02 	srl	at,zero,0x8
 124:	03003419 	0x3003419
 128:	3b0b3a08 	xori	t3,t8,0x3a08
 12c:	0213490b 	0x213490b
 130:	1a00000a 	blez	s0,15c <_init-0x52fffea4>
 134:	0e030034 	jal	80c00d0 <_init-0x4af3ff30>
 138:	0c341349 	jal	d04d24 <_init-0x522fb2dc>
 13c:	00000a02 	srl	at,zero,0x8
 140:	01012e1b 	0x1012e1b
 144:	3a0e0313 	xori	t6,s0,0x313
 148:	270b3b0b 	addiu	t3,t8,15115
 14c:	1113490c 	beq	t0,s3,12580 <_init-0x52feda80>
 150:	40011201 	0x40011201
 154:	1c00000a 	bgtz	zero,180 <_init-0x52fffe80>
 158:	0e030005 	jal	80c0014 <_init-0x4af3ffec>
 15c:	0b3b0b3a 	j	cec2ce8 <_init-0x4613d318>
 160:	0a021349 	j	8084d24 <_init-0x4af7b2dc>
 164:	341d0000 	li	sp,0x0
 168:	3a0e0300 	xori	t6,s0,0x300
 16c:	490b3b0b 	bc2tl	$cc2,ed9c <_init-0x52ff1264>
 170:	1e000013 	bgtz	s0,1c0 <_init-0x52fffe40>
 174:	1301012e 	beq	t8,at,630 <_init-0x52fff9d0>
 178:	0b3a0e03 	j	ce8380c <_init-0x4617c7f4>
 17c:	0c27053b 	jal	9c14ec <_init-0x5263eb14>
 180:	01120111 	0x1120111
 184:	00000a40 	sll	at,zero,0x9
 188:	0300051f 	0x300051f
 18c:	3b0b3a08 	xori	t3,t8,0x3a08
 190:	02134905 	0x2134905
 194:	2000000a 	addi	zero,zero,10
 198:	0e030005 	jal	80c0014 <_init-0x4af3ffec>
 19c:	053b0b3a 	0x53b0b3a
 1a0:	0a021349 	j	8084d24 <_init-0x4af7b2dc>
 1a4:	34210000 	ori	at,at,0x0
 1a8:	3a0e0300 	xori	t6,s0,0x300
 1ac:	49053b0b 	bc2t	$cc1,eddc <_init-0x52ff1224>
 1b0:	000a0213 	0xa0213
 1b4:	00342200 	0x342200
 1b8:	0b3a0803 	j	ce8200c <_init-0x4617dff4>
 1bc:	1349053b 	beq	k0,t1,16ac <_init-0x52ffe954>
 1c0:	00000a02 	srl	at,zero,0x8
 1c4:	01012e23 	0x1012e23
 1c8:	030c3f13 	0x30c3f13
 1cc:	3b0b3a0e 	xori	t3,t8,0x3a0e
 1d0:	110c2705 	beq	t0,t4,9de8 <_init-0x52ff6218>
 1d4:	40011201 	0x40011201
 1d8:	2400000a 	li	zero,10
 1dc:	08030034 	j	c00d0 <_init-0x52f3ff30>
 1e0:	053b0b3a 	0x53b0b3a
 1e4:	00001349 	0x1349
 1e8:	03003425 	0x3003425
 1ec:	3b0b3a0e 	xori	t3,t8,0x3a0e
 1f0:	3f13490b 	0x3f13490b
 1f4:	000a020c 	syscall	0x2808
 1f8:	00342600 	0x342600
 1fc:	0b3a0e03 	j	ce8380c <_init-0x4617c7f4>
 200:	13490b3b 	beq	k0,t1,2ef0 <_init-0x52ffd110>
 204:	0c3c0c3f 	jal	f030fc <_init-0x520fcf04>
 208:	01000000 	0x1000000
 20c:	06100111 	bltzal	s0,654 <_init-0x52fff9ac>
 210:	01110112 	0x1110112
 214:	0b130e25 	j	c4c3894 <_init-0x46b3c76c>
 218:	0e1b0e03 	jal	86c380c <_init-0x4a93c7f4>
 21c:	24020000 	li	v0,0
 220:	0b0e0300 	j	c380c00 <_init-0x46c7f400>
 224:	000b3e0b 	0xb3e0b
 228:	00240300 	0x240300
 22c:	0b0b0803 	j	c2c200c <_init-0x46d3dff4>
 230:	00000b3e 	0xb3e
 234:	01010404 	0x1010404
 238:	3a0b0b13 	xori	t3,s0,0xb13
 23c:	000b3b0b 	0xb3b0b
 240:	00280500 	0x280500
 244:	0d1c0e03 	jal	470380c <_init-0x4e8fc7f4>
 248:	26060000 	addiu	a2,s0,0
 24c:	00134900 	sll	t1,s3,0x4
 250:	002e0700 	0x2e0700
 254:	0e030c3f 	jal	80c30fc <_init-0x4af3cf04>
 258:	0b3b0b3a 	j	cec2ce8 <_init-0x4613d318>
 25c:	13490c27 	beq	k0,t1,32fc <_init-0x52ffcd04>
 260:	01120111 	0x1120111
 264:	00000a40 	sll	at,zero,0x9
 268:	3f002e08 	0x3f002e08
 26c:	3a0e030c 	xori	t6,s0,0x30c
 270:	270b3b0b 	addiu	t3,t8,15115
 274:	1201110c 	beq	s0,at,46a8 <_init-0x52ffb958>
 278:	000a4001 	0xa4001
 27c:	00340900 	0x340900
 280:	0b3a0e03 	j	ce8380c <_init-0x4617c7f4>
 284:	13490b3b 	beq	k0,t1,2f74 <_init-0x52ffd08c>
 288:	0a020c3f 	j	80830fc <_init-0x4af7cf04>
 28c:	010a0000 	0x10a0000
 290:	49130101 	bc2tl	$cc4,698 <_init-0x52fff968>
 294:	0b000013 	j	c00004c <_init-0x46ffffb4>
 298:	13490021 	beq	k0,t1,320 <_init-0x52fffce0>
 29c:	00000b2f 	0xb2f
 2a0:	0300340c 	syscall	0xc00d0
 2a4:	3b0b3a0e 	xori	t3,t8,0x3a0e
 2a8:	0213490b 	0x213490b
 2ac:	0000000a 	movz	zero,zero,zero
 2b0:	10011101 	beq	zero,at,46b8 <_init-0x52ffb948>
 2b4:	11011206 	beq	t0,at,4ad0 <_init-0x52ffb530>
 2b8:	130e2501 	beq	t8,t6,96c0 <_init-0x52ff6940>
 2bc:	1b0e030b 	0x1b0e030b
 2c0:	0200000e 	0x200000e
 2c4:	0e030024 	jal	80c0090 <_init-0x4af3ff70>
 2c8:	0b3e0b0b 	j	cf82c2c <_init-0x4607d3d4>
 2cc:	0f030000 	jal	c0c0000 <_init-0x46f40000>
 2d0:	000b0b00 	sll	at,t3,0xc
 2d4:	000f0400 	sll	zero,t7,0x10
 2d8:	13490b0b 	beq	k0,t1,2f08 <_init-0x52ffd0f8>
 2dc:	04050000 	0x4050000
 2e0:	0b130101 	j	c4c0404 <_init-0x46b3fbfc>
 2e4:	3b0b3a0b 	xori	t3,t8,0x3a0b
 2e8:	0600000b 	bltz	s0,318 <_init-0x52fffce8>
 2ec:	0e030028 	jal	80c00a0 <_init-0x4af3ff60>
 2f0:	00000d1c 	0xd1c
 2f4:	03001607 	0x3001607
 2f8:	3b0b3a0e 	xori	t3,t8,0x3a0e
 2fc:	0013490b 	0x13490b
 300:	00240800 	0x240800
 304:	0b0b0803 	j	c2c200c <_init-0x46d3dff4>
 308:	00000b3e 	0xb3e
 30c:	01011309 	0x1011309
 310:	3a0b0b13 	xori	t3,s0,0xb13
 314:	00053b0b 	0x53b0b
 318:	000d0a00 	sll	at,t5,0x8
 31c:	0b3a0803 	j	ce8200c <_init-0x4617dff4>
 320:	1349053b 	beq	k0,t1,1810 <_init-0x52ffe7f0>
 324:	00000a38 	0xa38
 328:	0300160b 	0x300160b
 32c:	3b0b3a0e 	xori	t3,t8,0x3a0e
 330:	00134905 	0x134905
 334:	00260c00 	0x260c00
 338:	00001349 	0x1349
 33c:	0101010d 	break	0x101,0x4
 340:	00134913 	0x134913
 344:	00210e00 	0x210e00
 348:	0b2f1349 	j	cbc4d24 <_init-0x4643b2dc>
 34c:	210f0000 	addi	t7,t0,0
 350:	2f134900 	sltiu	s3,t8,18688
 354:	10000005 	b	36c <_init-0x52fffc94>
 358:	13010113 	beq	t8,at,7a8 <_init-0x52fff858>
 35c:	0b3a0b0b 	j	ce82c2c <_init-0x4617d3d4>
 360:	00000b3b 	0xb3b
 364:	03000d11 	0x3000d11
 368:	3b0b3a0e 	xori	t3,t8,0x3a0e
 36c:	3813490b 	xori	s3,zero,0x490b
 370:	1200000a 	beqz	s0,39c <_init-0x52fffc64>
 374:	13010117 	beq	t8,at,7d4 <_init-0x52fff82c>
 378:	0b3a0b0b 	j	ce82c2c <_init-0x4617d3d4>
 37c:	00000b3b 	0xb3b
 380:	03000d13 	0x3000d13
 384:	3b0b3a08 	xori	t3,t8,0x3a08
 388:	0013490b 	0x13490b
 38c:	000d1400 	sll	v0,t5,0x10
 390:	0b3a0e03 	j	ce8380c <_init-0x4617c7f4>
 394:	13490b3b 	beq	k0,t1,3084 <_init-0x52ffcf7c>
 398:	13150000 	beq	t8,s5,39c <_init-0x52fffc64>
 39c:	0b130101 	j	c4c0404 <_init-0x46b3fbfc>
 3a0:	3b0b3a05 	xori	t3,t8,0x3a05
 3a4:	1600000b 	bnez	s0,3d4 <_init-0x52fffc2c>
 3a8:	0803000d 	j	c0034 <_init-0x52f3ffcc>
 3ac:	0b3b0b3a 	j	cec2ce8 <_init-0x4613d318>
 3b0:	0a381349 	j	8e04d24 <_init-0x4a1fb2dc>
 3b4:	13170000 	beq	t8,s7,3b8 <_init-0x52fffc48>
 3b8:	03130101 	0x3130101
 3bc:	3a0b0b0e 	xori	t3,s0,0xb0e
 3c0:	000b3b0b 	0xb3b0b
 3c4:	000d1800 	sll	v1,t5,0x0
 3c8:	0b3a0e03 	j	ce8380c <_init-0x4617c7f4>
 3cc:	1349053b 	beq	k0,t1,18bc <_init-0x52ffe744>
 3d0:	00000a38 	0xa38
 3d4:	03001319 	0x3001319
 3d8:	000c3c0e 	0xc3c0e
 3dc:	01151a00 	0x1151a00
 3e0:	0c271301 	jal	9c4c04 <_init-0x5263b3fc>
 3e4:	051b0000 	0x51b0000
 3e8:	00134900 	sll	t1,s3,0x4
 3ec:	01151c00 	0x1151c00
 3f0:	0c271301 	jal	9c4c04 <_init-0x5263b3fc>
 3f4:	00001349 	0x1349
 3f8:	01012e1d 	0x1012e1d
 3fc:	3a0e0313 	xori	t6,s0,0x313
 400:	270b3b0b 	addiu	t3,t8,15115
 404:	1113490c 	beq	t0,s3,12838 <_init-0x52fed7c8>
 408:	40011201 	0x40011201
 40c:	1e00000a 	bgtz	s0,438 <_init-0x52fffbc8>
 410:	08030034 	j	c00d0 <_init-0x52f3ff30>
 414:	0b3b0b3a 	j	cec2ce8 <_init-0x4613d318>
 418:	0a021349 	j	8084d24 <_init-0x4af7b2dc>
 41c:	341f0000 	li	ra,0x0
 420:	3a0e0300 	xori	t6,s0,0x300
 424:	490b3b0b 	bc2tl	$cc2,f054 <_init-0x52ff0fac>
 428:	000a0213 	0xa0213
 42c:	00342000 	0x342000
 430:	13490e03 	beq	k0,t1,3c40 <_init-0x52ffc3c0>
 434:	0a020c34 	j	80830d0 <_init-0x4af7cf30>
 438:	2e210000 	sltiu	at,s1,0
 43c:	3a0e0300 	xori	t6,s0,0x300
 440:	270b3b0b 	addiu	t3,t8,15115
 444:	1113490c 	beq	t0,s3,12878 <_init-0x52fed788>
 448:	40011201 	0x40011201
 44c:	2200000a 	addi	zero,s0,10
 450:	0e03002e 	jal	80c00b8 <_init-0x4af3ff48>
 454:	053b0b3a 	0x53b0b3a
 458:	01110c27 	0x1110c27
 45c:	0a400112 	j	9000448 <_init-0x49fffbb8>
 460:	2e230000 	sltiu	v1,s1,0
 464:	03130101 	0x3130101
 468:	3b0b3a0e 	xori	t3,t8,0x3a0e
 46c:	110c2705 	beq	t0,t4,a084 <_init-0x52ff5f7c>
 470:	40011201 	0x40011201
 474:	2400000a 	li	zero,10
 478:	0e030005 	jal	80c0014 <_init-0x4af3ffec>
 47c:	053b0b3a 	0x53b0b3a
 480:	0a021349 	j	8084d24 <_init-0x4af7b2dc>
 484:	2e250000 	sltiu	a1,s1,0
 488:	03130101 	0x3130101
 48c:	3b0b3a0e 	xori	t3,t8,0x3a0e
 490:	490c2705 	bc2f	$cc3,a0a8 <_init-0x52ff5f58>
 494:	12011113 	beq	s0,at,48e4 <_init-0x52ffb71c>
 498:	000a4001 	0xa4001
 49c:	00342600 	0x342600
 4a0:	0b3a0e03 	j	ce8380c <_init-0x4617c7f4>
 4a4:	1349053b 	beq	k0,t1,1994 <_init-0x52ffe66c>
 4a8:	00000a02 	srl	at,zero,0x8
 4ac:	31001d27 	andi	zero,t0,0x1d27
 4b0:	12011113 	beq	s0,at,4900 <_init-0x52ffb700>
 4b4:	28000001 	slti	zero,zero,1
 4b8:	0e03002e 	jal	80c00b8 <_init-0x4af3ff48>
 4bc:	053b0b3a 	0x53b0b3a
 4c0:	0b200c27 	j	c80309c <_init-0x467fcf64>
 4c4:	2e290000 	sltiu	t1,s1,0
 4c8:	03130101 	0x3130101
 4cc:	3b0b3a0e 	xori	t3,t8,0x3a0e
 4d0:	110c270b 	beq	t0,t4,a100 <_init-0x52ff5f00>
 4d4:	40011201 	0x40011201
 4d8:	2a00000a 	slti	zero,s0,10
 4dc:	0e030005 	jal	80c0014 <_init-0x4af3ffec>
 4e0:	0b3b0b3a 	j	cec2ce8 <_init-0x4613d318>
 4e4:	0a021349 	j	8084d24 <_init-0x4af7b2dc>
 4e8:	342b0000 	ori	t3,at,0x0
 4ec:	3a080300 	xori	t0,s0,0x300
 4f0:	49053b0b 	bc2t	$cc1,f120 <_init-0x52ff0ee0>
 4f4:	000a0213 	0xa0213
 4f8:	012e2c00 	0x12e2c00
 4fc:	0e031301 	jal	80c4c04 <_init-0x4af3b3fc>
 500:	053b0b3a 	0x53b0b3a
 504:	13490c27 	beq	k0,t1,35a4 <_init-0x52ffca5c>
 508:	00000b20 	0xb20
 50c:	0300342d 	0x300342d
 510:	3413490e 	li	s3,0x490e
 514:	2e00000c 	sltiu	zero,s0,12
 518:	08030005 	j	c0014 <_init-0x52f3ffec>
 51c:	053b0b3a 	0x53b0b3a
 520:	0a021349 	j	8084d24 <_init-0x4af7b2dc>
 524:	1d2f0000 	0x1d2f0000
 528:	11133101 	beq	t0,s3,c930 <_init-0x52ff36d0>
 52c:	00011201 	0x11201
 530:	00343000 	0x343000
 534:	0a021331 	j	8084cc4 <_init-0x4af7b33c>
 538:	0b310000 	j	cc40000 <_init-0x463c0000>
 53c:	00065501 	0x65501
 540:	00343200 	0x343200
 544:	0b3a0e03 	j	ce8380c <_init-0x4617c7f4>
 548:	1349053b 	beq	k0,t1,1a38 <_init-0x52ffe5c8>
 54c:	2e330000 	sltiu	s3,s1,0
 550:	3f130101 	0x3f130101
 554:	3a0e030c 	xori	t6,s0,0x30c
 558:	27053b0b 	addiu	a1,t8,15115
 55c:	1113490c 	beq	t0,s3,12990 <_init-0x52fed670>
 560:	40011201 	0x40011201
 564:	3400000a 	li	zero,0xa
 568:	1301011d 	beq	t8,at,9e0 <_init-0x52fff620>
 56c:	01111331 	tgeu	t0,s1,0x4c
 570:	00000112 	0x112
 574:	31000535 	andi	zero,t0,0x535
 578:	36000013 	ori	zero,s0,0x13
 57c:	13310034 	beq	t9,s1,650 <_init-0x52fff9b0>
 580:	0a370000 	j	8dc0000 <_init-0x4a240000>
 584:	11133100 	beq	t0,s3,c988 <_init-0x52ff3678>
 588:	38000001 	xori	zero,zero,0x1
 58c:	0e030005 	jal	80c0014 <_init-0x4af3ffec>
 590:	053b0b3a 	0x53b0b3a
 594:	00001349 	0x1349
 598:	03000a39 	0x3000a39
 59c:	3b0b3a0e 	xori	t3,t8,0x3a0e
 5a0:	3a000005 	xori	zero,s0,0x5
 5a4:	1301012e 	beq	t8,at,a60 <_init-0x52fff5a0>
 5a8:	0b3a0e03 	j	ce8380c <_init-0x4617c7f4>
 5ac:	0c270b3b 	jal	9c2cec <_init-0x5263d314>
 5b0:	0b201349 	j	c804d24 <_init-0x467fb2dc>
 5b4:	343b0000 	ori	k1,at,0x0
 5b8:	3a080300 	xori	t0,s0,0x300
 5bc:	49053b0b 	bc2t	$cc1,f1ec <_init-0x52ff0e14>
 5c0:	3c000013 	lui	zero,0x13
 5c4:	0e03002e 	jal	80c00b8 <_init-0x4af3ff48>
 5c8:	053b0b3a 	0x53b0b3a
 5cc:	13490c27 	beq	k0,t1,366c <_init-0x52ffc994>
 5d0:	00000b20 	0xb20
 5d4:	0300343d 	0x300343d
 5d8:	3b0b3a0e 	xori	t3,t8,0x3a0e
 5dc:	3f13490b 	0x3f13490b
 5e0:	000a020c 	syscall	0x2808
	...
Disassembly of section .debug_info:

00000000 <.debug_info>:
       0:	0000123e 	0x123e
       4:	00000002 	srl	zero,zero,0x0
       8:	01040000 	0x1040000
       c:	00000000 	nop
      10:	5300158c 	beqzl	t8,5644 <_init-0x52ffa9bc>
      14:	53000020 	beqzl	t8,98 <_init-0x52ffff68>
      18:	00000510 	0x510
      1c:	0006bf01 	0x6bf01
      20:	00043100 	sll	a2,a0,0x4
      24:	00220200 	0x220200
      28:	08010000 	j	40000 <_init-0x52fc0000>
      2c:	04020403 	bltzl	zero,103c <_init-0x52ffefc4>
      30:	02000006 	srlv	zero,zero,s0
      34:	0bcb0207 	j	f2c081c <_init-0x43d3f7e4>
      38:	07040000 	0x7040000
      3c:	000bd002 	srl	k0,t3,0x0
      40:	04070400 	0x4070400
      44:	00003c04 	0x3c04
      48:	005e0500 	0x5e0500
      4c:	02040000 	0x2040000
      50:	01670626 	0x1670626
      54:	06000000 	bltz	s0,58 <_init-0x52ffffa8>
      58:	000009b9 	0x9b9
      5c:	ff070001 	sdc3	$7,1(t8)
      60:	02000001 	movf	zero,s0,$fcc0
      64:	00004929 	0x4929
      68:	6e690800 	0x6e690800
      6c:	05040074 	0x5040074
      70:	000ce402 	srl	gp,t4,0x10
      74:	02050800 	0x2050800
      78:	00000bcb 	0xbcb
      7c:	e9020704 	swc2	$2,1796(t0)
      80:	0400000c 	bltz	zero,b4 <_init-0x52ffff4c>
      84:	002b0205 	0x2b0205
      88:	06010000 	bgez	s0,8c <_init-0x52ffff74>
      8c:	00089d02 	srl	s3,t0,0x14
      90:	02050200 	0x2050200
      94:	00000bc6 	0xbc6
      98:	85090708 	lh	t1,1800(t0)
      9c:	04000000 	bltz	zero,a0 <_init-0x52ffff60>
      a0:	00008504 	0x8504
      a4:	00b50a00 	0xb50a00
      a8:	00250000 	0x250000
      ac:	350b0000 	ori	t3,t0,0x0
      b0:	0f000000 	jal	c000000 <_init-0x47000000>
      b4:	00dc0500 	0xdc0500
      b8:	0e040000 	jal	8100000 <_init-0x4af00000>
      bc:	093e06a3 	j	4f81a8c <_init-0x4e07e574>
      c0:	06000000 	bltz	s0,c4 <_init-0x52ffff3c>
      c4:	0000087a 	0x87a
      c8:	03560601 	0x3560601
      cc:	06020000 	bltzl	s0,d0 <_init-0x52ffff30>
      d0:	00000204 	0x204
      d4:	03260603 	0x3260603
      d8:	00000000 	nop
      dc:	0000f105 	0xf105
      e0:	b00e0400 	0xb00e0400
      e4:	000d3b06 	0xd3b06
      e8:	2a060000 	slti	a2,s0,0
      ec:	0100000c 	syscall	0x40000
      f0:	69040400 	0x69040400
      f4:	0c000000 	jal	0 <_init-0x53000000>
      f8:	00000138 	0x138
      fc:	0d79060c 	jal	5e41830 <_init-0x4d1be7d0>
     100:	000000b8 	0xb8
     104:	002e7206 	0x2e7206
     108:	23020000 	addi	v0,t8,0
     10c:	04c00d00 	bltz	a2,3510 <_init-0x52ffcaf0>
     110:	74060000 	jalx	180000 <_init-0x52e80000>
     114:	0000002e 	0x2e
     118:	0d022302 	jal	4088c08 <_init-0x4ef773f8>
     11c:	000000aa 	0xaa
     120:	002e7606 	0x2e7606
     124:	23020000 	addi	v0,t8,0
     128:	0a310d04 	j	8c43410 <_init-0x4a3bcbf0>
     12c:	78060000 	0x78060000
     130:	00000138 	0x138
     134:	00082302 	srl	a0,t0,0xc
     138:	013e0404 	0x13e0404
     13c:	25090000 	addiu	t1,t0,0
     140:	07000000 	bltz	t8,144 <_init-0x52fffebc>
     144:	00000653 	0x653
     148:	00f77906 	0xf77906
     14c:	850e0000 	lh	t6,0(t0)
     150:	f7000001 	sdc1	$f0,1(t8)
     154:	0c000008 	jal	20 <_init-0x52ffffe0>
     158:	410d3f03 	0x410d3f03
     15c:	03000019 	multu	t8,zero
     160:	00006940 	sll	t5,zero,0x5
     164:	00230200 	0x230200
     168:	6d75730f 	0x6d75730f
     16c:	3c420300 	0x3c420300
     170:	02000000 	0x2000000
     174:	850d0423 	lh	t5,1059(t0)
     178:	03000001 	movf	zero,t8,$fcc0
     17c:	0000f144 	0xf144
     180:	08230200 	j	8c0800 <_init-0x5273f800>
     184:	08ff0700 	j	3fc1c00 <_init-0x4f03e400>
     188:	46030000 	add.s	$f0,$f0,$f3
     18c:	0000014e 	0x14e
     190:	0001c60e 	0x1c60e
     194:	0009c600 	sll	t8,t1,0x18
     198:	53030900 	beql	t8,v1,259c <_init-0x52ffda64>
     19c:	0001a50d 	break	0x1,0x294
     1a0:	25550300 	addiu	s5,t2,768
     1a4:	02000000 	0x2000000
     1a8:	690f0023 	0x690f0023
     1ac:	57030064 	bnel	t8,v1,340 <_init-0x52fffcc0>
     1b0:	0000003c 	0x3c
     1b4:	0d012302 	jal	4048c08 <_init-0x4efb73f8>
     1b8:	00000082 	srl	zero,zero,0x2
     1bc:	00435903 	0x435903
     1c0:	23020000 	addi	v0,t8,0
     1c4:	29070005 	slti	a3,t0,5
     1c8:	03000001 	movf	zero,t8,$fcc0
     1cc:	0001905b 	0x1905b
     1d0:	028c0c00 	0x28c0c00
     1d4:	03250000 	0x3250000
     1d8:	02dc0d81 	0x2dc0d81
     1dc:	64030000 	0x64030000
     1e0:	000001c6 	0x1c6
     1e4:	0d002302 	jal	4008c08 <_init-0x4eff73f8>
     1e8:	00000641 	0x641
     1ec:	008c6703 	0x8c6703
     1f0:	23020000 	addi	v0,t8,0
     1f4:	06790d09 	0x6790d09
     1f8:	69030000 	0x69030000
     1fc:	0000008c 	syscall	0x2
     200:	0f0b2302 	jal	c2c8c08 <_init-0x46d373f8>
     204:	6b030078 	0x6b030078
     208:	0000008c 	syscall	0x2
     20c:	0f0d2302 	jal	c348c08 <_init-0x46cb73f8>
     210:	6d030079 	0x6d030079
     214:	0000008c 	syscall	0x2
     218:	0d0f2302 	jal	43c8c08 <_init-0x4ec373f8>
     21c:	00000c52 	0xc52
     220:	008c7003 	0x8c7003
     224:	23020000 	addi	v0,t8,0
     228:	07f10d11 	bgezal	ra,3670 <_init-0x52ffc990>
     22c:	72030000 	madd	s0,v1
     230:	0000008c 	syscall	0x2
     234:	0d132302 	jal	44c8c08 <_init-0x4eb373f8>
     238:	00000790 	0x790
     23c:	003c7403 	0x3c7403
     240:	23020000 	addi	v0,t8,0
     244:	05520d15 	bltzall	t2,369c <_init-0x52ffc964>
     248:	76030000 	jalx	80c0000 <_init-0x4af40000>
     24c:	00000025 	move	zero,zero
     250:	0d192302 	jal	4648c08 <_init-0x4e9b73f8>
     254:	000003e5 	0x3e5
     258:	00257803 	0x257803
     25c:	23020000 	addi	v0,t8,0
     260:	0ad30d1a 	j	b4c3468 <_init-0x47b3cb98>
     264:	7a030000 	0x7a030000
     268:	0000002e 	0x2e
     26c:	0d1b2302 	jal	46c8c08 <_init-0x4e9373f8>
     270:	000008cc 	syscall	0x23
     274:	003c7d03 	0x3c7d03
     278:	23020000 	addi	v0,t8,0
     27c:	007c0d1d 	0x7c0d1d
     280:	7f030000 	ext	v1,t8,0x0,0x1
     284:	0000003c 	0x3c
     288:	00212302 	ror	a0,at,0xc
     28c:	00091607 	0x91607
     290:	d1810300 	0xd1810300
     294:	0c000001 	jal	4 <_init-0x52fffffc>
     298:	0000037c 	0x37c
     29c:	0ddf0325 	jal	77c0c94 <_init-0x4b83f36c>
     2a0:	000002dc 	0x2dc
     2a4:	01c6bd03 	0x1c6bd03
     2a8:	23020000 	addi	v0,t8,0
     2ac:	00780f00 	0x780f00
     2b0:	008cbf03 	0x8cbf03
     2b4:	23020000 	addi	v0,t8,0
     2b8:	00790f09 	0x790f09
     2bc:	008cc103 	0x8cc103
     2c0:	23020000 	addi	v0,t8,0
     2c4:	0c520d0b 	jal	148342c <_init-0x51b7cbd4>
     2c8:	c3030000 	ll	v1,0(t8)
     2cc:	0000008c 	syscall	0x2
     2d0:	0d0d2302 	jal	4348c08 <_init-0x4ecb73f8>
     2d4:	000007f1 	tgeu	zero,zero,0x1f
     2d8:	008cc503 	0x8cc503
     2dc:	23020000 	addi	v0,t8,0
     2e0:	01160d0f 	0x1160d0f
     2e4:	c7030000 	lwc1	$f3,0(t8)
     2e8:	0000003c 	0x3c
     2ec:	0d112302 	jal	4448c08 <_init-0x4ebb73f8>
     2f0:	00000790 	0x790
     2f4:	003cc903 	0x3cc903
     2f8:	23020000 	addi	v0,t8,0
     2fc:	05520d15 	bltzall	t2,3754 <_init-0x52ffc8ac>
     300:	cb030000 	lwc2	$3,0(t8)
     304:	00000025 	move	zero,zero
     308:	0d192302 	jal	4648c08 <_init-0x4e9b73f8>
     30c:	00000692 	0x692
     310:	0025cd03 	0x25cd03
     314:	23020000 	addi	v0,t8,0
     318:	053d0d1a 	0x53d0d1a
     31c:	cf030000 	pref	0x3,0(t8)
     320:	00000025 	move	zero,zero
     324:	0d1b2302 	jal	46c8c08 <_init-0x4e9373f8>
     328:	000007ec 	0x7ec
     32c:	0025d103 	0x25d103
     330:	23020000 	addi	v0,t8,0
     334:	0c230d1c 	jal	8c3470 <_init-0x5273cb90>
     338:	d5030000 	ldc1	$f3,0(t0)
     33c:	0000002e 	0x2e
     340:	0d1d2302 	jal	4748c08 <_init-0x4e8b73f8>
     344:	000000be 	0xbe
     348:	0025d703 	0x25d703
     34c:	23020000 	addi	v0,t8,0
     350:	033c0d1f 	0x33c0d1f
     354:	d9030000 	ldc2	$3,0(t0)
     358:	00000085 	0x85
     35c:	0d202302 	jal	4808c08 <_init-0x4e7f73f8>
     360:	00000953 	0x953
     364:	002edb03 	0x2edb03
     368:	23020000 	addi	v0,t8,0
     36c:	00b20d21 	0xb20d21
     370:	dd030000 	ldc3	$3,0(t0)
     374:	0000002e 	0x2e
     378:	00232302 	ror	a0,v1,0xc
     37c:	0005f207 	0x5f207
     380:	97df0300 	lhu	ra,768(s8)
     384:	0c000002 	jal	8 <_init-0x52fffff8>
     388:	000003ee 	0x3ee
     38c:	0df10314 	jal	7c40c50 <_init-0x4b3bf3b0>
     390:	000002dc 	0x2dc
     394:	01c6e903 	0x1c6e903
     398:	23020000 	addi	v0,t8,0
     39c:	00780f00 	0x780f00
     3a0:	008cea03 	0x8cea03
     3a4:	23020000 	addi	v0,t8,0
     3a8:	00790f09 	0x790f09
     3ac:	008ceb03 	0x8ceb03
     3b0:	23020000 	addi	v0,t8,0
     3b4:	0c520d0b 	jal	148342c <_init-0x51b7cbd4>
     3b8:	ec030000 	swc3	$3,0(zero)
     3bc:	0000008c 	syscall	0x2
     3c0:	0d0d2302 	jal	4348c08 <_init-0x4ecb73f8>
     3c4:	000007f1 	tgeu	zero,zero,0x1f
     3c8:	008ced03 	0x8ced03
     3cc:	23020000 	addi	v0,t8,0
     3d0:	05520d0f 	bltzall	t2,3810 <_init-0x52ffc7f0>
     3d4:	ee030000 	swc3	$3,0(s0)
     3d8:	00000025 	move	zero,zero
     3dc:	0d112302 	jal	4448c08 <_init-0x4ebb73f8>
     3e0:	0000064c 	syscall	0x19
     3e4:	002eef03 	0x2eef03
     3e8:	23020000 	addi	v0,t8,0
     3ec:	21070012 	addi	a3,t0,18
     3f0:	03000001 	movf	zero,t8,$fcc0
     3f4:	000387f1 	tgeu	zero,v1,0x21f
     3f8:	04b01000 	bltzal	a1,43fc <_init-0x52ffbc04>
     3fc:	03290000 	0x3290000
     400:	780f0113 	0x780f0113
     404:	8cfa0300 	lw	k0,768(a3)
     408:	02000000 	0x2000000
     40c:	790f0023 	0x790f0023
     410:	8cfc0300 	lw	gp,768(a3)
     414:	02000000 	0x2000000
     418:	520d0223 	beql	s0,t5,ca8 <_init-0x52fff358>
     41c:	0300000c 	syscall	0xc0000
     420:	00008cfe 	0x8cfe
     424:	04230200 	bgezl	at,c28 <_init-0x52fff3d8>
     428:	0007f111 	0x7f111
     42c:	01000300 	0x1000300
     430:	0000008c 	syscall	0x2
     434:	11062302 	beq	t0,a2,9040 <_init-0x52ff6fc0>
     438:	00000790 	0x790
     43c:	3c010203 	lui	at,0x203
     440:	02000000 	0x2000000
     444:	52110823 	beql	s0,s1,24d4 <_init-0x52ffdb2c>
     448:	03000005 	0x3000005
     44c:	00250104 	0x250104
     450:	23020000 	addi	v0,t8,0
     454:	03e5110c 	syscall	0xf9444
     458:	06030000 	bgezl	s0,45c <_init-0x52fffba4>
     45c:	00002501 	0x2501
     460:	0d230200 	jal	48c0800 <_init-0x4e73f800>
     464:	000ad311 	0xad311
     468:	01080300 	0x1080300
     46c:	0000002e 	0x2e
     470:	110e2302 	beq	t0,t6,907c <_init-0x52ff6f84>
     474:	000008cc 	syscall	0x23
     478:	3c010b03 	lui	at,0xb03
     47c:	02000000 	0x2000000
     480:	7c111023 	0x7c111023
     484:	03000000 	0x3000000
     488:	003c010d 	break	0x3c,0x4
     48c:	23020000 	addi	v0,t8,0
     490:	033c1114 	0x33c1114
     494:	0f030000 	jal	c0c0000 <_init-0x46f40000>
     498:	00002501 	0x2501
     49c:	18230200 	0x18230200
     4a0:	00054d11 	0x54d11
     4a4:	01110300 	0x1110300
     4a8:	000000a5 	0xa5
     4ac:	00192302 	srl	a0,t9,0xc
     4b0:	0009be12 	0x9be12
     4b4:	01130300 	0x1130300
     4b8:	000003f9 	0x3f9
     4bc:	01850404 	0x1850404
     4c0:	04040000 	0x4040000
     4c4:	000004b0 	tge	zero,zero,0x12
     4c8:	0004e905 	0x4e905
     4cc:	21080400 	addi	t0,t0,1024
     4d0:	000abf06 	0xabf06
     4d4:	5e060000 	0x5e060000
     4d8:	01000007 	srav	zero,zero,t0
     4dc:	0003c006 	srlv	t8,v1,zero
     4e0:	41060200 	0x41060200
     4e4:	0300000c 	syscall	0xc0000
     4e8:	0c7c0700 	jal	1f01c00 <_init-0x510fe400>
     4ec:	26080000 	addiu	t0,s0,0
     4f0:	000004c8 	0x4c8
     4f4:	00050305 	0x50305
     4f8:	2e080400 	sltiu	t0,s0,1024
     4fc:	000a5506 	0xa5506
     500:	07000000 	bltz	t8,504 <_init-0x52fffafc>
     504:	000004a4 	0x4a4
     508:	04f43008 	0x4f43008
     50c:	830e0000 	lb	t6,0(t8)
     510:	fc000005 	sdc3	$0,5(zero)
     514:	1800000c 	blez	zero,548 <_init-0x52fffab8>
     518:	a50d5c08 	sh	t5,23560(t0)
     51c:	08000001 	j	4 <_init-0x52fffffc>
     520:	0004e95e 	0x4e95e
     524:	00230200 	0x230200
     528:	00056e0d 	break	0x5,0x1b8
     52c:	2e600800 	sltiu	zero,s3,2048
     530:	02000000 	0x2000000
     534:	650d0423 	0x650d0423
     538:	08000009 	j	24 <_init-0x52ffffdc>
     53c:	00002e62 	0x2e62
     540:	06230200 	bgezl	s1,d44 <_init-0x52fff2bc>
     544:	0000de0d 	break	0x0,0x378
     548:	9f640800 	0x9f640800
     54c:	02000000 	0x2000000
     550:	240d0823 	li	t5,2083
     554:	0800000f 	j	3c <_init-0x52ffffc4>
     558:	00059a67 	0x59a67
     55c:	0c230200 	jal	8c0800 <_init-0x5273f800>
     560:	000a370d 	break	0xa,0xdc
     564:	696a0800 	0x696a0800
     568:	02000000 	0x2000000
     56c:	4e131023 	c3	0x131023
     570:	01000008 	jr	t0
     574:	0000640d 	break	0x0,0x190
     578:	a06d0800 	sb	t5,2048(v1)
     57c:	02000005 	0x2000005
     580:	14001423 	bnez	zero,5610 <_init-0x52ffa9f0>
     584:	00000594 	0x594
     588:	05941501 	0x5941501
     58c:	03150000 	0x3150000
     590:	00000005 	0x5
     594:	050e0404 	tnei	t0,1028
     598:	04040000 	0x4040000
     59c:	00000583 	sra	zero,zero,0x16
     5a0:	056e0404 	tnei	t3,1028
     5a4:	06070000 	0x6070000
     5a8:	0800000d 	j	34 <_init-0x52ffffcc>
     5ac:	00050e6e 	0x50e6e
     5b0:	a6040400 	sh	a0,1024(s0)
     5b4:	04000005 	bltz	zero,5cc <_init-0x52fffa34>
     5b8:	0005bd04 	0x5bd04
     5bc:	05d21600 	bltzall	t6,5dc0 <_init-0x52ffa240>
     5c0:	69010000 	0x69010000
     5c4:	15000000 	bnez	t0,5c8 <_init-0x52fffa38>
     5c8:	0000002c 	0x2c
     5cc:	00006915 	0x6915
     5d0:	04040000 	0x4040000
     5d4:	00000143 	sra	zero,zero,0x5
     5d8:	00056407 	0x56407
     5dc:	b74a0900 	0xb74a0900
     5e0:	0e000005 	jal	8000014 <_init-0x4affffec>
     5e4:	00000658 	0x658
     5e8:	00000aff 	0xaff
     5ec:	0d51091c 	jal	5442470 <_init-0x4dbbdb90>
     5f0:	00000082 	srl	zero,zero,0x2
     5f4:	00695309 	0x695309
     5f8:	23020000 	addi	v0,t8,0
     5fc:	0bdd0d00 	j	f743400 <_init-0x438bcc00>
     600:	56090000 	bnel	s0,t1,604 <_init-0x52fff9fc>
     604:	00000069 	0x69
     608:	0d042302 	jal	4108c08 <_init-0x4eef73f8>
     60c:	00000c0b 	0xc0b
     610:	00695909 	0x695909
     614:	23020000 	addi	v0,t8,0
     618:	0b5f0d08 	j	d7c3420 <_init-0x4583cbe0>
     61c:	5c090000 	0x5c090000
     620:	00000069 	0x69
     624:	0d0c2302 	jal	4308c08 <_init-0x4ecf73f8>
     628:	00000959 	0x959
     62c:	00695f09 	0x695f09
     630:	23020000 	addi	v0,t8,0
     634:	0f240d10 	jal	c903440 <_init-0x466fcbc0>
     638:	62090000 	0x62090000
     63c:	000005d8 	0x5d8
     640:	13142302 	beq	t8,s4,924c <_init-0x52ff6db4>
     644:	000002f9 	0x2f9
     648:	05750d01 	0x5750d01
     64c:	65090000 	0x65090000
     650:	00000658 	0x658
     654:	00182302 	srl	a0,t8,0xc
     658:	06430404 	bgezl	s2,166c <_init-0x52ffe994>
     65c:	06070000 	0x6070000
     660:	0900000b 	j	400002c <_init-0x4effffd4>
     664:	0005e367 	0x5e367
     668:	06ba0500 	0x6ba0500
     66c:	0a040000 	j	8100000 <_init-0x4af00000>
     670:	00300630 	tge	at,s0,0x18
     674:	06000000 	bltz	s0,678 <_init-0x52fff988>
     678:	00000d53 	0xd53
     67c:	0bf40601 	j	fd01804 <_init-0x432fe7fc>
     680:	06020000 	bltzl	s0,684 <_init-0x52fff97c>
     684:	00000aa0 	0xaa0
     688:	01b00603 	0x1b00603
     68c:	06040000 	0x6040000
     690:	000004f9 	0x4f9
     694:	06a80605 	tgei	s5,1541
     698:	06060000 	0x6060000
     69c:	000007f8 	0x7f8
     6a0:	07bb0607 	0x7bb0607
     6a4:	06080000 	tgei	s0,0
     6a8:	00000134 	teq	zero,zero,0x4
     6ac:	09720609 	j	5c81824 <_init-0x4d37e7dc>
     6b0:	060a0000 	tlti	s0,0
     6b4:	000007df 	0x7df
     6b8:	4607000b 	c1	0x7000b
     6bc:	0a000003 	j	800000c <_init-0x4afffff4>
     6c0:	0006693e 	0x6693e
     6c4:	070a0500 	tlti	t8,1280
     6c8:	0a040000 	j	8100000 <_init-0x4af00000>
     6cc:	062a064e 	tlti	s1,1614
     6d0:	06000000 	bltz	s0,6d4 <_init-0x52fff92c>
     6d4:	00000040 	ssnop
     6d8:	05b80601 	0x5b80601
     6dc:	06020000 	bltzl	s0,6e0 <_init-0x52fff920>
     6e0:	000006fb 	0x6fb
     6e4:	080f0603 	j	3c180c <_init-0x52c3e7f4>
     6e8:	06040000 	0x6040000
     6ec:	0000098f 	0x98f
     6f0:	0ae00605 	j	b801814 <_init-0x477fe7ec>
     6f4:	06060000 	0x6060000
     6f8:	00000b18 	0xb18
     6fc:	0b410607 	j	d04181c <_init-0x45fbe7e4>
     700:	06080000 	tgei	s0,0
     704:	00000ca7 	0xca7
     708:	81070009 	lb	a3,9(t0)
     70c:	0a00000d 	j	8000034 <_init-0x4affffcc>
     710:	0006c55a 	0x6c55a
     714:	076e0e00 	tnei	k1,3584
     718:	08c10000 	j	3040000 <_init-0x4ffc0000>
     71c:	0a140000 	j	8500000 <_init-0x4ab00000>
     720:	01a50d61 	0x1a50d61
     724:	630a0000 	0x630a0000
     728:	000006ba 	0x6ba
     72c:	0d002302 	jal	4008c08 <_init-0x4eff73f8>
     730:	00000a37 	0xa37
     734:	0069660a 	0x69660a
     738:	23020000 	addi	v0,t8,0
     73c:	0f240d04 	jal	c903410 <_init-0x466fcbf0>
     740:	690a0000 	0x690a0000
     744:	00000785 	0x785
     748:	0d082302 	jal	4208c08 <_init-0x4edf73f8>
     74c:	00000714 	0x714
     750:	078b6c0a 	tltiu	gp,27658
     754:	23020000 	addi	v0,t8,0
     758:	01cf130c 	syscall	0x73c4c
     75c:	0d010000 	jal	4040000 <_init-0x4efc0000>
     760:	00000064 	0x64
     764:	07916f0a 	bgezal	gp,1c390 <_init-0x52fe3c70>
     768:	23020000 	addi	v0,t8,0
     76c:	7f140010 	addu.qb	zero,t8,s4
     770:	01000007 	srav	zero,zero,t0
     774:	00077f15 	0x77f15
     778:	070a1500 	tlti	t8,5376
     77c:	04000000 	bltz	zero,780 <_init-0x52fff880>
     780:	00071504 	0x71504
     784:	6e040400 	0x6e040400
     788:	04000007 	bltz	zero,7a8 <_init-0x52fff858>
     78c:	00065e04 	0x65e04
     790:	59040400 	0x59040400
     794:	07000007 	bltz	t8,7b4 <_init-0x52fff84c>
     798:	0000086f 	0x86f
     79c:	0715710a 	0x715710a
     7a0:	04040000 	0x4040000
     7a4:	00000797 	0x797
     7a8:	0008390e 	0x8390e
     7ac:	00028c00 	sll	s1,v0,0x10
     7b0:	210b2400 	addi	t3,t0,9216
     7b4:	00030a0d 	break	0x3,0x28
     7b8:	69220b00 	0x69220b00
     7bc:	02000000 	0x2000000
     7c0:	e20d0023 	sc	t5,35(s0)
     7c4:	0b000001 	j	c000004 <_init-0x46fffffc>
     7c8:	00006923 	0x6923
     7cc:	04230200 	bgezl	at,fd0 <_init-0x52fff030>
     7d0:	0003f90d 	break	0x3,0x3e4
     7d4:	69240b00 	0x69240b00
     7d8:	02000000 	0x2000000
     7dc:	240d0823 	li	t5,2083
     7e0:	0b00000f 	j	c00003c <_init-0x46ffffc4>
     7e4:	00085026 	xor	t2,zero,t0
     7e8:	0c230200 	jal	8c0800 <_init-0x5273f800>
     7ec:	000a370d 	break	0xa,0xdc
     7f0:	69290b00 	0x69290b00
     7f4:	02000000 	0x2000000
     7f8:	b00d1023 	0xb00d1023
     7fc:	0b000002 	j	c000008 <_init-0x46fffff8>
     800:	0000692a 	0x692a
     804:	14230200 	bne	at,v1,1008 <_init-0x52ffeff8>
     808:	0001a50d 	break	0x1,0x294
     80c:	692b0b00 	0x692b0b00
     810:	02000000 	0x2000000
     814:	830d1823 	lb	t5,6179(t8)
     818:	0b000002 	j	c000008 <_init-0x46fffff8>
     81c:	0000692c 	0x692c
     820:	1c230200 	0x1c230200
     824:	0004c613 	0x4c613
     828:	b40d0100 	0xb40d0100
     82c:	0b000008 	j	c000020 <_init-0x46ffffe0>
     830:	0008562e 	0x8562e
     834:	20230200 	addi	v1,at,512
     838:	084a1400 	j	1285000 <_init-0x51d7b000>
     83c:	15010000 	bne	t0,at,840 <_init-0x52fff7c0>
     840:	0000084a 	0x84a
     844:	00006915 	0x6915
     848:	04040000 	0x4040000
     84c:	000007a8 	0x7a8
     850:	08390404 	j	e41010 <_init-0x521beff0>
     854:	04040000 	0x4040000
     858:	00000824 	and	at,zero,zero
     85c:	00036f07 	0x36f07
     860:	a82f0b00 	swl	t7,2816(at)
     864:	04000007 	bltz	zero,884 <_init-0x52fff77c>
     868:	00085c04 	0x85c04
     86c:	8c040400 	lw	a0,1024(zero)
     870:	05000002 	bltz	t0,87c <_init-0x52fff784>
     874:	000008be 	0x8be
     878:	062f0c04 	0x62f0c04
     87c:	0000022b 	0x22b
     880:	0a6d0600 	j	9b41800 <_init-0x494be800>
     884:	06010000 	bgez	s0,888 <_init-0x52fff778>
     888:	0000024e 	0x24e
     88c:	079b0602 	0x79b0602
     890:	06030000 	bgezl	s0,894 <_init-0x52fff76c>
     894:	00000000 	nop
     898:	00890604 	0x890604
     89c:	06050000 	0x6050000
     8a0:	00000cc2 	srl	at,zero,0x13
     8a4:	058e0606 	tnei	t4,1542
     8a8:	06070000 	0x6070000
     8ac:	00000403 	sra	zero,zero,0x10
     8b0:	0b900608 	j	e401820 <_init-0x44bfe7e0>
     8b4:	06090000 	tgeiu	s0,0
     8b8:	0000071e 	0x71e
     8bc:	2407000a 	li	a3,10
     8c0:	0c000004 	jal	10 <_init-0x52fffff0>
     8c4:	0008733b 	0x8733b
     8c8:	09060e00 	j	4183800 <_init-0x4ee7c800>
     8cc:	07450000 	0x7450000
     8d0:	0c0c0000 	jal	300000 <_init-0x52d00000>
     8d4:	0a370d42 	j	8dc3508 <_init-0x4a23caf8>
     8d8:	440c0000 	mfc1	t4,$f0
     8dc:	00000069 	0x69
     8e0:	0d002302 	jal	4008c08 <_init-0x4eff73f8>
     8e4:	00000f24 	0xf24
     8e8:	091d470c 	j	4751c30 <_init-0x4e8ae3d0>
     8ec:	23020000 	addi	v0,t8,0
     8f0:	06e51304 	0x6e51304
     8f4:	0d010000 	jal	4040000 <_init-0x4efc0000>
     8f8:	000009e8 	0x9e8
     8fc:	09234a0c 	j	48d2830 <_init-0x4e72d7d0>
     900:	23020000 	addi	v0,t8,0
     904:	17140008 	bne	t8,s4,928 <_init-0x52fff6d8>
     908:	01000009 	jalr	zero,t0
     90c:	00091715 	0x91715
     910:	08be1500 	j	2f85400 <_init-0x5007ac00>
     914:	04000000 	bltz	zero,918 <_init-0x52fff6e8>
     918:	0008c904 	0x8c904
     91c:	06040400 	0x6040400
     920:	04000009 	bltz	zero,948 <_init-0x52fff6b8>
     924:	0008f104 	0x8f104
     928:	074e0700 	tnei	k0,1792
     92c:	4c0c0000 	lwxc1	$f0,t4(zero)
     930:	000008c9 	0x8c9
     934:	09290404 	j	4a41010 <_init-0x4e5beff0>
     938:	5b050000 	0x5b050000
     93c:	04000009 	bltz	zero,964 <_init-0x52fff69c>
     940:	df06110d 	ldc3	$6,4365(t8)
     944:	00000004 	sllv	zero,zero,zero
     948:	00027506 	0x27506
     94c:	6b060100 	0x6b060100
     950:	0200000c 	syscall	0x80000
     954:	0003ec06 	0x3ec06
     958:	07000300 	bltz	t8,155c <_init-0x52ffeaa4>
     95c:	00000bb7 	0xbb7
     960:	093a160d 	j	4e85834 <_init-0x4e17a7cc>
     964:	d50e0000 	ldc1	$f14,0(t0)
     968:	4b000009 	c2	0x1000009
     96c:	3c000001 	lui	zero,0x1
     970:	ab0d3805 	swl	t5,14341(t8)
     974:	05000003 	bltz	t0,984 <_init-0x52fff67c>
     978:	00009f39 	0x9f39
     97c:	00230200 	0x230200
     980:	0000d40d 	break	0x0,0x350
     984:	693a0500 	0x693a0500
     988:	02000000 	0x2000000
     98c:	e60d0423 	swc1	$f13,1059(s0)
     990:	05000001 	bltz	t0,998 <_init-0x52fff668>
     994:	0009d53b 	0x9d53b
     998:	08230200 	j	8c0800 <_init-0x5273f800>
     99c:	0007190d 	break	0x7,0x64
     9a0:	e53d0500 	swc1	$f29,1280(t1)
     9a4:	02000009 	jalr	zero,s0
     9a8:	2a0d2c23 	slti	t5,s0,11299
     9ac:	05000009 	bltz	t0,9d4 <_init-0x52fff62c>
     9b0:	0009e53e 	0x9e53e
     9b4:	30230200 	andi	v1,at,0x200
     9b8:	0004b90d 	break	0x4,0x2e4
     9bc:	e53f0500 	swc1	$f31,1280(t1)
     9c0:	02000009 	jalr	zero,s0
     9c4:	060d3423 	0x60d3423
     9c8:	05000012 	bltz	t0,a14 <_init-0x52fff5ec>
     9cc:	0009e540 	sll	gp,t1,0x15
     9d0:	38230200 	xori	v1,at,0x200
     9d4:	09e50a00 	j	7942800 <_init-0x4b6bd800>
     9d8:	009f0000 	0x9f0000
     9dc:	350b0000 	ori	t3,t0,0x0
     9e0:	08000000 	j	0 <_init-0x53000000>
     9e4:	66040400 	0x66040400
     9e8:	07000009 	bltz	t8,a10 <_init-0x52fff5f0>
     9ec:	00000a0a 	0xa0a
     9f0:	09664105 	j	5990414 <_init-0x4d66fbec>
     9f4:	17050000 	bne	t8,a1,9f8 <_init-0x52fff608>
     9f8:	0400000a 	bltz	zero,a24 <_init-0x52fff5dc>
     9fc:	34061d07 	li	a2,0x1d07
     a00:	00000003 	sra	zero,zero,0x0
     a04:	00015806 	srlv	t3,at,zero
     a08:	e5060100 	swc1	$f6,256(t0)
     a0c:	0200000b 	movn	zero,s0,zero
     a10:	000d7306 	0xd7306
     a14:	07000300 	bltz	t8,1618 <_init-0x52ffe9e8>
     a18:	00000c11 	0xc11
     a1c:	09f62207 	j	7d8881c <_init-0x4b2777e4>
     a20:	630e0000 	0x630e0000
     a24:	ef00000b 	swc3	$0,11(t8)
     a28:	58000000 	blezl	zero,a2c <_init-0x52fff5d4>
     a2c:	c70d2707 	lwc1	$f13,9991(t8)
     a30:	07000001 	bltz	t8,a38 <_init-0x52fff5c8>
     a34:	00002c28 	0x2c28
     a38:	00230200 	0x230200
     a3c:	000d680d 	break	0xd,0x1a0
     a40:	5e2b0700 	0x5e2b0700
     a44:	02000000 	0x2000000
     a48:	1a0d0423 	0x1a0d0423
     a4c:	07000002 	bltz	t8,a58 <_init-0x52fff5a8>
     a50:	00005e2c 	0x5e2c
     a54:	08230200 	j	8c0800 <_init-0x5273f800>
     a58:	0005420d 	break	0x5,0x108
     a5c:	5e2d0700 	0x5e2d0700
     a60:	02000000 	0x2000000
     a64:	7a0d0c23 	0x7a0d0c23
     a68:	07000005 	bltz	t8,a80 <_init-0x52fff580>
     a6c:	0004bc30 	tge	zero,a0,0x2f0
     a70:	10230200 	beq	at,v1,1274 <_init-0x52ffed8c>
     a74:	000c8b0d 	break	0xc,0x22c
     a78:	bc310700 	cache	0x11,1792(at)
     a7c:	02000004 	sllv	zero,zero,s0
     a80:	e70d1423 	swc1	$f13,5155(t8)
     a84:	07000010 	bltz	t8,ac8 <_init-0x52fff538>
     a88:	0004c232 	tlt	zero,a0,0x308
     a8c:	18230200 	0x18230200
     a90:	0009d10d 	break	0x9,0x344
     a94:	c2330700 	ll	s3,1792(s1)
     a98:	02000004 	sllv	zero,zero,s0
     a9c:	360d1c23 	ori	t5,s0,0x1c23
     aa0:	07000012 	bltz	t8,aec <_init-0x52fff514>
     aa4:	0005b136 	tne	zero,a1,0x2c4
     aa8:	20230200 	addi	v1,at,512
     aac:	0007140d 	break	0x7,0x50
     ab0:	8b370700 	lwl	s7,1792(t9)
     ab4:	02000007 	srav	zero,zero,s0
     ab8:	300d2423 	andi	t5,zero,0x2423
     abc:	07000008 	bltz	t8,ae0 <_init-0x52fff520>
     ac0:	0007a238 	0x7a238
     ac4:	28230200 	slti	v1,at,512
     ac8:	001fe40d 	break	0x1f,0x390
     acc:	67390700 	0x67390700
     ad0:	02000008 	jr	s0
     ad4:	fb0d2c23 	sdc2	$13,11299(t8)
     ad8:	07000017 	bltz	t8,b38 <_init-0x52fff4c8>
     adc:	0009343a 	0x9343a
     ae0:	30230200 	andi	v1,at,0x200
     ae4:	0007570d 	break	0x7,0x15c
     ae8:	693d0700 	0x693d0700
     aec:	02000000 	0x2000000
     af0:	680f3423 	0x680f3423
     af4:	07006364 	bltz	t8,19888 <_init-0x52fe6778>
     af8:	0000693f 	0x693f
     afc:	38230200 	xori	v1,at,0x200
     b00:	000ab70d 	break	0xa,0x2dc
     b04:	69400700 	0x69400700
     b08:	02000000 	0x2000000
     b0c:	e60d3c23 	swc1	$f13,15395(s0)
     b10:	07000008 	bltz	t8,b34 <_init-0x52fff4cc>
     b14:	000b6342 	srl	t4,t3,0xd
     b18:	40230200 	0x40230200
     b1c:	0009ed0d 	break	0x9,0x3b4
     b20:	63430700 	0x63430700
     b24:	0200000b 	movn	zero,s0,zero
     b28:	b40d4423 	0xb40d4423
     b2c:	07000003 	bltz	t8,b3c <_init-0x52fff4c4>
     b30:	000b6344 	0xb6344
     b34:	48230200 	0x48230200
     b38:	0005350d 	break	0x5,0xd4
     b3c:	17460700 	bne	k0,a2,2740 <_init-0x52ffd8c0>
     b40:	0200000a 	movz	zero,s0,zero
     b44:	af0d4c23 	sw	t5,19491(t8)
     b48:	07000009 	bltz	t8,b70 <_init-0x52fff490>
     b4c:	00095b47 	0x95b47
     b50:	50230200 	beql	at,v1,1354 <_init-0x52ffecac>
     b54:	000d2b0d 	break	0xd,0xac
     b58:	69490700 	0x69490700
     b5c:	0200000b 	movn	zero,s0,zero
     b60:	04005423 	bltz	zero,15bf0 <_init-0x52fea410>
     b64:	0009eb04 	0x9eb04
     b68:	ee040400 	swc3	$4,1024(s0)
     b6c:	07000003 	bltz	t8,b7c <_init-0x52fff484>
     b70:	000000ff 	0xff
     b74:	0a224b07 	j	8892c1c <_init-0x4a76d3e4>
     b78:	a1050000 	sb	a1,0(t0)
     b7c:	0400000b 	bltz	zero,bac <_init-0x52fff454>
     b80:	88061c04 	lwl	a2,7172(zero)
     b84:	00000009 	jalr	zero,zero
     b88:	0003d706 	0x3d706
     b8c:	de060100 	ldc3	$6,256(s0)
     b90:	02000003 	0x2000003
     b94:	000d2106 	0xd2106
     b98:	9d060300 	0x9d060300
     b9c:	04000006 	bltz	zero,bb8 <_init-0x52fff448>
     ba0:	0d100700 	jal	4401c00 <_init-0x4ebfe400>
     ba4:	22040000 	addi	a0,s0,0
     ba8:	00000b7a 	0xb7a
     bac:	000c0f05 	0xc0f05
     bb0:	25040400 	addiu	a0,t0,1024
     bb4:	00037b06 	0x37b06
     bb8:	59060000 	0x59060000
     bbc:	01000000 	0x1000000
     bc0:	000cf206 	0xcf206
     bc4:	cf060200 	pref	0x6,512(t8)
     bc8:	03000005 	0x3000005
     bcc:	00024206 	0x24206
     bd0:	84060400 	lh	a2,1024(zero)
     bd4:	05000006 	bltz	t0,bf0 <_init-0x52fff410>
     bd8:	0007d406 	0x7d406
     bdc:	6e060600 	0x6e060600
     be0:	07000006 	bltz	t8,bfc <_init-0x52fff404>
     be4:	000c6006 	srlv	t4,t4,zero
     be8:	7a060800 	0x7a060800
     bec:	09000001 	j	4000004 <_init-0x4efffffc>
     bf0:	0008d906 	0x8d906
     bf4:	6d060a00 	0x6d060a00
     bf8:	0b000001 	j	c000004 <_init-0x46fffffc>
     bfc:	00077206 	0x77206
     c00:	65060c00 	0x65060c00
     c04:	0d000006 	jal	4000018 <_init-0x4effffe8>
     c08:	000b0d06 	0xb0d06
     c0c:	07000e00 	bltz	t8,4410 <_init-0x52ffbbf0>
     c10:	000001aa 	0x1aa
     c14:	0bac3504 	j	eb0d410 <_init-0x444f2bf0>
     c18:	430e0000 	c0	0x10e0000
     c1c:	6c00000c 	0x6c00000c
     c20:	08000000 	j	0 <_init-0x53000000>
     c24:	1d0d3804 	0x1d0d3804
     c28:	0400000a 	bltz	zero,c54 <_init-0x52fff3ac>
     c2c:	00009f39 	0x9f39
     c30:	00230200 	0x230200
     c34:	0001a10d 	break	0x1,0x284
     c38:	0f3a0400 	jal	ce81000 <_init-0x4617f000>
     c3c:	0200000c 	syscall	0x80000
     c40:	07000423 	bltz	t8,1cd0 <_init-0x52ffe330>
     c44:	0000055a 	0x55a
     c48:	0c1a3b04 	jal	68ec10 <_init-0x529713f0>
     c4c:	730c0000 	madd	t8,t4
     c50:	0800000c 	j	30 <_init-0x52ffffd0>
     c54:	720f1e01 	0x720f1e01
     c58:	01007365 	0x1007365
     c5c:	000b691c 	0xb691c
     c60:	00230200 	0x230200
     c64:	6675620f 	0x6675620f
     c68:	d21d0100 	0xd21d0100
     c6c:	02000005 	0x2000005
     c70:	07000423 	bltz	t8,1d00 <_init-0x52ffe300>
     c74:	00000892 	0x892
     c78:	0c4e1e01 	jal	1387804 <_init-0x51c787fc>
     c7c:	d0170000 	0xd0170000
     c80:	0100000c 	syscall	0x40000
     c84:	000001ec 	0x1ec
     c88:	5e018501 	0x5e018501
     c8c:	20000000 	addi	zero,zero,0
     c90:	c0530000 	ll	s3,0(v0)
     c94:	01530002 	0x1530002
     c98:	10e7186d 	beq	a3,a3,6e50 <_init-0x52ff91b0>
     c9c:	86010000 	lh	at,0(s0)
     ca0:	000004c2 	srl	zero,zero,0x13
     ca4:	d1186101 	0xd1186101
     ca8:	01000003 	0x1000003
     cac:	00086d87 	0x86d87
     cb0:	19600100 	blez	t3,10b4 <_init-0x52ffef4c>
     cb4:	88010069 	lwl	at,105(zero)
     cb8:	00000069 	0x69
     cbc:	1a189102 	0x1a189102
     cc0:	000005af 	0x5af
     cc4:	00000ce0 	0xce0
     cc8:	c8030501 	lwc2	$3,1281(zero)
     ccc:	0053003f 	0x53003f
     cd0:	000ce00a 	movz	gp,zero,t4
     cd4:	00009a00 	sll	s3,zero,0x8
     cd8:	00350b00 	0x350b00
     cdc:	00120000 	sll	zero,s2,0x0
     ce0:	000cd009 	0xcd009
     ce4:	0d191700 	jal	4645c00 <_init-0x4e9ba400>
     ce8:	98010000 	lwr	at,0(zero)
     cec:	01000002 	0x1000002
     cf0:	005e01b4 	teq	v0,s8,0x6
     cf4:	02c00000 	0x2c00000
     cf8:	04045300 	0x4045300
     cfc:	6d015300 	0x6d015300
     d00:	01006919 	0x1006919
     d04:	000069b5 	0x69b5
     d08:	19630100 	0x19630100
     d0c:	00746572 	tlt	v1,s4,0x195
     d10:	005eb601 	0x5eb601
     d14:	54010000 	bnel	zero,at,d18 <_init-0x52fff2e8>
     d18:	0d401700 	jal	5005c00 <_init-0x4dffa400>
     d1c:	cc010000 	pref	0x1,0(zero)
     d20:	01000002 	0x1000002
     d24:	005e01cf 	0x5e01cf
     d28:	04040000 	0x4040000
     d2c:	05605300 	bltz	t3,15930 <_init-0x52fea6d0>
     d30:	6d015300 	0x6d015300
     d34:	01006919 	0x1006919
     d38:	000069d0 	0x69d0
     d3c:	00630100 	0x630100
     d40:	000d831b 	0xd831b
     d44:	00092f00 	sll	a1,t1,0x1c
     d48:	01f40100 	0x1f40100
     d4c:	00000c0f 	0xc0f
     d50:	53000560 	beqzl	t8,22d4 <_init-0x52ffdd2c>
     d54:	5300061c 	beqzl	t8,25c8 <_init-0x52ffda38>
     d58:	1d1c6d01 	0x1d1c6d01
     d5c:	0100000a 	movz	zero,t0,zero
     d60:	00009ff3 	tltu	zero,zero,0x27f
     d64:	19620100 	0x19620100
     d68:	f5010069 	sdc1	$f1,105(t0)
     d6c:	00000069 	0x69
     d70:	af1a6001 	sw	k0,24577(t8)
     d74:	93000005 	lbu	zero,5(t8)
     d78:	0100000d 	break	0x100
     d7c:	3fdc0305 	0x3fdc0305
     d80:	0a005300 	j	8014c00 <_init-0x4afeb400>
     d84:	00000d93 	0xd93
     d88:	0000009a 	0x9a
     d8c:	0000350b 	0x350b
     d90:	09000e00 	j	4003800 <_init-0x4effc800>
     d94:	00000d83 	sra	at,zero,0x16
     d98:	000de617 	0xde617
     d9c:	0a840100 	j	a100400 <_init-0x48effc00>
     da0:	75010000 	jalx	4040000 <_init-0x4efc0000>
     da4:	000b6901 	0xb6901
     da8:	00061c00 	sll	v1,a2,0x10
     dac:	00069453 	0x69453
     db0:	1c6d0153 	0x1c6d0153
     db4:	000009e8 	0x9e8
     db8:	0b637401 	j	d8dd004 <_init-0x45722ffc>
     dbc:	60010000 	0x60010000
     dc0:	0010e718 	0x10e718
     dc4:	c2760100 	ll	s6,256(s3)
     dc8:	01000004 	sllv	zero,zero,t0
     dcc:	010f1861 	0x10f1861
     dd0:	77010000 	jalx	c040000 <_init-0x46fc0000>
     dd4:	00000c0f 	0xc0f
     dd8:	2b1d5201 	slti	sp,t8,20993
     ddc:	0100000d 	break	0x100
     de0:	000b6978 	0xb6978
     de4:	331e0000 	andi	s8,t8,0x0
     de8:	8400000e 	lh	zero,14(zero)
     dec:	01000005 	0x1000005
     df0:	94010104 	lhu	at,260(zero)
     df4:	d4530006 	ldc1	$f19,6(v0)
     df8:	01530006 	srlv	zero,s3,t2
     dfc:	64681f6d 	0x64681f6d
     e00:	03010063 	0x3010063
     e04:	00006901 	0x6901
     e08:	20540100 	addi	s4,v0,256
     e0c:	00000620 	0x620
     e10:	73010301 	0x73010301
     e14:	0200000c 	syscall	0x80000
     e18:	781f0491 	0x781f0491
     e1c:	01030100 	0x1030100
     e20:	00000069 	0x69
     e24:	791f5701 	0x791f5701
     e28:	01030100 	0x1030100
     e2c:	00000069 	0x69
     e30:	1e005301 	bgtz	s0,15a38 <_init-0x52fea5c8>
     e34:	00000eb0 	tge	zero,zero,0x3a
     e38:	00000c98 	0xc98
     e3c:	01011101 	0x1011101
     e40:	530006d4 	beqzl	t8,2994 <_init-0x52ffd66c>
     e44:	53000988 	beqzl	t8,3468 <_init-0x52ffcb98>
     e48:	e2206d01 	sc	zero,27905(s1)
     e4c:	01000005 	0x1000005
     e50:	0ba10110 	j	e840440 <_init-0x447bfbc0>
     e54:	60010000 	0x60010000
     e58:	0009e820 	add	sp,zero,t1
     e5c:	01100100 	0x1100100
     e60:	00000eb0 	tge	zero,zero,0x3a
     e64:	58216101 	0x58216101
     e68:	0100000c 	syscall	0x40000
     e6c:	0b630112 	j	d8c0448 <_init-0x4573fbb8>
     e70:	61010000 	0x61010000
     e74:	000a1d21 	0xa1d21
     e78:	01130100 	0x1130100
     e7c:	00000eb6 	tne	zero,zero,0x3a
     e80:	21189102 	addi	t8,t0,-28414
     e84:	00000b37 	0xb37
     e88:	69011501 	0x69011501
     e8c:	01000000 	0x1000000
     e90:	64682260 	0x64682260
     e94:	17010063 	bne	t8,at,1024 <_init-0x52ffefdc>
     e98:	00006901 	0x6901
     e9c:	1a620100 	0x1a620100
     ea0:	000005af 	0x5af
     ea4:	00000ec6 	0xec6
     ea8:	ec030501 	swc3	$3,1281(zero)
     eac:	0053003f 	0x53003f
     eb0:	0b6f0404 	j	dbc1010 <_init-0x4543eff0>
     eb4:	c60a0000 	lwc1	$f10,0(s0)
     eb8:	8500000e 	lh	zero,14(t0)
     ebc:	0b000000 	j	c000000 <_init-0x47000000>
     ec0:	00000035 	0x35
     ec4:	8309007f 	lb	t1,127(t8)
     ec8:	1e00000d 	bgtz	s0,f00 <_init-0x52fff100>
     ecc:	00000f6d 	0xf6d
     ed0:	0000018c 	syscall	0x6
     ed4:	01018e01 	0x1018e01
     ed8:	53000988 	beqzl	t8,34fc <_init-0x52ffcb04>
     edc:	53000ce0 	beqzl	t8,4260 <_init-0x52ffbda0>
     ee0:	dd206d01 	ldc3	$0,27905(t1)
     ee4:	0100000b 	movn	zero,t0,zero
     ee8:	0b63018d 	j	d8c0634 <_init-0x4573f9cc>
     eec:	6e010000 	0x6e010000
     ef0:	0009e820 	add	sp,zero,t1
     ef4:	018d0100 	0x18d0100
     ef8:	00000eb0 	tge	zero,zero,0x3a
     efc:	58216001 	0x58216001
     f00:	0100000c 	syscall	0x40000
     f04:	0b63018f 	j	d8c063c <_init-0x4573f9c4>
     f08:	62010000 	0x62010000
     f0c:	00061721 	0x61721
     f10:	018f0100 	0x18f0100
     f14:	00000b63 	0xb63
     f18:	a7216701 	sh	at,26369(t9)
     f1c:	01000008 	jr	t0
     f20:	0b690190 	j	da40640 <_init-0x455bf9c0>
     f24:	60010000 	0x60010000
     f28:	00093421 	0x93421
     f2c:	01910100 	0x1910100
     f30:	00000c0f 	0xc0f
     f34:	69225201 	0x69225201
     f38:	01920100 	0x1920100
     f3c:	00000069 	0x69
     f40:	26215201 	addiu	at,s1,20993
     f44:	0100000a 	movz	zero,t0,zero
     f48:	00690192 	0x690192
     f4c:	66010000 	0x66010000
     f50:	000b3721 	0xb3721
     f54:	01920100 	0x1920100
     f58:	00000069 	0x69
     f5c:	68226101 	0x68226101
     f60:	01006364 	0x1006364
     f64:	00690195 	0x690195
     f68:	65010000 	0x65010000
     f6c:	10131e00 	beq	zero,s3,8770 <_init-0x52ff7890>
     f70:	08600000 	j	1800000 <_init-0x51800000>
     f74:	e1010000 	sc	at,0(t0)
     f78:	0ce00101 	jal	3800404 <_init-0x4f7ffbfc>
     f7c:	148c5300 	bne	a0,t4,15b80 <_init-0x52fea480>
     f80:	6d015300 	0x6d015300
     f84:	0005e220 	0x5e220
     f88:	01e00100 	0x1e00100
     f8c:	00000ba1 	0xba1
     f90:	e8206001 	swc2	$0,24577(at)
     f94:	01000009 	jalr	zero,t0
     f98:	0eb001e0 	jal	ac00780 <_init-0x483ff880>
     f9c:	63010000 	0x63010000
     fa0:	000c5821 	addu	t3,zero,t4
     fa4:	01e20100 	0x1e20100
     fa8:	00000b63 	0xb63
     fac:	17216001 	bne	t9,at,18fb4 <_init-0x52fe704c>
     fb0:	01000006 	srlv	zero,zero,t0
     fb4:	0b6301e2 	j	d8c0788 <_init-0x4573f878>
     fb8:	62010000 	0x62010000
     fbc:	0008a721 	0x8a721
     fc0:	01e30100 	0x1e30100
     fc4:	00000b69 	0xb69
     fc8:	34215801 	ori	at,at,0x5801
     fcc:	01000009 	jalr	zero,t0
     fd0:	0c0f01e4 	jal	3c0790 <_init-0x52c3f870>
     fd4:	52010000 	beql	s0,at,fd8 <_init-0x52fff028>
     fd8:	000b3721 	0xb3721
     fdc:	01e50100 	0x1e50100
     fe0:	00000069 	0x69
     fe4:	e7216001 	swc1	$f1,24577(t9)
     fe8:	01000005 	0x1000005
     fec:	005e01e6 	0x5e01e6
     ff0:	66010000 	0x66010000
     ff4:	63646822 	0x63646822
     ff8:	01e90100 	0x1e90100
     ffc:	00000069 	0x69
    1000:	af1a6501 	sw	k0,25857(t8)
    1004:	13000005 	beqz	t8,101c <_init-0x52ffefe4>
    1008:	01000010 	0x1000010
    100c:	3ffc0305 	0x3ffc0305
    1010:	09005300 	j	4014c00 <_init-0x4efeb400>
    1014:	00000d83 	sra	at,zero,0x16
    1018:	00103d23 	0x103d23
    101c:	06d50100 	0x6d50100
    1020:	98010000 	lwr	at,0(zero)
    1024:	148c0102 	bne	a0,t4,1430 <_init-0x52ffebd0>
    1028:	14ec5300 	bne	a3,t4,15c2c <_init-0x52fea3d4>
    102c:	6d015300 	0x6d015300
    1030:	63646824 	0x63646824
    1034:	02990100 	0x2990100
    1038:	00000069 	0x69
    103c:	10722300 	beq	v1,s2,9c40 <_init-0x52ff63c0>
    1040:	14010000 	bne	zero,at,1044 <_init-0x52ffefbc>
    1044:	01000003 	0x1000003
    1048:	ec010285 	swc3	$1,645(zero)
    104c:	4c530014 	0x4c530014
    1050:	01530015 	0x1530015
    1054:	09e8206d 	j	7a081b4 <_init-0x4b5f7e4c>
    1058:	84010000 	lh	at,0(zero)
    105c:	000eb002 	srl	s6,t6,0x0
    1060:	21610100 	addi	at,t3,256
    1064:	000005da 	0x5da
    1068:	a1028601 	sb	v0,-31231(t0)
    106c:	0100000b 	movn	zero,t0,zero
    1070:	99230060 	lwr	v1,96(t1)
    1074:	01000010 	0x1000010
    1078:	00000b6d 	0xb6d
    107c:	01029301 	0x1029301
    1080:	5300154c 	beqzl	t8,65b4 <_init-0x52ff9a4c>
    1084:	53001554 	beqzl	t8,65d8 <_init-0x52ff9a28>
    1088:	e8206d01 	swc2	$0,27905(at)
    108c:	01000009 	jalr	zero,t0
    1090:	0eb00292 	jal	ac00a48 <_init-0x483ff5b8>
    1094:	54010000 	bnel	zero,at,1098 <_init-0x52ffef68>
    1098:	10c02300 	beqz	a2,9c9c <_init-0x52ff6364>
    109c:	39010000 	xori	at,t0,0x0
    10a0:	01000008 	jr	t0
    10a4:	5401029e 	bnel	zero,at,1b20 <_init-0x52ffe4e0>
    10a8:	8c530015 	lw	s3,21(v0)
    10ac:	01530015 	0x1530015
    10b0:	09e8206d 	j	7a081b4 <_init-0x4b5f7e4c>
    10b4:	9d010000 	0x9d010000
    10b8:	000eb002 	srl	s6,t6,0x0
    10bc:	00600100 	0x600100
    10c0:	0002b725 	0x2b725
    10c4:	b5a90e00 	0xb5a90e00
    10c8:	01000000 	0x1000000
    10cc:	51b40305 	beql	t5,s4,1ce4 <_init-0x52ffe31c>
    10d0:	86255300 	lh	a1,21248(s1)
    10d4:	0e000003 	jal	800000c <_init-0x4afffff4>
    10d8:	0000dcb5 	0xdcb5
    10dc:	03050100 	0x3050100
    10e0:	530052a4 	beqzl	t8,15b74 <_init-0x52fea48c>
    10e4:	0009ff25 	0x9ff25
    10e8:	69340100 	0x69340100
    10ec:	01000000 	0x1000000
    10f0:	52300305 	beql	s1,s0,1d08 <_init-0x52ffe2f8>
    10f4:	80265300 	lb	a2,21248(at)
    10f8:	07000007 	bltz	t8,1118 <_init-0x52ffeee8>
    10fc:	000eb04d 	break	0xe,0x2c1
    1100:	0a010100 	j	8040400 <_init-0x4afbfc00>
    1104:	00001113 	0x1113
    1108:	00000c43 	sra	at,zero,0x11
    110c:	0000350b 	0x350b
    1110:	18000d00 	blez	zero,4514 <_init-0x52ffbaec>
    1114:	0000026d 	0x26d
    1118:	11032001 	beq	t0,v1,9120 <_init-0x52ff6ee0>
    111c:	03050000 	0x3050000
    1120:	53005050 	beqzl	t8,15264 <_init-0x52fead9c>
    1124:	0006da18 	0x6da18
    1128:	73380100 	0x73380100
    112c:	0500000c 	bltz	t0,1160 <_init-0x52ffeea0>
    1130:	0051a003 	0x51a003
    1134:	0a192553 	j	864954c <_init-0x4a9b6ab4>
    1138:	3b010000 	xori	at,t8,0x0
    113c:	00001147 	0x1147
    1140:	18030501 	0x18030501
    1144:	04530053 	bgezall	v0,1294 <_init-0x52ffed6c>
    1148:	00037c04 	0x37c04
    114c:	0b802500 	j	e009400 <_init-0x44ff6c00>
    1150:	3c010000 	lui	at,0x0
    1154:	00001147 	0x1147
    1158:	b8030501 	swr	v1,1281(zero)
    115c:	25530051 	addiu	s3,t2,81
    1160:	0000039b 	0x39b
    1164:	11473d01 	beq	t2,a3,1056c <_init-0x52fefa94>
    1168:	05010000 	bgez	t0,116c <_init-0x52ffee94>
    116c:	0051b003 	0x51b003
    1170:	04942553 	0x4942553
    1174:	3e010000 	0x3e010000
    1178:	00001147 	0x1147
    117c:	2c030501 	sltiu	v1,zero,1281
    1180:	0a530052 	j	94c0148 <_init-0x49b3feb8>
    1184:	00001193 	0x1193
    1188:	0000003c 	0x3c
    118c:	0000350b 	0x350b
    1190:	18000d00 	blez	zero,4594 <_init-0x52ffba6c>
    1194:	000002e5 	0x2e5
    1198:	11834101 	beq	t4,v1,115a0 <_init-0x52feea60>
    119c:	03050000 	0x3050000
    11a0:	53005168 	beqzl	t8,15744 <_init-0x52fea8bc>
    11a4:	0011b40a 	0x11b40a
    11a8:	000c7300 	sll	t6,t4,0xc
    11ac:	00350b00 	0x350b00
    11b0:	000d0000 	sll	zero,t5,0x0
    11b4:	0009de25 	0x9de25
    11b8:	a4470100 	sh	a3,256(v0)
    11bc:	01000011 	mthi	t0
    11c0:	52a80305 	beql	s5,t0,1dd8 <_init-0x52ffe228>
    11c4:	41185300 	0x41185300
    11c8:	0100000a 	movz	zero,t0,zero
    11cc:	00118349 	0x118349
    11d0:	30030500 	andi	v1,zero,0x500
    11d4:	25530051 	addiu	s3,t2,81
    11d8:	000000c5 	0xc5
    11dc:	11a44f01 	beq	t5,a0,14de4 <_init-0x52feb21c>
    11e0:	05010000 	bgez	t0,11e4 <_init-0x52ffee1c>
    11e4:	00531c03 	0x531c03
    11e8:	0a4b1853 	j	92c614c <_init-0x49d39eb4>
    11ec:	51010000 	beql	t0,at,11f0 <_init-0x52ffee10>
    11f0:	00001183 	sra	v0,zero,0x6
    11f4:	50f80305 	beql	a3,t8,1e0c <_init-0x52ffe1f4>
    11f8:	ea255300 	swc2	$5,21248(s1)
    11fc:	01000004 	sllv	zero,zero,t0
    1200:	0011a457 	0x11a457
    1204:	03050100 	0x3050100
    1208:	53005234 	beqzl	t8,15adc <_init-0x52fea524>
    120c:	0002ef18 	0x2ef18
    1210:	83590100 	lb	t9,256(k0)
    1214:	05000011 	bltz	t0,125c <_init-0x52ffeda4>
    1218:	0050c003 	0x50c003
    121c:	09072553 	j	41c954c <_init-0x4ee36ab4>
    1220:	5f010000 	0x5f010000
    1224:	000011a4 	0x11a4
    1228:	bc030501 	cache	0x3,1281(zero)
    122c:	25530051 	addiu	s3,t2,81
    1230:	00000a90 	0xa90
    1234:	11836501 	beq	t4,v1,1a63c <_init-0x52fe59c4>
    1238:	05010000 	bgez	t0,123c <_init-0x52ffedc4>
    123c:	00501803 	0x501803
    1240:	01240053 	0x1240053
    1244:	00020000 	sll	zero,v0,0x0
    1248:	0000020b 	0x20b
    124c:	04530104 	bgezall	v0,1660 <_init-0x52ffe9a0>
    1250:	15bc0000 	bne	t5,gp,1254 <_init-0x52ffedac>
    1254:	158c5300 	bne	t4,t4,15e58 <_init-0x52fea1a8>
    1258:	05105300 	bltzal	t0,15e5c <_init-0x52fea1a4>
    125c:	c1010000 	ll	at,0(t0)
    1260:	3100000d 	andi	zero,t0,0xd
    1264:	02000004 	sllv	zero,zero,s0
    1268:	00000022 	neg	zero,zero
    126c:	04020801 	bltzl	zero,3274 <_init-0x52ffcd8c>
    1270:	02000006 	srlv	zero,zero,s0
    1274:	0bcb0207 	j	f2c081c <_init-0x43d3f7e4>
    1278:	07040000 	0x7040000
    127c:	000bd002 	srl	k0,t3,0x0
    1280:	03070400 	0x3070400
    1284:	00746e69 	0x746e69
    1288:	e4020504 	swc1	$f2,1284(zero)
    128c:	0800000c 	j	30 <_init-0x52ffffd0>
    1290:	0bcb0205 	j	f2c0814 <_init-0x43d3f7ec>
    1294:	07040000 	0x7040000
    1298:	000ce902 	srl	sp,t4,0x4
    129c:	02050400 	0x2050400
    12a0:	0000002b 	sltu	zero,zero,zero
    12a4:	9d020601 	0x9d020601
    12a8:	02000008 	jr	s0
    12ac:	0bc60205 	j	f180814 <_init-0x43e7f7ec>
    12b0:	07080000 	tgei	t8,0
    12b4:	00009904 	0x9904
    12b8:	a3020400 	sb	v0,1024(t8)
    12bc:	00093e05 	0x93e05
    12c0:	7a050000 	0x7a050000
    12c4:	01000008 	jr	t0
    12c8:	00035605 	0x35605
    12cc:	04050200 	0x4050200
    12d0:	03000002 	0x3000002
    12d4:	00032605 	0x32605
    12d8:	04000000 	bltz	zero,12dc <_init-0x52ffed24>
    12dc:	000000ae 	0xae
    12e0:	05b00204 	bltzal	t5,1af4 <_init-0x52ffe50c>
    12e4:	00000d3b 	0xd3b
    12e8:	0c2a0500 	jal	a81400 <_init-0x5257ec00>
    12ec:	00010000 	sll	zero,at,0x0
    12f0:	00003a06 	0x3a06
    12f4:	b0010700 	0xb0010700
    12f8:	0100000d 	break	0x100
    12fc:	00410129 	0x410129
    1300:	158c0000 	bne	t4,t4,1304 <_init-0x52ffecfc>
    1304:	15b45300 	bne	t5,s4,15f08 <_init-0x52fea0f8>
    1308:	6d015300 	0x6d015300
    130c:	0d900108 	jal	6400420 <_init-0x4cbffbe0>
    1310:	36010000 	ori	at,s0,0x0
    1314:	0015b401 	0x15b401
    1318:	0015bc53 	0x15bc53
    131c:	096d0153 	j	5b4054c <_init-0x4d4bfab4>
    1320:	000002b7 	0x2b7
    1324:	0072a902 	0x72a902
    1328:	05010000 	bgez	t0,132c <_init-0x52ffecd4>
    132c:	0051b403 	0x51b403
    1330:	03860953 	0x3860953
    1334:	b5020000 	0xb5020000
    1338:	00000099 	0x99
    133c:	a4030501 	sh	v1,1281(zero)
    1340:	0a530052 	j	94c0148 <_init-0x49b3feb8>
    1344:	00000111 	0x111
    1348:	000000ae 	0xae
    134c:	0000330b 	0x330b
    1350:	0c000000 	jal	0 <_init-0x53000000>
    1354:	00000da1 	0xda1
    1358:	01221b01 	0x1221b01
    135c:	03050000 	0x3050000
    1360:	5300400c 	beqzl	t8,11394 <_init-0x52feec6c>
    1364:	00010106 	0x10106
    1368:	1a060000 	0x1a060000
    136c:	00020000 	sll	zero,v0,0x0
    1370:	000002b0 	tge	zero,zero,0xa
    1374:	04ca0104 	tlti	a2,260
    1378:	2e500000 	sltiu	s0,s2,0
    137c:	15bc5300 	bne	t5,gp,15f80 <_init-0x52fea080>
    1380:	05105300 	bltzal	t0,15f84 <_init-0x52fea07c>
    1384:	b0010000 	0xb0010000
    1388:	3100001c 	andi	zero,t0,0x1c
    138c:	02000004 	sllv	zero,zero,s0
    1390:	00000022 	neg	zero,zero
    1394:	04030801 	bgezl	zero,339c <_init-0x52ffcc64>
    1398:	00060402 	srl	zero,a2,0x10
    139c:	02070200 	0x2070200
    13a0:	00000bcb 	0xbcb
    13a4:	d0020704 	0xd0020704
    13a8:	0400000b 	bltz	zero,13d8 <_init-0x52ffec28>
    13ac:	3c040407 	lui	a0,0x407
    13b0:	05000000 	bltz	t0,13b4 <_init-0x52ffec4c>
    13b4:	0000005e 	0x5e
    13b8:	06260204 	0x6260204
    13bc:	00000167 	0x167
    13c0:	09b90600 	j	6e41800 <_init-0x4c1be800>
    13c4:	00010000 	sll	zero,at,0x0
    13c8:	0001ff07 	0x1ff07
    13cc:	49290200 	0x49290200
    13d0:	08000000 	j	0 <_init-0x53000000>
    13d4:	00746e69 	0x746e69
    13d8:	e4020504 	swc1	$f2,1284(zero)
    13dc:	0800000c 	j	30 <_init-0x52ffffd0>
    13e0:	0bcb0205 	j	f2c0814 <_init-0x43d3f7ec>
    13e4:	07040000 	0x7040000
    13e8:	001f6407 	0x1f6407
    13ec:	693b0200 	0x693b0200
    13f0:	02000000 	0x2000000
    13f4:	00000ce9 	0xce9
    13f8:	2b020504 	slti	v0,t8,1284
    13fc:	01000000 	0x1000000
    1400:	089d0206 	j	2740818 <_init-0x508bf7e8>
    1404:	05020000 	bltzl	t0,1408 <_init-0x52ffebf8>
    1408:	000bc602 	srl	t8,t3,0x18
    140c:	09070800 	j	41c2000 <_init-0x4ee3e000>
    1410:	000000cd 	break	0x0,0x3
    1414:	012c1508 	0x12c1508
    1418:	6e696d0a 	0x6e696d0a
    141c:	01291500 	0x1291500
    1420:	0000003c 	0x3c
    1424:	0a002302 	j	8008c08 <_init-0x4aff73f8>
    1428:	0078616d 	0x78616d
    142c:	3c012b15 	lui	at,0x2b15
    1430:	02000000 	0x2000000
    1434:	0b000423 	j	c00108c <_init-0x46ffef74>
    1438:	0000115b 	0x115b
    143c:	a5012c15 	sh	at,11285(t0)
    1440:	0c000000 	jal	0 <_init-0x53000000>
    1444:	00000090 	0x90
    1448:	00900404 	0x900404
    144c:	f40d0000 	sdc1	$f13,0(zero)
    1450:	25000000 	addiu	zero,t0,0
    1454:	0e000000 	jal	8000000 <_init-0x4b000000>
    1458:	00000035 	0x35
    145c:	1b05000f 	0x1b05000f
    1460:	04000001 	bltz	zero,1468 <_init-0x52ffeb98>
    1464:	3e06a314 	0x3e06a314
    1468:	00000009 	jalr	zero,zero
    146c:	00087a06 	0x87a06
    1470:	56060100 	bnel	s0,a2,1874 <_init-0x52ffe78c>
    1474:	02000003 	0x2000003
    1478:	00020406 	0x20406
    147c:	26060300 	addiu	a2,s0,768
    1480:	00000003 	sra	zero,zero,0x0
    1484:	01300500 	0x1300500
    1488:	14040000 	bne	zero,a0,148c <_init-0x52ffeb74>
    148c:	0d3b06b0 	jal	4ec1ac0 <_init-0x4e13e540>
    1490:	06000000 	bltz	s0,1494 <_init-0x52ffeb6c>
    1494:	00000c2a 	0xc2a
    1498:	54050001 	bnel	zero,a1,14a0 <_init-0x52ffeb60>
    149c:	04000001 	bltz	zero,14a4 <_init-0x52ffeb5c>
    14a0:	3c062d0f 	lui	a2,0x2d0f
    14a4:	00000016 	0x16
    14a8:	0021b706 	0x21b706
    14ac:	0600da00 	bltz	s0,ffff7cb0 <app_icon2_data+0xacff2994>
    14b0:	000013ca 	0x13ca
    14b4:	d30601b4 	0xd30601b4
    14b8:	8e00000f 	lw	zero,15(s0)
    14bc:	ed070002 	swc3	$7,2(t0)
    14c0:	0f000010 	jal	c000040 <_init-0x46ffffc0>
    14c4:	00013036 	tne	zero,at,0xc0
    14c8:	69040400 	0x69040400
    14cc:	0d000000 	jal	4000000 <_init-0x4f000000>
    14d0:	00000176 	tne	zero,zero,0x5
    14d4:	00000090 	0x90
    14d8:	0000350f 	0x350f
    14dc:	0003ff00 	sll	ra,v1,0x1c
    14e0:	0001b710 	0x1b710
    14e4:	79050c00 	0x79050c00
    14e8:	0000b811 	0xb811
    14ec:	2e720500 	sltiu	s2,s3,1280
    14f0:	02000000 	0x2000000
    14f4:	c0110023 	ll	s1,35(zero)
    14f8:	05000004 	bltz	t0,150c <_init-0x52ffeaf4>
    14fc:	00002e74 	teq	zero,zero,0xb9
    1500:	02230200 	0x2230200
    1504:	0000aa11 	0xaa11
    1508:	2e760500 	sltiu	s6,s3,1280
    150c:	02000000 	0x2000000
    1510:	31110423 	andi	s1,t0,0x423
    1514:	0500000a 	bltz	t0,1540 <_init-0x52ffeac0>
    1518:	0001b778 	0x1b778
    151c:	08230200 	j	8c0800 <_init-0x5273f800>
    1520:	bd040400 	cache	0x4,1024(t0)
    1524:	0c000001 	jal	4 <_init-0x52fffffc>
    1528:	00000025 	move	zero,zero
    152c:	00065307 	0x65307
    1530:	76790500 	jalx	9e41400 <_init-0x491bec00>
    1534:	12000001 	beqz	s0,153c <_init-0x52ffeac4>
    1538:	000001f3 	tltu	zero,zero,0x7
    153c:	13591004 	beq	k0,t9,5550 <_init-0x52ffaab0>
    1540:	54100070 	bnel	zero,s0,1704 <_init-0x52ffe8fc>
    1544:	0000002c 	0x2c
    1548:	10007613 	b	1ed98 <_init-0x52fe1268>
    154c:	00006956 	0x6956
    1550:	21de1400 	addi	s8,t6,5120
    1554:	58100000 	0x58100000
    1558:	0000003c 	0x3c
    155c:	02341000 	0x2341000
    1560:	100c0000 	beq	zero,t4,1564 <_init-0x52ffea9c>
    1564:	1473115a 	bne	v1,s3,5ad0 <_init-0x52ffa530>
    1568:	47100000 	c1	0x1100000
    156c:	00000069 	0x69
    1570:	11002302 	beqz	t0,a17c <_init-0x52ff5e84>
    1574:	00001db5 	0x1db5
    1578:	002e4910 	0x2e4910
    157c:	23020000 	addi	v0,t8,0
    1580:	18de1104 	0x18de1104
    1584:	4b100000 	c2	0x1100000
    1588:	0000002e 	0x2e
    158c:	11062302 	beq	t0,a2,a198 <_init-0x52ff5e68>
    1590:	000009e8 	0x9e8
    1594:	01cd5910 	0x1cd5910
    1598:	23020000 	addi	v0,t8,0
    159c:	78070008 	0x78070008
    15a0:	1000001c 	b	1614 <_init-0x52ffe9ec>
    15a4:	0001f35a 	0x1f35a
    15a8:	34040400 	li	a0,0x400
    15ac:	05000002 	bltz	t0,15b8 <_init-0x52ffea48>
    15b0:	00000317 	0x317
    15b4:	061f1204 	synci	4612(s0)
    15b8:	000013c1 	0x13c1
    15bc:	22700600 	addi	s0,s3,1536
    15c0:	06010000 	bgez	s0,15c4 <_init-0x52ffea3c>
    15c4:	00001a1b 	0x1a1b
    15c8:	1e760602 	0x1e760602
    15cc:	06040000 	0x6040000
    15d0:	0000222a 	0x222a
    15d4:	223a0608 	addi	k0,s1,1544
    15d8:	06100000 	bltzal	s0,15dc <_init-0x52ffea24>
    15dc:	00001e97 	0x1e97
    15e0:	22330620 	addi	s3,s1,1568
    15e4:	00c00000 	0xc00000
    15e8:	0011e306 	0x11e306
    15ec:	06018000 	bgez	s0,fffe15f0 <app_icon2_data+0xacfdc2d4>
    15f0:	000014a4 	0x14a4
    15f4:	ee060280 	swc3	$6,640(s0)
    15f8:	8000000e 	lb	zero,14(zero)
    15fc:	1fc40604 	0x1fc40604
    1600:	08800000 	j	2000000 <_init-0x51000000>
    1604:	0014e606 	0x14e606
    1608:	06108000 	bltzal	s0,fffe160c <app_icon2_data+0xacfdc2f0>
    160c:	00001f78 	0x1f78
    1610:	85062080 	lh	a2,8320(t0)
    1614:	8000001f 	lb	zero,31(zero)
    1618:	920600c0 	lbu	a2,192(s0)
    161c:	8000001f 	lb	zero,31(zero)
    1620:	9f060180 	0x9f060180
    1624:	8000001f 	lb	zero,31(zero)
    1628:	d9060280 	ldc2	$6,640(t0)
    162c:	8000001e 	lb	zero,30(zero)
    1630:	b7060480 	0xb7060480
    1634:	8000001f 	lb	zero,31(zero)
    1638:	e6060880 	swc1	$f6,2176(s0)
    163c:	8000001e 	lb	zero,30(zero)
    1640:	37061080 	ori	a2,t8,0x1080
    1644:	80000010 	lb	zero,16(zero)
    1648:	45062080 	bc1fl	$fcc1,984c <_init-0x52ff67b4>
    164c:	80000010 	lb	zero,16(zero)
    1650:	0600c080 	bltz	s0,ffff1854 <app_icon2_data+0xacfec538>
    1654:	00001053 	0x1053
    1658:	01808080 	0x1808080
    165c:	00106106 	0x106106
    1660:	80808000 	lb	zero,-32768(a0)
    1664:	106f0602 	beq	v1,t7,2e70 <_init-0x52ffd190>
    1668:	80800000 	lb	zero,0(a0)
    166c:	02060480 	0x2060480
    1670:	80000018 	lb	zero,24(zero)
    1674:	06088080 	tgei	s0,-32640
    1678:	0000107d 	0x107d
    167c:	10808080 	beqz	a0,fffe1880 <app_icon2_data+0xacfdc564>
    1680:	15490700 	bne	t2,t1,3284 <_init-0x52ffcd7c>
    1684:	3d120000 	0x3d120000
    1688:	00000245 	0x245
    168c:	0006f905 	0x6f905
    1690:	19130400 	0x19130400
    1694:	00227906 	0x227906
    1698:	24060000 	li	a2,0
    169c:	e400001a 	swc1	$f0,26(zero)
    16a0:	1a320600 	0x1a320600
    16a4:	00e50000 	0xe50000
    16a8:	0013a006 	srlv	s4,s3,zero
    16ac:	0600e600 	bltz	s0,ffffaeb0 <app_icon2_data+0xacff5b94>
    16b0:	00000f2d 	0xf2d
    16b4:	4c0600e7 	0x4c0600e7
    16b8:	e800001e 	swc2	$0,30(zero)
    16bc:	140b0600 	bne	zero,t3,2ec0 <_init-0x52ffd140>
    16c0:	00e90000 	0xe90000
    16c4:	000ef906 	0xef906
    16c8:	0607e800 	0x607e800
    16cc:	0000102a 	slt	v0,zero,zero
    16d0:	a00607e9 	sb	a2,2025(zero)
    16d4:	ea00001c 	swc2	$0,28(s0)
    16d8:	17c80607 	bne	s8,t0,2ef8 <_init-0x52ffd108>
    16dc:	07eb0000 	tltiu	ra,0
    16e0:	0014f106 	0x14f106
    16e4:	0607ec00 	0x607ec00
    16e8:	00002004 	sllv	a0,zero,zero
    16ec:	8d0607ed 	lw	a2,2029(t0)
    16f0:	ee00000f 	swc3	$0,15(s0)
    16f4:	15840607 	bne	t4,a0,2f14 <_init-0x52ffd0ec>
    16f8:	07ef0000 	0x7ef0000
    16fc:	00197c06 	0x197c06
    1700:	0607f000 	0x607f000
    1704:	000012e7 	0x12e7
    1708:	d10607f1 	0xd10607f1
    170c:	f2000012 	0xf2000012
    1710:	11160607 	beq	t0,s6,2f30 <_init-0x52ffd0d0>
    1714:	07f30000 	bgezall	ra,1718 <_init-0x52ffe8e8>
    1718:	00149606 	0x149606
    171c:	0607f400 	0x607f400
    1720:	00001017 	0x1017
    1724:	ef0607f5 	swc3	$6,2037(t8)
    1728:	f6000020 	sdc1	$f0,32(s0)
    172c:	15280607 	bne	t1,t0,2f4c <_init-0x52ffd0b4>
    1730:	07f70000 	0x7f70000
    1734:	00210306 	0x210306
    1738:	0607f800 	0x607f800
    173c:	00001363 	0x1363
    1740:	d70607f9 	ldc1	$f6,2041(t8)
    1744:	fa000013 	sdc2	$0,19(s0)
    1748:	20530607 	addi	s3,v0,1543
    174c:	07fb0000 	0x7fb0000
    1750:	001c6206 	0x1c6206
    1754:	0607fc00 	0x607fc00
    1758:	0000172f 	0x172f
    175c:	3c0607fd 	lui	a2,0x7fd
    1760:	fe00001f 	sdc3	$0,31(s0)
    1764:	22170607 	addi	s7,s0,1543
    1768:	07ff0000 	synci	0(ra)
    176c:	0014d006 	srlv	k0,s4,zero
    1770:	06088000 	tgei	s0,-32768
    1774:	00001b88 	0x1b88
    1778:	7f060fd0 	mulq_rs.ph	at,t8,a2
    177c:	d100000f 	0xd100000f
    1780:	1448060f 	bne	v0,t0,2fc0 <_init-0x52ffd040>
    1784:	0fd20000 	jal	f480000 <_init-0x43b80000>
    1788:	0011b806 	srlv	s7,s1,zero
    178c:	060fd300 	0x60fd300
    1790:	00001826 	xor	v1,zero,zero
    1794:	1f060fd4 	0x1f060fd4
    1798:	d5000020 	ldc1	$f0,32(t0)
    179c:	16d2060f 	bne	s6,s2,2fdc <_init-0x52ffd024>
    17a0:	0fd60000 	jal	f580000 <_init-0x43a80000>
    17a4:	000fe006 	srlv	gp,t7,zero
    17a8:	060fd700 	0x60fd700
    17ac:	000010c0 	sll	v0,zero,0x3
    17b0:	d7060fd8 	ldc1	$f6,4056(t8)
    17b4:	d9000015 	ldc2	$0,21(t0)
    17b8:	0f05060f 	jal	c14183c <_init-0x46ebe7c4>
    17bc:	0fda0000 	jal	f680000 <_init-0x43980000>
    17c0:	000f4306 	0xf4306
    17c4:	060fdb00 	0x60fdb00
    17c8:	000020b2 	tlt	zero,zero,0x82
    17cc:	3e060fdc 	0x3e060fdc
    17d0:	dd00001c 	ldc3	$0,28(t0)
    17d4:	16e5060f 	bne	s7,a1,3014 <_init-0x52ffcfec>
    17d8:	0fde0000 	jal	f780000 <_init-0x43880000>
    17dc:	001d4106 	0x1d4106
    17e0:	060fdf00 	0x60fdf00
    17e4:	00001917 	0x1917
    17e8:	85060fe0 	lh	a2,4064(t0)
    17ec:	e1000016 	sc	zero,22(t0)
    17f0:	131f060f 	beq	t8,ra,3030 <_init-0x52ffcfd0>
    17f4:	0fe20000 	jal	f880000 <_init-0x43780000>
    17f8:	001d6e06 	0x1d6e06
    17fc:	060fe300 	0x60fe300
    1800:	0000124f 	0x124f
    1804:	22060fe4 	addi	a2,s0,4068
    1808:	b8000012 	swr	zero,18(zero)
    180c:	21330617 	addi	s3,t1,1559
    1810:	1fa00000 	bgtz	sp,1814 <_init-0x52ffe7ec>
    1814:	000fa206 	0xfa206
    1818:	061fa100 	synci	-24320(s0)
    181c:	00000df1 	tgeu	zero,zero,0x37
    1820:	46061fa2 	c1	0x61fa2
    1824:	a3000018 	sb	zero,24(t8)
    1828:	195e061f 	0x195e061f
    182c:	1fa40000 	0x1fa40000
    1830:	001ce806 	srlv	sp,gp,zero
    1834:	061fa500 	synci	-23296(s0)
    1838:	00001d12 	0x1d12
    183c:	c7061fa6 	lwc1	$f6,8102(t8)
    1840:	a700000e 	sh	zero,14(t8)
    1844:	1f22061f 	0x1f22061f
    1848:	1fa80000 	0x1fa80000
    184c:	0018b906 	0x18b906
    1850:	061fa900 	synci	-22272(s0)
    1854:	00001aa7 	0x1aa7
    1858:	7e061faa 	0x7e061faa
    185c:	ab00001e 	swl	zero,30(t8)
    1860:	11ee061f 	beq	t7,t6,30e0 <_init-0x52ffcf20>
    1864:	1fac0000 	0x1fac0000
    1868:	0012b006 	srlv	s6,s2,zero
    186c:	061fad00 	synci	-21248(s0)
    1870:	000016bb 	0x16bb
    1874:	33061fae 	andi	a2,t8,0x1fae
    1878:	af000018 	sw	zero,24(t8)
    187c:	1bb6061f 	0x1bb6061f
    1880:	1fb00000 	0x1fb00000
    1884:	00178006 	srlv	s0,s7,zero
    1888:	061fb100 	synci	-20224(s0)
    188c:	00001667 	0x1667
    1890:	43061fb2 	c0	0x1061fb2
    1894:	b3000021 	0xb3000021
    1898:	1184061f 	beq	t4,a0,3118 <_init-0x52ffcee8>
    189c:	1fb40000 	0x1fb40000
    18a0:	001b6906 	0x1b6906
    18a4:	061fb500 	synci	-19200(s0)
    18a8:	000014ae 	0x14ae
    18ac:	f3061fb6 	0xf3061fb6
    18b0:	b700001e 	0xb700001e
    18b4:	19bb061f 	0x19bb061f
    18b8:	1fb80000 	0x1fb80000
    18bc:	00130506 	0x130506
    18c0:	061fb900 	synci	-18176(s0)
    18c4:	0000188c 	syscall	0x62
    18c8:	8e061fba 	lw	a2,8122(s0)
    18cc:	bb000022 	swr	zero,34(t8)
    18d0:	17aa061f 	bne	sp,t2,3150 <_init-0x52ffceb0>
    18d4:	1fbc0000 	0x1fbc0000
    18d8:	0018ac06 	0x18ac06
    18dc:	06278800 	0x6278800
    18e0:	00001b48 	0x1b48
    18e4:	e1062789 	sc	a2,10121(t0)
    18e8:	8a00001a 	lwl	zero,26(s0)
    18ec:	141f0627 	bne	zero,ra,318c <_init-0x52ffce74>
    18f0:	278b0000 	addiu	t3,gp,0
    18f4:	00176206 	0x176206
    18f8:	06278c00 	0x6278c00
    18fc:	00002065 	0x2065
    1900:	4106278d 	0x4106278d
    1904:	8e000011 	lw	zero,17(s0)
    1908:	1ac20627 	0x1ac20627
    190c:	278f0000 	addiu	t7,gp,0
    1910:	00209506 	0x209506
    1914:	06279000 	0x6279000
    1918:	00001991 	0x1991
    191c:	b6062791 	0xb6062791
    1920:	9200000f 	lbu	zero,15(s0)
    1924:	0e690627 	jal	9a4189c <_init-0x495be764>
    1928:	27930000 	addiu	s3,gp,0
    192c:	00186506 	0x186506
    1930:	06279400 	0x6279400
    1934:	00001a45 	0x1a45
    1938:	3b062795 	xori	a2,t8,0x2795
    193c:	96000013 	lhu	zero,19(s0)
    1940:	120c0627 	beq	s0,t4,31e0 <_init-0x52ffce20>
    1944:	27970000 	addiu	s7,gp,0
    1948:	001a9106 	0x1a9106
    194c:	06279800 	0x6279800
    1950:	00000dda 	0xdda
    1954:	5b062799 	0x5b062799
    1958:	9a000021 	lwr	zero,33(s0)
    195c:	22010627 	addi	at,s0,1575
    1960:	279b0000 	addiu	k1,gp,0
    1964:	001e2e06 	0x1e2e06
    1968:	06279c00 	0x6279c00
    196c:	00002198 	0x2198
    1970:	a506279d 	sh	a2,10141(t0)
    1974:	9e000010 	0x9e000010
    1978:	18e60627 	0x18e60627
    197c:	279f0000 	addiu	ra,gp,0
    1980:	00159106 	0x159106
    1984:	0627a000 	0x627a000
    1988:	00000e3b 	0xe3b
    198c:	820627a1 	lb	a2,10145(s0)
    1990:	a2000021 	sb	zero,33(s0)
    1994:	0e1f0627 	jal	87c189c <_init-0x4a83e764>
    1998:	27a30000 	addiu	v1,sp,0
    199c:	000eaa06 	0xeaa06
    19a0:	0627a400 	0x627a400
    19a4:	0000150b 	0x150b
    19a8:	d40627a5 	ldc1	$f6,10149(zero)
    19ac:	a6000017 	sh	zero,23(s0)
    19b0:	15e20627 	bne	t7,v0,3250 <_init-0x52ffcdb0>
    19b4:	27a70000 	addiu	a3,sp,0
    19b8:	0018ab06 	0x18ab06
    19bc:	0636d800 	0x636d800
    19c0:	00001bd1 	0x1bd1
    19c4:	cd0636d9 	pref	0x6,14041(t0)
    19c8:	da000011 	ldc2	$0,17(s0)
    19cc:	180b0636 	0x180b0636
    19d0:	36db0000 	ori	k1,s6,0x0
    19d4:	0021c306 	0x21c306
    19d8:	0636dc00 	0x636dc00
    19dc:	0000128f 	0x128f
    19e0:	150636dd 	bne	t0,a2,f558 <_init-0x52ff0aa8>
    19e4:	de00001e 	ldc3	$0,30(s0)
    19e8:	19010636 	0x19010636
    19ec:	36df0000 	ori	ra,s6,0x0
    19f0:	00174706 	0x174706
    19f4:	0636e000 	0x636e000
    19f8:	000019e4 	0x19e4
    19fc:	100636e1 	beq	zero,a2,f584 <_init-0x52ff0a7c>
    1a00:	e2000016 	sc	zero,22(s0)
    1a04:	0e090636 	jal	82418d8 <_init-0x4adbe728>
    1a08:	36e30000 	ori	v1,s7,0x0
    1a0c:	001cc906 	0x1cc906
    1a10:	0636e400 	0x636e400
    1a14:	00001714 	0x1714
    1a18:	970636e5 	lhu	a2,14053(t8)
    1a1c:	e6000011 	swc1	$f0,17(s0)
    1a20:	0f520636 	jal	d4818d8 <_init-0x45b7e728>
    1a24:	36e70000 	ori	a3,s7,0x0
    1a28:	0019ff06 	0x19ff06
    1a2c:	0636e800 	0x636e800
    1a30:	00001dfa 	0x1dfa
    1a34:	620636e9 	0x620636e9
    1a38:	ea00001a 	swc2	$0,26(s0)
    1a3c:	12a50636 	beq	s5,a1,3318 <_init-0x52ffcce8>
    1a40:	3ec00000 	0x3ec00000
    1a44:	00192906 	0x192906
    1a48:	063ec100 	0x63ec100
    1a4c:	00002173 	tltu	zero,zero,0x85
    1a50:	c6063ec2 	lwc1	$f6,16066(s0)
    1a54:	a800001d 	swl	zero,29(zero)
    1a58:	680600c6 	0x680600c6
    1a5c:	a9000011 	swl	zero,17(t0)
    1a60:	070000c6 	bltz	t8,1d7c <_init-0x52ffe284>
    1a64:	000015c7 	0x15c7
    1a68:	0322ce13 	0x322ce13
    1a6c:	39150000 	xori	s5,t0,0x0
    1a70:	08000007 	j	1c <_init-0x52ffffe4>
    1a74:	11dd1304 	beq	t6,sp,6688 <_init-0x52ff9978>
    1a78:	000001a5 	0x1a5
    1a7c:	06f9d813 	0x6f9d813
    1a80:	23020000 	addi	v0,t8,0
    1a84:	1c5a1100 	0x1c5a1100
    1a88:	da130000 	ldc2	$19,0(s0)
    1a8c:	00000165 	0x165
    1a90:	11042302 	beq	t0,a0,a69c <_init-0x52ff5964>
    1a94:	00001fac 	0x1fac
    1a98:	007edc13 	0x7edc13
    1a9c:	23030000 	addi	v1,t8,0
    1aa0:	07000884 	bltz	t8,3cb4 <_init-0x52ffc34c>
    1aa4:	000015bc 	0x15bc
    1aa8:	0704dd13 	0x704dd13
    1aac:	71050000 	madd	t0,a1
    1ab0:	04000007 	bltz	zero,1ad0 <_init-0x52ffe530>
    1ab4:	8b06e213 	lwl	a2,-7661(t8)
    1ab8:	00000010 	mfhi	zero
    1abc:	00225e06 	0x225e06
    1ac0:	37060100 	ori	a2,t8,0x100
    1ac4:	02000014 	0x2000014
    1ac8:	00156006 	srlv	t4,s5,zero
    1acc:	1b060300 	0x1b060300
    1ad0:	0400001c 	bltz	zero,1b44 <_init-0x52ffe4bc>
    1ad4:	0013e806 	srlv	sp,s3,zero
    1ad8:	07000500 	bltz	t8,2edc <_init-0x52ffd124>
    1adc:	00001de9 	0x1de9
    1ae0:	0744ed13 	0x744ed13
    1ae4:	a2150000 	sb	s5,0(s0)
    1ae8:	04000007 	bltz	zero,1b08 <_init-0x52ffe4f8>
    1aec:	11fb1304 	beq	t7,k1,6700 <_init-0x52ff9900>
    1af0:	000001a5 	0x1a5
    1af4:	0771f813 	bgezal	k1,fffffb44 <app_icon2_data+0xacffa828>
    1af8:	23020000 	addi	v0,t8,0
    1afc:	1c5a1100 	0x1c5a1100
    1b00:	fa130000 	sdc2	$19,0(s0)
    1b04:	00000165 	0x165
    1b08:	00042302 	srl	a0,a0,0xc
    1b0c:	00228207 	0x228207
    1b10:	7cfb1300 	ext	k1,a3,0xc,0x3
    1b14:	05000007 	bltz	t0,1b34 <_init-0x52ffe4cc>
    1b18:	000007ff 	0x7ff
    1b1c:	061b1104 	0x61b1104
    1b20:	000015ae 	0x15ae
    1b24:	21f30600 	addi	s3,t7,1536
    1b28:	80800000 	lb	zero,0(a0)
    1b2c:	06028080 	bltzl	s0,fffe1d30 <app_icon2_data+0xacfdca14>
    1b30:	00001ba8 	0x1ba8
    1b34:	80808080 	lb	zero,-32640(a0)
    1b38:	1da70601 	0x1da70601
    1b3c:	80800000 	lb	zero,0(a0)
    1b40:	0600c080 	bltz	s0,ffff1d44 <app_icon2_data+0xacfeca28>
    1b44:	00002083 	sra	a0,zero,0x2
    1b48:	20808080 	addi	zero,a0,-32640
    1b4c:	001d5d06 	0x1d5d06
    1b50:	80808000 	lb	zero,-32768(a0)
    1b54:	1b0a0610 	0x1b0a0610
    1b58:	80800000 	lb	zero,0(a0)
    1b5c:	53060880 	beql	t8,a2,3d60 <_init-0x52ffc2a0>
    1b60:	80000015 	lb	zero,21(zero)
    1b64:	03f88080 	0x3f88080
    1b68:	1fd10700 	0x1fd10700
    1b6c:	25110000 	addiu	s1,t0,0
    1b70:	000007ad 	0x7ad
    1b74:	00082f10 	0x82f10
    1b78:	2c110800 	sltiu	s1,zero,2048
    1b7c:	6c617616 	0x6c617616
    1b80:	172a1100 	bne	t9,t2,5f84 <_init-0x52ffa07c>
    1b84:	02000003 	0x2000003
    1b88:	a5110023 	sh	s1,35(t0)
    1b8c:	11000001 	beqz	t0,1b94 <_init-0x52ffe46c>
    1b90:	0007ff2b 	0x7ff2b
    1b94:	04230200 	bgezl	at,2398 <_init-0x52ffdc68>
    1b98:	0f730700 	jal	dcc1c00 <_init-0x4533e400>
    1b9c:	2c110000 	sltiu	s1,zero,0
    1ba0:	0000080a 	movz	at,zero,zero
    1ba4:	07390404 	0x7390404
    1ba8:	77170000 	jalx	c5c0000 <_init-0x46a40000>
    1bac:	f7000008 	sdc1	$f0,8(t8)
    1bb0:	0c000008 	jal	20 <_init-0x52ffffe0>
    1bb4:	41113f0a 	0x41113f0a
    1bb8:	0a000019 	j	8000064 <_init-0x4affff9c>
    1bbc:	00006940 	sll	t5,zero,0x5
    1bc0:	00230200 	0x230200
    1bc4:	6d757316 	0x6d757316
    1bc8:	3c420a00 	0x3c420a00
    1bcc:	02000000 	0x2000000
    1bd0:	85110423 	lh	s1,1059(t0)
    1bd4:	0a000001 	j	8000004 <_init-0x4afffffc>
    1bd8:	00015f44 	0x15f44
    1bdc:	08230200 	j	8c0800 <_init-0x5273f800>
    1be0:	08ff0700 	j	3fc1c00 <_init-0x4f03e400>
    1be4:	460a0000 	add.s	$f0,$f0,$f10
    1be8:	00000840 	sll	at,zero,0x1
    1bec:	0008b817 	0x8b817
    1bf0:	0009c600 	sll	t8,t1,0x18
    1bf4:	530a0900 	beql	t8,t2,3ff8 <_init-0x52ffc008>
    1bf8:	0001a511 	0x1a511
    1bfc:	25550a00 	addiu	s5,t2,2560
    1c00:	02000000 	0x2000000
    1c04:	69160023 	0x69160023
    1c08:	570a0064 	bnel	t8,t2,1d9c <_init-0x52ffe264>
    1c0c:	0000003c 	0x3c
    1c10:	11012302 	beq	t0,at,a81c <_init-0x52ff57e4>
    1c14:	00000082 	srl	zero,zero,0x2
    1c18:	0043590a 	0x43590a
    1c1c:	23020000 	addi	v0,t8,0
    1c20:	29070005 	slti	a3,t0,5
    1c24:	0a000001 	j	8000004 <_init-0x4afffffc>
    1c28:	0008825b 	0x8825b
    1c2c:	092a1000 	j	4a84000 <_init-0x4e57c000>
    1c30:	0a140000 	j	8500000 <_init-0x4ab00000>
    1c34:	02dc11f1 	tgeu	s6,gp,0x47
    1c38:	e90a0000 	swc2	$10,0(t0)
    1c3c:	000008b8 	0x8b8
    1c40:	16002302 	bnez	s0,a84c <_init-0x52ff57b4>
    1c44:	ea0a0078 	swc2	$10,120(s0)
    1c48:	00000097 	0x97
    1c4c:	16092302 	bne	s0,t1,a858 <_init-0x52ff57a8>
    1c50:	eb0a0079 	swc2	$10,121(t8)
    1c54:	00000097 	0x97
    1c58:	110b2302 	beq	t0,t3,a864 <_init-0x52ff579c>
    1c5c:	00000c52 	0xc52
    1c60:	0097ec0a 	0x97ec0a
    1c64:	23020000 	addi	v0,t8,0
    1c68:	07f1110d 	bgezal	ra,60a0 <_init-0x52ff9f60>
    1c6c:	ed0a0000 	swc3	$10,0(t0)
    1c70:	00000097 	0x97
    1c74:	110f2302 	beq	t0,t7,a880 <_init-0x52ff5780>
    1c78:	00000552 	0x552
    1c7c:	0025ee0a 	0x25ee0a
    1c80:	23020000 	addi	v0,t8,0
    1c84:	064c1111 	teqi	s2,4369
    1c88:	ef0a0000 	swc3	$10,0(t8)
    1c8c:	0000002e 	0x2e
    1c90:	00122302 	srl	a0,s2,0xc
    1c94:	00012107 	0x12107
    1c98:	c3f10a00 	ll	s1,2560(ra)
    1c9c:	09000008 	j	4000020 <_init-0x4effffe0>
    1ca0:	000009ec 	0x9ec
    1ca4:	01130a29 	0x1130a29
    1ca8:	0a007816 	j	801e058 <_init-0x4afe1fa8>
    1cac:	000097fa 	0x97fa
    1cb0:	00230200 	0x230200
    1cb4:	0a007916 	j	801e458 <_init-0x4afe1ba8>
    1cb8:	000097fc 	0x97fc
    1cbc:	02230200 	0x2230200
    1cc0:	000c5211 	0xc5211
    1cc4:	97fe0a00 	lhu	s8,2560(ra)
    1cc8:	02000000 	0x2000000
    1ccc:	f1180423 	0xf1180423
    1cd0:	0a000007 	j	800001c <_init-0x4affffe4>
    1cd4:	00970100 	0x970100
    1cd8:	23020000 	addi	v0,t8,0
    1cdc:	07901806 	bltzal	gp,7cf8 <_init-0x52ff8308>
    1ce0:	020a0000 	0x20a0000
    1ce4:	00003c01 	0x3c01
    1ce8:	08230200 	j	8c0800 <_init-0x5273f800>
    1cec:	00055218 	0x55218
    1cf0:	01040a00 	0x1040a00
    1cf4:	00000025 	move	zero,zero
    1cf8:	180c2302 	0x180c2302
    1cfc:	000003e5 	0x3e5
    1d00:	2501060a 	addiu	at,t0,1546
    1d04:	02000000 	0x2000000
    1d08:	d3180d23 	0xd3180d23
    1d0c:	0a00000a 	j	8000028 <_init-0x4affffd8>
    1d10:	002e0108 	0x2e0108
    1d14:	23020000 	addi	v0,t8,0
    1d18:	08cc180e 	j	3306038 <_init-0x4fcf9fc8>
    1d1c:	0b0a0000 	j	c280000 <_init-0x46d80000>
    1d20:	00003c01 	0x3c01
    1d24:	10230200 	beq	at,v1,2528 <_init-0x52ffdad8>
    1d28:	00007c18 	0x7c18
    1d2c:	010d0a00 	0x10d0a00
    1d30:	0000003c 	0x3c
    1d34:	18142302 	0x18142302
    1d38:	0000033c 	0x33c
    1d3c:	25010f0a 	addiu	at,t0,3850
    1d40:	02000000 	0x2000000
    1d44:	4d181823 	0x4d181823
    1d48:	0a000005 	j	8000014 <_init-0x4affffec>
    1d4c:	00e40111 	0xe40111
    1d50:	23020000 	addi	v0,t8,0
    1d54:	be0b0019 	cache	0xb,25(s0)
    1d58:	0a000009 	j	8000024 <_init-0x4affffdc>
    1d5c:	09350113 	j	4d4044c <_init-0x4e2bfbb4>
    1d60:	04040000 	0x4040000
    1d64:	00000877 	0x877
    1d68:	09ec0404 	j	7b01010 <_init-0x4b4feff0>
    1d6c:	25050000 	addiu	a1,t0,0
    1d70:	0400000a 	bltz	zero,1d9c <_init-0x52ffe264>
    1d74:	0006300e 	0x6300e
    1d78:	0000001c 	0x1c
    1d7c:	0018d306 	0x18d306
    1d80:	ff060100 	sdc3	$6,256(t8)
    1d84:	0200001a 	div	zero,s0,zero
    1d88:	0019af06 	0x19af06
    1d8c:	07000300 	bltz	t8,2990 <_init-0x52ffd670>
    1d90:	00002010 	mfhi	a0
    1d94:	0a04350e 	j	810d438 <_init-0x4aef2bc8>
    1d98:	ab050000 	swl	a1,0(t8)
    1d9c:	0400000a 	bltz	zero,1dc8 <_init-0x52ffe238>
    1da0:	33061e0d 	andi	a2,t8,0x1e0d
    1da4:	0000001d 	0x1d
    1da8:	00169f06 	0x169f06
    1dac:	01060100 	0x1060100
    1db0:	02000016 	0x2000016
    1db4:	000ee206 	0xee206
    1db8:	23060300 	addi	a2,t8,768
    1dbc:	04000011 	bltz	zero,1e04 <_init-0x52ffe1fc>
    1dc0:	00123e06 	0x123e06
    1dc4:	14060500 	bne	zero,a2,31c8 <_init-0x52ffce38>
    1dc8:	0600001f 	bltz	s0,1e48 <_init-0x52ffe1b8>
    1dcc:	0013b406 	0x13b406
    1dd0:	90060700 	lbu	a2,1792(zero)
    1dd4:	0800001d 	j	74 <_init-0x52ffff8c>
    1dd8:	00204606 	0x204606
    1ddc:	92060900 	lbu	a2,2304(s0)
    1de0:	0a000013 	j	800004c <_init-0x4affffb4>
    1de4:	001bee06 	0x1bee06
    1de8:	ba060b00 	swr	a2,2816(s0)
    1dec:	0c00001d 	jal	74 <_init-0x52ffff8c>
    1df0:	001d0706 	0x1d0706
    1df4:	ff060d00 	sdc3	$6,3328(t8)
    1df8:	0e000014 	jal	8000050 <_init-0x4affffb0>
    1dfc:	001b3a06 	0x1b3a06
    1e00:	cf060f00 	pref	0x6,3840(t8)
    1e04:	1000000d 	b	1e3c <_init-0x52ffe1c4>
    1e08:	00187f06 	0x187f06
    1e0c:	ee061100 	swc3	$6,4352(s0)
    1e10:	1200001f 	beqz	s0,1e90 <_init-0x52ffe170>
    1e14:	19d60700 	0x19d60700
    1e18:	490d0000 	bc2t	$cc3,1e1c <_init-0x52ffe1e4>
    1e1c:	00000a30 	tge	zero,zero,0x28
    1e20:	000adb10 	0xadb10
    1e24:	670d0800 	0x670d0800
    1e28:	00053d11 	0x53d11
    1e2c:	ab650d00 	swl	a1,3328(k1)
    1e30:	0200000a 	movz	zero,s0,zero
    1e34:	89110023 	lwl	s1,35(t0)
    1e38:	0d00001d 	jal	4000074 <_init-0x4effff8c>
    1e3c:	000a2566 	0xa2566
    1e40:	04230200 	bgezl	at,2644 <_init-0x52ffd9bc>
    1e44:	16ab0700 	bne	s5,t3,3a48 <_init-0x52ffc5b8>
    1e48:	670d0000 	0x670d0000
    1e4c:	00000ab6 	tne	zero,zero,0x2a
    1e50:	000b0705 	0xb0705
    1e54:	21070400 	addi	a3,t0,1024
    1e58:	000abf06 	0xabf06
    1e5c:	5e060000 	0x5e060000
    1e60:	01000007 	srav	zero,zero,t0
    1e64:	0003c006 	srlv	t8,v1,zero
    1e68:	41060200 	0x41060200
    1e6c:	0300000c 	syscall	0xc0000
    1e70:	0c7c0700 	jal	1f01c00 <_init-0x510fe400>
    1e74:	26070000 	addiu	a3,s0,0
    1e78:	00000ae6 	0xae6
    1e7c:	000b2105 	0xb2105
    1e80:	2e070400 	sltiu	a3,s0,1024
    1e84:	000a5506 	0xa5506
    1e88:	07000000 	bltz	t8,1e8c <_init-0x52ffe174>
    1e8c:	000004a4 	0x4a4
    1e90:	0b123007 	j	c48c01c <_init-0x46b73fe4>
    1e94:	5f100000 	0x5f100000
    1e98:	0800000b 	j	2c <_init-0x52ffffd4>
    1e9c:	a5115407 	sh	s1,21511(t0)
    1ea0:	07000001 	bltz	t8,1ea8 <_init-0x52ffe158>
    1ea4:	000b074f 	0xb074f
    1ea8:	00230200 	0x230200
    1eac:	00056e11 	0x56e11
    1eb0:	2e510700 	sltiu	s1,s2,1792
    1eb4:	02000000 	0x2000000
    1eb8:	65110423 	0x65110423
    1ebc:	07000009 	bltz	t8,1ee4 <_init-0x52ffe11c>
    1ec0:	00002e53 	0x2e53
    1ec4:	06230200 	bgezl	s1,26c8 <_init-0x52ffd938>
    1ec8:	14640700 	bne	v1,a0,3acc <_init-0x52ffc534>
    1ecc:	54070000 	bnel	zero,a3,1ed0 <_init-0x52ffe130>
    1ed0:	00000b2c 	0xb2c
    1ed4:	000bdf17 	0xbdf17
    1ed8:	000cfc00 	sll	ra,t4,0x10
    1edc:	5c071800 	0x5c071800
    1ee0:	0001a511 	0x1a511
    1ee4:	075e0700 	0x75e0700
    1ee8:	0200000b 	movn	zero,s0,zero
    1eec:	6e110023 	0x6e110023
    1ef0:	07000005 	bltz	t8,1f08 <_init-0x52ffe0f8>
    1ef4:	00002e60 	0x2e60
    1ef8:	04230200 	bgezl	at,26fc <_init-0x52ffd904>
    1efc:	00096511 	0x96511
    1f00:	2e620700 	sltiu	v0,s3,1792
    1f04:	02000000 	0x2000000
    1f08:	de110623 	ldc3	$17,1571(s0)
    1f0c:	07000000 	bltz	t8,1f10 <_init-0x52ffe0f0>
    1f10:	0000de64 	0xde64
    1f14:	08230200 	j	8c0800 <_init-0x5273f800>
    1f18:	000f2411 	0xf2411
    1f1c:	f6670700 	sdc1	$f7,1792(s3)
    1f20:	0200000b 	movn	zero,s0,zero
    1f24:	37110c23 	ori	s1,t8,0xc23
    1f28:	0700000a 	bltz	t8,1f54 <_init-0x52ffe0ac>
    1f2c:	0000696a 	0x696a
    1f30:	10230200 	beq	at,v1,2734 <_init-0x52ffd8cc>
    1f34:	00084e19 	0x84e19
    1f38:	64110100 	0x64110100
    1f3c:	07000000 	bltz	t8,1f40 <_init-0x52ffe0c0>
    1f40:	000bfc6d 	0xbfc6d
    1f44:	14230200 	bne	at,v1,2748 <_init-0x52ffd8b8>
    1f48:	0bf01a00 	j	fc06800 <_init-0x433f9800>
    1f4c:	1b010000 	0x1b010000
    1f50:	00000bf0 	tge	zero,zero,0x2f
    1f54:	000b211b 	0xb211b
    1f58:	04040000 	0x4040000
    1f5c:	00000b6a 	0xb6a
    1f60:	0bdf0404 	j	f7c1010 <_init-0x4383eff0>
    1f64:	04040000 	0x4040000
    1f68:	00000bca 	0xbca
    1f6c:	000d0607 	0xd0607
    1f70:	6a6e0700 	0x6a6e0700
    1f74:	0400000b 	bltz	zero,1fa4 <_init-0x52ffe05c>
    1f78:	000c0204 	0xc0204
    1f7c:	10f80700 	beq	a3,t8,3b80 <_init-0x52ffc480>
    1f80:	21040000 	addi	a0,t0,0
    1f84:	00000c1e 	0xc1e
    1f88:	0c240404 	jal	901010 <_init-0x526feff0>
    1f8c:	391c0000 	xori	gp,t0,0x0
    1f90:	0100000c 	syscall	0x40000
    1f94:	00000069 	0x69
    1f98:	00002c1b 	0x2c1b
    1f9c:	00691b00 	0x691b00
    1fa0:	17000000 	bnez	t8,1fa4 <_init-0x52ffe05c>
    1fa4:	00000cc4 	0xcc4
    1fa8:	00001b1b 	0x1b1b
    1fac:	11280424 	beq	t1,t0,3040 <_init-0x52ffcfc0>
    1fb0:	00001f6a 	0x1f6a
    1fb4:	00692a04 	0x692a04
    1fb8:	23020000 	addi	v0,t8,0
    1fbc:	1f6c1100 	0x1f6c1100
    1fc0:	2d040000 	sltiu	a0,t0,0
    1fc4:	00000069 	0x69
    1fc8:	11042302 	beq	t0,a0,abd4 <_init-0x52ff542c>
    1fcc:	000021e4 	0x21e4
    1fd0:	00693004 	sllv	a2,t1,v1
    1fd4:	23020000 	addi	v0,t8,0
    1fd8:	12021108 	beq	s0,v0,63fc <_init-0x52ff9c04>
    1fdc:	33040000 	andi	a0,t8,0x0
    1fe0:	0000005e 	0x5e
    1fe4:	110c2302 	beq	t0,t4,abf0 <_init-0x52ff5410>
    1fe8:	00000f24 	0xf24
    1fec:	0c133604 	jal	4cd810 <_init-0x52b327f0>
    1ff0:	23020000 	addi	v0,t8,0
    1ff4:	1b9c1110 	0x1b9c1110
    1ff8:	39040000 	xori	a0,t0,0x0
    1ffc:	000000de 	0xde
    2000:	11142302 	beq	t0,s4,ac0c <_init-0x52ff53f4>
    2004:	00001135 	0x1135
    2008:	00de3c04 	0xde3c04
    200c:	23020000 	addi	v0,t8,0
    2010:	113b1118 	beq	t1,k1,6474 <_init-0x52ff9b8c>
    2014:	3f040000 	0x3f040000
    2018:	000000de 	0xde
    201c:	111c2302 	beq	t0,gp,ac28 <_init-0x52ff53d8>
    2020:	0000109e 	0x109e
    2024:	0cc44204 	jal	3110810 <_init-0x4feef7f0>
    2028:	23020000 	addi	v0,t8,0
    202c:	04040020 	0x4040020
    2030:	000001c2 	srl	zero,zero,0x7
    2034:	001e6007 	srav	t4,s8,zero
    2038:	39440400 	xori	a0,t2,0x400
    203c:	0700000c 	bltz	t8,2070 <_init-0x52ffdf90>
    2040:	00000564 	0x564
    2044:	0c1e4a04 	jal	792810 <_init-0x5286d7f0>
    2048:	55170000 	bnel	t0,s7,204c <_init-0x52ffdfb4>
    204c:	ff00000d 	sdc3	$0,13(t8)
    2050:	1c00000a 	bgtz	zero,207c <_init-0x52ffdf84>
    2054:	82115104 	lb	s1,20740(s0)
    2058:	04000000 	bltz	zero,205c <_init-0x52ffdfa4>
    205c:	00006953 	0x6953
    2060:	00230200 	0x230200
    2064:	000bdd11 	0xbdd11
    2068:	69560400 	0x69560400
    206c:	02000000 	0x2000000
    2070:	0b110423 	j	c44108c <_init-0x46bbef74>
    2074:	0400000c 	bltz	zero,20a8 <_init-0x52ffdf58>
    2078:	00006959 	0x6959
    207c:	08230200 	j	8c0800 <_init-0x5273f800>
    2080:	000b5f11 	0xb5f11
    2084:	695c0400 	0x695c0400
    2088:	02000000 	0x2000000
    208c:	59110c23 	0x59110c23
    2090:	04000009 	bltz	zero,20b8 <_init-0x52ffdf48>
    2094:	0000695f 	0x695f
    2098:	10230200 	beq	at,v1,289c <_init-0x52ffd764>
    209c:	000f2411 	0xf2411
    20a0:	d5620400 	ldc1	$f2,1024(t3)
    20a4:	0200000c 	syscall	0x80000
    20a8:	f9191423 	sdc2	$25,5155(t0)
    20ac:	01000002 	0x1000002
    20b0:	00057511 	0x57511
    20b4:	55650400 	bnel	t3,a1,30b8 <_init-0x52ffcf48>
    20b8:	0200000d 	break	0x200
    20bc:	04001823 	bltz	zero,814c <_init-0x52ff7eb4>
    20c0:	000d4004 	sllv	t0,t5,zero
    20c4:	0b060700 	j	c181c00 <_init-0x46e7e400>
    20c8:	67040000 	0x67040000
    20cc:	00000ce0 	0xce0
    20d0:	000db705 	0xdb705
    20d4:	300b0400 	andi	t3,zero,0x400
    20d8:	00003006 	srlv	a2,zero,zero
    20dc:	53060000 	beql	t8,a2,20e0 <_init-0x52ffdf20>
    20e0:	0100000d 	break	0x100
    20e4:	000bf406 	0xbf406
    20e8:	a0060200 	sb	a2,512(zero)
    20ec:	0300000a 	movz	zero,t8,zero
    20f0:	0001b006 	srlv	s6,at,zero
    20f4:	f9060400 	sdc2	$6,1024(t0)
    20f8:	05000004 	bltz	t0,210c <_init-0x52ffdef4>
    20fc:	0006a806 	srlv	s5,a2,zero
    2100:	f8060600 	sdc2	$6,1536(zero)
    2104:	07000007 	bltz	t8,2124 <_init-0x52ffdedc>
    2108:	0007bb06 	0x7bb06
    210c:	34060800 	li	a2,0x800
    2110:	09000001 	j	4000004 <_init-0x4efffffc>
    2114:	00097206 	0x97206
    2118:	df060a00 	ldc3	$6,2560(t8)
    211c:	0b000007 	j	c00001c <_init-0x46ffffe4>
    2120:	03460700 	0x3460700
    2124:	3e0b0000 	0x3e0b0000
    2128:	00000d66 	0xd66
    212c:	000e0705 	0xe0705
    2130:	4e0b0400 	lwxc1	$f16,t3(s0)
    2134:	00062a06 	0x62a06
    2138:	40060000 	mfc0	a2,c0_index
    213c:	01000000 	0x1000000
    2140:	0005b806 	srlv	s7,a1,zero
    2144:	fb060200 	sdc2	$6,512(t8)
    2148:	03000006 	srlv	zero,zero,t8
    214c:	00080f06 	0x80f06
    2150:	8f060400 	lw	a2,1024(t8)
    2154:	05000009 	bltz	t0,217c <_init-0x52ffde84>
    2158:	000ae006 	srlv	gp,t2,zero
    215c:	18060600 	0x18060600
    2160:	0700000b 	bltz	t8,2190 <_init-0x52ffde70>
    2164:	000b4106 	0xb4106
    2168:	a7060800 	sh	a2,2048(t8)
    216c:	0900000c 	j	4000030 <_init-0x4effffd0>
    2170:	0d810700 	jal	6041c00 <_init-0x4cfbe400>
    2174:	5a0b0000 	0x5a0b0000
    2178:	00000dc2 	srl	at,zero,0x17
    217c:	000e6b17 	0xe6b17
    2180:	0008c100 	sll	t8,t0,0x4
    2184:	610b1400 	0x610b1400
    2188:	0001a511 	0x1a511
    218c:	b7630b00 	0xb7630b00
    2190:	0200000d 	break	0x200
    2194:	37110023 	ori	s1,t8,0x23
    2198:	0b00000a 	j	c000028 <_init-0x46ffffd8>
    219c:	00006966 	0x6966
    21a0:	04230200 	bgezl	at,29a4 <_init-0x52ffd65c>
    21a4:	000f2411 	0xf2411
    21a8:	82690b00 	lb	t1,2816(s3)
    21ac:	0200000e 	0x200000e
    21b0:	14110823 	bne	zero,s1,4240 <_init-0x52ffbdc0>
    21b4:	0b000007 	j	c00001c <_init-0x46ffffe4>
    21b8:	000e886c 	0xe886c
    21bc:	0c230200 	jal	8c0800 <_init-0x5273f800>
    21c0:	0001cf19 	0x1cf19
    21c4:	64110100 	0x64110100
    21c8:	0b000000 	j	c000000 <_init-0x47000000>
    21cc:	000e8e6f 	0xe8e6f
    21d0:	10230200 	beq	at,v1,29d4 <_init-0x52ffd62c>
    21d4:	0e7c1a00 	jal	9f06800 <_init-0x490f9800>
    21d8:	1b010000 	0x1b010000
    21dc:	00000e7c 	0xe7c
    21e0:	000e071b 	0xe071b
    21e4:	04040000 	0x4040000
    21e8:	00000e12 	0xe12
    21ec:	0e6b0404 	jal	9ac1010 <_init-0x4953eff0>
    21f0:	04040000 	0x4040000
    21f4:	00000d5b 	0xd5b
    21f8:	0e560404 	jal	9581010 <_init-0x49a7eff0>
    21fc:	6f070000 	0x6f070000
    2200:	0b000008 	j	c000020 <_init-0x46ffffe0>
    2204:	000e1271 	tgeu	zero,t6,0x49
    2208:	94040400 	lhu	a0,1024(zero)
    220c:	1700000e 	bnez	t8,2248 <_init-0x52ffddb8>
    2210:	00000f36 	tne	zero,zero,0x3c
    2214:	0000028c 	syscall	0xa
    2218:	11210824 	beq	t1,at,42ac <_init-0x52ffbd54>
    221c:	0000030a 	0x30a
    2220:	00692208 	0x692208
    2224:	23020000 	addi	v0,t8,0
    2228:	01e21100 	0x1e21100
    222c:	23080000 	addi	t0,t8,0
    2230:	00000069 	0x69
    2234:	11042302 	beq	t0,a0,ae40 <_init-0x52ff51c0>
    2238:	000003f9 	0x3f9
    223c:	00692408 	0x692408
    2240:	23020000 	addi	v0,t8,0
    2244:	0f241108 	jal	c904420 <_init-0x466fbbe0>
    2248:	26080000 	addiu	t0,s0,0
    224c:	00000f4d 	break	0x0,0x3d
    2250:	110c2302 	beq	t0,t4,ae5c <_init-0x52ff51a4>
    2254:	00000a37 	0xa37
    2258:	00692908 	0x692908
    225c:	23020000 	addi	v0,t8,0
    2260:	02b01110 	0x2b01110
    2264:	2a080000 	slti	t0,s0,0
    2268:	00000069 	0x69
    226c:	11142302 	beq	t0,s4,ae78 <_init-0x52ff5188>
    2270:	000001a5 	0x1a5
    2274:	00692b08 	0x692b08
    2278:	23020000 	addi	v0,t8,0
    227c:	02831118 	0x2831118
    2280:	2c080000 	sltiu	t0,zero,0
    2284:	00000069 	0x69
    2288:	191c2302 	0x191c2302
    228c:	000004c6 	0x4c6
    2290:	08b41101 	j	2d04404 <_init-0x502fbbfc>
    2294:	2e080000 	sltiu	t0,s0,0
    2298:	00000f53 	0xf53
    229c:	00202302 	ror	a0,zero,0xc
    22a0:	000f471a 	0xf471a
    22a4:	471b0100 	c1	0x11b0100
    22a8:	1b00000f 	blez	t8,22e8 <_init-0x52ffdd18>
    22ac:	00000069 	0x69
    22b0:	a5040400 	sh	a0,1024(t0)
    22b4:	0400000e 	bltz	zero,22f0 <_init-0x52ffdd10>
    22b8:	000f3604 	0xf3604
    22bc:	21040400 	addi	a0,t0,1024
    22c0:	0700000f 	bltz	t8,2300 <_init-0x52ffdd00>
    22c4:	0000036f 	0x36f
    22c8:	0ea52f08 	jal	a94bc20 <_init-0x486b43e0>
    22cc:	79050000 	0x79050000
    22d0:	0400000f 	bltz	zero,2310 <_init-0x52ffdcf0>
    22d4:	79063408 	0x79063408
    22d8:	00000014 	0x14
    22dc:	000ffd06 	0xffd06
    22e0:	07000100 	bltz	t8,26e4 <_init-0x52ffd91c>
    22e4:	000020c9 	0x20c9
    22e8:	0f643908 	jal	d90e420 <_init-0x456f1be0>
    22ec:	04040000 	0x4040000
    22f0:	00000f59 	0xf59
    22f4:	000fd505 	0xfd505
    22f8:	2f060400 	sltiu	a2,t8,1024
    22fc:	00022b06 	0x22b06
    2300:	6d060000 	0x6d060000
    2304:	0100000a 	movz	zero,t0,zero
    2308:	00024e06 	0x24e06
    230c:	9b060200 	lwr	a2,512(t8)
    2310:	03000007 	srav	zero,zero,t8
    2314:	00000006 	srlv	zero,zero,zero
    2318:	89060400 	lwl	a2,1024(t0)
    231c:	05000000 	bltz	t0,2320 <_init-0x52ffdce0>
    2320:	000cc206 	0xcc206
    2324:	8e060600 	lw	a2,1536(s0)
    2328:	07000005 	bltz	t8,2340 <_init-0x52ffdcc0>
    232c:	00040306 	0x40306
    2330:	90060800 	lbu	a2,2048(zero)
    2334:	0900000b 	j	400002c <_init-0x4effffd4>
    2338:	00071e06 	0x71e06
    233c:	07000a00 	bltz	t8,4b40 <_init-0x52ffb4c0>
    2340:	00000424 	0x424
    2344:	0f8a3b06 	jal	e28ec18 <_init-0x44d713e8>
    2348:	1d170000 	0x1d170000
    234c:	45000010 	bc1f	2390 <_init-0x52ffdc70>
    2350:	0c000007 	jal	1c <_init-0x52ffffe4>
    2354:	37114206 	ori	s1,t8,0x4206
    2358:	0600000a 	bltz	s0,2384 <_init-0x52ffdc7c>
    235c:	00006944 	0x6944
    2360:	00230200 	0x230200
    2364:	000f2411 	0xf2411
    2368:	34470600 	ori	a3,v0,0x600
    236c:	02000010 	0x2000010
    2370:	e5190423 	swc1	$f25,1059(t0)
    2374:	01000006 	srlv	zero,zero,t0
    2378:	0009e811 	0x9e811
    237c:	3a4a0600 	xori	t2,s2,0x600
    2380:	02000010 	0x2000010
    2384:	1a000823 	blez	s0,4414 <_init-0x52ffbbec>
    2388:	0000102e 	0x102e
    238c:	102e1b01 	beq	at,t6,8f94 <_init-0x52ff706c>
    2390:	d51b0000 	ldc1	$f27,0(t0)
    2394:	0000000f 	sync
    2398:	0fe00404 	jal	f801010 <_init-0x437feff0>
    239c:	04040000 	0x4040000
    23a0:	0000101d 	0x101d
    23a4:	10080404 	beq	zero,t0,33b8 <_init-0x52ffcc48>
    23a8:	4e070000 	lwxc1	$f0,a3(s0)
    23ac:	06000007 	bltz	s0,23cc <_init-0x52ffdc34>
    23b0:	000fe04c 	syscall	0x3f81
    23b4:	40040400 	0x40040400
    23b8:	05000010 	bltz	t0,23fc <_init-0x52ffdc04>
    23bc:	00001072 	tlt	zero,zero,0x41
    23c0:	06110c04 	bgezal	s0,53d4 <_init-0x52ffac2c>
    23c4:	000004df 	0x4df
    23c8:	02750600 	0x2750600
    23cc:	06010000 	bgez	s0,23d0 <_init-0x52ffdc30>
    23d0:	00000c6b 	0xc6b
    23d4:	03ec0602 	0x3ec0602
    23d8:	00030000 	sll	zero,v1,0x0
    23dc:	000bb707 	0xbb707
    23e0:	51160c00 	beql	t0,s6,53e4 <_init-0x52ffac1c>
    23e4:	17000010 	bnez	t8,2428 <_init-0x52ffdbd8>
    23e8:	000010ec 	0x10ec
    23ec:	0000014b 	0x14b
    23f0:	1138033c 	beq	t1,t8,30e4 <_init-0x52ffcf1c>
    23f4:	000003ab 	0x3ab
    23f8:	00de3903 	0xde3903
    23fc:	23020000 	addi	v0,t8,0
    2400:	00d41100 	0xd41100
    2404:	3a030000 	xori	v1,s0,0x0
    2408:	00000069 	0x69
    240c:	11042302 	beq	t0,a0,b018 <_init-0x52ff4fe8>
    2410:	000001e6 	0x1e6
    2414:	10ec3b03 	beq	a3,t4,11024 <_init-0x52feefdc>
    2418:	23020000 	addi	v0,t8,0
    241c:	07191108 	0x7191108
    2420:	3d030000 	0x3d030000
    2424:	000010fc 	0x10fc
    2428:	112c2302 	beq	t1,t4,b034 <_init-0x52ff4fcc>
    242c:	0000092a 	0x92a
    2430:	10fc3e03 	beq	a3,gp,11c40 <_init-0x52fee3c0>
    2434:	23020000 	addi	v0,t8,0
    2438:	04b91130 	0x4b91130
    243c:	3f030000 	0x3f030000
    2440:	000010fc 	0x10fc
    2444:	11342302 	beq	t1,s4,b050 <_init-0x52ff4fb0>
    2448:	00001206 	0x1206
    244c:	10fc4003 	beq	a3,gp,1245c <_init-0x52fedba4>
    2450:	23020000 	addi	v0,t8,0
    2454:	fc0d0038 	sdc3	$13,56(zero)
    2458:	de000010 	ldc3	$0,16(s0)
    245c:	0e000000 	jal	8000000 <_init-0x4b000000>
    2460:	00000035 	0x35
    2464:	04040008 	0x4040008
    2468:	0000107d 	0x107d
    246c:	000a0a07 	0xa0a07
    2470:	7d410300 	ext	at,t2,0xc,0x1
    2474:	05000010 	bltz	t0,24b8 <_init-0x52ffdb48>
    2478:	0000112e 	0x112e
    247c:	061d0904 	0x61d0904
    2480:	00000334 	teq	zero,zero,0xc
    2484:	01580600 	0x1580600
    2488:	06010000 	bgez	s0,248c <_init-0x52ffdb74>
    248c:	00000be5 	0xbe5
    2490:	0d730602 	jal	5cc1808 <_init-0x4d33e7f8>
    2494:	00030000 	sll	zero,v1,0x0
    2498:	000c1107 	0xc1107
    249c:	0d220900 	jal	4882400 <_init-0x4e77dc00>
    24a0:	17000011 	bnez	t8,24e8 <_init-0x52ffdb18>
    24a4:	0000127a 	0x127a
    24a8:	000000ef 	0xef
    24ac:	11270958 	beq	t1,a3,4a10 <_init-0x52ffb5f0>
    24b0:	000001c7 	0x1c7
    24b4:	002c2809 	0x2c2809
    24b8:	23020000 	addi	v0,t8,0
    24bc:	0d681100 	jal	5a04400 <_init-0x4d5fbc00>
    24c0:	2b090000 	slti	t1,t8,0
    24c4:	0000005e 	0x5e
    24c8:	11042302 	beq	t0,a0,b0d4 <_init-0x52ff4f2c>
    24cc:	0000021a 	0x21a
    24d0:	005e2c09 	0x5e2c09
    24d4:	23020000 	addi	v0,t8,0
    24d8:	05421108 	bltzl	t2,68fc <_init-0x52ff9704>
    24dc:	2d090000 	sltiu	t1,t0,0
    24e0:	0000005e 	0x5e
    24e4:	110c2302 	beq	t0,t4,b0f0 <_init-0x52ff4f10>
    24e8:	0000057a 	0x57a
    24ec:	09f83009 	j	7e0c024 <_init-0x4b1f3fdc>
    24f0:	23020000 	addi	v0,t8,0
    24f4:	0c8b1110 	jal	22c4440 <_init-0x50d3bbc0>
    24f8:	31090000 	andi	t1,t0,0x0
    24fc:	000009f8 	0x9f8
    2500:	11142302 	beq	t0,s4,b10c <_init-0x52ff4ef4>
    2504:	000010e7 	0x10e7
    2508:	09fe3209 	j	7f8c824 <_init-0x4b0737dc>
    250c:	23020000 	addi	v0,t8,0
    2510:	09d11118 	j	7444460 <_init-0x4bbbbba0>
    2514:	33090000 	andi	t1,t8,0x0
    2518:	000009fe 	0x9fe
    251c:	111c2302 	beq	t0,gp,b128 <_init-0x52ff4ed8>
    2520:	00001236 	tne	zero,zero,0x48
    2524:	0c0d3609 	jal	34d824 <_init-0x52cb27dc>
    2528:	23020000 	addi	v0,t8,0
    252c:	07141120 	0x7141120
    2530:	37090000 	ori	t1,t8,0x0
    2534:	00000e88 	0xe88
    2538:	11242302 	beq	t1,a0,b144 <_init-0x52ff4ebc>
    253c:	00000830 	tge	zero,zero,0x20
    2540:	0e9f3809 	jal	a7ce024 <_init-0x48831fdc>
    2544:	23020000 	addi	v0,t8,0
    2548:	1fe41128 	0x1fe41128
    254c:	39090000 	xori	t1,t0,0x0
    2550:	00000f84 	0xf84
    2554:	112c2302 	beq	t1,t4,b160 <_init-0x52ff4ea0>
    2558:	000017fb 	0x17fb
    255c:	104b3a09 	beq	v0,t3,10d84 <_init-0x52fef27c>
    2560:	23020000 	addi	v0,t8,0
    2564:	07571130 	0x7571130
    2568:	3d090000 	0x3d090000
    256c:	00000069 	0x69
    2570:	16342302 	bne	s1,s4,b17c <_init-0x52ff4e84>
    2574:	00636468 	0x636468
    2578:	00693f09 	0x693f09
    257c:	23020000 	addi	v0,t8,0
    2580:	0ab71138 	j	adc44e0 <_init-0x4823bb20>
    2584:	40090000 	mfc0	t1,c0_index
    2588:	00000069 	0x69
    258c:	113c2302 	beq	t1,gp,b198 <_init-0x52ff4e68>
    2590:	000008e6 	0x8e6
    2594:	127a4209 	beq	s3,k0,12dbc <_init-0x52fed244>
    2598:	23020000 	addi	v0,t8,0
    259c:	09ed1140 	j	7b44500 <_init-0x4b4bbb00>
    25a0:	43090000 	c0	0x1090000
    25a4:	0000127a 	0x127a
    25a8:	11442302 	beq	t2,a0,b1b4 <_init-0x52ff4e4c>
    25ac:	000003b4 	teq	zero,zero,0xe
    25b0:	127a4409 	beq	s3,k0,135d8 <_init-0x52feca28>
    25b4:	23020000 	addi	v0,t8,0
    25b8:	05351148 	0x5351148
    25bc:	46090000 	add.s	$f0,$f0,$f9
    25c0:	0000112e 	0x112e
    25c4:	114c2302 	beq	t2,t4,b1d0 <_init-0x52ff4e30>
    25c8:	000009af 	0x9af
    25cc:	10724709 	beq	v1,s2,141f4 <_init-0x52febe0c>
    25d0:	23020000 	addi	v0,t8,0
    25d4:	0d2b1150 	jal	4ac4540 <_init-0x4e53bac0>
    25d8:	49090000 	bc2t	$cc2,25dc <_init-0x52ffda24>
    25dc:	00001280 	sll	v0,zero,0xa
    25e0:	00542302 	0x542302
    25e4:	11020404 	beq	t0,v0,35f8 <_init-0x52ffca08>
    25e8:	04040000 	0x4040000
    25ec:	0000092a 	0x92a
    25f0:	0000ff07 	0xff07
    25f4:	394b0900 	xori	t3,t2,0x900
    25f8:	1d000011 	bgtz	t0,2640 <_init-0x52ffd9c0>
    25fc:	000012d5 	0x12d5
    2600:	000016fc 	0x16fc
    2604:	5e01bd01 	0x5e01bd01
    2608:	bc000000 	cache	0x0,0(zero)
    260c:	44530015 	0x44530015
    2610:	01530017 	0x1530017
    2614:	00701e6d 	0x701e6d
    2618:	127abe01 	beq	s3,k0,ffff1e20 <app_icon2_data+0xacfecb04>
    261c:	60010000 	0x60010000
    2620:	001d9c1f 	0x1d9c1f
    2624:	cabf0100 	lwc2	$31,256(s5)
    2628:	0200000c 	syscall	0x80000
    262c:	af201891 	sw	zero,6289(t9)
    2630:	e5000005 	swc1	$f0,5(t0)
    2634:	01000012 	0x1000012
    2638:	40180305 	0x40180305
    263c:	0d005300 	jal	4014c00 <_init-0x4efeb400>
    2640:	000012e5 	0x12e5
    2644:	000000d9 	0xd9
    2648:	0000350e 	0x350e
    264c:	0c001700 	jal	5c00 <_init-0x52ffa400>
    2650:	000012d5 	0x12d5
    2654:	00194621 	0x194621
    2658:	01e70100 	0x1e70100
    265c:	0000005e 	0x5e
    2660:	53001744 	beqzl	t8,8374 <_init-0x52ff7c8c>
    2664:	530017c4 	beqzl	t8,8578 <_init-0x52ff7a88>
    2668:	02226d01 	0x2226d01
    266c:	01000011 	mthi	t0
    2670:	c40101f2 	lwc1	$f1,498(zero)
    2674:	f8530017 	sdc2	$19,23(v0)
    2678:	01530017 	0x1530017
    267c:	1347236d 	beq	k0,a3,b434 <_init-0x52ff4bcc>
    2680:	1e6b0000 	0x1e6b0000
    2684:	04010000 	b	2688 <_init-0x52ffd978>
    2688:	17f80101 	bne	ra,t8,2a90 <_init-0x52ffd570>
    268c:	18445300 	0x18445300
    2690:	6d015300 	0x6d015300
    2694:	0017fb24 	0x17fb24
    2698:	01030100 	0x1030100
    269c:	0000104b 	0x104b
    26a0:	a1245401 	sb	a0,21505(t1)
    26a4:	0100001b 	divu	zero,t0,zero
    26a8:	0fd50103 	jal	f54040c <_init-0x43abfbf4>
    26ac:	55010000 	bnel	t0,at,26b0 <_init-0x52ffd950>
    26b0:	13902500 	beq	gp,s0,bab4 <_init-0x52ff454c>
    26b4:	122e0000 	beq	s1,t6,26b8 <_init-0x52ffd948>
    26b8:	33010000 	andi	at,t8,0x0
    26bc:	005e0101 	0x5e0101
    26c0:	18440000 	0x18440000
    26c4:	19485300 	0x19485300
    26c8:	6d015300 	0x6d015300
    26cc:	0001a524 	0x1a524
    26d0:	01320100 	0x1320100
    26d4:	00000b07 	0xb07
    26d8:	c4265401 	lwc1	$f6,21505(at)
    26dc:	01000012 	0x1000012
    26e0:	0b5f0134 	j	d7c04d0 <_init-0x4583fb30>
    26e4:	91020000 	lbu	v0,0(t0)
    26e8:	05af2018 	0x5af2018
    26ec:	13a00000 	beqz	sp,26f0 <_init-0x52ffd910>
    26f0:	05010000 	bgez	t0,26f4 <_init-0x52ffd90c>
    26f4:	00403003 	0x403003
    26f8:	a00d0053 	sb	t5,83(zero)
    26fc:	d9000013 	ldc2	$0,19(t0)
    2700:	0e000000 	jal	8000000 <_init-0x4b000000>
    2704:	00000035 	0x35
    2708:	900c000f 	lbu	t4,15(zero)
    270c:	23000013 	addi	zero,t8,19
    2710:	000013d9 	0x13d9
    2714:	00001f52 	0x1f52
    2718:	01014a01 	0x1014a01
    271c:	53001948 	beqzl	t8,8c40 <_init-0x52ff73c0>
    2720:	53001950 	beqzl	t8,8c64 <_init-0x52ff739c>
    2724:	36246d01 	ori	a0,s1,0x6d01
    2728:	01000012 	0x1000012
    272c:	0c0d0149 	jal	340524 <_init-0x52cbfadc>
    2730:	54010000 	bnel	zero,at,2734 <_init-0x52ffd8cc>
    2734:	001ba124 	0x1ba124
    2738:	01490100 	0x1490100
    273c:	00000069 	0x69
    2740:	22005501 	addi	zero,s0,21761
    2744:	00000e9a 	0xe9a
    2748:	01014f01 	0x1014f01
    274c:	53001950 	beqzl	t8,8c90 <_init-0x52ff7370>
    2750:	530019a0 	beqzl	t8,8dd4 <_init-0x52ff722c>
    2754:	2d236d01 	sltiu	v1,t1,27905
    2758:	7d000014 	0x7d000014
    275c:	0100001a 	div	zero,t0,zero
    2760:	a0010167 	sb	at,359(zero)
    2764:	f8530019 	sdc2	$19,25(v0)
    2768:	01530019 	multu	t2,s3
    276c:	09e8246d 	j	7a091b4 <_init-0x4b5f6e4c>
    2770:	66010000 	0x66010000
    2774:	000f8401 	0xf8401
    2778:	24540100 	addiu	s4,v0,256
    277c:	00001ba1 	0x1ba1
    2780:	79016601 	0x79016601
    2784:	0100000f 	0x100000f
    2788:	142d2755 	bne	at,t5,c4e0 <_init-0x52ff3b20>
    278c:	19c80000 	0x19c80000
    2790:	19e45300 	0x19e45300
    2794:	28005300 	slti	zero,zero,21248
    2798:	00000e88 	0xe88
    279c:	01017c01 	0x1017c01
    27a0:	145d2301 	bne	v0,sp,b3a8 <_init-0x52ff4c58>
    27a4:	20310000 	addi	s1,at,0
    27a8:	be010000 	cache	0x1,0(s0)
    27ac:	19f80101 	0x19f80101
    27b0:	1ae85300 	0x1ae85300
    27b4:	6d015300 	0x6d015300
    27b8:	0009e824 	and	sp,zero,t1
    27bc:	01bd0100 	0x1bd0100
    27c0:	0000145d 	0x145d
    27c4:	04006001 	bltz	zero,1a7cc <_init-0x52fe5834>
    27c8:	00128604 	0x128604
    27cc:	14a22900 	bne	a1,v0,cbd0 <_init-0x52ff3430>
    27d0:	21190000 	addi	t9,t0,0
    27d4:	84010000 	lh	at,0(zero)
    27d8:	001ae801 	0x1ae801
    27dc:	001c0853 	0x1c0853
    27e0:	2a6d0153 	slti	t5,s3,339
    27e4:	000009e8 	0x9e8
    27e8:	0e9f8301 	jal	a7e0c04 <_init-0x4881f3fc>
    27ec:	54010000 	bnel	zero,at,27f0 <_init-0x52ffd810>
    27f0:	001ba12a 	0x1ba12a
    27f4:	07830100 	bgezl	gp,2bf8 <_init-0x52ffd408>
    27f8:	0100000e 	0x100000e
    27fc:	21ec1f55 	addi	t4,t7,8021
    2800:	85010000 	lh	at,0(t0)
    2804:	00000adb 	0xadb
    2808:	00109102 	srl	s2,s0,0x4
    280c:	0014fb25 	0x14fb25
    2810:	00137800 	sll	t7,s3,0x0
    2814:	02010100 	0x2010100
    2818:	00005e01 	0x5e01
    281c:	001c0800 	sll	at,gp,0x0
    2820:	001e5453 	0x1e5453
    2824:	266d0153 	addiu	t5,s3,339
    2828:	00001ffe 	0x1ffe
    282c:	54020201 	bnel	zero,v0,3034 <_init-0x52ffcfcc>
    2830:	01000001 	movf	zero,t0,$fcc0
    2834:	193a2660 	0x193a2660
    2838:	03010000 	0x3010000
    283c:	00016502 	srl	t4,at,0x14
    2840:	20910200 	addi	s1,a0,512
    2844:	00145b26 	0x145b26
    2848:	02030100 	0x2030100
    284c:	00000165 	0x165
    2850:	08a09103 	j	282440c <_init-0x507dbbf4>
    2854:	0005af20 	0x5af20
    2858:	00150b00 	sll	at,s5,0xc
    285c:	03050100 	0x3050100
    2860:	53004040 	beqzl	t8,12964 <_init-0x52fed69c>
    2864:	150b0d00 	bne	t0,t3,5c68 <_init-0x52ffa398>
    2868:	00d90000 	0xd90000
    286c:	350e0000 	ori	t6,t0,0x0
    2870:	19000000 	blez	t0,2874 <_init-0x52ffd78c>
    2874:	14fb0c00 	bne	a3,k1,5878 <_init-0x52ffa788>
    2878:	3c250000 	0x3c250000
    287c:	43000015 	c0	0x1000015
    2880:	01000022 	sub	zero,t0,zero
    2884:	5e01023b 	0x5e01023b
    2888:	54000000 	bnezl	zero,288c <_init-0x52ffd774>
    288c:	2c53001e 	sltiu	s3,v0,30
    2890:	0153001f 	0x153001f
    2894:	05af206d 	0x5af206d
    2898:	154c0000 	bne	t2,t4,289c <_init-0x52ffd764>
    289c:	05010000 	bgez	t0,28a0 <_init-0x52ffd760>
    28a0:	00405c03 	0x405c03
    28a4:	4c0d0053 	0x4c0d0053
    28a8:	d9000015 	ldc2	$0,21(t0)
    28ac:	0e000000 	jal	8000000 <_init-0x4b000000>
    28b0:	00000035 	0x35
    28b4:	3c0c001a 	lui	t4,0x1a
    28b8:	25000015 	addiu	zero,t0,21
    28bc:	0000157d 	0x157d
    28c0:	00001647 	0x1647
    28c4:	01028301 	0x1028301
    28c8:	0000005e 	0x5e
    28cc:	53001f2c 	beqzl	t8,a580 <_init-0x52ff5a80>
    28d0:	53002018 	beqzl	t8,a934 <_init-0x52ff56cc>
    28d4:	af206d01 	sw	zero,27905(t9)
    28d8:	8d000005 	lw	zero,5(t0)
    28dc:	01000015 	0x1000015
    28e0:	40780305 	0x40780305
    28e4:	0d005300 	jal	4014c00 <_init-0x4efeb400>
    28e8:	0000158d 	break	0x0,0x56
    28ec:	000000d9 	0xd9
    28f0:	0000350e 	0x350e
    28f4:	0c001f00 	jal	7c00 <_init-0x52ff8400>
    28f8:	0000157d 	0x157d
    28fc:	00160225 	0x160225
    2900:	000e5100 	sll	t2,t6,0x4
    2904:	036e0100 	0x36e0100
    2908:	00005e01 	0x5e01
    290c:	00201800 	0x201800
    2910:	00231453 	0x231453
    2914:	246d0153 	addiu	t5,v1,339
    2918:	000009e8 	0x9e8
    291c:	5d036d01 	0x5d036d01
    2920:	01000014 	0x1000014
    2924:	0ff82461 	jal	fe09184 <_init-0x431f6e7c>
    2928:	6d010000 	0x6d010000
    292c:	00023f03 	sra	a3,v0,0x1c
    2930:	26550100 	addiu	s5,s2,256
    2934:	000021ec 	0x21ec
    2938:	db036f01 	ldc2	$3,28417(t8)
    293c:	0200000a 	movz	zero,s0,zero
    2940:	83261891 	lb	a2,6289(t9)
    2944:	0100000e 	0x100000e
    2948:	16020370 	bne	s0,v0,370c <_init-0x52ffc8f4>
    294c:	52010000 	beql	s0,at,2950 <_init-0x52ffd6b0>
    2950:	7465722b 	jalx	195c8ac <_init-0x516a3754>
    2954:	03710100 	0x3710100
    2958:	0000005e 	0x5e
    295c:	08276201 	j	9d8804 <_init-0x526277fc>
    2960:	80000016 	lb	zero,22(zero)
    2964:	04530022 	bgezall	v0,29f0 <_init-0x52ffd610>
    2968:	00530023 	subu	zero,v0,s3
    296c:	082f0404 	j	bc1010 <_init-0x5243eff0>
    2970:	252c0000 	addiu	t4,t1,0
    2974:	dc000016 	ldc3	$0,22(zero)
    2978:	0100001f 	0x100001f
    297c:	5e010158 	0x5e010158
    2980:	01000000 	0x1000000
    2984:	0005af2d 	0x5af2d
    2988:	00163500 	sll	a2,s6,0x14
    298c:	0d000100 	jal	4000400 <_init-0x4efffc00>
    2990:	00001635 	0x1635
    2994:	000000d9 	0xd9
    2998:	0000350e 	0x350e
    299c:	0c001100 	jal	4400 <_init-0x52ffbc00>
    29a0:	00001625 	0x1625
    29a4:	00166e23 	0x166e23
    29a8:	000f1500 	sll	v0,t7,0x14
    29ac:	04050100 	0x4050100
    29b0:	00231401 	0x231401
    29b4:	0023f853 	0x23f853
    29b8:	246d0153 	addiu	t5,v1,339
    29bc:	00000ff8 	0xff8
    29c0:	3f040401 	0x3f040401
    29c4:	01000002 	0x1000002
    29c8:	6f742b60 	0x6f742b60
    29cc:	06010070 	bgez	s0,2b90 <_init-0x52ffd470>
    29d0:	00006904 	0x6904
    29d4:	00550100 	0x550100
    29d8:	0016db25 	0x16db25
    29dc:	001dd100 	sll	k0,sp,0x4
    29e0:	042d0100 	0x42d0100
    29e4:	00006901 	0x6901
    29e8:	0023f800 	0x23f800
    29ec:	0026c853 	0x26c853
    29f0:	2e6d0153 	sltiu	t5,s3,339
    29f4:	0067736d 	0x67736d
    29f8:	3a042c01 	xori	a0,s0,0x2c01
    29fc:	01000008 	jr	t0
    2a00:	00742b55 	0x742b55
    2a04:	a2042e01 	sb	a0,11777(s0)
    2a08:	02000007 	srav	zero,zero,s0
    2a0c:	af201891 	sw	zero,6289(t9)
    2a10:	db000005 	ldc2	$0,5(t8)
    2a14:	01000016 	0x1000016
    2a18:	40ac0305 	0x40ac0305
    2a1c:	e02f5300 	sc	t7,21248(at)
    2a20:	28000016 	slti	zero,zero,22
    2a24:	2c530025 	sltiu	s3,v0,37
    2a28:	30530025 	andi	s3,v0,0x25
    2a2c:	000016f2 	tlt	zero,zero,0x5b
    2a30:	08a09103 	j	282440c <_init-0x507dbbf4>
    2a34:	00000031 	tgeu	zero,zero
    2a38:	16f23000 	bne	s7,s2,ea3c <_init-0x52ff15c4>
    2a3c:	91030000 	lbu	v1,0(t0)
    2a40:	000008a0 	0x8a0
    2a44:	12d50c00 	beq	s6,s5,5a48 <_init-0x52ffa5b8>
    2a48:	092c0000 	j	4b00000 <_init-0x4e500000>
    2a4c:	26000017 	addiu	zero,s0,23
    2a50:	01000016 	0x1000016
    2a54:	5e010187 	0x5e010187
    2a58:	01000000 	0x1000000
    2a5c:	0021ec32 	tlt	at,at,0x3b0
    2a60:	01880100 	0x1880100
    2a64:	00000adb 	0xadb
    2a68:	0005af2d 	0x5af2d
    2a6c:	00171900 	sll	v1,s7,0x4
    2a70:	0d000100 	jal	4000400 <_init-0x4efffc00>
    2a74:	00001719 	0x1719
    2a78:	000000d9 	0xd9
    2a7c:	0000350e 	0x350e
    2a80:	0c001500 	jal	5400 <_init-0x52ffac00>
    2a84:	00001709 	0x1709
    2a88:	00182a33 	tltu	zero,t8,0xa8
    2a8c:	1c890100 	0x1c890100
    2a90:	72010000 	madd	s0,at
    2a94:	00690104 	0x690104
    2a98:	26c80000 	addiu	t0,s6,0
    2a9c:	2e505300 	sltiu	s0,s2,21248
    2aa0:	6d015300 	0x6d015300
    2aa4:	00135824 	and	t3,zero,s3
    2aa8:	04710100 	bgezal	v1,2eac <_init-0x52ffd154>
    2aac:	0000145d 	0x145d
    2ab0:	6d2b6601 	0x6d2b6601
    2ab4:	01006773 	tltu	t0,zero,0x19d
    2ab8:	07390473 	0x7390473
    2abc:	91020000 	lbu	v0,0(t0)
    2ac0:	05af2020 	0x5af2020
    2ac4:	183a0000 	0x183a0000
    2ac8:	05010000 	bgez	t0,2acc <_init-0x52ffd534>
    2acc:	0040dc03 	0x40dc03
    2ad0:	17ad3453 	bne	sp,t5,fc20 <_init-0x52ff03e0>
    2ad4:	183f0000 	0x183f0000
    2ad8:	26cc0000 	addiu	t4,s6,0
    2adc:	26d05300 	addiu	s0,s6,21248
    2ae0:	51355300 	beql	t1,s5,176e4 <_init-0x52fe891c>
    2ae4:	31000018 	andi	zero,t0,0x18
    2ae8:	00000018 	mult	zero,zero
    2aec:	00185d30 	tge	zero,t8,0x174
    2af0:	a8910300 	swl	s1,768(a0)
    2af4:	18693608 	0x18693608
    2af8:	75300000 	jalx	4c00000 <_init-0x4e400000>
    2afc:	03000018 	mult	t8,zero
    2b00:	3008b091 	andi	t0,zero,0xb091
    2b04:	00001881 	0x1881
    2b08:	10b09103 	beq	a1,s0,fffe6f18 <app_icon2_data+0xacfe1bfc>
    2b0c:	00189737 	0x189737
    2b10:	00275800 	0x275800
    2b14:	27000053 	addiu	zero,t8,83
    2b18:	000018b5 	0x18b5
    2b1c:	53002750 	beqzl	t8,c860 <_init-0x52ff37a0>
    2b20:	53002758 	beqzl	t8,c884 <_init-0x52ff377c>
    2b24:	0017e434 	teq	zero,s7,0x390
    2b28:	0018e600 	sll	gp,t8,0x18
    2b2c:	00284800 	0x284800
    2b30:	00292853 	0x292853
    2b34:	18f83053 	0x18f83053
    2b38:	91030000 	lbu	v1,0(t0)
    2b3c:	703118b0 	0x703118b0
    2b40:	30000000 	andi	zero,zero,0x0
    2b44:	000018f8 	0x18f8
    2b48:	18b09103 	0x18b09103
    2b4c:	242f0000 	addiu	t7,at,0
    2b50:	20000019 	addi	zero,zero,25
    2b54:	3853002b 	xori	s3,v0,0x2b
    2b58:	3553002c 	ori	s3,t2,0x2c
    2b5c:	00001936 	tne	zero,zero,0x64
    2b60:	00008831 	tgeu	zero,zero,0x220
    2b64:	19423600 	0x19423600
    2b68:	5e270000 	0x5e270000
    2b6c:	58000019 	blezl	zero,2bd4 <_init-0x52ffd42c>
    2b70:	6853002b 	0x6853002b
    2b74:	2753002b 	addiu	s3,k0,43
    2b78:	0000196c 	0x196c
    2b7c:	53002b8c 	beqzl	t8,d9b0 <_init-0x52ff2650>
    2b80:	53002bac 	beqzl	t8,da34 <_init-0x52ff25cc>
    2b84:	00197a27 	0x197a27
    2b88:	002bac00 	0x2bac00
    2b8c:	002bf853 	0x2bf853
    2b90:	00000053 	mtlhx	zero
    2b94:	00183a0d 	break	0x18,0xe8
    2b98:	0000d900 	sll	k1,zero,0x4
    2b9c:	00350e00 	0x350e00
    2ba0:	00160000 	sll	zero,s6,0x0
    2ba4:	00182a0c 	syscall	0x60a8
    2ba8:	18a02c00 	blez	a1,dbac <_init-0x52ff2454>
    2bac:	1b260000 	0x1b260000
    2bb0:	ab010000 	swl	at,0(t8)
    2bb4:	005e0102 	0x5e0102
    2bb8:	38010000 	xori	at,zero,0x0
    2bbc:	000009e8 	0x9e8
    2bc0:	5d02aa01 	0x5d02aa01
    2bc4:	32000014 	andi	zero,s0,0x14
    2bc8:	000021ec 	0x21ec
    2bcc:	db02ac01 	ldc2	$2,-21503(t8)
    2bd0:	3200000a 	andi	zero,s0,0xa
    2bd4:	00001ffe 	0x1ffe
    2bd8:	5402ad01 	bnel	zero,v0,fffedfe0 <app_icon2_data+0xacfe8cc4>
    2bdc:	32000001 	andi	zero,s0,0x1
    2be0:	0000193a 	0x193a
    2be4:	6502ae01 	0x6502ae01
    2be8:	32000001 	andi	zero,s0,0x1
    2bec:	0000145b 	0x145b
    2bf0:	6502ae01 	0x6502ae01
    2bf4:	2d000001 	sltiu	zero,t0,1
    2bf8:	000005af 	0x5af
    2bfc:	000018b0 	tge	zero,zero,0x62
    2c00:	1c093901 	0x1c093901
    2c04:	29010000 	slti	at,t0,0
    2c08:	b00d0003 	0xb00d0003
    2c0c:	d9000018 	ldc2	$0,24(t0)
    2c10:	0e000000 	jal	8000000 <_init-0x4b000000>
    2c14:	00000035 	0x35
    2c18:	a00c0013 	sb	t4,19(zero)
    2c1c:	3a000018 	xori	zero,s0,0x18
    2c20:	000018d1 	0x18d1
    2c24:	000017f3 	tltu	zero,zero,0x5f
    2c28:	5e01f801 	0x5e01f801
    2c2c:	01000000 	0x1000000
    2c30:	0005af2d 	0x5af2d
    2c34:	0018e100 	sll	gp,t8,0x4
    2c38:	0d000100 	jal	4000400 <_init-0x4efffc00>
    2c3c:	000018e1 	0x18e1
    2c40:	000000d9 	0xd9
    2c44:	0000350e 	0x350e
    2c48:	0c000e00 	jal	3800 <_init-0x52ffc800>
    2c4c:	000018d1 	0x18d1
    2c50:	00190f2c 	0x190f2c
    2c54:	001ea000 	sll	s4,s8,0x0
    2c58:	02530100 	0x2530100
    2c5c:	00005e01 	0x5e01
    2c60:	41320100 	0x41320100
    2c64:	01000019 	multu	t0,zero
    2c68:	01650254 	0x1650254
    2c6c:	af2d0000 	sw	t5,0(t9)
    2c70:	1f000005 	bgtz	t8,2c88 <_init-0x52ffd378>
    2c74:	01000019 	multu	t0,zero
    2c78:	191f0d00 	0x191f0d00
    2c7c:	00d90000 	0xd90000
    2c80:	350e0000 	ori	t6,t0,0x0
    2c84:	1b000000 	blez	t8,2c88 <_init-0x52ffd378>
    2c88:	190f0c00 	0x190f0c00
    2c8c:	592c0000 	0x592c0000
    2c90:	d9000019 	ldc2	$0,25(t0)
    2c94:	01000020 	add	zero,t0,zero
    2c98:	5e01032e 	0x5e01032e
    2c9c:	01000000 	0x1000000
    2ca0:	0009e838 	0x9e838
    2ca4:	032d0100 	0x32d0100
    2ca8:	0000145d 	0x145d
    2cac:	7465723b 	jalx	195c8ec <_init-0x516a3714>
    2cb0:	032f0100 	0x32f0100
    2cb4:	0000005e 	0x5e
    2cb8:	0005af2d 	0x5af2d
    2cbc:	00195900 	sll	t3,t9,0x4
    2cc0:	0c000100 	jal	400 <_init-0x52fffc00>
    2cc4:	00001709 	0x1709
    2cc8:	00153a3c 	0x153a3c
    2ccc:	01280100 	0x1280100
    2cd0:	00005e01 	0x5e01
    2cd4:	6d3c0100 	0x6d3c0100
    2cd8:	01000012 	0x1000012
    2cdc:	5e01029c 	0x5e01029c
    2ce0:	01000000 	0x1000000
    2ce4:	0019972c 	0x19972c
    2ce8:	001ebc00 	sll	s7,s8,0x10
    2cec:	02720100 	0x2720100
    2cf0:	00005e01 	0x5e01
    2cf4:	af2d0100 	sw	t5,256(t9)
    2cf8:	a7000005 	sh	zero,5(t8)
    2cfc:	01000019 	multu	t0,zero
    2d00:	19a70d00 	0x19a70d00
    2d04:	00d90000 	0xd90000
    2d08:	350e0000 	ori	t6,t0,0x0
    2d0c:	1c000000 	bgtz	zero,2d10 <_init-0x52ffd2f0>
    2d10:	19970c00 	0x19970c00
    2d14:	b73d0000 	0xb73d0000
    2d18:	14000002 	bnez	zero,2d24 <_init-0x52ffd2dc>
    2d1c:	0000f4a9 	0xf4a9
    2d20:	03050100 	0x3050100
    2d24:	530051b4 	beqzl	t8,173f8 <_init-0x52fe8c08>
    2d28:	0003863d 	0x3863d
    2d2c:	1bb51400 	0x1bb51400
    2d30:	01000001 	movf	zero,t0,$fcc0
    2d34:	52a40305 	beql	s5,a0,394c <_init-0x52ffc6b4>
    2d38:	803d5300 	lb	sp,21248(at)
    2d3c:	01000007 	srav	zero,zero,t0
    2d40:	00145d1b 	0x145d1b
    2d44:	03050100 	0x3050100
    2d48:	530051a8 	beqzl	t8,173ec <_init-0x52fe8c14>
    2d4c:	00179d1f 	0x179d1f
    2d50:	f31d0100 	0xf31d0100
    2d54:	05000019 	bltz	t0,2dbc <_init-0x52ffd244>
    2d58:	00401003 	0x401003
    2d5c:	00cd0c53 	0xcd0c53
    2d60:	dd1f0000 	ldc3	$31,0(t0)
    2d64:	01000010 	0x1000010
    2d68:	00005e42 	srl	t3,zero,0x19
    2d6c:	ac030500 	sw	v1,1280(zero)
    2d70:	00530051 	0x530051
Disassembly of section .debug_line:

00000000 <.debug_line>:
   0:	0000044f 	0x44f
   4:	01b60002 	0x1b60002
   8:	01010000 	0x1010000
   c:	000a0efb 	0xa0efb
  10:	01010101 	0x1010101
  14:	01000000 	0x1000000
  18:	2e2e2f2e 	sltiu	t6,s1,12078
  1c:	2f2e2e2f 	sltiu	t6,t9,11823
  20:	2e2f2e2e 	sltiu	t7,s1,11822
  24:	2e2e2f2e 	sltiu	t6,s1,12078
  28:	7073702f 	0x7073702f
  2c:	6c65725f 	0x6c65725f
  30:	636e692f 	0x636e692f
  34:	6564756c 	0x6564756c
  38:	6f63752f 	0x6f63752f
  3c:	2e2e2f73 	sltiu	t6,s1,12147
  40:	62696c2f 	0x62696c2f
  44:	2f2e0063 	sltiu	t6,t9,99
  48:	2e2f2e2e 	sltiu	t7,s1,11822
  4c:	2e2e2f2e 	sltiu	t6,s1,12078
  50:	2f2e2e2f 	sltiu	t6,t9,11823
  54:	632f2e2e 	0x632f2e2e
  58:	2f657361 	sltiu	a1,k1,29537
  5c:	6c636e69 	0x6c636e69
  60:	00656475 	0x656475
  64:	2e2e2f2e 	sltiu	t6,s1,12078
  68:	2e2f2e00 	sltiu	t7,s1,11776
  6c:	2e2e2f2e 	sltiu	t6,s1,12078
  70:	2f2e2e2f 	sltiu	t6,t9,11823
  74:	2e2f2e2e 	sltiu	t7,s1,11822
  78:	73702f2e 	0x73702f2e
  7c:	65725f70 	0x65725f70
  80:	6e692f6c 	0x6e692f6c
  84:	64756c63 	0x64756c63
  88:	75672f65 	jalx	59cbd94 <_init-0x4d63426c>
  8c:	2f2e0069 	sltiu	t6,t9,105
  90:	2e2f2e2e 	sltiu	t7,s1,11822
  94:	2e2e2f2e 	sltiu	t6,s1,12078
  98:	2f2e2e2f 	sltiu	t6,t9,11823
  9c:	632f2e2e 	0x632f2e2e
  a0:	2f657361 	sltiu	a1,k1,29537
  a4:	6c636e69 	0x6c636e69
  a8:	2f656475 	sltiu	a1,k1,25717
  ac:	6d6d6f63 	0x6d6d6f63
  b0:	69756e6f 	0x69756e6f
  b4:	2e2f2e00 	sltiu	t7,s1,11776
  b8:	2e2e2f2e 	sltiu	t6,s1,12078
  bc:	2f2e2e2f 	sltiu	t6,t9,11823
  c0:	2e2f2e2e 	sltiu	t7,s1,11822
  c4:	73702f2e 	0x73702f2e
  c8:	65725f70 	0x65725f70
  cc:	6e692f6c 	0x6e692f6c
  d0:	64756c63 	0x64756c63
  d4:	696c2f65 	0x696c2f65
  d8:	732f6362 	0x732f6362
  dc:	00007379 	0x7379
  e0:	6e75614c 	0x6e75614c
  e4:	72656863 	0x72656863
  e8:	7365645f 	udi15	k1,a1,t4,0x11
  ec:	706f746b 	0x706f746b
  f0:	2e69755f 	sltiu	t1,s3,30047
  f4:	00000063 	0x63
  f8:	70797400 	0x70797400
  fc:	682e7365 	0x682e7365
 100:	00000100 	sll	zero,zero,0x4
 104:	6c797473 	0x6c797473
 108:	00682e65 	0x682e65
 10c:	6c000002 	0x6c000002
 110:	636e7561 	0x636e7561
 114:	5f726568 	0x5f726568
 118:	6b736564 	0x6b736564
 11c:	5f706f74 	0x5f706f74
 120:	682e6975 	0x682e6975
 124:	00000000 	nop
 128:	6b736564 	0x6b736564
 12c:	5f706f74 	0x5f706f74
 130:	69707061 	0x69707061
 134:	2e6f666e 	sltiu	t7,s3,26222
 138:	00030068 	0x30068
 13c:	69756700 	0x69756700
 140:	636e695f 	0x636e695f
 144:	0400682e 	bltz	zero,1a200 <_init-0x52fe5e00>
 148:	616c0000 	0x616c0000
 14c:	68636e75 	0x68636e75
 150:	735f7265 	0x735f7265
 154:	656e6563 	0x656e6563
 158:	7365645f 	udi15	k1,a1,t4,0x11
 15c:	706f746b 	0x706f746b
 160:	0300682e 	0x300682e
 164:	65680000 	0x65680000
 168:	61626461 	0x61626461
 16c:	00682e72 	tlt	v1,t0,0xb9
 170:	6d000005 	0x6d000005
 174:	2e756e65 	sltiu	s5,s3,28261
 178:	00050068 	0x50068
 17c:	6e656d00 	0x6e656d00
 180:	65697675 	0x65697675
 184:	00682e77 	0x682e77
 188:	76000005 	jalx	8000014 <_init-0x4affffec>
 18c:	6d756c6f 	0x6d756c6f
 190:	72616265 	0x72616265
 194:	0500682e 	bltz	t0,1a250 <_init-0x52fe5db0>
 198:	736d0000 	madd	k1,t5
 19c:	786f6267 	0x786f6267
 1a0:	0500682e 	bltz	t0,1a25c <_init-0x52fe5da4>
 1a4:	616c0000 	0x616c0000
 1a8:	68636e75 	0x68636e75
 1ac:	682e7265 	0x682e7265
 1b0:	00000300 	sll	zero,zero,0xc
 1b4:	65707974 	0x65707974
 1b8:	00682e73 	tltu	v1,t0,0xb9
 1bc:	00000006 	srlv	zero,zero,zero
 1c0:	20020500 	addi	v0,zero,1280
 1c4:	03530000 	0x3530000
 1c8:	02010184 	0x2010184
 1cc:	86b81528 	lh	t8,5416(s5)
 1d0:	7ef04648 	0x7ef04648
 1d4:	487e8048 	mfhc2	s8,0x8048
 1d8:	b5817f80 	0xb5817f80
 1dc:	02b78049 	0x2b78049
 1e0:	7fb81254 	0x7fb81254
 1e4:	4c7b7f80 	0x4c7b7f80
 1e8:	4c434b42 	0x4c434b42
 1ec:	03424c7a 	0x3424c7a
 1f0:	01280209 	0x1280209
 1f4:	84b73a08 	lh	s7,14856(a1)
 1f8:	34028647 	li	v0,0x8647
 1fc:	103c020a 	beq	at,gp,a28 <_init-0x52fff5d8>
 200:	025e034b 	0x25e034b
 204:	19030134 	0x19030134
 208:	03013002 	0x3013002
 20c:	0271080d 	break	0x271,0x20
 210:	b8491448 	swr	t1,5192(v0)
 214:	463a0846 	c1	0x3a0846
 218:	4680ef48 	c1	0x80ef48
 21c:	4680ef48 	c1	0x80ef48
 220:	477aef48 	c1	0x17aef48
 224:	08b74786 	j	2dd1e18 <_init-0x5022e1e8>
 228:	75034b40 	jalx	40d2d00 <_init-0x4ef2d300>
 22c:	86013002 	lh	at,12290(s0)
 230:	02454987 	0x2454987
 234:	30021128 	andi	v0,zero,0x1128
 238:	84478616 	lh	a3,-31210(v0)
 23c:	03478447 	0x3478447
 240:	81477f6f 	lb	a3,32623(t2)
 244:	03b70f03 	0x3b70f03
 248:	4c4e476f 	0x4c4e476f
 24c:	81477603 	lb	a3,30211(t2)
 250:	81474980 	lb	a3,18816(t2)
 254:	81474980 	lb	a3,18816(t2)
 258:	81474980 	lb	a3,18816(t2)
 25c:	477f6d03 	c1	0x17f6d03
 260:	037f1903 	0x37f1903
 264:	01340262 	0x1340262
 268:	7f200380 	ext	zero,t9,0xe,0x1
 26c:	49827108 	0x49827108
 270:	877d7f7f 	lh	sp,32639(k1)
 274:	ee114002 	swc3	$17,16386(s0)
 278:	7f7a0348 	0x7f7a0348
 27c:	7ef4034d 	0x7ef4034d
 280:	81f57108 	lb	s5,28936(t7)
 284:	40028047 	0x40028047
 288:	8803b511 	lwl	v1,-19183(zero)
 28c:	83457f01 	lb	a1,32513(k0)
 290:	08bb8145 	j	2ee0514 <_init-0x5011faec>
 294:	814581ae 	lb	a1,-32338(t2)
 298:	497d8145 	0x497d8145
 29c:	473b0883 	c1	0x13b0883
 2a0:	0371087f 	0x371087f
 2a4:	037f00df 	0x37f00df
 2a8:	a9087fb1 	swl	t0,32689(t0)
 2ac:	1f038583 	0x1f038583
 2b0:	03012c02 	0x3012c02
 2b4:	03390826 	xor	at,t9,t9
 2b8:	83a90850 	lb	t1,2128(sp)
 2bc:	025d0385 	0x25d0385
 2c0:	804f012c 	lb	t7,300(v0)
 2c4:	ac08827f 	sw	t0,-32129(zero)
 2c8:	1f038244 	0x1f038244
 2cc:	7f100347 	0x7f100347
 2d0:	b7090381 	0xb7090381
 2d4:	a9085603 	swl	t0,22019(t0)
 2d8:	827f804f 	lb	ra,-32689(s3)
 2dc:	03122402 	0x3122402
 2e0:	1f03b74e 	0x1f03b74e
 2e4:	b71b03b7 	0xb71b03b7
 2e8:	02827f80 	0x2827f80
 2ec:	b1031328 	0xb1031328
 2f0:	0239087f 	0x239087f
 2f4:	03ef1324 	0x3ef1324
 2f8:	037f00d6 	0x37f00d6
 2fc:	2c027f16 	sltiu	v0,zero,32534
 300:	81474e0f 	lb	a3,19983(t2)
 304:	76084945 	jalx	8212514 <_init-0x4adedaec>
 308:	bef14846 	cache	0x11,18502(s7)
 30c:	02814381 	0x2814381
 310:	7f801124 	0x7f801124
 314:	64028080 	0x64028080
 318:	f184b910 	0xf184b910
 31c:	8347ae08 	lb	a3,-20984(k0)
 320:	82444a7c 	lb	a0,19068(s2)
 324:	4a444a44 	c2	0x444a44
 328:	7e458244 	ins	a1,s2,0x9,0x8
 32c:	49454948 	0x49454948
 330:	7d4a4645 	0x7d4a4645
 334:	b97f8484 	swr	ra,-31612(t3)
 338:	47813d08 	c1	0x1813d08
 33c:	02484680 	0x2484680
 340:	80471124 	lb	a3,4388(v0)
 344:	5c02807f 	0x5c02807f
 348:	7403b910 	jalx	ee440 <_init-0x52f11bc0>
 34c:	0274037f 	0x274037f
 350:	24030130 	li	v1,304
 354:	02013802 	0x2013802
 358:	474f0f24 	c1	0x14f0f24
 35c:	b77f47b9 	0xb77f47b9
 360:	7f019703 	0x7f019703
 364:	027efd03 	0x27efd03
 368:	0f030124 	jal	c0c0490 <_init-0x46f3fb70>
 36c:	1103477f 	beq	t0,v1,1216c <_init-0x52fede94>
 370:	1128027f 	beq	t1,t0,d70 <_init-0x52fff290>
 374:	463b0845 	c1	0x3b0845
 378:	0347804b 	0x347804b
 37c:	6c027f09 	0x6c027f09
 380:	11280213 	beq	t1,t0,bd0 <_init-0x52fff430>
 384:	03804945 	0x3804945
 388:	3c0200c1 	lui	v0,0xc1
 38c:	12300201 	beq	s1,s0,b94 <_init-0x52fff46c>
 390:	037f0903 	0x37f0903
 394:	03e10877 	0x3e10877
 398:	03477f47 	0x3477f47
 39c:	03477f0f 	0x3477f0f
 3a0:	28027f11 	slti	v0,zero,32529
 3a4:	3b084511 	xori	t0,t8,0x4511
 3a8:	47804b46 	c1	0x1804b46
 3ac:	027f0903 	0x27f0903
 3b0:	2402136c 	li	v0,4972
 3b4:	80814511 	lb	at,17681(a0)
 3b8:	03126c02 	0x3126c02
 3bc:	77037f09 	jalx	c0dfc24 <_init-0x46f203dc>
 3c0:	9903e108 	lwr	v1,-7928(t0)
 3c4:	a9087f7f 	swl	t0,32639(t0)
 3c8:	020a0387 	0x20a0387
 3cc:	76030128 	jalx	80c04a0 <_init-0x4af3fb60>
 3d0:	470a0347 	c1	0x10a0347
 3d4:	80814780 	lb	at,18304(a0)
 3d8:	6c02807f 	0x6c02807f
 3dc:	2103bf10 	addi	v1,t0,-16624
 3e0:	87a9087f 	lh	t1,2175(sp)
 3e4:	027f9603 	0x27f9603
 3e8:	48ba0134 	0x48ba0134
 3ec:	b8ee4880 	swr	t6,18560(a3)
 3f0:	8046b846 	lb	a2,-18362(v0)
 3f4:	48468046 	0x48468046
 3f8:	02018b03 	0x2018b03
 3fc:	ff03014c 	sdc3	$3,332(t8)
 400:	0128027e 	0x128027e
 404:	03827f49 	0x3827f49
 408:	0130020e 	0x130020e
 40c:	7f00d403 	0x7f00d403
 410:	02807f80 	0x2807f80
 414:	03bf106c 	0x3bf106c
 418:	7f497f4f 	0x7f497f4f
 41c:	020e0382 	0x20e0382
 420:	40030130 	0x40030130
 424:	0e2c027f 	jal	8b009fc <_init-0x4a4ff604>
 428:	7f00c203 	0x7f00c203
 42c:	030e2c02 	0x30e2c02
 430:	807f00c3 	lb	ra,195(v1)
 434:	026b03f0 	tge	s3,t3,0xf
 438:	49ef0148 	0x49ef0148
 43c:	7fb8804a 	0x7fb8804a
 440:	7f7a0380 	ext	k0,k1,0xe,0x1
 444:	a9080c03 	swl	t0,3075(t0)
 448:	b87f0b03 	swr	ra,2819(v1)
 44c:	1802b880 	0x1802b880
 450:	73010100 	0x73010100
 454:	02000000 	0x2000000
 458:	00005600 	sll	t2,zero,0x18
 45c:	fb010100 	sdc2	$1,256(t8)
 460:	01000a0e 	0x1000a0e
 464:	00010101 	0x10101
 468:	2e010000 	sltiu	at,s0,0
 46c:	2f2e2e2f 	sltiu	t6,t9,11823
 470:	2e2f2e2e 	sltiu	t7,s1,11822
 474:	2e2e2f2e 	sltiu	t6,s1,12078
 478:	2f2e2e2f 	sltiu	t6,t9,11823
 47c:	5f707370 	0x5f707370
 480:	2f6c6572 	sltiu	t4,k1,25970
 484:	6c636e69 	0x6c636e69
 488:	2f656475 	sltiu	a1,k1,25717
 48c:	6362696c 	0x6362696c
 490:	7379732f 	0x7379732f
 494:	65640000 	0x65640000
 498:	6f746b73 	0x6f746b73
 49c:	70615f70 	0x70615f70
 4a0:	00632e69 	0x632e69
 4a4:	74000000 	jalx	0 <_init-0x53000000>
 4a8:	73657079 	0x73657079
 4ac:	0100682e 	0x100682e
 4b0:	00000000 	nop
 4b4:	158c0205 	bne	t4,t4,ccc <_init-0x52fff334>
 4b8:	29035300 	slti	v1,t0,21248
 4bc:	46484601 	c1	0x484601
 4c0:	0b038148 	j	c0e0520 <_init-0x46f1fae0>
 4c4:	000802ef 	0x802ef
 4c8:	05fe0101 	0x5fe0101
 4cc:	00020000 	sll	zero,v0,0x0
 4d0:	00000221 	0x221
 4d4:	0efb0101 	jal	bec0404 <_init-0x4713fbfc>
 4d8:	0101000a 	movz	zero,t0,at
 4dc:	00000101 	0x101
 4e0:	2f2e0100 	sltiu	t6,t9,256
 4e4:	2e2f2e2e 	sltiu	t7,s1,11822
 4e8:	2e2e2f2e 	sltiu	t6,s1,12078
 4ec:	2f2e2e2f 	sltiu	t6,t9,11823
 4f0:	702f2e2e 	0x702f2e2e
 4f4:	725f7073 	0x725f7073
 4f8:	692f6c65 	0x692f6c65
 4fc:	756c636e 	jalx	5b18db8 <_init-0x4d4e7248>
 500:	752f6564 	jalx	4bd9590 <_init-0x4e426a70>
 504:	2f736f63 	sltiu	s3,k1,28515
 508:	6c2f2e2e 	0x6c2f2e2e
 50c:	00636269 	0x636269
 510:	2e2e2f2e 	sltiu	t6,s1,12078
 514:	2e2f2e00 	sltiu	t7,s1,11776
 518:	2e2e2f2e 	sltiu	t6,s1,12078
 51c:	2f2e2e2f 	sltiu	t6,t9,11823
 520:	2e2f2e2e 	sltiu	t7,s1,11822
 524:	61632f2e 	0x61632f2e
 528:	692f6573 	0x692f6573
 52c:	756c636e 	jalx	5b18db8 <_init-0x4d4e7248>
 530:	632f6564 	0x632f6564
 534:	6f6d6d6f 	0x6f6d6d6f
 538:	0069756e 	0x69756e
 53c:	2e2e2f2e 	sltiu	t6,s1,12078
 540:	2f2e2e2f 	sltiu	t6,t9,11823
 544:	2e2f2e2e 	sltiu	t7,s1,11822
 548:	2e2e2f2e 	sltiu	t6,s1,12078
 54c:	7073702f 	0x7073702f
 550:	6c65725f 	0x6c65725f
 554:	636e692f 	0x636e692f
 558:	6564756c 	0x6564756c
 55c:	6975672f 	0x6975672f
 560:	2e2f2e00 	sltiu	t7,s1,11776
 564:	2e2e2f2e 	sltiu	t6,s1,12078
 568:	2f2e2e2f 	sltiu	t6,t9,11823
 56c:	2e2f2e2e 	sltiu	t7,s1,11822
 570:	61632f2e 	0x61632f2e
 574:	692f6573 	0x692f6573
 578:	756c636e 	jalx	5b18db8 <_init-0x4d4e7248>
 57c:	2e006564 	sltiu	zero,s0,25956
 580:	2f2e2e2f 	sltiu	t6,t9,11823
 584:	2e2f2e2e 	sltiu	t7,s1,11822
 588:	2e2e2f2e 	sltiu	t6,s1,12078
 58c:	2f2e2e2f 	sltiu	t6,t9,11823
 590:	5f707370 	0x5f707370
 594:	2f6c6572 	sltiu	t4,k1,25970
 598:	6c636e69 	0x6c636e69
 59c:	00656475 	0x656475
 5a0:	2e2e2f2e 	sltiu	t6,s1,12078
 5a4:	2f2e2e2f 	sltiu	t6,t9,11823
 5a8:	2e2f2e2e 	sltiu	t7,s1,11822
 5ac:	2e2e2f2e 	sltiu	t6,s1,12078
 5b0:	7073702f 	0x7073702f
 5b4:	6c65725f 	0x6c65725f
 5b8:	636e692f 	0x636e692f
 5bc:	6564756c 	0x6564756c
 5c0:	62696c2f 	0x62696c2f
 5c4:	79732f63 	0x79732f63
 5c8:	6c000073 	0x6c000073
 5cc:	636e7561 	0x636e7561
 5d0:	5f726568 	0x5f726568
 5d4:	6e656373 	0x6e656373
 5d8:	65645f65 	0x65645f65
 5dc:	6f746b73 	0x6f746b73
 5e0:	00632e70 	tge	v1,v1,0xb9
 5e4:	74000000 	jalx	0 <_init-0x53000000>
 5e8:	73657079 	0x73657079
 5ec:	0100682e 	0x100682e
 5f0:	65640000 	0x65640000
 5f4:	6f746b73 	0x6f746b73
 5f8:	70615f70 	0x70615f70
 5fc:	666e6970 	0x666e6970
 600:	00682e6f 	0x682e6f
 604:	6d000002 	0x6d000002
 608:	2e756e65 	sltiu	s5,s3,28261
 60c:	00030068 	0x30068
 610:	69756700 	0x69756700
 614:	636e695f 	0x636e695f
 618:	0400682e 	bltz	zero,1a6d4 <_init-0x52fe592c>
 61c:	736d0000 	madd	k1,t5
 620:	786f6267 	0x786f6267
 624:	0300682e 	0x300682e
 628:	65680000 	0x65680000
 62c:	61626461 	0x61626461
 630:	00682e72 	tlt	v1,t0,0xb9
 634:	76000003 	jalx	800000c <_init-0x4afffff4>
 638:	6d756c6f 	0x6d756c6f
 63c:	72616265 	0x72616265
 640:	0300682e 	0x300682e
 644:	616c0000 	0x616c0000
 648:	68636e75 	0x68636e75
 64c:	735f7265 	0x735f7265
 650:	656e6563 	0x656e6563
 654:	7365645f 	udi15	k1,a1,t4,0x11
 658:	706f746b 	0x706f746b
 65c:	0200682e 	0x200682e
 660:	74730000 	jalx	1cc0000 <_init-0x51340000>
 664:	2e656c79 	sltiu	a1,s3,27769
 668:	00050068 	0x50068
 66c:	6e656d00 	0x6e656d00
 670:	65697675 	0x65697675
 674:	00682e77 	0x682e77
 678:	6c000003 	0x6c000003
 67c:	636e7561 	0x636e7561
 680:	2e726568 	sltiu	s2,s3,25960
 684:	00020068 	0x20068
 688:	73756600 	0x73756600
 68c:	2e6e6f69 	sltiu	t6,s3,28521
 690:	00050068 	0x50068
 694:	61727400 	0x61727400
 698:	6d69736e 	0x6d69736e
 69c:	2e656761 	sltiu	a1,s3,26465
 6a0:	00060068 	0x60068
 6a4:	73696400 	0x73696400
 6a8:	79616c70 	0x79616c70
 6ac:	0600682e 	bltz	s0,1a768 <_init-0x52fe5898>
 6b0:	6d770000 	0x6d770000
 6b4:	636e695f 	0x636e695f
 6b8:	0400682e 	bltz	zero,1a774 <_init-0x52fe588c>
 6bc:	72640000 	madd	s3,a0
 6c0:	616d5f76 	0x616d5f76
 6c4:	00682e70 	tge	v1,t0,0xb9
 6c8:	6b000005 	0x6b000005
 6cc:	682e7965 	0x682e7965
 6d0:	00000600 	sll	zero,zero,0x18
 6d4:	5f707061 	0x5f707061
 6d8:	2e67736d 	sltiu	a3,s3,29549
 6dc:	00050068 	0x50068
 6e0:	70797400 	0x70797400
 6e4:	682e7365 	0x682e7365
 6e8:	00000700 	sll	zero,zero,0x1c
 6ec:	682e6d70 	0x682e6d70
 6f0:	00000600 	sll	zero,zero,0x18
 6f4:	02050000 	0x2050000
 6f8:	530015bc 	beqzl	t8,5dec <_init-0x52ffa214>
 6fc:	0101bc03 	0x101bc03
 700:	35083f08 	ori	t0,t0,0x3f08
 704:	4680e508 	c1	0x80e508
 708:	2c02b948 	sltiu	v0,zero,-18104
 70c:	08160317 	j	580c5c <_init-0x52a7f3a4>
 710:	ef6b0339 	swc3	$11,825(k1)
 714:	03471503 	0x3471503
 718:	46807f67 	c1	0x807f67
 71c:	484abe48 	0x484abe48
 720:	4846817f 	0x4846817f
 724:	08b88147 	j	2e2051c <_init-0x501dfae4>
 728:	eebc803b 	swc3	$28,-32709(s5)
 72c:	7f6a0348 	0x7f6a0348
 730:	30021903 	andi	v0,zero,0x1903
 734:	85b7b901 	lh	s7,-18175(t5)
 738:	76038547 	jalx	80e151c <_init-0x4af1eae4>
 73c:	4a803908 	c2	0x803908
 740:	80814a44 	lb	at,19012(a0)
 744:	fd03ef4a 	sdc3	$3,-4278(t0)
 748:	7e487f01 	0x7e487f01
 74c:	8f03804a 	lw	v1,-32694(t8)
 750:	46a9087e 	c1	0xa9087e
 754:	20034748 	addi	v1,zero,18248
 758:	b773037f 	0xb773037f
 75c:	0b038080 	j	c0e0200 <_init-0x46f1fe00>
 760:	4775037f 	c1	0x175037f
 764:	47470b03 	c1	0x1470b03
 768:	f37f0e03 	0xf37f0e03
 76c:	81ef4a44 	lb	t7,19012(t7)
 770:	45817ff2 	0x45817ff2
 774:	82854749 	lb	a1,18249(s4)
 778:	750348b6 	jalx	40d22d8 <_init-0x4ef2dd28>
 77c:	4945f1b7 	0x4945f1b7
 780:	40028147 	0x40028147
 784:	b77a0316 	0xb77a0316
 788:	b884824d 	swr	a0,-32179(a0)
 78c:	80ec84b7 	lb	t4,-31561(a3)
 790:	1203b749 	beq	s0,v1,fffee4b8 <app_icon2_data+0xacfe919c>
 794:	8046487f 	lb	a2,18559(v0)
 798:	f37f1103 	0xf37f1103
 79c:	0380817f 	0x380817f
 7a0:	03b74779 	0x3b74779
 7a4:	f27f00c5 	0xf27f00c5
 7a8:	80b981ef 	lb	t9,-32273(a1)
 7ac:	03472603 	0x3472603
 7b0:	2603475a 	addiu	v1,s0,18266
 7b4:	7f5a0347 	0x7f5a0347
 7b8:	ef7f0d03 	swc3	$31,3331(k1)
 7bc:	037f1903 	0x37f1903
 7c0:	6f037f78 	0x6f037f78
 7c4:	7f19037f 	0x7f19037f
 7c8:	81ef5e03 	lb	t7,24067(t7)
 7cc:	1f033a08 	0x1f033a08
 7d0:	b762037f 	0xb762037f
 7d4:	037f1e03 	0x37f1e03
 7d8:	14037f6c 	bne	zero,v1,2058c <_init-0x52fdfa74>
 7dc:	7f72037f 	0x7f72037f
 7e0:	7f7da603 	0x7f7da603
 7e4:	7f4a444a 	0x7f4a444a
 7e8:	33033908 	andi	v1,t8,0x3908
 7ec:	ef52037f 	swc3	$18,895(k0)
 7f0:	472803bd 	c1	0x12803bd
 7f4:	03ef5803 	0x3ef5803
 7f8:	b771080d 	0xb771080d
 7fc:	8280f081 	lb	zero,-3967(s4)
 800:	4a484680 	c2	0x484680
 804:	48808081 	0x48808081
 808:	87808147 	lh	zero,-32441(gp)
 80c:	03ef5e03 	0x3ef5e03
 810:	c7037f22 	lwc1	$f3,32546(t8)
 814:	b8f3ef02 	swr	s3,-4350(a3)
 818:	ef7f0a03 	swc3	$31,2563(k1)
 81c:	b63a0881 	0xb63a0881
 820:	08ba4c48 	j	2e93120 <_init-0x5016cee0>
 824:	021603ab 	0x21603ab
 828:	034c0140 	0x34c0140
 82c:	0871085f 	j	1c4217c <_init-0x513bde84>
 830:	0b03ee3a 	j	c0fb8e8 <_init-0x46f04718>
 834:	02bb807f 	0x2bb807f
 838:	02f61028 	0x2f61028
 83c:	817f1024 	lb	ra,4132(t3)
 840:	03104402 	0x3104402
 844:	40027f77 	0x40027f77
 848:	08828017 	j	20a005c <_init-0x50f5ffa4>
 84c:	f0b9833a 	0xf0b9833a
 850:	49804749 	0x49804749
 854:	152c02f1 	bne	t1,t4,141c <_init-0x52ffebe4>
 858:	034b3a08 	0x34b3a08
 85c:	7f390879 	0x7f390879
 860:	02380381 	0x2380381
 864:	b7f20130 	0xb7f20130
 868:	037f1303 	0x37f1303
 86c:	08710872 	j	1c421c8 <_init-0x513bde38>
 870:	4748463a 	c1	0x148463a
 874:	02817f85 	0x2817f85
 878:	79031040 	0x79031040
 87c:	01e0037f 	0x1e0037f
 880:	08013002 	j	4c008 <_init-0x52fb3ff8>
 884:	084c7a76 	j	131e9d8 <_init-0x51ce1628>
 888:	01880371 	tgeu	t4,t0,0xd
 88c:	0348847f 	0x348847f
 890:	e1087ef2 	sc	t0,32498(t0)
 894:	487f0f03 	mfhc2	ra,0xf03
 898:	030f4002 	0x30f4002
 89c:	037f00ef 	0x37f00ef
 8a0:	037f7f91 	0x37f7f91
 8a4:	b7a9081b 	0xb7a9081b
 8a8:	48464885 	0x48464885
 8ac:	03808185 	0x3808185
 8b0:	03b700d2 	0x3b700d2
 8b4:	7f7f7fb4 	0x7f7f7fb4
 8b8:	0f240284 	jal	c900a10 <_init-0x466ff5f0>
 8bc:	037f2203 	0x37f2203
 8c0:	42037f25 	c0	0x37f25
 8c4:	4b48427f 	c2	0x148427f
 8c8:	474b4644 	c1	0x14b4644
 8cc:	f1818080 	0xf1818080
 8d0:	0881bd80 	j	206f600 <_init-0x50f90a00>
 8d4:	0380813a 	0x380813a
 8d8:	88037f2b 	lwl	v1,32555(zero)
 8dc:	85b77f7f 	lh	s7,32639(t5)
 8e0:	85484648 	lh	t0,17992(t2)
 8e4:	037f6e03 	0x37f6e03
 8e8:	b7ef00e1 	0xb7ef00e1
 8ec:	7f7af503 	0x7f7af503
 8f0:	b94846f0 	swr	t0,18160(t2)
 8f4:	0205a403 	0x205a403
 8f8:	a7030140 	sh	v1,320(t8)
 8fc:	ba037f7f 	swr	v1,32639(s0)
 900:	9f037f7b 	0x9f037f7b
 904:	4d037f05 	bc3tl	2051c <_init-0x52fdfae4>
 908:	ef3b037f 	swc3	$27,895(t9)
 90c:	ba444a7c 	swr	a0,19068(s2)
 910:	7f0a0384 	ins	t2,t8,0xe,0xfffffff3
 914:	0847837f 	j	11e0dfc <_init-0x51e1f204>
 918:	86b7473e 	lh	s7,18238(s5)
 91c:	7003b482 	0x7003b482
 920:	0381477f 	0x381477f
 924:	6f034711 	0x6f034711
 928:	7f1103b7 	0x7f1103b7
 92c:	39087303 	xori	t0,t0,0x7303
 930:	7f0c0380 	ext	t4,t8,0xe,0x1
 934:	03b77903 	0x3b77903
 938:	7ff47f0a 	0x7ff47f0a
 93c:	3203e108 	andi	v1,s0,0xe108
 940:	ef0a037f 	swc3	$10,895(t8)
 944:	71084403 	0x71084403
 948:	807f2a03 	lb	ra,10755(v1)
 94c:	ef690380 	swc3	$9,896(k1)
 950:	48b98182 	0x48b98182
 954:	48468247 	0x48468247
 958:	037f1c03 	0x37f1c03
 95c:	86710879 	lh	s1,2169(s3)
 960:	71084f03 	0x71084f03
 964:	027acd03 	0x27acd03
 968:	b303012c 	0xb303012c
 96c:	cd034705 	pref	0x3,18181(t0)
 970:	80f07f7a 	lb	s0,32634(a3)
 974:	80818081 	lb	at,-32639(a0)
 978:	123c02f1 	beq	s1,gp,1540 <_init-0x52ffeac0>
 97c:	49113402 	bc2t	$cc4,d988 <_init-0x52ff2678>
 980:	85478547 	lh	a3,-31417(t2)
 984:	8081bdbd 	lb	at,-16963(a0)
 988:	7f05b803 	0x7f05b803
 98c:	7f7aa403 	0x7f7aa403
 990:	ef1d037f 	swc3	$29,895(t8)
 994:	08790380 	j	1e40e00 <_init-0x511bf200>
 998:	79038039 	0x79038039
 99c:	03803908 	0x3803908
 9a0:	80390879 	lb	t9,2169(at)
 9a4:	0805d403 	j	17500c <_init-0x52e8aff4>
 9a8:	7cc00339 	0x7cc00339
 9ac:	03c00347 	0x3c00347
 9b0:	7cc00347 	0x7cc00347
 9b4:	03c00347 	0x3c00347
 9b8:	7cc00347 	0x7cc00347
 9bc:	03c0037f 	0x3c0037f
 9c0:	7cc00347 	0x7cc00347
 9c4:	f0827108 	0xf0827108
 9c8:	00c40381 	0xc40381
 9cc:	03012c02 	0x3012c02
 9d0:	037f7c80 	0x37f7c80
 9d4:	037f06fe 	0x37f06fe
 9d8:	01280214 	0x1280214
 9dc:	09033a08 	j	40ce820 <_init-0x4ef317e0>
 9e0:	7ca40347 	0x7ca40347
 9e4:	4a012c02 	c2	0x12c02
 9e8:	b9103002 	swr	s0,12290(t0)
 9ec:	bb102802 	swr	s0,10242(t8)
 9f0:	ef7f9003 	swc3	$31,-28669(k1)
 9f4:	f1123402 	0xf1123402
 9f8:	2c020a03 	sltiu	v0,zero,2563
 9fc:	02dc0801 	movf	at,s6,$fcc7
 a00:	80f61228 	lb	s6,4648(a3)
 a04:	ef00e703 	swc3	$0,-6397(t8)
 a08:	7f09037f 	0x7f09037f
 a0c:	6002877f 	0x6002877f
 a10:	f5494511 	sdc1	$f9,17681(t2)
 a14:	86494581 	lh	t1,17793(s2)
 a18:	03817ff4 	teq	gp,at,0x1ff
 a1c:	38027eea 	xori	v0,zero,0x7eea
 a20:	019a0301 	0x19a0301
 a24:	03013002 	0x3013002
 a28:	f07f7bf9 	0xf07f7bf9
 a2c:	8f034846 	lw	v1,18502(t8)
 a30:	0882b704 	j	20adc10 <_init-0x50f523f0>
 a34:	8381be40 	lb	at,-16832(gp)
 a38:	02dc03f4 	teq	s6,gp,0xf
 a3c:	7da603b7 	0x7da603b7
 a40:	02da0347 	0x2da0347
 a44:	7da60347 	0x7da60347
 a48:	02da0347 	0x2da0347
 a4c:	7508f347 	jalx	423cd1c <_init-0x4edc32e4>
 a50:	7f7da903 	0x7f7da903
 a54:	87478381 	lh	a3,-31871(k0)
 a58:	e003bd82 	sc	v1,-17022(zero)
 a5c:	a5037f7b 	sh	v1,32635(t0)
 a60:	4483ef04 	0x4483ef04
 a64:	cb03804a 	lwc2	$3,-32694(t8)
 a68:	80f4b77e 	lb	s4,-18562(a3)
 a6c:	f17f4f03 	0xf17f4f03
 a70:	03152802 	0x3152802
 a74:	390801df 	xori	t0,t0,0x1df
 a78:	03152c02 	0x3152c02
 a7c:	390802ae 	xori	t0,t0,0x2ae
 a80:	027ce903 	0x27ce903
 a84:	67030130 	0x67030130
 a88:	f0014402 	0xf0014402
 a8c:	7c9c0380 	ext	gp,a0,0xe,0x1
 a90:	02fd03ef 	0x2fd03ef
 a94:	f1013c02 	0xf1013c02
 a98:	027db003 	0x27db003
 a9c:	03800130 	tge	gp,zero,0x4
 aa0:	80b70499 	lb	s7,1177(a1)
 aa4:	817f7403 	lb	ra,29699(t3)
 aa8:	027f6603 	0x27f6603
 aac:	7003123c 	0x7003123c
 ab0:	c803807f 	lwc2	$3,-32641(zero)
 ab4:	03f1b700 	0x3f1b700
 ab8:	30027fae 	andi	v0,zero,0x7fae
 abc:	d5038001 	ldc1	$f3,-32767(t0)
 ac0:	0382ef00 	0x382ef00
 ac4:	027f02b0 	tge	s3,ra,0xa
 ac8:	0101000c 	syscall	0x40400
Disassembly of section .debug_frame:

00000000 <.debug_frame>:
   0:	0000000c 	syscall
   4:	ffffffff 	sdc3	$31,-1(ra)
   8:	04010001 	b	10 <_init-0x52fffff0>
   c:	001d0c1f 	0x1d0c1f
  10:	00000030 	tge	zero,zero
  14:	00000000 	nop
  18:	53000020 	beqzl	t8,9c <_init-0x52ffff64>
  1c:	000002a0 	0x2a0
  20:	64480e44 	0x64480e44
  24:	11761011 	beq	t3,s6,406c <_init-0x52ffbf94>
  28:	13117812 	beq	t8,s1,1e074 <_init-0x52fe1f8c>
  2c:	7a141179 	0x7a141179
  30:	117b1511 	beq	t3,k1,5478 <_init-0x52ffab88>
  34:	17117c16 	bne	t8,s1,1f090 <_init-0x52fe0f70>
  38:	7e1e117d 	0x7e1e117d
  3c:	117f1f11 	beq	t3,ra,7c84 <_init-0x52ff837c>
  40:	00007711 	0x7711
  44:	0000002c 	0x2c
  48:	00000000 	nop
  4c:	530002c0 	beqzl	t8,b50 <_init-0x52fff4b0>
  50:	00000144 	0x144
  54:	74380e44 	jalx	e03910 <_init-0x521fc6f0>
  58:	11761011 	beq	t3,s6,40a0 <_init-0x52ffbf60>
  5c:	12117711 	beq	s0,s1,1dca4 <_init-0x52fe235c>
  60:	7e1f1178 	extrv_r.w	ra,$ac2,s0
  64:	11791311 	beq	t3,t9,4cac <_init-0x52ffb354>
  68:	15117a14 	bne	t0,s1,1e8bc <_init-0x52fe1744>
  6c:	7c16117b 	0x7c16117b
  70:	007d1711 	0x7d1711
  74:	00000030 	tge	zero,zero
  78:	00000000 	nop
  7c:	53000404 	beqzl	t8,1090 <_init-0x52ffef70>
  80:	0000015c 	0x15c
  84:	6c380e44 	0x6c380e44
  88:	11771111 	beq	t3,s7,44d0 <_init-0x52ffbb30>
  8c:	13117812 	beq	t8,s1,1e0d8 <_init-0x52fe1f28>
  90:	7a141179 	0x7a141179
  94:	117b1511 	beq	t3,k1,54dc <_init-0x52ffab24>
  98:	17117c16 	bne	t8,s1,1f0f4 <_init-0x52fe0f0c>
  9c:	7e1e117d 	0x7e1e117d
  a0:	117f1f11 	beq	t3,ra,7ce8 <_init-0x52ff8318>
  a4:	00007610 	0x7610
  a8:	0000001c 	0x1c
  ac:	00000000 	nop
  b0:	53000560 	beqzl	t8,1634 <_init-0x52ffe9cc>
  b4:	000000bc 	0xbc
  b8:	54280e44 	bnel	at,t0,39cc <_init-0x52ffc634>
  bc:	117f1f11 	beq	t3,ra,7d04 <_init-0x52ff82fc>
  c0:	11117c10 	beq	t0,s1,1f104 <_init-0x52fe0efc>
  c4:	7e12117d 	0x7e12117d
  c8:	0000001c 	0x1c
  cc:	00000000 	nop
  d0:	5300061c 	beqzl	t8,1944 <_init-0x52ffe6bc>
  d4:	00000078 	0x78
  d8:	44200e44 	0x44200e44
  dc:	487c1011 	mfhc2	gp,0x1011
  e0:	117d1111 	beq	t3,sp,4528 <_init-0x52ffbad8>
  e4:	00007e1f 	0x7e1f
  e8:	0000000c 	syscall
  ec:	00000000 	nop
  f0:	53000694 	beqzl	t8,1b44 <_init-0x52ffe4bc>
  f4:	00000040 	ssnop
  f8:	00000024 	and	zero,zero,zero
  fc:	00000000 	nop
 100:	530006d4 	beqzl	t8,1c54 <_init-0x52ffe3ac>
 104:	000002b4 	teq	zero,zero,0xa
 108:	01b00e44 	0x1b00e44
 10c:	7d131144 	ins	s3,t0,0x5,0xfffffffe
 110:	7a10114c 	0x7a10114c
 114:	587b1111 	0x587b1111
 118:	117c1211 	beq	t3,gp,4960 <_init-0x52ffb6a0>
 11c:	00007e1f 	0x7e1f
 120:	00000030 	tge	zero,zero
 124:	00000000 	nop
 128:	53000988 	beqzl	t8,274c <_init-0x52ffd8b4>
 12c:	00000358 	0x358
 130:	68400e44 	0x68400e44
 134:	11771111 	beq	t3,s7,457c <_init-0x52ffba84>
 138:	14117913 	bne	zero,s1,1e588 <_init-0x52fe1a78>
 13c:	7f1f117a 	0x7f1f117a
 140:	11761011 	beq	t3,s6,4188 <_init-0x52ffbe78>
 144:	15117812 	bne	t0,s1,1e190 <_init-0x52fe1e70>
 148:	7c16117b 	0x7c16117b
 14c:	117d1711 	beq	t3,sp,5d94 <_init-0x52ffa26c>
 150:	00007e1e 	0x7e1e
 154:	00000028 	0x28
 158:	00000000 	nop
 15c:	53000ce0 	beqzl	t8,34e0 <_init-0x52ffcb20>
 160:	000007ac 	0x7ac
 164:	60380e44 	0x60380e44
 168:	11791111 	beq	t3,t9,45b0 <_init-0x52ffba50>
 16c:	14117a12 	bne	zero,s1,1e9b8 <_init-0x52fe1648>
 170:	7f1f117c 	0x7f1f117c
 174:	11781011 	beq	t3,t8,41bc <_init-0x52ffbe44>
 178:	15117b13 	bne	t0,s1,1edc8 <_init-0x52fe1238>
 17c:	7e16117d 	0x7e16117d
 180:	00000014 	0x14
 184:	00000000 	nop
 188:	5300148c 	beqzl	t8,53bc <_init-0x52ffac44>
 18c:	00000060 	0x60
 190:	44200e44 	0x44200e44
 194:	007e1f11 	0x7e1f11
 198:	0000001c 	0x1c
 19c:	00000000 	nop
 1a0:	530014ec 	beqzl	t8,5554 <_init-0x52ffaaac>
 1a4:	00000060 	0x60
 1a8:	4c200e44 	0x4c200e44
 1ac:	117e1f11 	beq	t3,s8,7df4 <_init-0x52ff820c>
 1b0:	11117c10 	beq	t0,s1,1f1f4 <_init-0x52fe0e0c>
 1b4:	0000007d 	0x7d
 1b8:	0000000c 	syscall
 1bc:	00000000 	nop
 1c0:	5300154c 	beqzl	t8,56f4 <_init-0x52ffa90c>
 1c4:	00000008 	jr	zero
 1c8:	00000018 	mult	zero,zero
 1cc:	00000000 	nop
 1d0:	53001554 	beqzl	t8,5724 <_init-0x52ffa8dc>
 1d4:	00000038 	0x38
 1d8:	48180e44 	0x48180e44
 1dc:	117f1f11 	beq	t3,ra,7e24 <_init-0x52ff81dc>
 1e0:	00007e10 	0x7e10
 1e4:	0000000c 	syscall
 1e8:	ffffffff 	sdc3	$31,-1(ra)
 1ec:	04010001 	b	1f4 <_init-0x52fffe0c>
 1f0:	001d0c1f 	0x1d0c1f
 1f4:	00000014 	0x14
 1f8:	000001e4 	0x1e4
 1fc:	5300158c 	beqzl	t8,5830 <_init-0x52ffa7d0>
 200:	00000028 	0x28
 204:	48180e48 	0x48180e48
 208:	007e1f11 	0x7e1f11
 20c:	0000000c 	syscall
 210:	000001e4 	0x1e4
 214:	530015b4 	beqzl	t8,58e8 <_init-0x52ffa718>
 218:	00000008 	jr	zero
 21c:	0000000c 	syscall
 220:	ffffffff 	sdc3	$31,-1(ra)
 224:	04010001 	b	22c <_init-0x52fffdd4>
 228:	001d0c1f 	0x1d0c1f
 22c:	0000001c 	0x1c
 230:	0000021c 	0x21c
 234:	530015bc 	beqzl	t8,5928 <_init-0x52ffa6d8>
 238:	00000188 	0x188
 23c:	50500e44 	beql	v0,s0,3b50 <_init-0x52ffc4b0>
 240:	117c1011 	beq	t3,gp,4288 <_init-0x52ffbd78>
 244:	11117f1f 	beq	t0,s1,1fec4 <_init-0x52fe013c>
 248:	7e12117d 	0x7e12117d
 24c:	00000018 	mult	zero,zero
 250:	0000021c 	0x21c
 254:	53001744 	beqzl	t8,5f68 <_init-0x52ffa098>
 258:	00000080 	sll	zero,zero,0x2
 25c:	48180e44 	0x48180e44
 260:	117f1f11 	beq	t3,ra,7ea8 <_init-0x52ff8158>
 264:	00007e10 	0x7e10
 268:	00000014 	0x14
 26c:	0000021c 	0x21c
 270:	530017c4 	beqzl	t8,6184 <_init-0x52ff9e7c>
 274:	00000034 	teq	zero,zero
 278:	4c180e44 	0x4c180e44
 27c:	007e1f11 	0x7e1f11
 280:	00000014 	0x14
 284:	0000021c 	0x21c
 288:	530017f8 	beqzl	t8,626c <_init-0x52ff9d94>
 28c:	0000004c 	syscall	0x1
 290:	44180e48 	0x44180e48
 294:	007e1f11 	0x7e1f11
 298:	0000001c 	0x1c
 29c:	0000021c 	0x21c
 2a0:	53001844 	beqzl	t8,63b4 <_init-0x52ff9c4c>
 2a4:	00000104 	0x104
 2a8:	4c300e44 	0x4c300e44
 2ac:	117c1011 	beq	t3,gp,42f4 <_init-0x52ffbd0c>
 2b0:	11117e1f 	beq	t0,s1,1fb30 <_init-0x52fe04d0>
 2b4:	0000007d 	0x7d
 2b8:	0000000c 	syscall
 2bc:	0000021c 	0x21c
 2c0:	53001948 	beqzl	t8,67e4 <_init-0x52ff981c>
 2c4:	00000008 	jr	zero
 2c8:	00000018 	mult	zero,zero
 2cc:	0000021c 	0x21c
 2d0:	53001950 	beqzl	t8,6814 <_init-0x52ff97ec>
 2d4:	00000050 	0x50
 2d8:	48180e44 	0x48180e44
 2dc:	117f1f11 	beq	t3,ra,7f24 <_init-0x52ff80dc>
 2e0:	00007e10 	0x7e10
 2e4:	00000018 	mult	zero,zero
 2e8:	0000021c 	0x21c
 2ec:	530019a0 	beqzl	t8,6970 <_init-0x52ff9690>
 2f0:	00000058 	0x58
 2f4:	4c180e44 	0x4c180e44
 2f8:	117f1f11 	beq	t3,ra,7f40 <_init-0x52ff80c0>
 2fc:	00007e10 	0x7e10
 300:	0000001c 	0x1c
 304:	0000021c 	0x21c
 308:	530019f8 	beqzl	t8,6aec <_init-0x52ff9514>
 30c:	000000f0 	tge	zero,zero,0x3
 310:	4c200e44 	0x4c200e44
 314:	117e1f11 	beq	t3,s8,7f5c <_init-0x52ff80a4>
 318:	11117c10 	beq	t0,s1,1f35c <_init-0x52fe0ca4>
 31c:	0000007d 	0x7d
 320:	00000018 	mult	zero,zero
 324:	0000021c 	0x21c
 328:	53001ae8 	beqzl	t8,6ecc <_init-0x52ff9134>
 32c:	00000120 	0x120
 330:	48200e44 	0x48200e44
 334:	117e1011 	beq	t3,s8,437c <_init-0x52ffbc84>
 338:	00007f1f 	0x7f1f
 33c:	00000020 	add	zero,zero,zero
 340:	0000021c 	0x21c
 344:	53001c08 	beqzl	t8,7368 <_init-0x52ff8c98>
 348:	0000024c 	syscall	0x9
 34c:	10b00e44 	beq	a1,s0,3c60 <_init-0x52ffc3a0>
 350:	7e12114c 	0x7e12114c
 354:	117c1011 	beq	t3,gp,439c <_init-0x52ffbc64>
 358:	1f117d11 	0x1f117d11
 35c:	0000007f 	0x7f
 360:	00000018 	mult	zero,zero
 364:	0000021c 	0x21c
 368:	53001e54 	beqzl	t8,7cbc <_init-0x52ff8344>
 36c:	000000d8 	0xd8
 370:	48200e44 	0x48200e44
 374:	117e1011 	beq	t3,s8,43bc <_init-0x52ffbc44>
 378:	00007f1f 	0x7f1f
 37c:	0000001c 	0x1c
 380:	0000021c 	0x21c
 384:	53001f2c 	beqzl	t8,8038 <_init-0x52ff7fc8>
 388:	000000ec 	0xec
 38c:	4c280e44 	0x4c280e44
 390:	117c1011 	beq	t3,gp,43d8 <_init-0x52ffbc28>
 394:	11117e1f 	beq	t0,s1,1fc14 <_init-0x52fe03ec>
 398:	0000007d 	0x7d
 39c:	00000020 	add	zero,zero,zero
 3a0:	0000021c 	0x21c
 3a4:	53002018 	beqzl	t8,8408 <_init-0x52ff7bf8>
 3a8:	000002fc 	0x2fc
 3ac:	54380e44 	bnel	at,t8,3cc0 <_init-0x52ffc340>
 3b0:	117d1311 	beq	t3,sp,4ff8 <_init-0x52ffb008>
 3b4:	10117e1f 	beq	zero,s1,1fc34 <_init-0x52fe03cc>
 3b8:	7b11117a 	0x7b11117a
 3bc:	007c1211 	0x7c1211
 3c0:	0000001c 	0x1c
 3c4:	0000021c 	0x21c
 3c8:	53002314 	beqzl	t8,901c <_init-0x52ff6fe4>
 3cc:	000000e4 	0xe4
 3d0:	50200e4c 	beqzl	at,3d04 <_init-0x52ffc2fc>
 3d4:	117d1111 	beq	t3,sp,481c <_init-0x52ffb7e4>
 3d8:	10117e1f 	beq	zero,s1,1fc58 <_init-0x52fe03a8>
 3dc:	0000007c 	0x7c
 3e0:	0000001c 	0x1c
 3e4:	0000021c 	0x21c
 3e8:	530023f8 	beqzl	t8,93cc <_init-0x52ff6c34>
 3ec:	000002d0 	0x2d0
 3f0:	08b80e44 	j	2e03910 <_init-0x501fc6f0>
 3f4:	7c10114c 	0x7c10114c
 3f8:	117d1111 	beq	t3,sp,4840 <_init-0x52ffb7c0>
 3fc:	00007e1f 	0x7e1f
 400:	00000030 	tge	zero,zero
 404:	0000021c 	0x21c
 408:	530026c8 	beqzl	t8,9f2c <_init-0x52ff60d4>
 40c:	00000788 	0x788
 410:	20d80e44 	addi	t8,a2,3652
 414:	7d171148 	0x7d171148
 418:	7c161148 	0x7c161148
 41c:	76101160 	jalx	8404580 <_init-0x4abfba80>
 420:	11771111 	beq	t3,s7,4868 <_init-0x52ffb798>
 424:	13117812 	beq	t8,s1,1e470 <_init-0x52fe1b90>
 428:	7a141179 	0x7a141179
 42c:	117b1511 	beq	t3,k1,5874 <_init-0x52ffa78c>
 430:	00007e1f 	0x7e1f
Disassembly of section .debug_pubnames:

00000000 <.debug_pubnames>:
   0:	000001c6 	0x1c6
   4:	00000002 	srl	zero,zero,0x0
   8:	12420000 	beq	s2,v0,c <_init-0x52fffff4>
   c:	0c7e0000 	jal	1f80000 <_init-0x51080000>
  10:	65640000 	0x65640000
  14:	6f746b73 	0x6f746b73
  18:	6f6c5f70 	0x6f6c5f70
  1c:	735f6461 	0x735f6461
  20:	656c7974 	0x656c7974
  24:	000ce500 	sll	gp,t4,0x14
  28:	73656400 	0x73656400
  2c:	706f746b 	0x706f746b
  30:	6675625f 	0x6675625f
  34:	5f726566 	0x5f726566
  38:	6f736572 	0x6f736572
  3c:	65637275 	0x65637275
  40:	000d1900 	sll	v1,t5,0x4
  44:	73656400 	0x73656400
  48:	706f746b 	0x706f746b
  4c:	6c65725f 	0x6c65725f
  50:	65736165 	0x65736165
  54:	7365725f 	udi15	k1,a1,t6,0x9
  58:	6372756f 	0x6372756f
  5c:	0d980065 	jal	6600194 <_init-0x4c9ffe6c>
  60:	65640000 	0x65640000
  64:	6f746b73 	0x6f746b73
  68:	65675f70 	0x65675f70
  6c:	65685f74 	0x65685f74
  70:	61626461 	0x61626461
  74:	70615f72 	0x70615f72
  78:	6f636970 	0x6f636970
  7c:	1018006e 	beq	zero,t8,238 <_init-0x52fffdc8>
  80:	68730000 	0x68730000
  84:	645f776f 	0x645f776f
  88:	746b7365 	jalx	1adcd94 <_init-0x5152326c>
  8c:	625f706f 	0x625f706f
  90:	103d0067 	beq	at,sp,230 <_init-0x52fffdd0>
  94:	68730000 	0x68730000
  98:	6e5f776f 	0x6e5f776f
  9c:	5f747865 	0x5f747865
  a0:	6b736564 	0x6b736564
  a4:	00706f74 	teq	v1,s0,0x1bd
  a8:	00001072 	tlt	zero,zero,0x41
  ac:	776f6873 	jalx	dbda1cc <_init-0x45425e34>
  b0:	6968635f 	0x6968635f
  b4:	645f646c 	0x645f646c
  b8:	746b7365 	jalx	1adcd94 <_init-0x5152326c>
  bc:	9900706f 	lwr	zero,28783(t0)
  c0:	73000010 	udi0	t8,zero,zero,0x0
  c4:	5f776f68 	0x5f776f68
  c8:	72727563 	0x72727563
  cc:	5f746e65 	0x5f746e65
  d0:	6b736564 	0x6b736564
  d4:	00706f74 	teq	v1,s0,0x1bd
  d8:	000010c0 	sll	v0,zero,0x3
  dc:	72687470 	0x72687470
  e0:	5f646165 	0x5f646165
  e4:	6574756d 	0x6574756d
  e8:	79745f78 	0x79745f78
  ec:	745f6570 	jalx	17d95c0 <_init-0x51826a40>
  f0:	0010d200 	sll	k0,s0,0x8
  f4:	68747000 	0x68747000
  f8:	64616572 	0x64616572
  fc:	6168735f 	0x6168735f
 100:	745f6572 	jalx	17d95c8 <_init-0x51826a38>
 104:	5f657079 	0x5f657079
 108:	10e40074 	beq	a3,a0,2dc <_init-0x52fffd24>
 10c:	65640000 	0x65640000
 110:	5f677562 	0x5f677562
 114:	656d6974 	0x656d6974
 118:	00113500 	sll	a2,s1,0x14
 11c:	72747300 	0x72747300
 120:	7070615f 	udi15	v1,s0,t4,0x5
 124:	6d616e5f 	0x6d616e5f
 128:	114d0065 	beq	t2,t5,2c0 <_init-0x52fffd40>
 12c:	74730000 	jalx	1cc0000 <_init-0x51340000>
 130:	70615f72 	0x70615f72
 134:	616e5f70 	0x616e5f70
 138:	705f656d 	0x705f656d
 13c:	115f0031 	beq	t2,ra,204 <_init-0x52fffdfc>
 140:	74730000 	jalx	1cc0000 <_init-0x51340000>
 144:	70615f72 	0x70615f72
 148:	616e5f70 	0x616e5f70
 14c:	705f656d 	0x705f656d
 150:	11710032 	beq	t3,s1,21c <_init-0x52fffde4>
 154:	74730000 	jalx	1cc0000 <_init-0x51340000>
 158:	70615f72 	0x70615f72
 15c:	616e5f70 	0x616e5f70
 160:	705f656d 	0x705f656d
 164:	11b40033 	beq	t5,s4,234 <_init-0x52fffdcc>
 168:	70610000 	madd	v1,at
 16c:	63695f70 	0x63695f70
 170:	5f316e6f 	0x5f316e6f
 174:	61746164 	0x61746164
 178:	0011d700 	sll	k0,s1,0x1c
 17c:	70706100 	0x70706100
 180:	6f63695f 	0x6f63695f
 184:	645f326e 	0x645f326e
 188:	00617461 	0x617461
 18c:	000011fa 	0x11fa
 190:	5f707061 	0x5f707061
 194:	6e6f6369 	0x6e6f6369
 198:	61645f33 	0x61645f33
 19c:	1d006174 	bgtz	t0,18770 <_init-0x52fe7890>
 1a0:	61000012 	0x61000012
 1a4:	695f7070 	0x695f7070
 1a8:	346e6f63 	ori	t6,v1,0x6f63
 1ac:	7461645f 	jalx	185917c <_init-0x517a6e84>
 1b0:	122f0061 	beq	s1,t7,338 <_init-0x52fffcc8>
 1b4:	65680000 	0x65680000
 1b8:	61626461 	0x61626461
 1bc:	70615f72 	0x70615f72
 1c0:	6f636970 	0x6f636970
 1c4:	0000006e 	0x6e
 1c8:	006a0000 	0x6a0000
 1cc:	00020000 	sll	zero,v0,0x0
 1d0:	00001242 	srl	v0,zero,0x9
 1d4:	00000128 	0x128
 1d8:	000000b3 	tltu	zero,zero,0x2
 1dc:	6b736564 	0x6b736564
 1e0:	5f706f74 	0x5f706f74
 1e4:	5f697061 	0x5f697061
 1e8:	74696e69 	jalx	1a5b9a4 <_init-0x515a465c>
 1ec:	0000ca00 	sll	t9,zero,0x8
 1f0:	73656400 	0x73656400
 1f4:	706f746b 	0x706f746b
 1f8:	6970615f 	0x6970615f
 1fc:	6978655f 	0x6978655f
 200:	00dd0074 	teq	a2,sp,0x1
 204:	74700000 	jalx	1c00000 <_init-0x51400000>
 208:	61657268 	0x61657268
 20c:	756d5f64 	jalx	5b57d90 <_init-0x4d4a8270>
 210:	5f786574 	0x5f786574
 214:	65707974 	0x65707974
 218:	ef00745f 	swc3	$0,29791(t8)
 21c:	70000000 	madd	zero,zero
 220:	65726874 	0x65726874
 224:	735f6461 	0x735f6461
 228:	65726168 	0x65726168
 22c:	7079745f 	udi15	v1,t9,t6,0x11
 230:	00745f65 	0x745f65
 234:	00000000 	nop
 238:	0000006f 	0x6f
 23c:	136a0002 	beq	k1,t2,248 <_init-0x52fffdb8>
 240:	1a0a0000 	0x1a0a0000
 244:	171e0000 	bne	t8,s8,248 <_init-0x52fffdb8>
 248:	616c0000 	0x616c0000
 24c:	68636e75 	0x68636e75
 250:	735f7265 	0x735f7265
 254:	656e6563 	0x656e6563
 258:	7365645f 	udi15	k1,a1,t4,0x11
 25c:	706f746b 	0x706f746b
 260:	0019ac00 	sll	s5,t9,0x10
 264:	68747000 	0x68747000
 268:	64616572 	0x64616572
 26c:	74756d5f 	jalx	1d5b57c <_init-0x512a4a84>
 270:	745f7865 	jalx	17de194 <_init-0x51821e6c>
 274:	5f657079 	0x5f657079
 278:	19be0074 	0x19be0074
 27c:	74700000 	jalx	1c00000 <_init-0x51400000>
 280:	61657268 	0x61657268
 284:	68735f64 	0x68735f64
 288:	5f657261 	0x5f657261
 28c:	65707974 	0x65707974
 290:	d000745f 	0xd000745f
 294:	67000019 	0x67000019
 298:	6563735f 	0x6563735f
 29c:	645f656e 	0x645f656e
 2a0:	746b7365 	jalx	1adcd94 <_init-0x5152326c>
 2a4:	0000706f 	0x706f
 2a8:	Address 0x2a8 is out of bounds.

Disassembly of section .debug_aranges:

00000000 <.debug_aranges>:
   0:	0000001c 	0x1c
   4:	00000002 	srl	zero,zero,0x0
   8:	00040000 	sll	zero,a0,0x0
   c:	00000000 	nop
  10:	53000020 	beqzl	t8,94 <_init-0x52ffff6c>
  14:	0000156c 	0x156c
	...
  20:	0000001c 	0x1c
  24:	12420002 	beq	s2,v0,30 <_init-0x52ffffd0>
  28:	00040000 	sll	zero,a0,0x0
  2c:	00000000 	nop
  30:	5300158c 	beqzl	t8,5664 <_init-0x52ffa99c>
  34:	00000030 	tge	zero,zero
	...
  40:	0000001c 	0x1c
  44:	136a0002 	beq	k1,t2,50 <_init-0x52ffffb0>
  48:	00040000 	sll	zero,a0,0x0
  4c:	00000000 	nop
  50:	530015bc 	beqzl	t8,5744 <_init-0x52ffa8bc>
  54:	00001894 	0x1894
	...
Disassembly of section .debug_str:

00000000 <.debug_str>:
       0:	47444957 	c1	0x1444957
       4:	535f5445 	beql	k0,ra,1511c <_init-0x52feaee4>
       8:	4d5f4749 	0x4d5f4749
       c:	4f424753 	c3	0x1424753
      10:	41435f58 	0x41435f58
      14:	4152454d 	0x4152454d
      18:	55414c5f 	bnel	t2,at,13198 <_init-0x52fece68>
      1c:	4548434e 	0x4548434e
      20:	6e750044 	0x6e750044
      24:	6e676973 	0x6e676973
      28:	63206465 	0x63206465
      2c:	00726168 	0x726168
      30:	554e454d 	bnel	t2,t6,11568 <_init-0x52feea98>
      34:	57454956 	bnel	k0,a1,12590 <_init-0x52feda70>
      38:	54504f5f 	bnel	v0,s0,13db8 <_init-0x52fec248>
      3c:	004e4f49 	0x4e4f49
      40:	47444957 	c1	0x1444957
      44:	535f5445 	beql	k0,ra,1515c <_init-0x52feaea4>
      48:	4d5f4749 	0x4d5f4749
      4c:	56554e45 	bnel	s2,s5,13964 <_init-0x52fec69c>
      50:	5f574549 	0x5f574549
      54:	4e574f44 	c3	0x574f44
      58:	50595400 	beql	v0,t9,1505c <_init-0x52feafa4>
      5c:	49565f45 	0x49565f45
      60:	004f4544 	0x4f4544
      64:	76697270 	jalx	9a5c9c0 <_init-0x495a3640>
      68:	00657461 	0x657461
      6c:	5f707061 	0x5f707061
      70:	6c797473 	0x6c797473
      74:	616d5f65 	0x616d5f65
      78:	00735f70 	tge	v1,s3,0x17d
      7c:	6c696863 	0x6c696863
      80:	666f5f64 	0x666f5f64
      84:	74657366 	jalx	195cd98 <_init-0x516a3268>
      88:	44495700 	0x44495700
      8c:	5f544547 	0x5f544547
      90:	5f474953 	0x5f474953
      94:	4247534d 	c0	0x47534d
      98:	505f584f 	beql	v0,ra,161d8 <_init-0x52fe9e28>
      9c:	4f544f48 	c3	0x1544f48
      a0:	55414c5f 	bnel	t2,at,13220 <_init-0x52fecde0>
      a4:	4548434e 	0x4548434e
      a8:	79620044 	0x79620044
      ac:	70736574 	0x70736574
      b0:	69707265 	0x69707265
      b4:	006c6578 	0x6c6578
      b8:	7a697378 	0x7a697378
      bc:	63730065 	0x63730065
      c0:	6c6c6f72 	0x6c6c6f72
      c4:	70706100 	0x70706100
      c8:	6f63695f 	0x6f63695f
      cc:	645f326e 	0x645f326e
      d0:	00617461 	0x617461
      d4:	5f707061 	0x5f707061
      d8:	65646e69 	0x65646e69
      dc:	74730078 	jalx	1cc01e0 <_init-0x5133fe20>
      e0:	75625f72 	jalx	5897dc8 <_init-0x4d768238>
      e4:	72656666 	0x72656666
      e8:	7469745f 	jalx	1a5d17c <_init-0x515a2e84>
      ec:	7300656c 	0x7300656c
      f0:	656e6563 	0x656e6563
      f4:	7365645f 	udi15	k1,a1,t4,0x11
      f8:	706f746b 	0x706f746b
      fc:	7300735f 	udi15	t8,zero,t6,0xd
     100:	656e6563 	0x656e6563
     104:	7365645f 	udi15	k1,a1,t4,0x11
     108:	706f746b 	0x706f746b
     10c:	6100745f 	0x6100745f
     110:	695f7070 	0x695f7070
     114:	6f660064 	0x6f660064
     118:	72676572 	0x72676572
     11c:	646e756f 	0x646e756f
     120:	63697000 	0x63697000
     124:	65727574 	0x65727574
     128:	7365725f 	udi15	k1,a1,t6,0x9
     12c:	6372756f 	0x6372756f
     130:	00745f65 	0x745f65
     134:	554e454d 	bnel	t2,t6,1166c <_init-0x52fee994>
     138:	57454956 	bnel	k0,a1,12694 <_init-0x52fed96c>
     13c:	4349505f 	c0	0x149505f
     140:	5453494c 	bnel	v0,s3,12674 <_init-0x52fed98c>
     144:	4f42455f 	c3	0x142455f
     148:	61004b4f 	0x61004b4f
     14c:	6e697070 	0x6e697070
     150:	6c5f6f66 	0x6c5f6f66
     154:	00747369 	0x747369
     158:	56455250 	bnel	s2,a1,14a9c <_init-0x52feb564>
     15c:	494e415f 	0x494e415f
     160:	4954414d 	0x4954414d
     164:	66004e4f 	0x66004e4f
     168:	65736c61 	0x65736c61
     16c:	50595400 	beql	v0,t9,15170 <_init-0x52feae90>
     170:	45535f45 	0x45535f45
     174:	4e495454 	c3	0x495454
     178:	59540047 	0x59540047
     17c:	545f4550 	bnel	v0,ra,116c0 <_init-0x52fee940>
     180:	534c4f4f 	beql	k0,t4,13ec0 <_init-0x52fec140>
     184:	65637300 	0x65637300
     188:	0073656e 	0x73656e
     18c:	6172645f 	0x6172645f
     190:	6e755f77 	0x6e755f77
     194:	5f6c6573 	0x5f6c6573
     198:	5f707061 	0x5f707061
     19c:	6e6f6369 	0x6e6f6369
     1a0:	70706100 	0x70706100
     1a4:	7079745f 	udi15	v1,t9,t6,0x11
     1a8:	70610065 	0x70610065
     1ac:	00655f70 	tge	v1,a1,0x17d
     1b0:	554e454d 	bnel	t2,t6,116e8 <_init-0x52fee918>
     1b4:	57454956 	bnel	k0,a1,12710 <_init-0x52fed8f0>
     1b8:	4c49465f 	0x4c49465f
     1bc:	53494c45 	beql	k0,t1,132d4 <_init-0x52fecd2c>
     1c0:	45545f54 	0x45545f54
     1c4:	67005458 	0x67005458
     1c8:	6c5f6975 	0x6c5f6975
     1cc:	6d006269 	0x6d006269
     1d0:	76756e65 	jalx	9d5b994 <_init-0x492a466c>
     1d4:	5f776569 	0x5f776569
     1d8:	76697270 	jalx	9a5c9c0 <_init-0x495a3640>
     1dc:	5f657461 	0x5f657461
     1e0:	696d0073 	0x696d0073
     1e4:	61765f6e 	0x61765f6e
     1e8:	0065756c 	0x65756c
     1ec:	6b736564 	0x6b736564
     1f0:	5f706f74 	0x5f706f74
     1f4:	64616f6c 	0x64616f6c
     1f8:	7974735f 	0x7974735f
     1fc:	6200656c 	0x6200656c
     200:	006c6f6f 	0x6c6f6f
     204:	52485450 	beql	s2,t0,15348 <_init-0x52feacb8>
     208:	5f444145 	0x5f444145
     20c:	4554554d 	0x4554554d
     210:	4e495f58 	c3	0x495f58
     214:	494c4156 	0x494c4156
     218:	616c0044 	0x616c0044
     21c:	6175676e 	0x6175676e
     220:	635f6567 	0x635f6567
     224:	676e6168 	0x676e6168
     228:	57006465 	bnezl	t8,193c0 <_init-0x52fe6c40>
     22c:	45474449 	0x45474449
     230:	49535f54 	0x49535f54
     234:	534d5f47 	beql	k0,t5,17f54 <_init-0x52fe80ac>
     238:	584f4247 	0x584f4247
     23c:	4f48535f 	c3	0x148535f
     240:	59540057 	0x59540057
     244:	435f4550 	c0	0x15f4550
     248:	52454d41 	beql	s2,a1,13750 <_init-0x52fec8b0>
     24c:	49570041 	0x49570041
     250:	54454744 	bnel	v0,a1,11f64 <_init-0x52fee09c>
     254:	4749535f 	c1	0x149535f
     258:	47534d5f 	c1	0x1534d5f
     25c:	5f584f42 	0x5f584f42
     260:	5f425355 	0x5f425355
     264:	4e55414c 	c3	0x55414c
     268:	44454843 	0x44454843
     26c:	70706100 	0x70706100
     270:	70616d5f 	udi15	v1,at,t5,0x15
     274:	45435300 	0x45435300
     278:	445f454e 	0x445f454e
     27c:	544b5345 	bnel	v0,t3,14f94 <_init-0x52feb06c>
     280:	7400504f 	jalx	1413c <_init-0x52febec4>
     284:	72656d69 	0x72656d69
     288:	0064695f 	0x64695f
     28c:	756c6f76 	jalx	5b1bdd8 <_init-0x4d4e4228>
     290:	6162656d 	0x6162656d
     294:	00735f72 	tlt	v1,s3,0x17d
     298:	6b736564 	0x6b736564
     29c:	5f706f74 	0x5f706f74
     2a0:	66667562 	0x66667562
     2a4:	725f7265 	0x725f7265
     2a8:	756f7365 	jalx	5bdcd94 <_init-0x4d42326c>
     2ac:	00656372 	tlt	v1,a1,0x18d
     2b0:	705f6762 	0x705f6762
     2b4:	70006369 	0x70006369
     2b8:	65726874 	0x65726874
     2bc:	6d5f6461 	0x6d5f6461
     2c0:	78657475 	0x78657475
     2c4:	7079745f 	udi15	v1,t9,t6,0x11
     2c8:	00745f65 	0x745f65
     2cc:	6b736564 	0x6b736564
     2d0:	5f706f74 	0x5f706f74
     2d4:	656c6572 	0x656c6572
     2d8:	5f657361 	0x5f657361
     2dc:	6f736572 	0x6f736572
     2e0:	65637275 	0x65637275
     2e4:	70706100 	0x70706100
     2e8:	6f63695f 	0x6f63695f
     2ec:	6100316e 	0x6100316e
     2f0:	695f7070 	0x695f7070
     2f4:	346e6f63 	ori	t6,v1,0x6f63
     2f8:	6e656d00 	0x6e656d00
     2fc:	65746975 	0x65746975
     300:	6e695f6d 	0x6e695f6d
     304:	5f72656e 	0x5f72656e
     308:	75630073 	jalx	58c01cc <_init-0x4d73fe34>
     30c:	61765f72 	0x61765f72
     310:	0065756c 	0x65756c
     314:	776f6873 	jalx	dbda1cc <_init-0x45425e34>
     318:	78656e5f 	0x78656e5f
     31c:	65645f74 	0x65645f74
     320:	6f746b73 	0x6f746b73
     324:	54500070 	bnel	v0,s0,4e8 <_init-0x52fffb18>
     328:	41455248 	0x41455248
     32c:	554d5f44 	bnel	t2,t5,18040 <_init-0x52fe7fc0>
     330:	5f584554 	0x5f584554
     334:	41464544 	0x41464544
     338:	00544c55 	0x544c55
     33c:	65726964 	0x65726964
     340:	6f697463 	0x6f697463
     344:	656d006e 	0x656d006e
     348:	6976756e 	0x6976756e
     34c:	745f7765 	jalx	17ddd94 <_init-0x5182226c>
     350:	5f657079 	0x5f657079
     354:	54500065 	bnel	v0,s0,4ec <_init-0x52fffb14>
     358:	41455248 	0x41455248
     35c:	554d5f44 	bnel	t2,t5,18070 <_init-0x52fe7f90>
     360:	5f584554 	0x5f584554
     364:	4f525245 	c3	0x1525245
     368:	45484352 	0x45484352
     36c:	76004b43 	jalx	8012d0c <_init-0x4afed2f4>
     370:	6d756c6f 	0x6d756c6f
     374:	72616265 	0x72616265
     378:	5400745f 	bnezl	zero,1d4f8 <_init-0x52fe2b08>
     37c:	5f455059 	0x5f455059
     380:	4953554d 	0x4953554d
     384:	74700043 	jalx	1c0010c <_init-0x513ffef4>
     388:	61657268 	0x61657268
     38c:	68735f64 	0x68735f64
     390:	5f657261 	0x5f657261
     394:	65707974 	0x65707974
     398:	7300745f 	udi15	t8,zero,t6,0x11
     39c:	615f7274 	0x615f7274
     3a0:	6e5f7070 	0x6e5f7070
     3a4:	5f656d61 	0x5f656d61
     3a8:	66003270 	0x66003270
     3ac:	6e656c69 	0x6e656c69
     3b0:	00656d61 	0x656d61
     3b4:	5f727563 	0x5f727563
     3b8:	6b736564 	0x6b736564
     3bc:	00706f74 	teq	v1,s0,0x1bd
     3c0:	44414548 	0x44414548
     3c4:	5f524142 	0x5f524142
     3c8:	45505954 	0x45505954
     3cc:	5655595f 	bnel	s2,s5,1694c <_init-0x52fe96b4>
     3d0:	6f726700 	0x6f726700
     3d4:	53007075 	beqzl	t8,1c5ac <_init-0x52fe3a54>
     3d8:	5f504554 	0x5f504554
     3dc:	54530032 	bnel	v0,s3,4a8 <_init-0x52fffb58>
     3e0:	335f5045 	andi	ra,k0,0x5045
     3e4:	61706f00 	0x61706f00
     3e8:	00657571 	tgeu	v1,a1,0x1d5
     3ec:	4e454353 	c3	0x454353
     3f0:	414c5f45 	0x414c5f45
     3f4:	48434e55 	0x48434e55
     3f8:	78616d00 	0x78616d00
     3fc:	6c61765f 	0x6c61765f
     400:	57006575 	bnezl	t8,199d8 <_init-0x52fe6628>
     404:	45474449 	0x45474449
     408:	49535f54 	0x49535f54
     40c:	534d5f47 	beql	k0,t5,1812c <_init-0x52fe7ed4>
     410:	584f4247 	0x584f4247
     414:	4955515f 	0x4955515f
     418:	4f4c5f54 	c3	0x14c5f54
     41c:	4f505f57 	c3	0x1505f57
     420:	00524557 	0x524557
     424:	6267736d 	0x6267736d
     428:	735f786f 	0x735f786f
     42c:	655f6769 	0x655f6769
     430:	79632f00 	0x79632f00
     434:	69726467 	0x69726467
     438:	632f6576 	0x632f6576
     43c:	6e69622f 	0x6e69622f
     440:	616e6e61 	0x616e6e61
     444:	73752f6e 	0x73752f6e
     448:	46333132 	c.eq.d	$fcc1,$f6,$f19
     44c:	6e69622f 	0x6e69622f
     450:	616e6e61 	0x616e6e61
     454:	73755f6e 	0x73755f6e
     458:	66333132 	0x66333132
     45c:	6f76752f 	0x6f76752f
     460:	73752f62 	0x73752f62
     464:	31326b64 	andi	s2,t1,0x6b64
     468:	632f6633 	0x632f6633
     46c:	2f657361 	sltiu	a1,k1,29537
     470:	73707061 	0x73707061
     474:	7365642f 	0x7365642f
     478:	706f746b 	0x706f746b
     47c:	75616c2f 	jalx	585b0bc <_init-0x4d7a4f44>
     480:	6568636e 	0x6568636e
     484:	71772f72 	0x71772f72
     488:	5f616776 	0x5f616776
     48c:	6c797473 	0x6c797473
     490:	00315f65 	0x315f65
     494:	5f727473 	0x5f727473
     498:	5f707061 	0x5f707061
     49c:	656d616e 	0x656d616e
     4a0:	0033705f 	0x33705f
     4a4:	67646977 	0x67646977
     4a8:	735f7465 	0x735f7465
     4ac:	685f6769 	0x685f6769
     4b0:	62646165 	0x62646165
     4b4:	655f7261 	0x655f7261
     4b8:	72617000 	0x72617000
     4bc:	00746e65 	0x746e65
     4c0:	7a697379 	0x7a697379
     4c4:	6f760065 	0x6f760065
     4c8:	656d756c 	0x656d756c
     4cc:	5f726162 	0x5f726162
     4d0:	76697270 	jalx	9a5c9c0 <_init-0x495a3640>
     4d4:	5f657461 	0x5f657461
     4d8:	61746164 	0x61746164
     4dc:	5300735f 	beqzl	t8,1d25c <_init-0x52fe2da4>
     4e0:	454e4543 	0x454e4543
     4e4:	4958455f 	0x4958455f
     4e8:	70610054 	udi4	v1,at,zero,0x1
     4ec:	63695f70 	0x63695f70
     4f0:	5f336e6f 	0x5f336e6f
     4f4:	61746164 	0x61746164
     4f8:	4e454d00 	c3	0x454d00
     4fc:	45495655 	0x45495655
     500:	49465f57 	0x49465f57
     504:	494c454c 	0x494c454c
     508:	495f5453 	0x495f5453
     50c:	004e4f43 	0x4e4f43
     510:	20554e47 	addi	s5,v0,20039
     514:	2e332043 	sltiu	s3,s1,8259
     518:	20342e34 	addi	s4,at,11828
     51c:	7370696d 	0x7370696d
     520:	2d656473 	sltiu	a1,t3,25715
     524:	36302e36 	ori	s0,s1,0x2e36
     528:	2d31302e 	sltiu	s1,t1,12334
     52c:	37303032 	ori	s0,t9,0x3032
     530:	30323430 	andi	s2,at,0x3430
     534:	73696400 	0x73696400
     538:	79616c70 	0x79616c70
     53c:	646f6d5f 	0x646f6d5f
     540:	70610065 	0x70610065
     544:	78655f70 	0x78655f70
     548:	64657469 	0x64657469
     54c:	79656b00 	0x79656b00
     550:	69760073 	0x69760073
     554:	6c626973 	0x6c626973
     558:	70610065 	0x70610065
     55c:	616d5f70 	0x616d5f70
     560:	00745f70 	tge	v1,s4,0x17d
     564:	756e656d 	jalx	5b995b4 <_init-0x4d466a4c>
     568:	5f62635f 	0x5f62635f
     56c:	69700074 	0x69700074
     570:	64695f63 	0x64695f63
     574:	6165685f 	0x6165685f
     578:	70610064 	0x70610064
     57c:	74735f70 	jalx	1cd7dc0 <_init-0x51328240>
     580:	00656c79 	0x656c79
     584:	6172645f 	0x6172645f
     588:	69705f77 	0x69705f77
     58c:	49570063 	0x49570063
     590:	54454744 	bnel	v0,a1,122a4 <_init-0x52fedd5c>
     594:	4749535f 	c1	0x149535f
     598:	47534d5f 	c1	0x1534d5f
     59c:	5f584f42 	0x5f584f42
     5a0:	574f4853 	bnel	k0,t7,126f0 <_init-0x52fed910>
     5a4:	574f4c5f 	bnel	k0,t7,13724 <_init-0x52fec8dc>
     5a8:	574f505f 	bnel	k0,t7,14728 <_init-0x52feb8d8>
     5ac:	5f005245 	bgtzl	t8,14ec4 <_init-0x52feb13c>
     5b0:	6e75665f 	0x6e75665f
     5b4:	005f5f63 	0x5f5f63
     5b8:	47444957 	c1	0x1444957
     5bc:	535f5445 	beql	k0,ra,156d4 <_init-0x52fea92c>
     5c0:	4d5f4749 	0x4d5f4749
     5c4:	56554e45 	bnel	s2,s5,13edc <_init-0x52fec124>
     5c8:	5f574549 	0x5f574549
     5cc:	54004b4f 	bnezl	zero,1330c <_init-0x52feccf4>
     5d0:	5f455059 	0x5f455059
     5d4:	544f4850 	bnel	v0,t7,12718 <_init-0x52fed8e8>
     5d8:	6964004f 	0x6964004f
     5dc:	616c7073 	0x616c7073
     5e0:	74735f79 	jalx	1cd7de4 <_init-0x5132821c>
     5e4:	63007065 	0x63007065
     5e8:	676e6168 	0x676e6168
     5ec:	6f725f65 	0x6f725f65
     5f0:	74730077 	jalx	1cc01dc <_init-0x5133fe24>
     5f4:	676e6972 	0x676e6972
     5f8:	7365725f 	udi15	k1,a1,t6,0x9
     5fc:	6372756f 	0x6372756f
     600:	00745f65 	0x745f65
     604:	726f6873 	0x726f6873
     608:	6e752074 	0x6e752074
     60c:	6e676973 	0x6e676973
     610:	69206465 	0x69206465
     614:	6e00746e 	0x6e00746e
     618:	5f747865 	0x5f747865
     61c:	00707061 	0x707061
     620:	65676170 	0x65676170
     624:	7461645f 	jalx	185917c <_init-0x517a6e84>
     628:	49570061 	0x49570061
     62c:	54454744 	bnel	v0,a1,12340 <_init-0x52fedcc0>
     630:	4749535f 	c1	0x149535f
     634:	4e454d5f 	c3	0x454d5f
     638:	45495655 	0x45495655
     63c:	50555f57 	beql	v0,s5,1839c <_init-0x52fe7c64>
     640:	73626100 	0x73626100
     644:	74756c6f 	jalx	1d5b1bc <_init-0x512a4e44>
     648:	00785f65 	0x785f65
     64c:	5f636970 	0x5f636970
     650:	67006469 	0x67006469
     654:	625f6975 	0x625f6975
     658:	616d7469 	0x616d7469
     65c:	6e695f70 	0x6e695f70
     660:	745f6f66 	jalx	17dbd98 <_init-0x51824268>
     664:	50595400 	beql	v0,t9,15668 <_init-0x52fea998>
     668:	53555f45 	beql	k0,s5,18380 <_init-0x52fe7c80>
     66c:	59540042 	0x59540042
     670:	455f4550 	0x455f4550
     674:	4b4f4f42 	c2	0x14f4f42
     678:	73626100 	0x73626100
     67c:	74756c6f 	jalx	1d5b1bc <_init-0x512a4e44>
     680:	00795f65 	0x795f65
     684:	45505954 	0x45505954
     688:	4345525f 	c0	0x145525f
     68c:	4544524f 	0x4544524f
     690:	65740052 	0x65740052
     694:	615f7478 	0x615f7478
     698:	6e67696c 	0x6e67696c
     69c:	45545300 	0x45545300
     6a0:	4f435f50 	c3	0x1435f50
     6a4:	00544e55 	0x544e55
     6a8:	554e454d 	bnel	t2,t6,11be0 <_init-0x52fee420>
     6ac:	57454956 	bnel	k0,a1,12c08 <_init-0x52fed3f8>
     6b0:	4349505f 	c0	0x149505f
     6b4:	5453494c 	bnel	v0,s3,12be8 <_init-0x52fed418>
     6b8:	53554d5f 	beql	k0,s5,13c38 <_init-0x52fec3c8>
     6bc:	4c004349 	0x4c004349
     6c0:	636e7561 	0x636e7561
     6c4:	5f726568 	0x5f726568
     6c8:	6b736564 	0x6b736564
     6cc:	5f706f74 	0x5f706f74
     6d0:	632e6975 	0x632e6975
     6d4:	6f687300 	0x6f687300
     6d8:	65645f77 	0x65645f77
     6dc:	6f746b73 	0x6f746b73
     6e0:	67625f70 	0x67625f70
     6e4:	67736d00 	0x67736d00
     6e8:	5f786f62 	0x5f786f62
     6ec:	76697270 	jalx	9a5c9c0 <_init-0x495a3640>
     6f0:	5f657461 	0x5f657461
     6f4:	61746164 	0x61746164
     6f8:	5700735f 	bnezl	t8,1d478 <_init-0x52fe2b88>
     6fc:	45474449 	0x45474449
     700:	49535f54 	0x49535f54
     704:	454d5f47 	0x454d5f47
     708:	4956554e 	0x4956554e
     70c:	515f5745 	beql	t2,ra,16424 <_init-0x52fe9bdc>
     710:	00544955 	0x544955
     714:	756e656d 	jalx	5b995b4 <_init-0x4d466a4c>
     718:	65727000 	0x65727000
     71c:	49570076 	0x49570076
     720:	54454744 	bnel	v0,a1,12434 <_init-0x52fedbcc>
     724:	4749535f 	c1	0x149535f
     728:	47534d5f 	c1	0x1534d5f
     72c:	5f584f42 	0x5f584f42
     730:	54495551 	bnel	v0,t1,15c78 <_init-0x52fea388>
     734:	574f4c5f 	bnel	k0,t7,138b4 <_init-0x52fec74c>
     738:	574f505f 	bnel	k0,t7,148b8 <_init-0x52feb748>
     73c:	555f5245 	bnel	t2,ra,15054 <_init-0x52feafac>
     740:	54534f48 	bnel	v0,s3,14464 <_init-0x52febb9c>
     744:	67736d00 	0x67736d00
     748:	5f786f62 	0x5f786f62
     74c:	736d0073 	0x736d0073
     750:	786f6267 	0x786f6267
     754:	7700745f 	jalx	c01d17c <_init-0x46fe2e84>
     758:	695f6e69 	0x695f6e69
     75c:	45480064 	0x45480064
     760:	41424441 	0x41424441
     764:	59545f52 	0x59545f52
     768:	535f4550 	beql	k0,ra,11cac <_init-0x52fee354>
     76c:	4c504d49 	0x4c504d49
     770:	59540045 	0x59540045
     774:	545f4550 	bnel	v0,ra,11cb8 <_init-0x52fee348>
     778:	5f545345 	0x5f545345
     77c:	004d4f43 	0x4d4f43
     780:	63735f67 	0x63735f67
     784:	5f656e65 	0x5f656e65
     788:	6b736564 	0x6b736564
     78c:	00706f74 	teq	v1,s0,0x1bd
     790:	6b636162 	0x6b636162
     794:	756f7267 	jalx	5bdc99c <_init-0x4d423664>
     798:	5700646e 	bnezl	t8,19954 <_init-0x52fe66ac>
     79c:	45474449 	0x45474449
     7a0:	49535f54 	0x49535f54
     7a4:	534d5f47 	beql	k0,t5,184c4 <_init-0x52fe7b3c>
     7a8:	584f4247 	0x584f4247
     7ac:	4956545f 	0x4956545f
     7b0:	414c5f4e 	0x414c5f4e
     7b4:	48434e55 	0x48434e55
     7b8:	4d004445 	bc3f	118d0 <_init-0x52fee730>
     7bc:	56554e45 	bnel	s2,s5,140d4 <_init-0x52febf2c>
     7c0:	5f574549 	0x5f574549
     7c4:	4c434950 	0x4c434950
     7c8:	5f545349 	0x5f545349
     7cc:	54434950 	bnel	v0,v1,12d10 <_init-0x52fed2f0>
     7d0:	00455255 	0x455255
     7d4:	45505954 	0x45505954
     7d8:	4441525f 	0x4441525f
     7dc:	4d004f49 	bc3f	14504 <_init-0x52febafc>
     7e0:	56554e45 	bnel	s2,s5,140f8 <_init-0x52febf08>
     7e4:	5f574549 	0x5f574549
     7e8:	0058414d 	break	0x58,0x105
     7ec:	746e6f66 	jalx	1b9bd98 <_init-0x51464268>
     7f0:	6965685f 	0x6965685f
     7f4:	00746867 	0x746867
     7f8:	554e454d 	bnel	t2,t6,11d30 <_init-0x52fee2d0>
     7fc:	57454956 	bnel	k0,a1,12d58 <_init-0x52fed2a8>
     800:	4349505f 	c0	0x149505f
     804:	5453494c 	bnel	v0,s3,12d38 <_init-0x52fed2c8>
     808:	4449565f 	0x4449565f
     80c:	57004f45 	bnezl	t8,14524 <_init-0x52febadc>
     810:	45474449 	0x45474449
     814:	49535f54 	0x49535f54
     818:	454d5f47 	0x454d5f47
     81c:	4956554e 	0x4956554e
     820:	455f5745 	0x455f5745
     824:	45454358 	0x45454358
     828:	49465f44 	0x49465f44
     82c:	00545352 	0x545352
     830:	756e656d 	jalx	5b995b4 <_init-0x4d466a4c>
     834:	77656976 	jalx	d95a5d8 <_init-0x456a5a28>
     838:	6f687300 	0x6f687300
     83c:	75635f77 	jalx	58d7ddc <_init-0x4d728224>
     840:	6e657272 	0x6e657272
     844:	65645f74 	0x65645f74
     848:	6f746b73 	0x6f746b73
     84c:	65680070 	0x65680070
     850:	61626461 	0x61626461
     854:	72705f72 	0x72705f72
     858:	74617669 	jalx	185d9a4 <_init-0x517a265c>
     85c:	00735f65 	0x735f65
     860:	6172645f 	0x6172645f
     864:	70615f77 	0x70615f77
     868:	63695f70 	0x63695f70
     86c:	6d006e6f 	0x6d006e6f
     870:	76756e65 	jalx	9d5b994 <_init-0x492a466c>
     874:	5f776569 	0x5f776569
     878:	54500074 	bnel	v0,s0,a4c <_init-0x52fff5b4>
     87c:	41455248 	0x41455248
     880:	554d5f44 	bnel	t2,t5,18594 <_init-0x52fe7a6c>
     884:	5f584554 	0x5f584554
     888:	55434552 	bnel	t2,v1,11dd4 <_init-0x52fee22c>
     88c:	56495352 	bnel	s2,t1,155d8 <_init-0x52feaa28>
     890:	69700045 	0x69700045
     894:	61645f63 	0x61645f63
     898:	745f6174 	jalx	17d85d0 <_init-0x51827a30>
     89c:	6f687300 	0x6f687300
     8a0:	69207472 	0x69207472
     8a4:	6100746e 	0x6100746e
     8a8:	695f7070 	0x695f7070
     8ac:	5f6e6f63 	0x5f6e6f63
     8b0:	00736f70 	tge	v1,s3,0x1bd
     8b4:	76697270 	jalx	9a5c9c0 <_init-0x495a3640>
     8b8:	5f657461 	0x5f657461
     8bc:	61746164 	0x61746164
     8c0:	6e656d00 	0x6e656d00
     8c4:	65697675 	0x65697675
     8c8:	00735f77 	0x735f77
     8cc:	6f736572 	0x6f736572
     8d0:	65637275 	0x65637275
     8d4:	6d75735f 	0x6d75735f
     8d8:	50595400 	beql	v0,t9,158dc <_init-0x52fea724>
     8dc:	52425f45 	beql	s2,v0,185f4 <_init-0x52fe7a0c>
     8e0:	4553574f 	0x4553574f
     8e4:	75630052 	jalx	58c0148 <_init-0x4d73feb8>
     8e8:	65645f72 	0x65645f72
     8ec:	6f746b73 	0x6f746b73
     8f0:	696c5f70 	0x696c5f70
     8f4:	73007473 	0x73007473
     8f8:	656c7974 	0x656c7974
     8fc:	7300735f 	udi15	t8,zero,t6,0xd
     900:	656c7974 	0x656c7974
     904:	6100745f 	0x6100745f
     908:	695f7070 	0x695f7070
     90c:	346e6f63 	ori	t6,v1,0x6f63
     910:	7461645f 	jalx	185917c <_init-0x517a6e84>
     914:	65720061 	0x65720061
     918:	6f726773 	0x6f726773
     91c:	725f7075 	0x725f7075
     920:	756f7365 	jalx	5bdcd94 <_init-0x4d42326c>
     924:	5f656372 	0x5f656372
     928:	656e0074 	0x656e0074
     92c:	5f007478 	bgtzl	t8,1db10 <_init-0x52fe24f0>
     930:	5f746567 	0x5f746567
     934:	5f707061 	0x5f707061
     938:	7263616d 	0x7263616d
     93c:	5450006f 	bnel	v0,s0,afc <_init-0x52fff504>
     940:	41455248 	0x41455248
     944:	554d5f44 	bnel	t2,t5,18658 <_init-0x52fe79a8>
     948:	5f584554 	0x5f584554
     94c:	4d524f4e 	0x4d524f4e
     950:	73004c41 	0x73004c41
     954:	65636170 	0x65636170
     958:	6f6c6700 	0x6f6c6700
     95c:	5f6c6162 	0x5f6c6162
     960:	657a6973 	0x657a6973
     964:	72747300 	0x72747300
     968:	5f64695f 	0x5f64695f
     96c:	6c746974 	0x6c746974
     970:	454d0065 	0x454d0065
     974:	4956554e 	0x4956554e
     978:	505f5745 	beql	v0,ra,16690 <_init-0x52fe9970>
     97c:	494c4349 	0x494c4349
     980:	495f5453 	0x495f5453
     984:	004f464e 	0x4f464e
     988:	50455453 	beql	v0,a1,15ad8 <_init-0x52fea528>
     98c:	5700315f 	bnezl	t8,cf0c <_init-0x52ff30f4>
     990:	45474449 	0x45474449
     994:	49535f54 	0x49535f54
     998:	454d5f47 	0x454d5f47
     99c:	4956554e 	0x4956554e
     9a0:	455f5745 	0x455f5745
     9a4:	45454358 	0x45454358
     9a8:	414c5f44 	0x414c5f44
     9ac:	65005453 	0x65005453
     9b0:	5f746978 	0x5f746978
     9b4:	65707974 	0x65707974
     9b8:	75727400 	jalx	5c9d000 <_init-0x4d363000>
     9bc:	63730065 	0x63730065
     9c0:	5f656e65 	0x5f656e65
     9c4:	65720074 	0x65720074
     9c8:	72756f73 	0x72756f73
     9cc:	735f6563 	0x735f6563
     9d0:	6d6f6300 	0x6d6f6300
     9d4:	5f6e6f6d 	0x5f6e6f6d
     9d8:	6e656373 	0x6e656373
     9dc:	70610065 	0x70610065
     9e0:	63695f70 	0x63695f70
     9e4:	5f316e6f 	0x5f316e6f
     9e8:	61746164 	0x61746164
     9ec:	73616c00 	0x73616c00
     9f0:	65645f74 	0x65645f74
     9f4:	6f746b73 	0x6f746b73
     9f8:	696c5f70 	0x696c5f70
     9fc:	64007473 	0x64007473
     a00:	67756265 	0x67756265
     a04:	6d69745f 	0x6d69745f
     a08:	70610065 	0x70610065
     a0c:	666e6970 	0x666e6970
     a10:	696c5f6f 	0x696c5f6f
     a14:	745f7473 	jalx	17dd1cc <_init-0x51822e34>
     a18:	72747300 	0x72747300
     a1c:	7070615f 	udi15	v1,s0,t4,0x5
     a20:	6d616e5f 	0x6d616e5f
     a24:	6f700065 	0x6f700065
     a28:	666f5f73 	0x666f5f73
     a2c:	74657366 	jalx	195cd98 <_init-0x516a3268>
     a30:	61647000 	0x61647000
     a34:	63006174 	0x63006174
     a38:	61766e61 	0x61766e61
     a3c:	64695f73 	0x64695f73
     a40:	70706100 	0x70706100
     a44:	6f63695f 	0x6f63695f
     a48:	6100326e 	0x6100326e
     a4c:	695f7070 	0x695f7070
     a50:	336e6f63 	andi	t6,k1,0x6f63
     a54:	44495700 	0x44495700
     a58:	5f544547 	0x5f544547
     a5c:	5f474953 	0x5f474953
     a60:	44414548 	0x44414548
     a64:	5f524142 	0x5f524142
     a68:	4c4c554e 	0x4c4c554e
     a6c:	44495700 	0x44495700
     a70:	5f544547 	0x5f544547
     a74:	5f474953 	0x5f474953
     a78:	4247534d 	c0	0x47534d
     a7c:	515f584f 	beql	t2,ra,16bbc <_init-0x52fe9444>
     a80:	00544955 	0x544955
     a84:	6b736564 	0x6b736564
     a88:	5f706f74 	0x5f706f74
     a8c:	5f746567 	0x5f746567
     a90:	64616568 	0x64616568
     a94:	5f726162 	0x5f726162
     a98:	69707061 	0x69707061
     a9c:	006e6f63 	0x6e6f63
     aa0:	554e454d 	bnel	t2,t6,11fd8 <_init-0x52fee028>
     aa4:	57454956 	bnel	k0,a1,13000 <_init-0x52fed000>
     aa8:	4e454d5f 	c3	0x454d5f
     aac:	53494c55 	beql	k0,t1,13c04 <_init-0x52fec3fc>
     ab0:	43495f54 	c0	0x1495f54
     ab4:	66004e4f 	0x66004e4f
     ab8:	64746e6f 	0x64746e6f
     abc:	48007365 	0x48007365
     ac0:	42444145 	c0	0x444145
     ac4:	545f5241 	bnel	v0,ra,153cc <_init-0x52feac34>
     ac8:	5f455059 	0x5f455059
     acc:	4d524f4e 	0x4d524f4e
     ad0:	74004c41 	jalx	13104 <_init-0x52fecefc>
     ad4:	736e6172 	0x736e6172
     ad8:	65726170 	0x65726170
     adc:	0065636e 	0x65636e
     ae0:	47444957 	c1	0x1444957
     ae4:	535f5445 	beql	k0,ra,15bfc <_init-0x52fea404>
     ae8:	4d5f4749 	0x4d5f4749
     aec:	56554e45 	bnel	s2,s5,14404 <_init-0x52febbfc>
     af0:	5f574549 	0x5f574549
     af4:	41445055 	0x41445055
     af8:	415f4554 	0x415f4554
     afc:	6d004c4c 	0x6d004c4c
     b00:	5f756e65 	0x5f756e65
     b04:	656d0073 	0x656d0073
     b08:	745f756e 	jalx	17dd5b8 <_init-0x51822a48>
     b0c:	50595400 	beql	v0,t9,15b10 <_init-0x52fea4f0>
     b10:	4f435f45 	c3	0x1435f45
     b14:	00544e55 	0x544e55
     b18:	47444957 	c1	0x1444957
     b1c:	535f5445 	beql	k0,ra,15c34 <_init-0x52fea3cc>
     b20:	4d5f4749 	0x4d5f4749
     b24:	56554e45 	bnel	s2,s5,1443c <_init-0x52febbc4>
     b28:	5f574549 	0x5f574549
     b2c:	524f4853 	beql	s2,t7,12c7c <_init-0x52fed384>
     b30:	454d5f54 	0x454d5f54
     b34:	6100554e 	0x6100554e
     b38:	6168706c 	0x6168706c
     b3c:	6b61625f 	0x6b61625f
     b40:	44495700 	0x44495700
     b44:	5f544547 	0x5f544547
     b48:	5f474953 	0x5f474953
     b4c:	554e454d 	bnel	t2,t6,12084 <_init-0x52fedf7c>
     b50:	57454956 	bnel	k0,a1,130ac <_init-0x52fecf54>
     b54:	4e4f4c5f 	c3	0x4f4c5f
     b58:	454d5f47 	0x454d5f47
     b5c:	6700554e 	0x6700554e
     b60:	61626f6c 	0x61626f6c
     b64:	666f5f6c 	0x666f5f6c
     b68:	74657366 	jalx	195cd98 <_init-0x516a3268>
     b6c:	6f687300 	0x6f687300
     b70:	68635f77 	0x68635f77
     b74:	5f646c69 	0x5f646c69
     b78:	6b736564 	0x6b736564
     b7c:	00706f74 	teq	v1,s0,0x1bd
     b80:	5f727473 	0x5f727473
     b84:	5f707061 	0x5f707061
     b88:	656d616e 	0x656d616e
     b8c:	0031705f 	0x31705f
     b90:	47444957 	c1	0x1444957
     b94:	535f5445 	beql	k0,ra,15cac <_init-0x52fea354>
     b98:	4d5f4749 	0x4d5f4749
     b9c:	4f424753 	c3	0x1424753
     ba0:	48535f58 	0x48535f58
     ba4:	4c5f574f 	0x4c5f574f
     ba8:	505f574f 	beql	v0,ra,168e8 <_init-0x52fe9718>
     bac:	5245574f 	beql	s2,a1,168ec <_init-0x52fe9714>
     bb0:	4f48555f 	c3	0x148555f
     bb4:	73005453 	udi3	t8,zero,t2,0x11
     bb8:	656e6563 	0x656e6563
     bbc:	6174735f 	0x6174735f
     bc0:	5f737574 	0x5f737574
     bc4:	6f6c0065 	0x6f6c0065
     bc8:	6c20676e 	0x6c20676e
     bcc:	20676e6f 	addi	a3,v1,28271
     bd0:	69736e75 	0x69736e75
     bd4:	64656e67 	0x64656e67
     bd8:	746e6920 	jalx	1b9a480 <_init-0x51465b80>
     bdc:	72756300 	0x72756300
     be0:	746e6572 	jalx	1b995c8 <_init-0x51466a38>
     be4:	58454e00 	0x58454e00
     be8:	4e415f54 	c3	0x415f54
     bec:	54414d49 	bnel	v0,at,14114 <_init-0x52febeec>
     bf0:	004e4f49 	0x4e4f49
     bf4:	554e454d 	bnel	t2,t6,1212c <_init-0x52feded4>
     bf8:	57454956 	bnel	k0,a1,13154 <_init-0x52feceac>
     bfc:	4e454d5f 	c3	0x454d5f
     c00:	53494c55 	beql	k0,t1,13d58 <_init-0x52fec2a8>
     c04:	45545f54 	0x45545f54
     c08:	74005458 	jalx	15160 <_init-0x52feaea0>
     c0c:	6c61746f 	0x6c61746f
     c10:	73656400 	0x73656400
     c14:	706f746b 	0x706f746b
     c18:	7369645f 	udi15	k1,t1,t4,0x11
     c1c:	79616c70 	0x79616c70
     c20:	7300655f 	udi15	t8,zero,t4,0x15
     c24:	695f7274 	0x695f7274
     c28:	54500064 	bnel	v0,s0,dbc <_init-0x52fff244>
     c2c:	41455248 	0x41455248
     c30:	52505f44 	beql	s2,s0,18944 <_init-0x52fe76bc>
     c34:	5345434f 	beql	k0,a1,11974 <_init-0x52fee68c>
     c38:	48535f53 	0x48535f53
     c3c:	44455241 	0x44455241
     c40:	41454800 	rdpgpr	t1,a1
     c44:	52414244 	beql	s2,at,11558 <_init-0x52feeaa8>
     c48:	5059545f 	beql	v0,t9,15dc8 <_init-0x52fea238>
     c4c:	414d5f45 	0x414d5f45
     c50:	69770058 	0x69770058
     c54:	00687464 	0x687464
     c58:	5f727563 	0x5f727563
     c5c:	00707061 	0x707061
     c60:	45505954 	0x45505954
     c64:	4d41475f 	0x4d41475f
     c68:	53005345 	beqzl	t8,15980 <_init-0x52fea680>
     c6c:	454e4543 	0x454e4543
     c70:	55414c5f 	bnel	t2,at,13df0 <_init-0x52fec210>
     c74:	5f48434e 	0x5f48434e
     c78:	00505041 	0x505041
     c7c:	64616568 	0x64616568
     c80:	5f726162 	0x5f726162
     c84:	65707974 	0x65707974
     c88:	6300655f 	0x6300655f
     c8c:	6f6d6d6f 	0x6f6d6d6f
     c90:	74735f6e 	jalx	1cd7db8 <_init-0x51328248>
     c94:	00656c79 	0x656c79
     c98:	6172645f 	0x6172645f
     c9c:	70615f77 	0x70615f77
     ca0:	616e5f70 	0x616e5f70
     ca4:	5700656d 	bnezl	t8,1a25c <_init-0x52fe5da4>
     ca8:	45474449 	0x45474449
     cac:	49535f54 	0x49535f54
     cb0:	454d5f47 	0x454d5f47
     cb4:	4956554e 	0x4956554e
     cb8:	445f5745 	0x445f5745
     cbc:	54454c45 	bnel	v0,a1,13dd4 <_init-0x52fec22c>
     cc0:	49570045 	0x49570045
     cc4:	54454744 	bnel	v0,a1,129d8 <_init-0x52fed628>
     cc8:	4749535f 	c1	0x149535f
     ccc:	47534d5f 	c1	0x1534d5f
     cd0:	5f584f42 	0x5f584f42
     cd4:	475f4c50 	c1	0x15f4c50
     cd8:	4c5f4e45 	0x4c5f4e45
     cdc:	434e5541 	c0	0x14e5541
     ce0:	00444548 	0x444548
     ce4:	676e6f6c 	0x676e6f6c
     ce8:	6e6f6c20 	0x6e6f6c20
     cec:	6e692067 	0x6e692067
     cf0:	59540074 	0x59540074
     cf4:	545f4550 	bnel	v0,ra,12238 <_init-0x52feddc8>
     cf8:	004e4956 	0x4e4956
     cfc:	64616568 	0x64616568
     d00:	5f726162 	0x5f726162
     d04:	65680073 	0x65680073
     d08:	61626461 	0x61626461
     d0c:	00745f72 	tlt	v1,s4,0x17d
     d10:	6d696e61 	0x6d696e61
     d14:	6f697461 	0x6f697461
     d18:	74735f6e 	jalx	1cd7db8 <_init-0x51328248>
     d1c:	655f7065 	0x655f7065
     d20:	45545300 	0x45545300
     d24:	4e495f50 	c3	0x495f50
     d28:	6f005449 	0x6f005449
     d2c:	65685f6e 	0x65685f6e
     d30:	61626461 	0x61626461
     d34:	63695f72 	0x63695f72
     d38:	50006e6f 	beqzl	zero,1c6f8 <_init-0x52fe3908>
     d3c:	45524854 	0x45524854
     d40:	505f4441 	beql	v0,ra,11e48 <_init-0x52fee1b8>
     d44:	45434f52 	0x45434f52
     d48:	505f5353 	beql	v0,ra,15a98 <_init-0x52fea568>
     d4c:	41564952 	0x41564952
     d50:	4d004554 	bc3f	122a4 <_init-0x52fedd5c>
     d54:	56554e45 	bnel	s2,s5,1466c <_init-0x52feb994>
     d58:	5f574549 	0x5f574549
     d5c:	4954504f 	0x4954504f
     d60:	495f4e4f 	0x495f4e4f
     d64:	004f464e 	0x4f464e
     d68:	635f7369 	0x635f7369
     d6c:	6f736e6f 	0x6f736e6f
     d70:	4400656c 	0x4400656c
     d74:	4c505349 	0x4c505349
     d78:	435f5941 	c0	0x15f5941
     d7c:	444c4948 	0x444c4948
     d80:	6e656d00 	0x6e656d00
     d84:	65697675 	0x65697675
     d88:	69735f77 	0x69735f77
     d8c:	00655f67 	0x655f67
     d90:	6b736564 	0x6b736564
     d94:	5f706f74 	0x5f706f74
     d98:	5f697061 	0x5f697061
     d9c:	74697865 	jalx	1a5e194 <_init-0x515a1e6c>
     da0:	73656400 	0x73656400
     da4:	706f746b 	0x706f746b
     da8:	6970615f 	0x6970615f
     dac:	006c6274 	teq	v1,t4,0x189
     db0:	6b736564 	0x6b736564
     db4:	5f706f74 	0x5f706f74
     db8:	5f697061 	0x5f697061
     dbc:	74696e69 	jalx	1a5b9a4 <_init-0x515a465c>
     dc0:	73656400 	0x73656400
     dc4:	706f746b 	0x706f746b
     dc8:	6970615f 	0x6970615f
     dcc:	4600632e 	c1	0x632e
     dd0:	4f495355 	c3	0x1495355
     dd4:	55435f4e 	bnel	t2,v1,18b10 <_init-0x52fe74f0>
     dd8:	534d0054 	beql	k0,t5,f2c <_init-0x52fff0d4>
     ddc:	454d5f47 	0x454d5f47
     de0:	4e49474e 	c3	0x49474e
     de4:	41505f45 	0x41505f45
     de8:	5f455355 	0x5f455355
     dec:	434e5953 	c0	0x14e5953
     df0:	47534d00 	c1	0x1534d00
     df4:	5445535f 	bnel	v0,a1,15b74 <_init-0x52fea48c>
     df8:	59454b5f 	0x59454b5f
     dfc:	4e4f545f 	c3	0x4f545f
     e00:	4e455f45 	c3	0x455f45
     e04:	454c4241 	0x454c4241
     e08:	47534d00 	c1	0x1534d00
     e0c:	454d465f 	0x454d465f
     e10:	4e49474e 	c3	0x49474e
     e14:	45535f45 	0x45535f45
     e18:	54535f54 	bnel	v0,s3,18b6c <_init-0x52fe7494>
     e1c:	4d00504f 	bc3f	14f5c <_init-0x52feb0a4>
     e20:	4d5f4753 	0x4d5f4753
     e24:	49474e45 	0x49474e45
     e28:	435f454e 	c0	0x15f454e
     e2c:	45434e41 	0x45434e41
     e30:	46465f4c 	c1	0x465f4c
     e34:	59535f42 	0x59535f42
     e38:	4d00434e 	bc3f	11b74 <_init-0x52fee48c>
     e3c:	4d5f4753 	0x4d5f4753
     e40:	49474e45 	0x49474e45
     e44:	465f454e 	c1	0x5f454e
     e48:	5f445746 	0x5f445746
     e4c:	434e5953 	c0	0x14e5953
     e50:	63735f00 	0x63735f00
     e54:	5f656e65 	0x5f656e65
     e58:	6b736564 	0x6b736564
     e5c:	5f706f74 	0x5f706f74
     e60:	636f7270 	0x636f7270
     e64:	6975675f 	0x6975675f
     e68:	47534d00 	c1	0x1534d00
     e6c:	4e454d5f 	c3	0x454d5f
     e70:	454e4947 	0x454e4947
     e74:	4154535f 	0x4154535f
     e78:	415f5452 	0x415f5452
     e7c:	59535f42 	0x59535f42
     e80:	6b00434e 	0x6b00434e
     e84:	0067736d 	0x67736d
     e88:	6c65645f 	0x6c65645f
     e8c:	5f657465 	0x5f657465
     e90:	756c6f76 	jalx	5b1bdd8 <_init-0x4d4e4228>
     e94:	6162656d 	0x6162656d
     e98:	645f0072 	0x645f0072
     e9c:	74656c65 	jalx	195b194 <_init-0x516a4e6c>
     ea0:	65685f65 	0x65685f65
     ea4:	61626461 	0x61626461
     ea8:	534d0072 	beql	k0,t5,1074 <_init-0x52ffef8c>
     eac:	454d5f47 	0x454d5f47
     eb0:	4e49474e 	c3	0x49474e
     eb4:	45535f45 	0x45535f45
     eb8:	46465f54 	c1	0x465f54
     ebc:	45545342 	0x45545342
     ec0:	59535f50 	0x59535f50
     ec4:	4d00434e 	bc3f	11c00 <_init-0x52fee400>
     ec8:	535f4753 	beql	k0,ra,12c18 <_init-0x52fed3e8>
     ecc:	4c5f5445 	0x4c5f5445
     ed0:	425f4443 	c0	0x5f4443
     ed4:	4c4b4341 	0x4c4b4341
     ed8:	54484749 	bnel	v0,t0,12c00 <_init-0x52fed400>
     edc:	4e59535f 	c3	0x59535f
     ee0:	55460043 	bnel	t2,a2,ff0 <_init-0x52fff010>
     ee4:	4e4f4953 	c3	0x4f4953
     ee8:	4255435f 	c0	0x55435f
     eec:	454b0045 	0x454b0045
     ef0:	41435f59 	0x41435f59
     ef4:	4152454d 	0x4152454d
     ef8:	53595300 	beql	k0,t9,15afc <_init-0x52fea504>
     efc:	5f4d4554 	0x5f4d4554
     f00:	45534142 	0x45534142
     f04:	47534d00 	c1	0x1534d00
     f08:	5443415f 	bnel	v0,v1,11488 <_init-0x52feeb78>
     f0c:	5f455649 	0x5f455649
     f10:	434e5953 	c0	0x14e5953
     f14:	63735f00 	0x63735f00
     f18:	5f656e65 	0x5f656e65
     f1c:	6b736564 	0x6b736564
     f20:	5f706f74 	0x5f706f74
     f24:	6c6c6163 	0x6c6c6163
     f28:	6b636162 	0x6b636162
     f2c:	47534d00 	c1	0x1534d00
     f30:	4f48535f 	c3	0x148535f
     f34:	55435452 	bnel	t2,v1,16080 <_init-0x52fe9f80>
     f38:	4c505f54 	0x4c505f54
     f3c:	41425941 	0x41425941
     f40:	4d004b43 	bc3f	13c50 <_init-0x52fec3b0>
     f44:	415f4753 	0x415f4753
     f48:	455f5050 	0x455f5050
     f4c:	45544958 	0x45544958
     f50:	534d0044 	beql	k0,t5,1064 <_init-0x52ffef9c>
     f54:	4d465f47 	0x4d465f47
     f58:	49474e45 	0x49474e45
     f5c:	455f454e 	0x455f454e
     f60:	48505241 	0x48505241
     f64:	5f454e4f 	0x5f454e4f
     f68:	5f544f4e 	0x5f544f4e
     f6c:	45534e49 	0x45534e49
     f70:	6b005452 	0x6b005452
     f74:	655f7965 	0x655f7965
     f78:	746e6576 	jalx	1b995d8 <_init-0x51466a28>
     f7c:	4d00745f 	bc3f	1e0fc <_init-0x52fe1f04>
     f80:	435f4753 	c0	0x15f4753
     f84:	54414552 	bnel	v0,at,124d0 <_init-0x52fedb30>
     f88:	5050415f 	beql	v0,s0,11508 <_init-0x52feeaf8>
     f8c:	47534d00 	c1	0x1534d00
     f90:	5241435f 	beql	s2,at,11d10 <_init-0x52fee2f0>
     f94:	4e495f44 	c3	0x495f44
     f98:	465f5449 	c1	0x5f5449
     f9c:	454c4941 	0x454c4941
     fa0:	534d0044 	beql	k0,t5,10b4 <_init-0x52ffef4c>
     fa4:	45535f47 	0x45535f47
     fa8:	454b5f54 	0x454b5f54
     fac:	4f545f59 	c3	0x1545f59
     fb0:	4f5f454e 	c3	0x15f454e
     fb4:	534d004e 	beql	k0,t5,10f0 <_init-0x52ffef10>
     fb8:	454d5f47 	0x454d5f47
     fbc:	4e49474e 	c3	0x49474e
     fc0:	45535f45 	0x45535f45
     fc4:	42415f54 	c0	0x415f54
     fc8:	4d49545f 	0x4d49545f
     fcc:	59535f45 	0x59535f45
     fd0:	5200434e 	beqzl	s0,11d0c <_init-0x52fee2f4>
     fd4:	5441544f 	bnel	v0,at,16114 <_init-0x52fe9eec>
     fd8:	5f4e4f49 	0x5f4e4f49
     fdc:	00303732 	tlt	at,s0,0xdc
     fe0:	5f47534d 	0x5f47534d
     fe4:	4c4c494b 	0x4c4c494b
     fe8:	4553555f 	0x4553555f
     fec:	50415f52 	beql	v0,at,18d38 <_init-0x52fe72c8>
     ff0:	535f5350 	beql	k0,ra,15d34 <_init-0x52fea2cc>
     ff4:	00434e59 	0x434e59
     ff8:	67736d70 	0x67736d70
     ffc:	44495700 	0x44495700
    1000:	5f544547 	0x5f544547
    1004:	5f474953 	0x5f474953
    1008:	554c4f56 	bnel	t2,t4,14d64 <_init-0x52feb29c>
    100c:	4142454d 	0x4142454d
    1010:	55515f52 	bnel	t2,s1,18d5c <_init-0x52fe72a4>
    1014:	4d005449 	bc3f	1613c <_init-0x52fe9ec4>
    1018:	555f4753 	bnel	t2,ra,12d68 <_init-0x52fed298>
    101c:	415f4253 	0x415f4253
    1020:	54504144 	bnel	v0,s0,11534 <_init-0x52feeacc>
    1024:	495f524f 	0x495f524f
    1028:	534d004e 	beql	k0,t5,1164 <_init-0x52ffee9c>
    102c:	50415f47 	beql	v0,at,18d4c <_init-0x52fe72b4>
    1030:	55515f50 	bnel	t2,s1,18d74 <_init-0x52fe728c>
    1034:	4b005449 	c2	0x1005449
    1038:	525f5945 	beql	s2,ra,17550 <_init-0x52fe8ab0>
    103c:	52455645 	beql	s2,a1,16954 <_init-0x52fe96ac>
    1040:	30314553 	andi	s1,at,0x4553
    1044:	59454b00 	0x59454b00
    1048:	5645525f 	bnel	s2,a1,159c8 <_init-0x52fea638>
    104c:	45535245 	0x45535245
    1050:	4b003131 	c2	0x1003131
    1054:	525f5945 	beql	s2,ra,1756c <_init-0x52fe8a94>
    1058:	52455645 	beql	s2,a1,16970 <_init-0x52fe9690>
    105c:	32314553 	andi	s1,s1,0x4553
    1060:	59454b00 	0x59454b00
    1064:	5645525f 	bnel	s2,a1,159e4 <_init-0x52fea61c>
    1068:	45535245 	0x45535245
    106c:	4b003331 	c2	0x1003331
    1070:	525f5945 	beql	s2,ra,17588 <_init-0x52fe8a78>
    1074:	52455645 	beql	s2,a1,1698c <_init-0x52fe9674>
    1078:	34314553 	ori	s1,at,0x4553
    107c:	59454b00 	0x59454b00
    1080:	5645525f 	bnel	s2,a1,15a00 <_init-0x52fea600>
    1084:	45535245 	0x45535245
    1088:	4d003631 	nmadd.d	$f24,$f8,$f6,$f0
    108c:	525f4753 	beql	s2,ra,12ddc <_init-0x52fed224>
    1090:	594c5045 	0x594c5045
    1094:	5f4f4e5f 	0x5f4f4e5f
    1098:	4c504552 	0x4c504552
    109c:	69620059 	0x69620059
    10a0:	70616d74 	0x70616d74
    10a4:	47534d00 	c1	0x1534d00
    10a8:	4e454d5f 	c3	0x454d5f
    10ac:	454e4947 	0x454e4947
    10b0:	414c505f 	0x414c505f
    10b4:	454e5f59 	0x454e5f59
    10b8:	535f5458 	beql	k0,ra,1621c <_init-0x52fe9de4>
    10bc:	00434e59 	0x434e59
    10c0:	5f47534d 	0x5f47534d
    10c4:	4c4c494b 	0x4c4c494b
    10c8:	4553555f 	0x4553555f
    10cc:	50415f52 	beql	v0,at,18e18 <_init-0x52fe71e8>
    10d0:	435f5350 	c0	0x15f5350
    10d4:	54414552 	bnel	v0,at,12620 <_init-0x52fed9e0>
    10d8:	5050415f 	beql	v0,s0,11658 <_init-0x52fee9a8>
    10dc:	655f7300 	0x655f7300
    10e0:	69746978 	0x69746978
    10e4:	735f676e 	0x735f676e
    10e8:	656e6563 	0x656e6563
    10ec:	746f7200 	jalx	1bdc800 <_init-0x51423800>
    10f0:	6f697461 	0x6f697461
    10f4:	00655f6e 	0x655f6e
    10f8:	6d657469 	0x6d657469
    10fc:	5f62635f 	0x5f62635f
    1100:	735f0074 	0x735f0074
    1104:	656e6563 	0x656e6563
    1108:	7365645f 	udi15	k1,a1,t4,0x11
    110c:	706f746b 	0x706f746b
    1110:	6975715f 	0x6975715f
    1114:	534d0074 	beql	k0,t5,12e8 <_init-0x52ffed18>
    1118:	53555f47 	beql	k0,s5,18e38 <_init-0x52fe71c8>
    111c:	5f425f42 	0x5f425f42
    1120:	46004e49 	trunc.l.s	$f25,$f9
    1124:	4f495355 	c3	0x1495355
    1128:	4f505f4e 	c3	0x1505f4e
    112c:	41505550 	0x41505550
    1130:	4148504c 	0x4148504c
    1134:	666e6900 	0x666e6900
    1138:	6900316f 	0x6900316f
    113c:	326f666e 	andi	t7,s3,0x666e
    1140:	47534d00 	c1	0x1534d00
    1144:	4e454d5f 	c3	0x454d5f
    1148:	454e4947 	0x454e4947
    114c:	5445535f 	bnel	v0,a1,15ecc <_init-0x52fea134>
    1150:	4441465f 	0x4441465f
    1154:	59535f45 	0x59535f45
    1158:	6300434e 	0x6300434e
    115c:	645f6b6c 	0x645f6b6c
    1160:	69616d6f 	0x69616d6f
    1164:	00745f6e 	0x745f6e
    1168:	5f47534d 	0x5f47534d
    116c:	4f4f4245 	c3	0x14f4245
    1170:	50555f4b 	beql	v0,s5,18ea0 <_init-0x52fe7160>
    1174:	45544144 	0x45544144
    1178:	544f545f 	bnel	v0,t7,162f8 <_init-0x52fe9d08>
    117c:	505f4c41 	beql	v0,ra,14284 <_init-0x52febd7c>
    1180:	00454741 	0x454741
    1184:	5f47534d 	0x5f47534d
    1188:	4e455347 	c3	0x455347
    118c:	5f524f53 	0x5f524f53
    1190:	4b414853 	c2	0x1414853
    1194:	4d004445 	bc3f	122ac <_init-0x52fedd54>
    1198:	465f4753 	c1	0x5f4753
    119c:	474e454d 	c1	0x14e454d
    11a0:	5f454e49 	0x5f454e49
    11a4:	5f544553 	0x5f544553
    11a8:	4f545541 	c3	0x1545541
    11ac:	4545535f 	0x4545535f
    11b0:	52425f4b 	beql	s2,v0,18ee0 <_init-0x52fe7120>
    11b4:	004b4145 	0x4b4145
    11b8:	5f47534d 	0x5f47534d
    11bc:	41455243 	0x41455243
    11c0:	50415f54 	beql	v0,at,18f14 <_init-0x52fe70ec>
    11c4:	45525f50 	0x45525f50
    11c8:	454d5553 	0x454d5553
    11cc:	47534d00 	c1	0x1534d00
    11d0:	454d465f 	0x454d465f
    11d4:	4e49474e 	c3	0x49474e
    11d8:	45475f45 	0x45475f45
    11dc:	4e495f54 	c3	0x495f54
    11e0:	4b004f46 	c2	0x1004f46
    11e4:	525f5945 	beql	s2,ra,176fc <_init-0x52fe8904>
    11e8:	52555445 	beql	s2,s5,16300 <_init-0x52fe9d00>
    11ec:	534d004e 	beql	k0,t5,1328 <_init-0x52ffecd8>
    11f0:	45535f47 	0x45535f47
    11f4:	4f565f54 	c3	0x1565f54
    11f8:	454d554c 	0x454d554c
    11fc:	4e59535f 	c3	0x59535f
    1200:	61680043 	0x61680043
    1204:	68635f73 	0x68635f73
    1208:	00646c69 	0x646c69
    120c:	5f47534d 	0x5f47534d
    1210:	474e454d 	c1	0x14e454d
    1214:	5f454e49 	0x5f454e49
    1218:	59414c50 	0x59414c50
    121c:	4e59535f 	c3	0x59535f
    1220:	4f430043 	c3	0x1430043
    1224:	4749464e 	c1	0x149464e
    1228:	5341425f 	beql	k0,at,11ba8 <_init-0x52fee458>
    122c:	635f0045 	0x635f0045
    1230:	74616572 	jalx	18595c8 <_init-0x517a6a38>
    1234:	65685f65 	0x65685f65
    1238:	61626461 	0x61626461
    123c:	55460072 	bnel	t2,a2,1408 <_init-0x52ffebf8>
    1240:	4e4f4953 	c3	0x4f4953
    1244:	564f4d5f 	bnel	s2,t7,147c4 <_init-0x52feb83c>
    1248:	504c4145 	beql	v0,t4,11760 <_init-0x52fee8a0>
    124c:	4d004148 	bc3f	11770 <_init-0x52fee890>
    1250:	525f4753 	beql	s2,ra,12fa0 <_init-0x52fed060>
    1254:	41545345 	0x41545345
    1258:	485f5452 	0x485f5452
    125c:	5f445241 	0x5f445241
    1260:	43544157 	c0	0x1544157
    1264:	5f474448 	0x5f474448
    1268:	434e5953 	c0	0x14e5953
    126c:	63735f00 	0x63735f00
    1270:	5f656e65 	0x5f656e65
    1274:	6b736564 	0x6b736564
    1278:	5f706f74 	0x5f706f74
    127c:	65736e75 	0x65736e75
    1280:	65645f74 	0x65645f74
    1284:	6c756166 	0x6c756166
    1288:	6f665f74 	0x6f665f74
    128c:	4d00746e 	msub.ps	$f17,$f8,$f14,$f0
    1290:	465f4753 	c1	0x5f4753
    1294:	474e454d 	c1	0x14e454d
    1298:	5f454e49 	0x5f454e49
    129c:	5f544547 	0x5f544547
    12a0:	51455246 	beql	t2,a1,15bbc <_init-0x52fea444>
    12a4:	4f485000 	c3	0x1485000
    12a8:	425f4f54 	c0	0x5f4f54
    12ac:	00455341 	0x455341
    12b0:	5f47534d 	0x5f47534d
    12b4:	5f544547 	0x5f544547
    12b8:	554c4f56 	bnel	t2,t4,15014 <_init-0x52feafec>
    12bc:	535f454d 	beql	k0,ra,127f4 <_init-0x52fed80c>
    12c0:	00434e59 	0x434e59
    12c4:	64616568 	0x64616568
    12c8:	5f726162 	0x5f726162
    12cc:	74696e69 	jalx	1a5b9a4 <_init-0x515a465c>
    12d0:	47534d00 	c1	0x1534d00
    12d4:	4253555f 	c0	0x53555f
    12d8:	534f485f 	beql	k0,t7,13458 <_init-0x52fecba8>
    12dc:	49445f54 	0x49445f54
    12e0:	4f5f4b53 	c3	0x15f4b53
    12e4:	4d005455 	bc3f	1643c <_init-0x52fe9bc4>
    12e8:	555f4753 	bnel	t2,ra,13038 <_init-0x52fecfc8>
    12ec:	485f4253 	0x485f4253
    12f0:	5f54534f 	0x5f54534f
    12f4:	4b534944 	c2	0x1534944
    12f8:	494e495f 	0x494e495f
    12fc:	41465f54 	0x41465f54
    1300:	44454c49 	0x44454c49
    1304:	47534d00 	c1	0x1534d00
    1308:	4958455f 	0x4958455f
    130c:	43535f54 	c0	0x1535f54
    1310:	4e454552 	c3	0x454552
    1314:	45564153 	0x45564153
    1318:	59535f52 	0x59535f52
    131c:	4d00434e 	bc3f	12058 <_init-0x52fedfa8>
    1320:	4b5f4753 	c2	0x15f4753
    1324:	5f4c4c49 	0x5f4c4c49
    1328:	5f4c4c41 	0x5f4c4c41
    132c:	52455355 	beql	s2,a1,16084 <_init-0x52fe9f7c>
    1330:	5050415f 	beql	v0,s0,118b0 <_init-0x52fee750>
    1334:	59535f53 	0x59535f53
    1338:	4d00434e 	bc3f	12074 <_init-0x52fedf8c>
    133c:	4d5f4753 	0x4d5f4753
    1340:	49474e45 	0x49474e45
    1344:	535f454e 	beql	k0,ra,12880 <_init-0x52fed780>
    1348:	415f5445 	0x415f5445
    134c:	52505f42 	beql	s2,s0,19058 <_init-0x52fe6fa8>
    1350:	535f5645 	beql	k0,ra,16c68 <_init-0x52fe9398>
    1354:	00434e59 	0x434e59
    1358:	6e656373 	0x6e656373
    135c:	61645f65 	0x61645f65
    1360:	4d006174 	bc3f	19934 <_init-0x52fe66cc>
    1364:	4c5f4753 	0x4c5f4753
    1368:	55474e41 	bnel	t2,a3,14c70 <_init-0x52feb390>
    136c:	5f454741 	0x5f454741
    1370:	4e414843 	c3	0x414843
    1374:	00444547 	0x444547
    1378:	6563735f 	0x6563735f
    137c:	645f656e 	0x645f656e
    1380:	746b7365 	jalx	1adcd94 <_init-0x5152326c>
    1384:	6f5f706f 	0x6f5f706f
    1388:	5f6e6570 	0x5f6e6570
    138c:	6d656874 	0x6d656874
    1390:	55460065 	bnel	t2,a2,1528 <_init-0x52ffead8>
    1394:	4e4f4953 	c3	0x4f4953
    1398:	554f4c5f 	bnel	t2,t7,14518 <_init-0x52febae8>
    139c:	00524556 	0x524556
    13a0:	5f47534d 	0x5f47534d
    13a4:	524f4853 	beql	s2,t7,134f4 <_init-0x52fecb0c>
    13a8:	54554354 	bnel	v0,s5,120fc <_init-0x52fedf04>
    13ac:	4d41435f 	0x4d41435f
    13b0:	00415245 	0x415245
    13b4:	49535546 	0x49535546
    13b8:	505f4e4f 	beql	v0,ra,14cf8 <_init-0x52feb308>
    13bc:	5055504f 	beql	v0,s5,154fc <_init-0x52feab04>
    13c0:	59454b00 	0x59454b00
    13c4:	4c554e5f 	0x4c554e5f
    13c8:	4f52004c 	c3	0x152004c
    13cc:	49544154 	0x49544154
    13d0:	315f4e4f 	andi	ra,t2,0x4e4f
    13d4:	4d003038 	nmsub.s	$f0,$f8,$f6,$f0
    13d8:	465f4753 	c1	0x5f4753
    13dc:	5f544e4f 	0x5f544e4f
    13e0:	4e414843 	c3	0x414843
    13e4:	00444547 	0x444547
    13e8:	5f47534d 	0x5f47534d
    13ec:	4c504552 	0x4c504552
    13f0:	454d5f59 	0x454d5f59
    13f4:	4e49474e 	c3	0x49474e
    13f8:	45475f45 	0x45475f45
    13fc:	54535f54 	bnel	v0,s3,19150 <_init-0x52fe6eb0>
    1400:	5f455441 	0x5f455441
    1404:	504f5453 	beql	v0,t7,16554 <_init-0x52fe9aac>
    1408:	4d004445 	bc3f	12520 <_init-0x52fedae0>
    140c:	535f4753 	beql	k0,ra,1315c <_init-0x52fecea4>
    1410:	54524f48 	bnel	v0,s2,15134 <_init-0x52feaecc>
    1414:	5f545543 	0x5f545543
    1418:	55544552 	bnel	t2,s4,12964 <_init-0x52fed69c>
    141c:	4d004e52 	bc3f	14d68 <_init-0x52feb298>
    1420:	4d5f4753 	0x4d5f4753
    1424:	49474e45 	0x49474e45
    1428:	535f454e 	beql	k0,ra,12964 <_init-0x52fed69c>
    142c:	455f5445 	0x455f5445
    1430:	59535f51 	0x59535f51
    1434:	4d00434e 	bc3f	12170 <_init-0x52fede90>
    1438:	525f4753 	beql	s2,ra,13188 <_init-0x52fece78>
    143c:	594c5045 	0x594c5045
    1440:	4941465f 	0x4941465f
    1444:	0044454c 	syscall	0x11115
    1448:	5f47534d 	0x5f47534d
    144c:	41455243 	0x41455243
    1450:	50415f54 	beql	v0,at,191a4 <_init-0x52fe6e5c>
    1454:	59535f50 	0x59535f50
    1458:	6100434e 	0x6100434e
    145c:	665f7070 	0x665f7070
    1460:	00656c69 	0x656c69
    1464:	64616568 	0x64616568
    1468:	5f726162 	0x5f726162
    146c:	74696e69 	jalx	1a5b9a4 <_init-0x515a465c>
    1470:	6d00745f 	0x6d00745f
    1474:	64696773 	0x64696773
    1478:	44495700 	0x44495700
    147c:	5f544547 	0x5f544547
    1480:	5f474953 	0x5f474953
    1484:	554c4f56 	bnel	t2,t4,151e0 <_init-0x52feae20>
    1488:	4142454d 	0x4142454d
    148c:	48435f52 	0x48435f52
    1490:	45474e41 	0x45474e41
    1494:	534d0044 	beql	k0,t5,15a8 <_init-0x52ffea58>
    1498:	53555f47 	beql	k0,s5,191b8 <_init-0x52fe6e48>
    149c:	5f425f42 	0x5f425f42
    14a0:	0054554f 	0x54554f
    14a4:	5f59454b 	0x5f59454b
    14a8:	554f5654 	bnel	t2,t7,16dfc <_init-0x52fe9204>
    14ac:	534d0054 	beql	k0,t5,1600 <_init-0x52ffea00>
    14b0:	45525f47 	0x45525f47
    14b4:	5f544553 	0x5f544553
    14b8:	4f545541 	c3	0x1545541
    14bc:	4154535f 	0x4154535f
    14c0:	5942444e 	0x5942444e
    14c4:	4d49545f 	0x4d49545f
    14c8:	535f5245 	beql	k0,ra,15de0 <_init-0x52fea220>
    14cc:	00434e59 	0x434e59
    14d0:	5f47534d 	0x5f47534d
    14d4:	44524143 	0x44524143
    14d8:	554f4d5f 	bnel	t2,t7,14a58 <_init-0x52feb5a8>
    14dc:	465f544e 	c1	0x5f544e
    14e0:	454c4941 	0x454c4941
    14e4:	454b0044 	0x454b0044
    14e8:	45445f59 	0x45445f59
    14ec:	4554454c 	0x4554454c
    14f0:	47534d00 	c1	0x1534d00
    14f4:	59454b5f 	0x59454b5f
    14f8:	4f4c4e55 	c3	0x14c4e55
    14fc:	46004b43 	div.s	$f13,$f9,$f0
    1500:	4f495355 	c3	0x1495355
    1504:	41505f4e 	0x41505f4e
    1508:	4d004547 	bc3f	12a28 <_init-0x52fed5d8>
    150c:	4d5f4753 	0x4d5f4753
    1510:	49474e45 	0x49474e45
    1514:	535f454e 	beql	k0,ra,12a50 <_init-0x52fed5b0>
    1518:	465f5445 	c1	0x5f5445
    151c:	49544246 	0x49544246
    1520:	535f454d 	beql	k0,ra,12a58 <_init-0x52fed5a8>
    1524:	00434e59 	0x434e59
    1528:	5f47534d 	0x5f47534d
    152c:	4e495654 	c3	0x495654
    1530:	414c415f 	0x414c415f
    1534:	495f4d52 	0x495f4d52
    1538:	645f004e 	0x645f004e
    153c:	74656c65 	jalx	195b194 <_init-0x516a4e6c>
    1540:	736d5f65 	0x736d5f65
    1544:	786f6267 	0x786f6267
    1548:	79656b00 	0x79656b00
    154c:	6c61765f 	0x6c61765f
    1550:	4b00655f 	c2	0x100655f
    1554:	545f5945 	bnel	v0,ra,17a6c <_init-0x52fe8594>
    1558:	5f455059 	0x5f455059
    155c:	004c4c41 	0x4c4c41
    1560:	5f47534d 	0x5f47534d
    1564:	4c504552 	0x4c504552
    1568:	454d5f59 	0x454d5f59
    156c:	4e49474e 	c3	0x49474e
    1570:	45475f45 	0x45475f45
    1574:	54535f54 	bnel	v0,s3,192c8 <_init-0x52fe6d38>
    1578:	5f455441 	0x5f455441
    157c:	59414c50 	0x59414c50
    1580:	00474e49 	0x474e49
    1584:	5f47534d 	0x5f47534d
    1588:	44524143 	0x44524143
    158c:	54554f5f 	bnel	v0,s5,1530c <_init-0x52feacf4>
    1590:	47534d00 	c1	0x1534d00
    1594:	4e454d5f 	c3	0x454d5f
    1598:	454e4947 	0x454e4947
    159c:	4c45445f 	0x4c45445f
    15a0:	5f455445 	0x5f455445
    15a4:	454c4946 	0x454c4946
    15a8:	4e59535f 	c3	0x59535f
    15ac:	454b0043 	0x454b0043
    15b0:	59545f59 	0x59545f59
    15b4:	4e5f4550 	c3	0x5f4550
    15b8:	004c4c55 	0x4c4c55
    15bc:	5f67736d 	0x5f67736d
    15c0:	73707061 	0x73707061
    15c4:	6d00745f 	0x6d00745f
    15c8:	615f6773 	0x615f6773
    15cc:	5f737070 	0x5f737070
    15d0:	65707974 	0x65707974
    15d4:	4d00655f 	bc3f	1ab54 <_init-0x52fe54ac>
    15d8:	415f4753 	0x415f4753
    15dc:	56495443 	bnel	s2,t1,166ec <_init-0x52fe9914>
    15e0:	534d0045 	beql	k0,t5,16f8 <_init-0x52ffe908>
    15e4:	454d5f47 	0x454d5f47
    15e8:	4e49474e 	c3	0x49474e
    15ec:	45535f45 	0x45535f45
    15f0:	414c5f54 	0x414c5f54
    15f4:	465f5453 	c1	0x5f5453
    15f8:	5f454c49 	0x5f454c49
    15fc:	434e5953 	c0	0x14e5953
    1600:	53554600 	beql	k0,s5,12e04 <_init-0x52fed1fc>
    1604:	5f4e4f49 	0x5f4e4f49
    1608:	45564552 	0x45564552
    160c:	00455352 	0x455352
    1610:	5f47534d 	0x5f47534d
    1614:	4e454d46 	c3	0x454d46
    1618:	454e4947 	0x454e4947
    161c:	5445535f 	bnel	v0,a1,1639c <_init-0x52fe9c64>
    1620:	414c505f 	0x414c505f
    1624:	735f0059 	udi9	k0,ra,zero,0x1
    1628:	656e6563 	0x656e6563
    162c:	7365645f 	udi15	k1,a1,t4,0x11
    1630:	706f746b 	0x706f746b
    1634:	746f725f 	jalx	1bdc97c <_init-0x51423684>
    1638:	00657461 	0x657461
    163c:	41544f52 	0x41544f52
    1640:	4e4f4954 	c3	0x4f4954
    1644:	5f00305f 	bgtzl	t8,d7c4 <_init-0x52ff283c>
    1648:	6e656373 	0x6e656373
    164c:	65645f65 	0x65645f65
    1650:	6f746b73 	0x6f746b73
    1654:	65735f70 	0x65735f70
    1658:	65645f74 	0x65645f74
    165c:	6c756166 	0x6c756166
    1660:	6f665f74 	0x6f665f74
    1664:	4d00746e 	msub.ps	$f17,$f8,$f14,$f0
    1668:	475f4753 	c1	0x15f4753
    166c:	475f5445 	c1	0x15f5445
    1670:	534e4553 	beql	k0,t6,12bc0 <_init-0x52fed440>
    1674:	525f524f 	beql	s2,ra,15fb4 <_init-0x52fea04c>
    1678:	5441544f 	bnel	v0,at,167b8 <_init-0x52fe9848>
    167c:	5f4e4f49 	0x5f4e4f49
    1680:	434e5953 	c0	0x14e5953
    1684:	47534d00 	c1	0x1534d00
    1688:	4341425f 	c0	0x141425f
    168c:	4f52474b 	c3	0x152474b
    1690:	5f444e55 	0x5f444e55
    1694:	5f434950 	0x5f434950
    1698:	4e414843 	c3	0x414843
    169c:	46004547 	neg.s	$f21,$f8
    16a0:	4f495355 	c3	0x1495355
    16a4:	55505f4e 	bnel	t2,s0,193e0 <_init-0x52fe6c20>
    16a8:	66004853 	0x66004853
    16ac:	6f697375 	0x6f697375
    16b0:	66655f6e 	0x66655f6e
    16b4:	74636566 	jalx	18d9598 <_init-0x51726a68>
    16b8:	4d00745f 	bc3f	1e838 <_init-0x52fe17c8>
    16bc:	475f4753 	c1	0x15f4753
    16c0:	485f5445 	0x485f5445
    16c4:	54535f57 	bnel	v0,s3,19424 <_init-0x52fe6bdc>
    16c8:	53555441 	beql	k0,s5,167d0 <_init-0x52fe9830>
    16cc:	4e59535f 	c3	0x59535f
    16d0:	534d0043 	beql	k0,t5,17e0 <_init-0x52ffe820>
    16d4:	494b5f47 	0x494b5f47
    16d8:	555f4c4c 	bnel	t2,ra,1480c <_init-0x52feb7f4>
    16dc:	5f524553 	0x5f524553
    16e0:	53505041 	beql	k0,s0,157e8 <_init-0x52fea818>
    16e4:	47534d00 	c1	0x1534d00
    16e8:	5445535f 	bnel	v0,a1,16468 <_init-0x52fe9b98>
    16ec:	5050415f 	beql	v0,s0,11c6c <_init-0x52fee394>
    16f0:	4341425f 	c0	0x141425f
    16f4:	4f52474b 	c3	0x152474b
    16f8:	00444e55 	0x444e55
    16fc:	6572635f 	0x6572635f
    1700:	5f657461 	0x5f657461
    1704:	756e656d 	jalx	5b995b4 <_init-0x4d466a4c>
    1708:	77656976 	jalx	d95a5d8 <_init-0x456a5a28>
    170c:	6469775f 	0x6469775f
    1710:	00746567 	0x746567
    1714:	5f47534d 	0x5f47534d
    1718:	4e454d46 	c3	0x454d46
    171c:	454e4947 	0x454e4947
    1720:	5445535f 	bnel	v0,a1,164a0 <_init-0x52fe9b60>
    1724:	5455415f 	bnel	v0,s5,11ca4 <_init-0x52fee35c>
    1728:	45535f4f 	0x45535f4f
    172c:	4d004b45 	bc3f	14444 <_init-0x52febbbc>
    1730:	555f4753 	bnel	t2,ra,13480 <_init-0x52fecb80>
    1734:	5445534e 	bnel	v0,a1,16470 <_init-0x52fe9b90>
    1738:	4645445f 	c1	0x45445f
    173c:	4e4f465f 	c3	0x4f465f
    1740:	59535f54 	0x59535f54
    1744:	4d00434e 	bc3f	12480 <_init-0x52fedb80>
    1748:	465f4753 	c1	0x5f4753
    174c:	474e454d 	c1	0x14e454d
    1750:	5f454e49 	0x5f454e49
    1754:	5f544553 	0x5f544553
    1758:	45524854 	0x45524854
    175c:	4c4f4853 	0x4c4f4853
    1760:	534d0044 	beql	k0,t5,1874 <_init-0x52ffe78c>
    1764:	454d5f47 	0x454d5f47
    1768:	4e49474e 	c3	0x49474e
    176c:	45535f45 	0x45535f45
    1770:	4c505f54 	0x4c505f54
    1774:	4f4d5941 	c3	0x14d5941
    1778:	535f4544 	beql	k0,ra,12c8c <_init-0x52fed374>
    177c:	00434e59 	0x434e59
    1780:	5f47534d 	0x5f47534d
    1784:	4e455347 	c3	0x455347
    1788:	5f524f53 	0x5f524f53
    178c:	41544f52 	0x41544f52
    1790:	4e4f4954 	c3	0x4f4954
    1794:	4148435f 	0x4148435f
    1798:	4445474e 	0x4445474e
    179c:	635f7300 	0x635f7300
    17a0:	645f6b6c 	0x645f6b6c
    17a4:	69616d6f 	0x69616d6f
    17a8:	534d006e 	beql	k0,t5,1964 <_init-0x52ffe69c>
    17ac:	45525f47 	0x45525f47
    17b0:	5f544553 	0x5f544553
    17b4:	454d4954 	0x454d4954
    17b8:	48535f44 	0x48535f44
    17bc:	4f445455 	c3	0x1445455
    17c0:	535f4e57 	beql	k0,ra,15120 <_init-0x52feaee0>
    17c4:	00434e59 	0x434e59
    17c8:	5f47534d 	0x5f47534d
    17cc:	4c59454b 	0x4c59454b
    17d0:	004b434f 	0x4b434f
    17d4:	5f47534d 	0x5f47534d
    17d8:	474e454d 	c1	0x14e454d
    17dc:	5f454e49 	0x5f454e49
    17e0:	454b414d 	0x454b414d
    17e4:	4f4f425f 	c3	0x14f425f
    17e8:	52414d4b 	beql	s2,at,14d18 <_init-0x52feb2e8>
    17ec:	59535f4b 	0x59535f4b
    17f0:	5f00434e 	bgtzl	t8,1252c <_init-0x52fedad4>
    17f4:	61657263 	0x61657263
    17f8:	6d5f6574 	0x6d5f6574
    17fc:	6f626773 	0x6f626773
    1800:	454b0078 	0x454b0078
    1804:	4f4c5f59 	c3	0x14c5f59
    1808:	4d004b43 	bc3f	14518 <_init-0x52febae8>
    180c:	465f4753 	c1	0x5f4753
    1810:	474e454d 	c1	0x14e454d
    1814:	5f454e49 	0x5f454e49
    1818:	5f544547 	0x5f544547
    181c:	45544e49 	0x45544e49
    1820:	5449534e 	bnel	v0,t1,1655c <_init-0x52fe9aa4>
    1824:	534d0059 	beql	k0,t5,198c <_init-0x52ffe674>
    1828:	494b5f47 	0x494b5f47
    182c:	415f4c4c 	0x415f4c4c
    1830:	4d005050 	bc3f	15974 <_init-0x52fea68c>
    1834:	535f4753 	beql	k0,ra,13584 <_init-0x52feca7c>
    1838:	475f5445 	c1	0x15f5445
    183c:	534e4553 	beql	k0,t6,12d8c <_init-0x52fed274>
    1840:	4f5f524f 	c3	0x15f524f
    1844:	534d004e 	beql	k0,t5,1980 <_init-0x52ffe680>
    1848:	45535f47 	0x45535f47
    184c:	59535f54 	0x59535f54
    1850:	56455f53 	bnel	s2,a1,195a0 <_init-0x52fe6a60>
    1854:	45445f54 	0x45445f54
    1858:	54434554 	bnel	v0,v1,12dac <_init-0x52fed254>
    185c:	5f4e4f5f 	0x5f4e4f5f
    1860:	434e5953 	c0	0x14e5953
    1864:	47534d00 	c1	0x1534d00
    1868:	4e454d5f 	c3	0x454d5f
    186c:	454e4947 	0x454e4947
    1870:	454c435f 	0x454c435f
    1874:	415f5241 	0x415f5241
    1878:	59535f42 	0x59535f42
    187c:	4600434e 	ceil.w.s	$f13,$f8
    1880:	4f495355 	c3	0x1495355
    1884:	52455f4e 	beql	s2,a1,195c0 <_init-0x52fe6a40>
    1888:	00455341 	0x455341
    188c:	5f47534d 	0x5f47534d
    1890:	5f544553 	0x5f544553
    1894:	5f59454b 	0x5f59454b
    1898:	56524553 	bnel	s2,s2,12de8 <_init-0x52fed218>
    189c:	455f5245 	0x455f5245
    18a0:	4c42414e 	0x4c42414e
    18a4:	59535f45 	0x59535f45
    18a8:	4600434e 	ceil.w.s	$f13,$f8
    18ac:	474e454d 	c1	0x14e454d
    18b0:	5f454e49 	0x5f454e49
    18b4:	45534142 	0x45534142
    18b8:	47534d00 	c1	0x1534d00
    18bc:	5445535f 	bnel	v0,a1,1663c <_init-0x52fe99c4>
    18c0:	4148435f 	0x4148435f
    18c4:	5f454752 	0x5f454752
    18c8:	52415453 	beql	s2,at,16a18 <_init-0x52fe95e8>
    18cc:	59535f54 	0x59535f54
    18d0:	5400434e 	bnezl	zero,1260c <_init-0x52fed9f4>
    18d4:	534e4152 	beql	k0,t6,11e20 <_init-0x52fee1e0>
    18d8:	574f445f 	bnel	k0,t7,12a58 <_init-0x52fed5a8>
    18dc:	7768004e 	jalx	da00138 <_init-0x455ffec8>
    18e0:	72736e69 	0x72736e69
    18e4:	534d0063 	beql	k0,t5,1a74 <_init-0x52ffe58c>
    18e8:	454d5f47 	0x454d5f47
    18ec:	4e49474e 	c3	0x49474e
    18f0:	4c505f45 	0x4c505f45
    18f4:	505f5941 	beql	v0,ra,17dfc <_init-0x52fe8204>
    18f8:	5f564552 	0x5f564552
    18fc:	434e5953 	c0	0x14e5953
    1900:	47534d00 	c1	0x1534d00
    1904:	454d465f 	0x454d465f
    1908:	4e49474e 	c3	0x49474e
    190c:	45535f45 	0x45535f45
    1910:	52465f54 	beql	s2,a2,19664 <_init-0x52fe699c>
    1914:	4d005145 	bc3f	15e2c <_init-0x52fea1d4>
    1918:	425f4753 	c0	0x5f4753
    191c:	55544f4f 	bnel	t2,s4,1565c <_init-0x52fea9a4>
    1920:	49465f50 	0x49465f50
    1924:	4853494e 	0x4853494e
    1928:	47534d00 	c1	0x1534d00
    192c:	4f48505f 	c3	0x148505f
    1930:	445f4f54 	0x445f4f54
    1934:	444f4345 	0x444f4345
    1938:	6f630045 	0x6f630045
    193c:	6e6f6d6d 	0x6e6f6d6d
    1940:	6c69665f 	0x6c69665f
    1944:	645f0065 	0x645f0065
    1948:	74656c65 	jalx	195b194 <_init-0x516a4e6c>
    194c:	656d5f65 	0x656d5f65
    1950:	6976756e 	0x6976756e
    1954:	775f7765 	jalx	d7ddd94 <_init-0x4582226c>
    1958:	65676469 	0x65676469
    195c:	534d0074 	beql	k0,t5,1b30 <_init-0x52ffe4d0>
    1960:	45535f47 	0x45535f47
    1964:	43535f54 	c0	0x1535f54
    1968:	4e454552 	c3	0x454552
    196c:	45564153 	0x45564153
    1970:	49545f52 	0x49545f52
    1974:	535f454d 	beql	k0,ra,12eac <_init-0x52fed154>
    1978:	00434e59 	0x434e59
    197c:	5f47534d 	0x5f47534d
    1980:	5f425355 	0x5f425355
    1984:	54534f48 	bnel	v0,s3,156a8 <_init-0x52fea958>
    1988:	5349445f 	beql	k0,t1,12b08 <_init-0x52fed4f8>
    198c:	4e495f4b 	c3	0x495f4b
    1990:	47534d00 	c1	0x1534d00
    1994:	4e454d5f 	c3	0x454d5f
    1998:	454e4947 	0x454e4947
    199c:	5445535f 	bnel	v0,a1,1671c <_init-0x52fe98e4>
    19a0:	5f42415f 	0x5f42415f
    19a4:	4e554f43 	c3	0x554f43
    19a8:	59535f54 	0x59535f54
    19ac:	5400434e 	bnezl	zero,126e8 <_init-0x52fed918>
    19b0:	534e4152 	beql	k0,t6,11efc <_init-0x52fee104>
    19b4:	4749525f 	c1	0x149525f
    19b8:	4d005448 	bc3f	16adc <_init-0x52fe9524>
    19bc:	455f4753 	0x455f4753
    19c0:	5245544e 	beql	s2,a1,16afc <_init-0x52fe9504>
    19c4:	5243535f 	beql	s2,v1,16744 <_init-0x52fe98bc>
    19c8:	534e4545 	beql	k0,t6,12ee0 <_init-0x52fed120>
    19cc:	52455641 	beql	s2,a1,172d4 <_init-0x52fe8d2c>
    19d0:	4e59535f 	c3	0x59535f
    19d4:	75660043 	jalx	598010c <_init-0x4d67fef4>
    19d8:	6e6f6973 	0x6e6f6973
    19dc:	646f6d5f 	0x646f6d5f
    19e0:	00655f65 	0x655f65
    19e4:	5f47534d 	0x5f47534d
    19e8:	4e454d46 	c3	0x454d46
    19ec:	454e4947 	0x454e4947
    19f0:	5445535f 	bnel	v0,a1,16770 <_init-0x52fe9890>
    19f4:	4e41425f 	c3	0x41425f
    19f8:	4f4d5f44 	c3	0x14d5f44
    19fc:	4d004544 	bc3f	12f10 <_init-0x52fed0f0>
    1a00:	465f4753 	c1	0x5f4753
    1a04:	474e454d 	c1	0x14e454d
    1a08:	5f454e49 	0x5f454e49
    1a0c:	4f545541 	c3	0x1545541
    1a10:	4545535f 	0x4545535f
    1a14:	564f5f4b 	bnel	s2,t7,19744 <_init-0x52fe68bc>
    1a18:	4b005245 	c2	0x1005245
    1a1c:	4e5f5945 	c3	0x5f5945
    1a20:	00545845 	0x545845
    1a24:	5f47534d 	0x5f47534d
    1a28:	45574f50 	0x45574f50
    1a2c:	464f5f52 	c1	0x4f5f52
    1a30:	534d0046 	beql	k0,t5,1b4c <_init-0x52ffe4b4>
    1a34:	48535f47 	0x48535f47
    1a38:	4354524f 	c0	0x154524f
    1a3c:	545f5455 	bnel	v0,ra,16b94 <_init-0x52fe946c>
    1a40:	54554f56 	bnel	v0,s5,1579c <_init-0x52fea864>
    1a44:	47534d00 	c1	0x1534d00
    1a48:	4e454d5f 	c3	0x454d5f
    1a4c:	454e4947 	0x454e4947
    1a50:	5445535f 	bnel	v0,a1,167d0 <_init-0x52fe9830>
    1a54:	5f42415f 	0x5f42415f
    1a58:	5458454e 	bnel	v0,t8,12f94 <_init-0x52fed06c>
    1a5c:	4e59535f 	c3	0x59535f
    1a60:	534d0043 	beql	k0,t5,1b70 <_init-0x52ffe490>
    1a64:	4d465f47 	0x4d465f47
    1a68:	49474e45 	0x49474e45
    1a6c:	4c5f454e 	0x4c5f454e
    1a70:	49454e49 	0x49454e49
    1a74:	4e495f4e 	c3	0x495f4e
    1a78:	54524553 	bnel	v0,s2,12fc8 <_init-0x52fed038>
    1a7c:	6f765f00 	0x6f765f00
    1a80:	656d756c 	0x656d756c
    1a84:	5f726162 	0x5f726162
    1a88:	6c6c6163 	0x6c6c6163
    1a8c:	6b636162 	0x6b636162
    1a90:	47534d00 	c1	0x1534d00
    1a94:	4e454d5f 	c3	0x454d5f
    1a98:	454e4947 	0x454e4947
    1a9c:	4f54535f 	c3	0x154535f
    1aa0:	59535f50 	0x59535f50
    1aa4:	4d00434e 	bc3f	127e0 <_init-0x52fed820>
    1aa8:	475f4753 	c1	0x15f4753
    1aac:	435f5445 	c0	0x15f5445
    1ab0:	47524148 	c1	0x1524148
    1ab4:	54535f45 	bnel	v0,s3,197cc <_init-0x52fe6834>
    1ab8:	53555441 	beql	k0,s5,16bc0 <_init-0x52fe9440>
    1abc:	4e59535f 	c3	0x59535f
    1ac0:	534d0043 	beql	k0,t5,1bd0 <_init-0x52ffe430>
    1ac4:	454d5f47 	0x454d5f47
    1ac8:	4e49474e 	c3	0x49474e
    1acc:	45535f45 	0x45535f45
    1ad0:	4c505f54 	0x4c505f54
    1ad4:	50535941 	beql	v0,s3,17fdc <_init-0x52fe8024>
    1ad8:	5f444545 	0x5f444545
    1adc:	434e5953 	c0	0x14e5953
    1ae0:	47534d00 	c1	0x1534d00
    1ae4:	4e454d5f 	c3	0x454d5f
    1ae8:	454e4947 	0x454e4947
    1aec:	5445475f 	bnel	v0,a1,1386c <_init-0x52fec794>
    1af0:	4c49465f 	0x4c49465f
    1af4:	54415045 	bnel	v0,at,15c0c <_init-0x52fea3f4>
    1af8:	59535f48 	0x59535f48
    1afc:	5400434e 	bnezl	zero,12838 <_init-0x52fed7c8>
    1b00:	534e4152 	beql	k0,t6,1204c <_init-0x52fedfb4>
    1b04:	46454c5f 	c1	0x454c5f
    1b08:	454b0054 	0x454b0054
    1b0c:	59545f59 	0x59545f59
    1b10:	485f4550 	0x485f4550
    1b14:	5f444c4f 	0x5f444c4f
    1b18:	6d005055 	0x6d005055
    1b1c:	69756e65 	0x69756e65
    1b20:	5f6d6574 	0x5f6d6574
    1b24:	735f0073 	0x735f0073
    1b28:	656e6563 	0x656e6563
    1b2c:	7365645f 	udi15	k1,a1,t4,0x11
    1b30:	706f746b 	0x706f746b
    1b34:	696e695f 	0x696e695f
    1b38:	55460074 	bnel	t2,a2,1d0c <_init-0x52ffe2f4>
    1b3c:	4e4f4953 	c3	0x4f4953
    1b40:	4e41525f 	c3	0x41525f
    1b44:	004d4f44 	0x4d4f44
    1b48:	5f47534d 	0x5f47534d
    1b4c:	474e454d 	c1	0x14e454d
    1b50:	5f454e49 	0x5f454e49
    1b54:	5f544547 	0x5f544547
    1b58:	49474e45 	0x49474e45
    1b5c:	495f454e 	0x495f454e
    1b60:	5f4f464e 	0x5f4f464e
    1b64:	434e5953 	c0	0x14e5953
    1b68:	47534d00 	c1	0x1534d00
    1b6c:	5345525f 	beql	k0,a1,164ec <_init-0x52fe9b14>
    1b70:	535f5445 	beql	k0,ra,16c88 <_init-0x52fe9378>
    1b74:	495f5359 	0x495f5359
    1b78:	5f454c44 	0x5f454c44
    1b7c:	454d4954 	0x454d4954
    1b80:	535f5352 	beql	k0,ra,168cc <_init-0x52fe9734>
    1b84:	00434e59 	0x434e59
    1b88:	434f5250 	c0	0x14f5250
    1b8c:	4d535345 	0x4d535345
    1b90:	47414e41 	c1	0x1414e41
    1b94:	425f5245 	c0	0x5f5245
    1b98:	00455341 	0x455341
    1b9c:	74786574 	jalx	1e195d0 <_init-0x511e6a30>
    1ba0:	67697300 	0x67697300
    1ba4:	006c616e 	0x6c616e
    1ba8:	5f59454b 	0x5f59454b
    1bac:	45505954 	0x45505954
    1bb0:	4e4f4c5f 	c3	0x4f4c5f
    1bb4:	534d0047 	beql	k0,t5,1cd4 <_init-0x52ffe32c>
    1bb8:	45525f47 	0x45525f47
    1bbc:	5f544553 	0x5f544553
    1bc0:	4e455347 	c3	0x455347
    1bc4:	5f524f53 	0x5f524f53
    1bc8:	41544f52 	0x41544f52
    1bcc:	4e4f4954 	c3	0x4f4954
    1bd0:	47534d00 	c1	0x1534d00
    1bd4:	454d465f 	0x454d465f
    1bd8:	4e49474e 	c3	0x49474e
    1bdc:	45475f45 	0x45475f45
    1be0:	54535f54 	bnel	v0,s3,19934 <_init-0x52fe66cc>
    1be4:	4f455245 	c3	0x1455245
    1be8:	444f4d5f 	0x444f4d5f
    1bec:	55460045 	bnel	t2,a2,1d04 <_init-0x52ffe2fc>
    1bf0:	4e4f4953 	c3	0x4f4953
    1bf4:	4e41525f 	c3	0x41525f
    1bf8:	4c4d4f44 	0x4c4d4f44
    1bfc:	00454e49 	0x454e49
    1c00:	4e415254 	c3	0x415254
    1c04:	50555f53 	beql	v0,s5,19954 <_init-0x52fe66ac>
    1c08:	65726300 	0x65726300
    1c0c:	5f657461 	0x5f657461
    1c10:	6267736d 	0x6267736d
    1c14:	655f786f 	0x655f786f
    1c18:	4d007272 	bc3f	1e5e4 <_init-0x52fe1a1c>
    1c1c:	525f4753 	beql	s2,ra,1396c <_init-0x52fec694>
    1c20:	594c5045 	0x594c5045
    1c24:	4e454d5f 	c3	0x454d5f
    1c28:	454e4947 	0x454e4947
    1c2c:	5445475f 	bnel	v0,a1,139ac <_init-0x52fec654>
    1c30:	4154535f 	0x4154535f
    1c34:	505f4554 	beql	v0,ra,13188 <_init-0x52fece78>
    1c38:	45535541 	0x45535541
    1c3c:	534d0044 	beql	k0,t5,1d50 <_init-0x52ffe2b0>
    1c40:	45535f47 	0x45535f47
    1c44:	50415f54 	beql	v0,at,19998 <_init-0x52fe6668>
    1c48:	4f465f50 	c3	0x1465f50
    1c4c:	52474552 	beql	s2,a3,13198 <_init-0x52fece68>
    1c50:	444e554f 	0x444e554f
    1c54:	4e59535f 	c3	0x59535f
    1c58:	6f630043 	0x6f630043
    1c5c:	6e65746e 	0x6e65746e
    1c60:	534d0074 	beql	k0,t5,1e34 <_init-0x52ffe1cc>
    1c64:	45535f47 	0x45535f47
    1c68:	45445f54 	0x45445f54
    1c6c:	4f465f46 	c3	0x1465f46
    1c70:	535f544e 	beql	k0,ra,16dac <_init-0x52fe9254>
    1c74:	00434e59 	0x434e59
    1c78:	5f697567 	0x5f697567
    1c7c:	6d5f6d77 	0x6d5f6d77
    1c80:	61737365 	0x61737365
    1c84:	745f6567 	jalx	17d959c <_init-0x51826a64>
    1c88:	75616c00 	jalx	585b000 <_init-0x4d7a5000>
    1c8c:	6568636e 	0x6568636e
    1c90:	63735f72 	0x63735f72
    1c94:	5f656e65 	0x5f656e65
    1c98:	6b736564 	0x6b736564
    1c9c:	00706f74 	teq	v1,s0,0x1bd
    1ca0:	5f47534d 	0x5f47534d
    1ca4:	5f574f4c 	0x5f574f4c
    1ca8:	544c4f56 	bnel	v0,t4,15a04 <_init-0x52fea5fc>
    1cac:	00454741 	0x454741
    1cb0:	6e75616c 	0x6e75616c
    1cb4:	72656863 	0x72656863
    1cb8:	6563735f 	0x6563735f
    1cbc:	645f656e 	0x645f656e
    1cc0:	746b7365 	jalx	1adcd94 <_init-0x5152326c>
    1cc4:	632e706f 	0x632e706f
    1cc8:	47534d00 	c1	0x1534d00
    1ccc:	454d465f 	0x454d465f
    1cd0:	4e49474e 	c3	0x49474e
    1cd4:	45535f45 	0x45535f45
    1cd8:	4e455f54 	c3	0x455f54
    1cdc:	5f524554 	0x5f524554
    1ce0:	4e415453 	c3	0x415453
    1ce4:	00594244 	0x594244
    1ce8:	5f47534d 	0x5f47534d
    1cec:	5f544553 	0x5f544553
    1cf0:	4f545541 	c3	0x1545541
    1cf4:	4154535f 	0x4154535f
    1cf8:	5942444e 	0x5942444e
    1cfc:	4d49545f 	0x4d49545f
    1d00:	59535f45 	0x59535f45
    1d04:	4600434e 	ceil.w.s	$f13,$f8
    1d08:	4f495355 	c3	0x1495355
    1d0c:	50505f4e 	beql	v0,s0,19a48 <_init-0x52fe65b8>
    1d10:	534d0054 	beql	k0,t5,1e64 <_init-0x52ffe19c>
    1d14:	45535f47 	0x45535f47
    1d18:	49545f54 	0x49545f54
    1d1c:	5f44454d 	0x5f44454d
    1d20:	54555453 	bnel	v0,s5,16e70 <_init-0x52fe9190>
    1d24:	4e574f44 	c3	0x574f44
    1d28:	4d49545f 	0x4d49545f
    1d2c:	59535f45 	0x59535f45
    1d30:	4600434e 	ceil.w.s	$f13,$f8
    1d34:	4f495355 	c3	0x1495355
    1d38:	4f4e5f4e 	c3	0x14e5f4e
    1d3c:	4c414d52 	0x4c414d52
    1d40:	47534d00 	c1	0x1534d00
    1d44:	5445535f 	bnel	v0,a1,16ac4 <_init-0x52fe953c>
    1d48:	5050415f 	beql	v0,s0,122c8 <_init-0x52fedd38>
    1d4c:	4341425f 	c0	0x141425f
    1d50:	4f52474b 	c3	0x152474b
    1d54:	5f444e55 	0x5f444e55
    1d58:	434e5953 	c0	0x14e5953
    1d5c:	59454b00 	0x59454b00
    1d60:	5059545f 	beql	v0,t9,16ee0 <_init-0x52fe9120>
    1d64:	4f4c5f45 	c3	0x14c5f45
    1d68:	555f474e 	bnel	t2,ra,13aa4 <_init-0x52fec55c>
    1d6c:	534d0050 	beql	k0,t5,1eb0 <_init-0x52ffe150>
    1d70:	54535f47 	bnel	v0,s3,19a90 <_init-0x52fe6570>
    1d74:	485f504f 	0x485f504f
    1d78:	5f445241 	0x5f445241
    1d7c:	43544157 	c0	0x1544157
    1d80:	5f474448 	0x5f474448
    1d84:	434e5953 	c0	0x14e5953
    1d88:	72696400 	0x72696400
    1d8c:	00746365 	0x746365
    1d90:	49535546 	0x49535546
    1d94:	465f4e4f 	c1	0x5f4e4f
    1d98:	00454441 	0x454441
    1d9c:	6c696863 	0x6c696863
    1da0:	616e5f64 	0x616e5f64
    1da4:	4b00656d 	c2	0x100656d
    1da8:	545f5945 	bnel	v0,ra,182c0 <_init-0x52fe7d40>
    1dac:	5f455059 	0x5f455059
    1db0:	444c4f48 	0x444c4f48
    1db4:	69776800 	0x69776800
    1db8:	5546006e 	bnel	t2,a2,1f74 <_init-0x52ffe08c>
    1dbc:	4e4f4953 	c3	0x4f4953
    1dc0:	5641575f 	bnel	s2,at,17b40 <_init-0x52fe84c0>
    1dc4:	42450045 	c0	0x450045
    1dc8:	5f4b4f4f 	0x5f4b4f4f
    1dcc:	45534142 	0x45534142
    1dd0:	63735f00 	0x63735f00
    1dd4:	5f656e65 	0x5f656e65
    1dd8:	6b736564 	0x6b736564
    1ddc:	5f706f74 	0x5f706f74
    1de0:	636f7270 	0x636f7270
    1de4:	7379735f 	udi15	k1,t9,t6,0xd
    1de8:	67736d00 	0x67736d00
    1dec:	7065725f 	udi15	v1,a1,t6,0x9
    1df0:	745f796c 	jalx	17de5b0 <_init-0x51821a50>
    1df4:	5f657079 	0x5f657079
    1df8:	534d0065 	beql	k0,t5,1f90 <_init-0x52ffe070>
    1dfc:	4d465f47 	0x4d465f47
    1e00:	49474e45 	0x49474e45
    1e04:	475f454e 	c1	0x15f454e
    1e08:	415f5445 	0x415f5445
    1e0c:	5f4f5455 	0x5f4f5455
    1e10:	4b454553 	c2	0x1454553
    1e14:	47534d00 	c1	0x1534d00
    1e18:	454d465f 	0x454d465f
    1e1c:	4e49474e 	c3	0x49474e
    1e20:	45475f45 	0x45475f45
    1e24:	4e415f54 	c3	0x415f54
    1e28:	4e4e4554 	c3	0x4e4554
    1e2c:	534d0041 	beql	k0,t5,1f34 <_init-0x52ffe0cc>
    1e30:	454d5f47 	0x454d5f47
    1e34:	4e49474e 	c3	0x49474e
    1e38:	45535f45 	0x45535f45
    1e3c:	49465f54 	0x49465f54
    1e40:	4150454c 	0x4150454c
    1e44:	535f4854 	beql	k0,ra,13f98 <_init-0x52fec068>
    1e48:	00434e59 	0x434e59
    1e4c:	5f47534d 	0x5f47534d
    1e50:	524f4853 	beql	s2,t7,13fa0 <_init-0x52fec060>
    1e54:	54554354 	bnel	v0,s5,12ba8 <_init-0x52fed458>
    1e58:	4c45445f 	0x4c45445f
    1e5c:	00455445 	0x455445
    1e60:	756e656d 	jalx	5b995b4 <_init-0x4d466a4c>
    1e64:	6d657469 	0x6d657469
    1e68:	5f00745f 	bgtzl	t8,1efe8 <_init-0x52fe1018>
    1e6c:	6267736d 	0x6267736d
    1e70:	635f786f 	0x635f786f
    1e74:	454b0062 	0x454b0062
    1e78:	4f565f59 	c3	0x1565f59
    1e7c:	534d004c 	beql	k0,t5,1fb0 <_init-0x52ffe050>
    1e80:	45535f47 	0x45535f47
    1e84:	454b5f54 	0x454b5f54
    1e88:	414d5f59 	0x414d5f59
    1e8c:	4e495050 	c3	0x495050
    1e90:	59535f47 	0x59535f47
    1e94:	4b00434e 	c2	0x100434e
    1e98:	4d5f5945 	0x4d5f5945
    1e9c:	00554e45 	0x554e45
    1ea0:	6563735f 	0x6563735f
    1ea4:	645f656e 	0x645f656e
    1ea8:	746b7365 	jalx	1adcd94 <_init-0x5152326c>
    1eac:	6f5f706f 	0x6f5f706f
    1eb0:	5f6e6570 	0x5f6e6570
    1eb4:	5f727473 	0x5f727473
    1eb8:	00736572 	tlt	v1,s3,0x195
    1ebc:	6563735f 	0x6563735f
    1ec0:	645f656e 	0x645f656e
    1ec4:	746b7365 	jalx	1adcd94 <_init-0x5152326c>
    1ec8:	635f706f 	0x635f706f
    1ecc:	65736f6c 	0x65736f6c
    1ed0:	7274735f 	udi15	s3,s4,t6,0xd
    1ed4:	7365725f 	udi15	k1,a1,t6,0x9
    1ed8:	59454b00 	0x59454b00
    1edc:	5645525f 	bnel	s2,a1,1685c <_init-0x52fe97a4>
    1ee0:	45535245 	0x45535245
    1ee4:	454b0037 	0x454b0037
    1ee8:	45525f59 	0x45525f59
    1eec:	53524556 	beql	k0,s2,13448 <_init-0x52fecbb8>
    1ef0:	4d003945 	bc3f	10408 <_init-0x52fefbf8>
    1ef4:	525f4753 	beql	s2,ra,13c44 <_init-0x52fec3bc>
    1ef8:	54455345 	bnel	v0,a1,16c10 <_init-0x52fe93f0>
    1efc:	5243535f 	beql	s2,v1,16c7c <_init-0x52fe9384>
    1f00:	534e4545 	beql	k0,t6,13418 <_init-0x52fecbe8>
    1f04:	52455641 	beql	s2,a1,1780c <_init-0x52fe87f4>
    1f08:	4d49545f 	0x4d49545f
    1f0c:	535f5245 	beql	k0,ra,16824 <_init-0x52fe97dc>
    1f10:	00434e59 	0x434e59
    1f14:	49535546 	0x49535546
    1f18:	525f4e4f 	beql	s2,ra,15858 <_init-0x52fea7a8>
    1f1c:	5441544f 	bnel	v0,at,1705c <_init-0x52fe8fa4>
    1f20:	534d0045 	beql	k0,t5,2038 <_init-0x52ffdfc8>
    1f24:	45535f47 	0x45535f47
    1f28:	48435f54 	0x48435f54
    1f2c:	45475241 	0x45475241
    1f30:	5241505f 	beql	s2,at,160b0 <_init-0x52fe9f50>
    1f34:	535f4d41 	beql	k0,ra,1543c <_init-0x52feabc4>
    1f38:	00434e59 	0x434e59
    1f3c:	5f47534d 	0x5f47534d
    1f40:	4e49414d 	c3	0x49414d
    1f44:	5349445f 	beql	k0,t1,130c4 <_init-0x52fecf3c>
    1f48:	48435f4b 	0x48435f4b
    1f4c:	45474e41 	0x45474e41
    1f50:	685f0044 	0x685f0044
    1f54:	62646165 	0x62646165
    1f58:	635f7261 	0x635f7261
    1f5c:	626c6c61 	0x626c6c61
    1f60:	006b6361 	0x6b6361
    1f64:	5f646970 	0x5f646970
    1f68:	6e750074 	0x6e750074
    1f6c:	5f6c6573 	0x5f6c6573
    1f70:	6e6f6369 	0x6e6f6369
    1f74:	0064695f 	0x64695f
    1f78:	5f59454b 	0x5f59454b
    1f7c:	45564552 	0x45564552
    1f80:	33455352 	andi	a1,k0,0x5352
    1f84:	59454b00 	0x59454b00
    1f88:	5645525f 	bnel	s2,a1,16908 <_init-0x52fe96f8>
    1f8c:	45535245 	0x45535245
    1f90:	454b0034 	0x454b0034
    1f94:	45525f59 	0x45525f59
    1f98:	53524556 	beql	k0,s2,134f4 <_init-0x52fecb0c>
    1f9c:	4b003545 	c2	0x1003545
    1fa0:	525f5945 	beql	s2,ra,184b8 <_init-0x52fe7b48>
    1fa4:	52455645 	beql	s2,a1,178bc <_init-0x52fe8744>
    1fa8:	00364553 	0x364553
    1fac:	646e6573 	0x646e6573
    1fb0:	705f7265 	0x705f7265
    1fb4:	4b006469 	c2	0x1006469
    1fb8:	525f5945 	beql	s2,ra,184d0 <_init-0x52fe7b30>
    1fbc:	52455645 	beql	s2,a1,178d4 <_init-0x52fe872c>
    1fc0:	00384553 	0x384553
    1fc4:	5f59454b 	0x5f59454b
    1fc8:	59414c50 	0x59414c50
    1fcc:	4b434142 	c2	0x1434142
    1fd0:	79656b00 	0x79656b00
    1fd4:	7079745f 	udi15	v1,t9,t6,0x11
    1fd8:	00655f65 	0x655f65
    1fdc:	6572635f 	0x6572635f
    1fe0:	5f657461 	0x5f657461
    1fe4:	756c6f76 	jalx	5b1bdd8 <_init-0x4d4e4228>
    1fe8:	6162656d 	0x6162656d
    1fec:	55460072 	bnel	t2,a2,21b8 <_init-0x52ffde48>
    1ff0:	4e4f4953 	c3	0x4f4953
    1ff4:	444f4d5f 	0x444f4d5f
    1ff8:	414d5f45 	0x414d5f45
    1ffc:	6e610058 	0x6e610058
    2000:	00656c67 	0x656c67
    2004:	5f47534d 	0x5f47534d
    2008:	44524143 	0x44524143
    200c:	004e495f 	0x4e495f
    2010:	6e617274 	0x6e617274
    2014:	69645f73 	0x69645f73
    2018:	74636572 	jalx	18d95c8 <_init-0x51726a38>
    201c:	4d00745f 	bc3f	1f19c <_init-0x52fe0e64>
    2020:	4b5f4753 	c2	0x15f4753
    2024:	5f4c4c49 	0x5f4c4c49
    2028:	5f505041 	0x5f505041
    202c:	434e5953 	c0	0x14e5953
    2030:	63735f00 	0x63735f00
    2034:	5f656e65 	0x5f656e65
    2038:	6b736564 	0x6b736564
    203c:	5f706f74 	0x5f706f74
    2040:	6e696170 	0x6e696170
    2044:	55460074 	bnel	t2,a2,2218 <_init-0x52ffdde8>
    2048:	4e4f4953 	c3	0x4f4953
    204c:	4548435f 	0x4548435f
    2050:	4d004b43 	bc3f	14d60 <_init-0x52feb2a0>
    2054:	545f4753 	bnel	v0,ra,13da4 <_init-0x52fec25c>
    2058:	454d4548 	0x454d4548
    205c:	4148435f 	0x4148435f
    2060:	4445474e 	0x4445474e
    2064:	47534d00 	c1	0x1534d00
    2068:	4e454d5f 	c3	0x454d5f
    206c:	454e4947 	0x454e4947
    2070:	5445535f 	bnel	v0,a1,16df0 <_init-0x52fe9210>
    2074:	5349445f 	beql	k0,t1,131f4 <_init-0x52fece0c>
    2078:	444f4d50 	0x444f4d50
    207c:	59535f45 	0x59535f45
    2080:	4b00434e 	c2	0x100434e
    2084:	545f5945 	bnel	v0,ra,1859c <_init-0x52fe7a64>
    2088:	5f455059 	0x5f455059
    208c:	524f4853 	beql	s2,t7,141dc <_init-0x52febe24>
    2090:	50555f54 	beql	v0,s5,19de4 <_init-0x52fe621c>
    2094:	47534d00 	c1	0x1534d00
    2098:	4e454d5f 	c3	0x454d5f
    209c:	454e4947 	0x454e4947
    20a0:	5445535f 	bnel	v0,a1,16e20 <_init-0x52fe91e0>
    20a4:	5f42415f 	0x5f42415f
    20a8:	4f545541 	c3	0x1545541
    20ac:	4e59535f 	c3	0x59535f
    20b0:	534d0043 	beql	k0,t5,21c0 <_init-0x52ffde40>
    20b4:	45535f47 	0x45535f47
    20b8:	50415f54 	beql	v0,at,19e0c <_init-0x52fe61f4>
    20bc:	4f465f50 	c3	0x1465f50
    20c0:	52474552 	beql	s2,a3,1360c <_init-0x52fec9f4>
    20c4:	444e554f 	0x444e554f
    20c8:	6c6f7600 	0x6c6f7600
    20cc:	62656d75 	0x62656d75
    20d0:	735f7261 	0x735f7261
    20d4:	655f6769 	0x655f6769
    20d8:	63735f00 	0x63735f00
    20dc:	5f656e65 	0x5f656e65
    20e0:	6b736564 	0x6b736564
    20e4:	5f706f74 	0x5f706f74
    20e8:	6e696564 	0x6e696564
    20ec:	4d007469 	msub.d	$f17,$f8,$f14,$f0
    20f0:	555f4753 	bnel	t2,ra,13e40 <_init-0x52fec1c0>
    20f4:	415f4253 	0x415f4253
    20f8:	54504144 	bnel	v0,s0,1260c <_init-0x52fed9f4>
    20fc:	4f5f524f 	c3	0x15f524f
    2100:	4d005455 	bc3f	17258 <_init-0x52fe8da8>
    2104:	525f4753 	beql	s2,ra,13e54 <_init-0x52fec1ac>
    2108:	54455345 	bnel	v0,a1,16e20 <_init-0x52fe91e0>
    210c:	4645445f 	c1	0x45445f
    2110:	544c5541 	bnel	v0,t4,17618 <_init-0x52fe89e8>
    2114:	4746435f 	c1	0x146435f
    2118:	656d5f00 	0x656d5f00
    211c:	6976756e 	0x6976756e
    2120:	775f7765 	jalx	d7ddd94 <_init-0x4582226c>
    2124:	65676469 	0x65676469
    2128:	61635f74 	0x61635f74
    212c:	61626c6c 	0x61626c6c
    2130:	4d006b63 	bc3f	1cec0 <_init-0x52fe3140>
    2134:	535f4753 	beql	k0,ra,13e84 <_init-0x52fec17c>
    2138:	45565245 	0x45565245
    213c:	41425f52 	0x41425f52
    2140:	4d004553 	bc3f	13690 <_init-0x52fec970>
    2144:	525f4753 	beql	s2,ra,13e94 <_init-0x52fec16c>
    2148:	54455345 	bnel	v0,a1,16e60 <_init-0x52fe91a0>
    214c:	4553475f 	0x4553475f
    2150:	524f534e 	beql	s2,t7,16e8c <_init-0x52fe9174>
    2154:	4148535f 	0x4148535f
    2158:	4d00454b 	bc3f	13688 <_init-0x52fec978>
    215c:	4d5f4753 	0x4d5f4753
    2160:	49474e45 	0x49474e45
    2164:	525f454e 	beql	s2,ra,136a0 <_init-0x52fec960>
    2168:	4d555345 	0x4d555345
    216c:	59535f45 	0x59535f45
    2170:	4d00434e 	bc3f	12eac <_init-0x52fed154>
    2174:	475f4753 	c1	0x15f4753
    2178:	445f4649 	0x445f4649
    217c:	444f4345 	0x444f4345
    2180:	534d0045 	beql	k0,t5,2298 <_init-0x52ffdd68>
    2184:	454d5f47 	0x454d5f47
    2188:	4e49474e 	c3	0x49474e
    218c:	42465f45 	c0	0x465f45
    2190:	535f4457 	beql	k0,ra,132f0 <_init-0x52fecd10>
    2194:	00434e59 	0x434e59
    2198:	5f47534d 	0x5f47534d
    219c:	474e454d 	c1	0x14e454d
    21a0:	5f454e49 	0x5f454e49
    21a4:	5f544553 	0x5f544553
    21a8:	454c4946 	0x454c4946
    21ac:	45444e49 	0x45444e49
    21b0:	59535f58 	0x59535f58
    21b4:	5200434e 	beqzl	s0,12ef0 <_init-0x52fed110>
    21b8:	5441544f 	bnel	v0,at,172f8 <_init-0x52fe8d08>
    21bc:	5f4e4f49 	0x5f4e4f49
    21c0:	4d003039 	nmsub.d	$f0,$f8,$f6,$f0
    21c4:	465f4753 	c1	0x5f4753
    21c8:	474e454d 	c1	0x14e454d
    21cc:	5f454e49 	0x5f454e49
    21d0:	5f544547 	0x5f544547
    21d4:	444e4142 	0x444e4142
    21d8:	444f4d5f 	0x444f4d5f
    21dc:	6f630045 	0x6f630045
    21e0:	00726f6c 	0x726f6c
    21e4:	74786574 	jalx	1e195d0 <_init-0x511e6a30>
    21e8:	0064695f 	0x64695f
    21ec:	65666665 	0x65666665
    21f0:	4b007463 	c2	0x1007463
    21f4:	545f5945 	bnel	v0,ra,1870c <_init-0x52fe78f4>
    21f8:	5f455059 	0x5f455059
    21fc:	4e574f44 	c3	0x574f44
    2200:	47534d00 	c1	0x1534d00
    2204:	4e454d5f 	c3	0x454d5f
    2208:	454e4947 	0x454e4947
    220c:	4545535f 	0x4545535f
    2210:	59535f4b 	0x59535f4b
    2214:	4d00434e 	bc3f	12f50 <_init-0x52fed0b0>
    2218:	4e5f4753 	c3	0x5f4753
    221c:	5f444545 	0x5f444545
    2220:	5f4e4547 	0x5f4e4547
    2224:	53494c50 	beql	k0,t1,15368 <_init-0x52feac98>
    2228:	454b0054 	0x454b0054
    222c:	41565f59 	0x41565f59
    2230:	4b004444 	c2	0x1004444
    2234:	4f5f5945 	c3	0x15f5945
    2238:	454b004b 	0x454b004b
    223c:	53565f59 	beql	k0,s6,19fa4 <_init-0x52fe605c>
    2240:	5f004255 	bgtzl	t8,12b98 <_init-0x52fed468>
    2244:	6e656373 	0x6e656373
    2248:	65645f65 	0x65645f65
    224c:	6f746b73 	0x6f746b73
    2250:	6c635f70 	0x6c635f70
    2254:	5f65736f 	0x5f65736f
    2258:	6d656874 	0x6d656874
    225c:	534d0065 	beql	k0,t5,23f4 <_init-0x52ffdc0c>
    2260:	45525f47 	0x45525f47
    2264:	5f594c50 	0x5f594c50
    2268:	43435553 	c0	0x1435553
    226c:	00535345 	0x535345
    2270:	5f59454b 	0x5f59454b
    2274:	56455250 	bnel	s2,a1,16bb8 <_init-0x52fe9448>
    2278:	47534d00 	c1	0x1534d00
    227c:	4c554e5f 	0x4c554e5f
    2280:	736d004c 	0x736d004c
    2284:	65725f67 	0x65725f67
    2288:	5f796c70 	0x5f796c70
    228c:	534d0074 	beql	k0,t5,2460 <_init-0x52ffdba0>
    2290:	45475f47 	0x45475f47
    2294:	50415f54 	beql	v0,at,19fe8 <_init-0x52fe6018>
    2298:	54535f50 	bnel	v0,s3,19fdc <_init-0x52fe6024>
    229c:	53555441 	beql	k0,s5,173a4 <_init-0x52fe8c5c>
    22a0:	4e59535f 	c3	0x59535f
    22a4:	Address 0x22a4 is out of bounds.

Disassembly of section .comment:

00000000 <.comment>:
   0:	43434700 	c0	0x1434700
   4:	4728203a 	c1	0x128203a
   8:	2029554e 	addi	t1,at,21838
   c:	2e342e33 	sltiu	s4,s1,11827
  10:	696d2034 	0x696d2034
  14:	64737370 	0x64737370
  18:	2e362d65 	sltiu	s6,s1,11621
  1c:	302e3630 	andi	t6,at,0x3630
  20:	30322d31 	andi	s2,at,0x2d31
  24:	34303730 	ori	s0,at,0x3730
  28:	00003032 	tlt	zero,zero,0xc0
  2c:	3a434347 	xori	v1,s2,0x4347
  30:	4e472820 	madd.s	$f0,$f18,$f5,$f7
  34:	33202955 	andi	zero,t9,0x2955
  38:	342e342e 	ori	t6,at,0x342e
  3c:	70696d20 	0x70696d20
  40:	65647373 	0x65647373
  44:	302e362d 	andi	t6,at,0x362d
  48:	31302e36 	andi	s0,t1,0x2e36
  4c:	3030322d 	andi	s0,at,0x322d
  50:	32343037 	andi	s4,s1,0x3037
  54:	47000030 	c1	0x1000030
  58:	203a4343 	addi	k0,at,17219
  5c:	554e4728 	bnel	t2,t6,11d00 <_init-0x52fee300>
  60:	2e332029 	sltiu	s3,s1,8233
  64:	20342e34 	addi	s4,at,11828
  68:	7370696d 	0x7370696d
  6c:	2d656473 	sltiu	a1,t3,25715
  70:	36302e36 	ori	s0,s1,0x2e36
  74:	2d31302e 	sltiu	s1,t1,12334
  78:	37303032 	ori	s0,t9,0x3032
  7c:	30323430 	andi	s2,at,0x3430
  80:	43470000 	c0	0x1470000
  84:	28203a43 	slti	zero,at,14915
  88:	29554e47 	slti	s5,t2,20039
  8c:	342e3320 	ori	t6,at,0x3320
  90:	6d20342e 	0x6d20342e
  94:	73737069 	0x73737069
  98:	362d6564 	ori	t5,s1,0x6564
  9c:	2e36302e 	sltiu	s6,s1,12334
  a0:	322d3130 	andi	t5,s1,0x3130
  a4:	30373030 	andi	s7,at,0x3030
  a8:	00303234 	teq	at,s0,0xc8
  ac:	43434700 	c0	0x1434700
  b0:	4728203a 	c1	0x128203a
  b4:	2029554e 	addi	t1,at,21838
  b8:	2e342e33 	sltiu	s4,s1,11827
  bc:	696d2034 	0x696d2034
  c0:	64737370 	0x64737370
  c4:	2e362d65 	sltiu	s6,s1,11621
  c8:	302e3630 	andi	t6,at,0x3630
  cc:	30322d31 	andi	s2,at,0x2d31
  d0:	34303730 	ori	s0,at,0x3730
  d4:	00003032 	tlt	zero,zero,0xc0
  d8:	3a434347 	xori	v1,s2,0x4347
  dc:	4e472820 	madd.s	$f0,$f18,$f5,$f7
  e0:	33202955 	andi	zero,t9,0x2955
  e4:	342e342e 	ori	t6,at,0x342e
  e8:	70696d20 	0x70696d20
  ec:	65647373 	0x65647373
  f0:	302e362d 	andi	t6,at,0x362d
  f4:	31302e36 	andi	s0,t1,0x2e36
  f8:	3030322d 	andi	s0,at,0x322d
  fc:	32343037 	andi	s4,s1,0x3037
 100:	47000030 	c1	0x1000030
 104:	203a4343 	addi	k0,at,17219
 108:	554e4728 	bnel	t2,t6,11dac <_init-0x52fee254>
 10c:	2e332029 	sltiu	s3,s1,8233
 110:	20342e34 	addi	s4,at,11828
 114:	7370696d 	0x7370696d
 118:	2d656473 	sltiu	a1,t3,25715
 11c:	36302e36 	ori	s0,s1,0x2e36
 120:	2d31302e 	sltiu	s1,t1,12334
 124:	37303032 	ori	s0,t9,0x3032
 128:	30323430 	andi	s2,at,0x3430
 12c:	43470000 	c0	0x1470000
 130:	28203a43 	slti	zero,at,14915
 134:	29554e47 	slti	s5,t2,20039
 138:	342e3320 	ori	t6,at,0x3320
 13c:	6d20342e 	0x6d20342e
 140:	73737069 	0x73737069
 144:	362d6564 	ori	t5,s1,0x6564
 148:	2e36302e 	sltiu	s6,s1,12334
 14c:	322d3130 	andi	t5,s1,0x3130
 150:	30373030 	andi	s7,at,0x3030
 154:	00303234 	teq	at,s0,0xc8
 158:	43434700 	c0	0x1434700
 15c:	4728203a 	c1	0x128203a
 160:	2029554e 	addi	t1,at,21838
 164:	2e342e33 	sltiu	s4,s1,11827
 168:	696d2034 	0x696d2034
 16c:	64737370 	0x64737370
 170:	2e362d65 	sltiu	s6,s1,11621
 174:	302e3630 	andi	t6,at,0x3630
 178:	30322d31 	andi	s2,at,0x2d31
 17c:	34303730 	ori	s0,at,0x3730
 180:	00003032 	tlt	zero,zero,0xc0
 184:	3a434347 	xori	v1,s2,0x4347
 188:	4e472820 	madd.s	$f0,$f18,$f5,$f7
 18c:	33202955 	andi	zero,t9,0x2955
 190:	342e342e 	ori	t6,at,0x342e
 194:	70696d20 	0x70696d20
 198:	65647373 	0x65647373
 19c:	302e362d 	andi	t6,at,0x362d
 1a0:	31302e36 	andi	s0,t1,0x2e36
 1a4:	3030322d 	andi	s0,at,0x322d
 1a8:	32343037 	andi	s4,s1,0x3037
 1ac:	47000030 	c1	0x1000030
 1b0:	203a4343 	addi	k0,at,17219
 1b4:	554e4728 	bnel	t2,t6,11e58 <_init-0x52fee1a8>
 1b8:	2e332029 	sltiu	s3,s1,8233
 1bc:	20342e34 	addi	s4,at,11828
 1c0:	7370696d 	0x7370696d
 1c4:	2d656473 	sltiu	a1,t3,25715
 1c8:	36302e36 	ori	s0,s1,0x2e36
 1cc:	2d31302e 	sltiu	s1,t1,12334
 1d0:	37303032 	ori	s0,t9,0x3032
 1d4:	30323430 	andi	s2,at,0x3430
	...
Disassembly of section .debug_ranges:

00000000 <.debug_ranges>:
   0:	00000f6c 	0xf6c
   4:	00000f70 	tge	zero,zero,0x3d
   8:	00000f78 	0xf78
   c:	0000110c 	syscall	0x44
	...
  18:	00001110 	0x1110
  1c:	00001114 	0x1114
  20:	00001860 	0x1860
  24:	00001878 	0x1878
  28:	000017c8 	0x17c8
  2c:	00001820 	add	v1,zero,zero
  30:	000016ac 	0x16ac
  34:	00001754 	0x1754
  38:	00001530 	tge	zero,zero,0x54
  3c:	00001534 	teq	zero,zero,0x54
  40:	00001528 	0x1528
  44:	0000152c 	0x152c
  48:	00001208 	0x1208
  4c:	00001524 	0x1524
  50:	00001140 	sll	v0,zero,0x5
  54:	0000119c 	0x119c
  58:	00001124 	0x1124
  5c:	00001128 	0x1128
  60:	00001118 	0x1118
  64:	0000111c 	0x111c
	...
  70:	0000128c 	syscall	0x4a
  74:	0000136c 	0x136c
  78:	00001474 	teq	zero,zero,0x51
  7c:	000014a4 	0x14a4
	...
  88:	00001564 	0x1564
  8c:	0000167c 	0x167c
  90:	00001878 	0x1878
  94:	00001888 	0x1888
  98:	00001820 	add	v1,zero,zero
  9c:	00001860 	0x1860
  a0:	00001754 	0x1754
  a4:	000017c8 	0x17c8
	...
