
./../../../case/images/apps/config.app:     file format elf32-tradlittlemips

Disassembly of section .init:

69c00000 <_init>:
69c00000:	27bdffe0 	addiu	sp,sp,-32
69c00004:	afbf0014 	sw	ra,20(sp)
69c00008:	0e701073 	jal	69c041cc <__do_global_ctors_aux>
69c0000c:	00000000 	nop
69c00010:	8fbf0014 	lw	ra,20(sp)
69c00014:	27bd0020 	addiu	sp,sp,32
69c00018:	03e00008 	jr	ra
69c0001c:	00000000 	nop
Disassembly of section .text:

69c00020 <_set_default_font>:
69c00020:	03e00008 	jr	ra
69c00024:	24020001 	li	v0,1

69c00028 <_install_application_module>:
69c00028:	03e00008 	jr	ra
69c0002c:	00000000 	nop

69c00030 <_config_msg_cb>:
69c00030:	27bdf790 	addiu	sp,sp,-2160
69c00034:	afbf086c 	sw	ra,2156(sp)
69c00038:	afb40858 	sw	s4,2136(sp)
69c0003c:	afb30854 	sw	s3,2132(sp)
69c00040:	afb20850 	sw	s2,2128(sp)
69c00044:	afb1084c 	sw	s1,2124(sp)
69c00048:	afb00848 	sw	s0,2120(sp)
69c0004c:	afbe0868 	sw	s8,2152(sp)
69c00050:	00808021 	move	s0,a0
69c00054:	afb70864 	sw	s7,2148(sp)
69c00058:	afb60860 	sw	s6,2144(sp)
69c0005c:	0e701090 	jal	69c04240 <getpid>
69c00060:	afb5085c 	sw	s5,2140(sp)
69c00064:	3c0569c0 	lui	a1,0x69c0
69c00068:	8e080000 	lw	t0,0(s0)
69c0006c:	24b248e4 	addiu	s2,a1,18660
69c00070:	3c0369c0 	lui	v1,0x69c0
69c00074:	3c0469c0 	lui	a0,0x69c0
69c00078:	24714768 	addiu	s1,v1,18280
69c0007c:	248448f4 	addiu	a0,a0,18676
69c00080:	00402821 	move	a1,v0
69c00084:	02403021 	move	a2,s2
69c00088:	240701f9 	li	a3,505
69c0008c:	afa80014 	sw	t0,20(sp)
69c00090:	0e70119e 	jal	69c04678 <printf>
69c00094:	afb10010 	sw	s1,16(sp)
69c00098:	8e100000 	lw	s0,0(s0)
69c0009c:	240203fc 	li	v0,1020
69c000a0:	02409821 	move	s3,s2
69c000a4:	1202001d 	beq	s0,v0,69c0011c <_config_msg_cb+0xec>
69c000a8:	0220a021 	move	s4,s1
69c000ac:	2e0603fd 	sltiu	a2,s0,1021
69c000b0:	10c00013 	beqz	a2,69c00100 <_config_msg_cb+0xd0>
69c000b4:	240a07da 	li	t2,2010
69c000b8:	24070064 	li	a3,100
69c000bc:	12070043 	beq	s0,a3,69c001cc <_config_msg_cb+0x19c>
69c000c0:	240903e9 	li	t1,1001
69c000c4:	120900a1 	beq	s0,t1,69c0034c <_config_msg_cb+0x31c>
69c000c8:	00000000 	nop
69c000cc:	8fbf086c 	lw	ra,2156(sp)
69c000d0:	8fbe0868 	lw	s8,2152(sp)
69c000d4:	8fb70864 	lw	s7,2148(sp)
69c000d8:	8fb60860 	lw	s6,2144(sp)
69c000dc:	8fb5085c 	lw	s5,2140(sp)
69c000e0:	8fb40858 	lw	s4,2136(sp)
69c000e4:	8fb30854 	lw	s3,2132(sp)
69c000e8:	8fb20850 	lw	s2,2128(sp)
69c000ec:	8fb1084c 	lw	s1,2124(sp)
69c000f0:	8fb00848 	lw	s0,2120(sp)
69c000f4:	00001021 	move	v0,zero
69c000f8:	03e00008 	jr	ra
69c000fc:	27bd0870 	addiu	sp,sp,2160
69c00100:	120a002c 	beq	s0,t2,69c001b4 <_config_msg_cb+0x184>
69c00104:	2e0b07db 	sltiu	t3,s0,2011
69c00108:	11600019 	beqz	t3,69c00170 <_config_msg_cb+0x140>
69c0010c:	240d07dc 	li	t5,2012
69c00110:	240c03fd 	li	t4,1021
69c00114:	160cffee 	bne	s0,t4,69c000d0 <_config_msg_cb+0xa0>
69c00118:	8fbf086c 	lw	ra,2156(sp)
69c0011c:	0e700008 	jal	69c00020 <_set_default_font>
69c00120:	24150001 	li	s5,1
69c00124:	10550020 	beq	v0,s5,69c001a8 <_config_msg_cb+0x178>
69c00128:	24160002 	li	s6,2
69c0012c:	afb60420 	sw	s6,1056(sp)
69c00130:	27a40420 	addiu	a0,sp,1056
69c00134:	0e70065f 	jal	69c0197c <reply_sync_msg>
69c00138:	00000000 	nop
69c0013c:	8fbf086c 	lw	ra,2156(sp)
69c00140:	8fbe0868 	lw	s8,2152(sp)
69c00144:	8fb70864 	lw	s7,2148(sp)
69c00148:	8fb60860 	lw	s6,2144(sp)
69c0014c:	8fb5085c 	lw	s5,2140(sp)
69c00150:	8fb40858 	lw	s4,2136(sp)
69c00154:	8fb30854 	lw	s3,2132(sp)
69c00158:	8fb20850 	lw	s2,2128(sp)
69c0015c:	8fb1084c 	lw	s1,2124(sp)
69c00160:	8fb00848 	lw	s0,2120(sp)
69c00164:	00001021 	move	v0,zero
69c00168:	03e00008 	jr	ra
69c0016c:	27bd0870 	addiu	sp,sp,2160
69c00170:	160dffd7 	bne	s0,t5,69c000d0 <_config_msg_cb+0xa0>
69c00174:	8fbf086c 	lw	ra,2156(sp)
69c00178:	3c1569c0 	lui	s5,0x69c0
69c0017c:	8ea378fc 	lw	v1,30972(s5)
69c00180:	2c6f0007 	sltiu	t7,v1,7
69c00184:	11e0ffd3 	beqz	t7,69c000d4 <_config_msg_cb+0xa4>
69c00188:	8fbe0868 	lw	s8,2152(sp)
69c0018c:	3c1869c0 	lui	t8,0x69c0
69c00190:	0003b080 	sll	s6,v1,0x2
69c00194:	27174778 	addiu	s7,t8,18296
69c00198:	02d79021 	addu	s2,s6,s7
69c0019c:	8e510000 	lw	s1,0(s2)
69c001a0:	02200008 	jr	s1
69c001a4:	00000000 	nop
69c001a8:	27a40420 	addiu	a0,sp,1056
69c001ac:	1000ffe1 	b	69c00134 <_config_msg_cb+0x104>
69c001b0:	afa20420 	sw	v0,1056(sp)
69c001b4:	240e0001 	li	t6,1
69c001b8:	27a40420 	addiu	a0,sp,1056
69c001bc:	0e70065f 	jal	69c0197c <reply_sync_msg>
69c001c0:	afae0420 	sw	t6,1056(sp)
69c001c4:	1000ffde 	b	69c00140 <_config_msg_cb+0x110>
69c001c8:	8fbf086c 	lw	ra,2156(sp)
69c001cc:	0e70064d 	jal	69c01934 <filter_msg>
69c001d0:	24040064 	li	a0,100
69c001d4:	0e700671 	jal	69c019c4 <clear_sys_msg_queue>
69c001d8:	24040064 	li	a0,100
69c001dc:	0e70064a 	jal	69c01928 <sys_enable_sys_evt_detect>
69c001e0:	00002021 	move	a0,zero
69c001e4:	27b5001c 	addiu	s5,sp,28
69c001e8:	3c0669c0 	lui	a2,0x69c0
69c001ec:	24c5491c 	addiu	a1,a2,18716
69c001f0:	240707e2 	li	a3,2018
69c001f4:	02a02021 	move	a0,s5
69c001f8:	24060400 	li	a2,1024
69c001fc:	0e701174 	jal	69c045d0 <strncpy>
69c00200:	afa70018 	sw	a3,24(sp)
69c00204:	3c0569c0 	lui	a1,0x69c0
69c00208:	24b34938 	addiu	s3,a1,18744
69c0020c:	27b40420 	addiu	s4,sp,1056
69c00210:	02602021 	move	a0,s3
69c00214:	27a50018 	addiu	a1,sp,24
69c00218:	02803021 	move	a2,s4
69c0021c:	0e70065c 	jal	69c01970 <send_sync_msg>
69c00220:	00003821 	move	a3,zero
69c00224:	8fa30420 	lw	v1,1056(sp)
69c00228:	24040002 	li	a0,2
69c0022c:	1064002a 	beq	v1,a0,69c002d8 <_config_msg_cb+0x2a8>
69c00230:	3c0b69c0 	lui	t3,0x69c0
69c00234:	25644954 	addiu	a0,t3,18772
69c00238:	24050002 	li	a1,2
69c0023c:	0e7010d8 	jal	69c04360 <open>
69c00240:	afa0083c 	sw	zero,2108(sp)
69c00244:	3c0a4004 	lui	t2,0x4004
69c00248:	00402021 	move	a0,v0
69c0024c:	35456404 	ori	a1,t2,0x6404
69c00250:	27a6083c 	addiu	a2,sp,2108
69c00254:	0e7010d5 	jal	69c04354 <ioctl>
69c00258:	00408021 	move	s0,v0
69c0025c:	8fa2083c 	lw	v0,2108(sp)
69c00260:	044000d6 	bltz	v0,69c005bc <_config_msg_cb+0x58c>
69c00264:	284c0020 	slti	t4,v0,32
69c00268:	15800002 	bnez	t4,69c00274 <_config_msg_cb+0x244>
69c0026c:	240d001f 	li	t5,31
69c00270:	afad083c 	sw	t5,2108(sp)
69c00274:	0e7010cc 	jal	69c04330 <close>
69c00278:	02002021 	move	a0,s0
69c0027c:	3c1f69c0 	lui	ra,0x69c0
69c00280:	8fbe083c 	lw	s8,2108(sp)
69c00284:	27e44960 	addiu	a0,ra,18784
69c00288:	27a50840 	addiu	a1,sp,2112
69c0028c:	24060004 	li	a2,4
69c00290:	0e701189 	jal	69c04624 <set_config>
69c00294:	afbe0840 	sw	s8,2112(sp)
69c00298:	3c1969c0 	lui	t9,0x69c0
69c0029c:	2725496c 	addiu	a1,t9,18796
69c002a0:	241807d4 	li	t8,2004
69c002a4:	02a02021 	move	a0,s5
69c002a8:	24060400 	li	a2,1024
69c002ac:	0e701174 	jal	69c045d0 <strncpy>
69c002b0:	afb80018 	sw	t8,24(sp)
69c002b4:	02602021 	move	a0,s3
69c002b8:	02803021 	move	a2,s4
69c002bc:	27a50018 	addiu	a1,sp,24
69c002c0:	0e70065c 	jal	69c01970 <send_sync_msg>
69c002c4:	00003821 	move	a3,zero
69c002c8:	240f0004 	li	t7,4
69c002cc:	3c0e69c0 	lui	t6,0x69c0
69c002d0:	1000ff7e 	b	69c000cc <_config_msg_cb+0x9c>
69c002d4:	adcf78fc 	sw	t7,30972(t6)
69c002d8:	0e701099 	jal	69c04264 <__errno>
69c002dc:	00000000 	nop
69c002e0:	0e701090 	jal	69c04240 <getpid>
69c002e4:	0040b821 	move	s7,v0
69c002e8:	8ee50000 	lw	a1,0(s7)
69c002ec:	3c0969c0 	lui	t1,0x69c0
69c002f0:	02403821 	move	a3,s2
69c002f4:	25244994 	addiu	a0,t1,18836
69c002f8:	241202d1 	li	s2,721
69c002fc:	00403021 	move	a2,v0
69c00300:	afb20010 	sw	s2,16(sp)
69c00304:	0e70119e 	jal	69c04678 <printf>
69c00308:	afb10014 	sw	s1,20(sp)
69c0030c:	1000ff70 	b	69c000d0 <_config_msg_cb+0xa0>
69c00310:	8fbf086c 	lw	ra,2156(sp)
69c00314:	0e701090 	jal	69c04240 <getpid>
69c00318:	3c1169c0 	lui	s1,0x69c0
69c0031c:	afb40010 	sw	s4,16(sp)
69c00320:	262449bc 	addiu	a0,s1,18876
69c00324:	3c1469c0 	lui	s4,0x69c0
69c00328:	00402821 	move	a1,v0
69c0032c:	02603021 	move	a2,s3
69c00330:	0e70119e 	jal	69c04678 <printf>
69c00334:	2407029d 	li	a3,669
69c00338:	8e826020 	lw	v0,24608(s4)
69c0033c:	24080007 	li	t0,7
69c00340:	2450fffe 	addiu	s0,v0,-2
69c00344:	aea878fc 	sw	t0,30972(s5)
69c00348:	ae906020 	sw	s0,24608(s4)
69c0034c:	0e70066e 	jal	69c019b8 <exit_msg_loop>
69c00350:	00000000 	nop
69c00354:	1000ff5e 	b	69c000d0 <_config_msg_cb+0xa0>
69c00358:	8fbf086c 	lw	ra,2156(sp)
69c0035c:	0e701090 	jal	69c04240 <getpid>
69c00360:	00000000 	nop
69c00364:	3c1869c0 	lui	t8,0x69c0
69c00368:	270449f0 	addiu	a0,t8,18928
69c0036c:	00402821 	move	a1,v0
69c00370:	02603021 	move	a2,s3
69c00374:	24070289 	li	a3,649
69c00378:	0e70119e 	jal	69c04678 <printf>
69c0037c:	afb40010 	sw	s4,16(sp)
69c00380:	3c0f69c0 	lui	t7,0x69c0
69c00384:	25e44a28 	addiu	a0,t7,18984
69c00388:	0e7011c2 	jal	69c04708 <rmmod>
69c0038c:	00002821 	move	a1,zero
69c00390:	3c0e69c0 	lui	t6,0x69c0
69c00394:	8dcd7908 	lw	t5,30984(t6)
69c00398:	240c0001 	li	t4,1
69c0039c:	11ac00f6 	beq	t5,t4,69c00778 <_config_msg_cb+0x748>
69c003a0:	27b3001c 	addiu	s3,sp,28
69c003a4:	0e70066e 	jal	69c019b8 <exit_msg_loop>
69c003a8:	00000000 	nop
69c003ac:	24020007 	li	v0,7
69c003b0:	1000ff46 	b	69c000cc <_config_msg_cb+0x9c>
69c003b4:	aea278fc 	sw	v0,30972(s5)
69c003b8:	0e701090 	jal	69c04240 <getpid>
69c003bc:	00000000 	nop
69c003c0:	3c0b69c0 	lui	t3,0x69c0
69c003c4:	25644a30 	addiu	a0,t3,18992
69c003c8:	2407027e 	li	a3,638
69c003cc:	00402821 	move	a1,v0
69c003d0:	02603021 	move	a2,s3
69c003d4:	27b7001c 	addiu	s7,sp,28
69c003d8:	0e70119e 	jal	69c04678 <printf>
69c003dc:	afb40010 	sw	s4,16(sp)
69c003e0:	240a07d4 	li	t2,2004
69c003e4:	02e02021 	move	a0,s7
69c003e8:	00002821 	move	a1,zero
69c003ec:	24060400 	li	a2,1024
69c003f0:	0e7010ee 	jal	69c043b8 <memset>
69c003f4:	afaa0018 	sw	t2,24(sp)
69c003f8:	3c0969c0 	lui	t1,0x69c0
69c003fc:	25254a64 	addiu	a1,t1,19044
69c00400:	02e02021 	move	a0,s7
69c00404:	0e701174 	jal	69c045d0 <strncpy>
69c00408:	24060400 	li	a2,1024
69c0040c:	3c0769c0 	lui	a3,0x69c0
69c00410:	24e44938 	addiu	a0,a3,18744
69c00414:	0e700662 	jal	69c01988 <send_async_msg>
69c00418:	27a50018 	addiu	a1,sp,24
69c0041c:	24030005 	li	v1,5
69c00420:	1000ff2a 	b	69c000cc <_config_msg_cb+0x9c>
69c00424:	aea378fc 	sw	v1,30972(s5)
69c00428:	0e701090 	jal	69c04240 <getpid>
69c0042c:	241607d2 	li	s6,2002
69c00430:	3c0669c0 	lui	a2,0x69c0
69c00434:	24c44a84 	addiu	a0,a2,19076
69c00438:	24070264 	li	a3,612
69c0043c:	02603021 	move	a2,s3
69c00440:	00402821 	move	a1,v0
69c00444:	afb40010 	sw	s4,16(sp)
69c00448:	0e70119e 	jal	69c04678 <printf>
69c0044c:	27b2001c 	addiu	s2,sp,28
69c00450:	3c0569c0 	lui	a1,0x69c0
69c00454:	24a54a64 	addiu	a1,a1,19044
69c00458:	02402021 	move	a0,s2
69c0045c:	24060400 	li	a2,1024
69c00460:	0e701174 	jal	69c045d0 <strncpy>
69c00464:	afb60018 	sw	s6,24(sp)
69c00468:	3c0469c0 	lui	a0,0x69c0
69c0046c:	24904938 	addiu	s0,a0,18744
69c00470:	27b10420 	addiu	s1,sp,1056
69c00474:	02203021 	move	a2,s1
69c00478:	00003821 	move	a3,zero
69c0047c:	02002021 	move	a0,s0
69c00480:	0e70065c 	jal	69c01970 <send_sync_msg>
69c00484:	27a50018 	addiu	a1,sp,24
69c00488:	3c0369c0 	lui	v1,0x69c0
69c0048c:	2465496c 	addiu	a1,v1,18796
69c00490:	02402021 	move	a0,s2
69c00494:	0e701169 	jal	69c045a4 <strcpy>
69c00498:	afb60018 	sw	s6,24(sp)
69c0049c:	00003821 	move	a3,zero
69c004a0:	02203021 	move	a2,s1
69c004a4:	27a50018 	addiu	a1,sp,24
69c004a8:	0e70065c 	jal	69c01970 <send_sync_msg>
69c004ac:	02002021 	move	a0,s0
69c004b0:	3c0869c0 	lui	t0,0x69c0
69c004b4:	0e700641 	jal	69c01904 <sys_pm_clear_clk_domain>
69c004b8:	25044760 	addiu	a0,t0,18272
69c004bc:	3c0269c0 	lui	v0,0x69c0
69c004c0:	0e70063e 	jal	69c018f8 <sys_pm_set_clk_domain>
69c004c4:	24444758 	addiu	a0,v0,18264
69c004c8:	241407e0 	li	s4,2016
69c004cc:	27a50018 	addiu	a1,sp,24
69c004d0:	02002021 	move	a0,s0
69c004d4:	0e700662 	jal	69c01988 <send_async_msg>
69c004d8:	afb40018 	sw	s4,24(sp)
69c004dc:	0e7010ae 	jal	69c042b8 <pthread_self>
69c004e0:	27a4082c 	addiu	a0,sp,2092
69c004e4:	8fa4082c 	lw	a0,2092(sp)
69c004e8:	27a50834 	addiu	a1,sp,2100
69c004ec:	0e7010a5 	jal	69c04294 <pthread_getschedparam>
69c004f0:	27a60838 	addiu	a2,sp,2104
69c004f4:	8fb30838 	lw	s3,2104(sp)
69c004f8:	267f0001 	addiu	ra,s3,1
69c004fc:	afbf0838 	sw	ra,2104(sp)
69c00500:	0e7010ae 	jal	69c042b8 <pthread_self>
69c00504:	27a40828 	addiu	a0,sp,2088
69c00508:	8fa40828 	lw	a0,2088(sp)
69c0050c:	8fa50834 	lw	a1,2100(sp)
69c00510:	0e7010a8 	jal	69c042a0 <pthread_setschedparam>
69c00514:	27a60838 	addiu	a2,sp,2104
69c00518:	24030003 	li	v1,3
69c0051c:	1000feeb 	b	69c000cc <_config_msg_cb+0x9c>
69c00520:	aea378fc 	sw	v1,30972(s5)
69c00524:	0e701090 	jal	69c04240 <getpid>
69c00528:	3c1e69c0 	lui	s8,0x69c0
69c0052c:	27c44ab8 	addiu	a0,s8,19128
69c00530:	00402821 	move	a1,v0
69c00534:	02603021 	move	a2,s3
69c00538:	24070209 	li	a3,521
69c0053c:	0e70119e 	jal	69c04678 <printf>
69c00540:	afb40010 	sw	s4,16(sp)
69c00544:	3c1969c0 	lui	t9,0x69c0
69c00548:	8f2478f8 	lw	a0,30968(t9)
69c0054c:	24030001 	li	v1,1
69c00550:	10830004 	beq	a0,v1,69c00564 <_config_msg_cb+0x534>
69c00554:	3c1069c0 	lui	s0,0x69c0
69c00558:	8e1f78f4 	lw	ra,30964(s0)
69c0055c:	17e30019 	bne	ra,v1,69c005c4 <_config_msg_cb+0x594>
69c00560:	00000000 	nop
69c00564:	108300aa 	beq	a0,v1,69c00810 <_config_msg_cb+0x7e0>
69c00568:	3c1369c0 	lui	s3,0x69c0
69c0056c:	8e0278f4 	lw	v0,30964(s0)
69c00570:	24140001 	li	s4,1
69c00574:	38480001 	xori	t0,v0,0x1
69c00578:	0008100a 	movz	v0,zero,t0
69c0057c:	0e700644 	jal	69c01910 <sys_get_main_disk>
69c00580:	ae0278f4 	sw	v0,30964(s0)
69c00584:	1054008d 	beq	v0,s4,69c007bc <_config_msg_cb+0x78c>
69c00588:	3c0769c0 	lui	a3,0x69c0
69c0058c:	24f1491c 	addiu	s1,a3,18716
69c00590:	240607dc 	li	a2,2012
69c00594:	27a4001c 	addiu	a0,sp,28
69c00598:	02202821 	move	a1,s1
69c0059c:	0e701169 	jal	69c045a4 <strcpy>
69c005a0:	afa60018 	sw	a2,24(sp)
69c005a4:	02202021 	move	a0,s1
69c005a8:	0e700662 	jal	69c01988 <send_async_msg>
69c005ac:	27a50018 	addiu	a1,sp,24
69c005b0:	24020002 	li	v0,2
69c005b4:	1000fec5 	b	69c000cc <_config_msg_cb+0x9c>
69c005b8:	aea278fc 	sw	v0,30972(s5)
69c005bc:	1000ff2d 	b	69c00274 <_config_msg_cb+0x244>
69c005c0:	afa0083c 	sw	zero,2108(sp)
69c005c4:	0e701090 	jal	69c04240 <getpid>
69c005c8:	241207dd 	li	s2,2013
69c005cc:	3c0a69c0 	lui	t2,0x69c0
69c005d0:	255e4afc 	addiu	s8,t2,19196
69c005d4:	00402821 	move	a1,v0
69c005d8:	03c02021 	move	a0,s8
69c005dc:	02603021 	move	a2,s3
69c005e0:	2407022f 	li	a3,559
69c005e4:	0e70119e 	jal	69c04678 <printf>
69c005e8:	afb40010 	sw	s4,16(sp)
69c005ec:	3c0969c0 	lui	t1,0x69c0
69c005f0:	2530496c 	addiu	s0,t1,18796
69c005f4:	27b60420 	addiu	s6,sp,1056
69c005f8:	27b7001c 	addiu	s7,sp,28
69c005fc:	24110001 	li	s1,1
69c00600:	02e02021 	move	a0,s7
69c00604:	02002821 	move	a1,s0
69c00608:	0e701169 	jal	69c045a4 <strcpy>
69c0060c:	afb20018 	sw	s2,24(sp)
69c00610:	02002021 	move	a0,s0
69c00614:	27a50018 	addiu	a1,sp,24
69c00618:	02c03021 	move	a2,s6
69c0061c:	0e70065c 	jal	69c01970 <send_sync_msg>
69c00620:	00003821 	move	a3,zero
69c00624:	14510003 	bne	v0,s1,69c00634 <_config_msg_cb+0x604>
69c00628:	8fab0420 	lw	t3,1056(sp)
69c0062c:	11620005 	beq	t3,v0,69c00644 <_config_msg_cb+0x614>
69c00630:	00000000 	nop
69c00634:	0e7010c9 	jal	69c04324 <usleep>
69c00638:	24042710 	li	a0,10000
69c0063c:	1000fff1 	b	69c00604 <_config_msg_cb+0x5d4>
69c00640:	02e02021 	move	a0,s7
69c00644:	0e701090 	jal	69c04240 <getpid>
69c00648:	00000000 	nop
69c0064c:	00402821 	move	a1,v0
69c00650:	03c02021 	move	a0,s8
69c00654:	02603021 	move	a2,s3
69c00658:	2407023b 	li	a3,571
69c0065c:	0e70119e 	jal	69c04678 <printf>
69c00660:	afb40010 	sw	s4,16(sp)
69c00664:	0e700644 	jal	69c01910 <sys_get_main_disk>
69c00668:	00000000 	nop
69c0066c:	240c0001 	li	t4,1
69c00670:	104c006e 	beq	v0,t4,69c0082c <_config_msg_cb+0x7fc>
69c00674:	24040001 	li	a0,1
69c00678:	0e701090 	jal	69c04240 <getpid>
69c0067c:	241207dd 	li	s2,2013
69c00680:	00402821 	move	a1,v0
69c00684:	03c02021 	move	a0,s8
69c00688:	02603021 	move	a2,s3
69c0068c:	24070244 	li	a3,580
69c00690:	0e70119e 	jal	69c04678 <printf>
69c00694:	afb40010 	sw	s4,16(sp)
69c00698:	3c0e69c0 	lui	t6,0x69c0
69c0069c:	25d04a64 	addiu	s0,t6,19044
69c006a0:	24110001 	li	s1,1
69c006a4:	02e02021 	move	a0,s7
69c006a8:	02002821 	move	a1,s0
69c006ac:	0e701169 	jal	69c045a4 <strcpy>
69c006b0:	afb20018 	sw	s2,24(sp)
69c006b4:	02002021 	move	a0,s0
69c006b8:	27a50018 	addiu	a1,sp,24
69c006bc:	02c03021 	move	a2,s6
69c006c0:	0e70065c 	jal	69c01970 <send_sync_msg>
69c006c4:	00003821 	move	a3,zero
69c006c8:	14510003 	bne	v0,s1,69c006d8 <_config_msg_cb+0x6a8>
69c006cc:	8faf0420 	lw	t7,1056(sp)
69c006d0:	11e20005 	beq	t7,v0,69c006e8 <_config_msg_cb+0x6b8>
69c006d4:	00000000 	nop
69c006d8:	0e7010c9 	jal	69c04324 <usleep>
69c006dc:	24042710 	li	a0,10000
69c006e0:	1000fff1 	b	69c006a8 <_config_msg_cb+0x678>
69c006e4:	02e02021 	move	a0,s7
69c006e8:	0e701090 	jal	69c04240 <getpid>
69c006ec:	241707e0 	li	s7,2016
69c006f0:	00402821 	move	a1,v0
69c006f4:	24070250 	li	a3,592
69c006f8:	02603021 	move	a2,s3
69c006fc:	03c02021 	move	a0,s8
69c00700:	3c1e69c0 	lui	s8,0x69c0
69c00704:	0e70119e 	jal	69c04678 <printf>
69c00708:	afb40010 	sw	s4,16(sp)
69c0070c:	0e700641 	jal	69c01904 <sys_pm_clear_clk_domain>
69c00710:	27c44760 	addiu	a0,s8,18272
69c00714:	3c1969c0 	lui	t9,0x69c0
69c00718:	0e70063e 	jal	69c018f8 <sys_pm_set_clk_domain>
69c0071c:	27244758 	addiu	a0,t9,18264
69c00720:	3c1869c0 	lui	t8,0x69c0
69c00724:	27044938 	addiu	a0,t8,18744
69c00728:	27a50018 	addiu	a1,sp,24
69c0072c:	0e700662 	jal	69c01988 <send_async_msg>
69c00730:	afb70018 	sw	s7,24(sp)
69c00734:	0e7010ae 	jal	69c042b8 <pthread_self>
69c00738:	27a40828 	addiu	a0,sp,2088
69c0073c:	8fa40828 	lw	a0,2088(sp)
69c00740:	27a50834 	addiu	a1,sp,2100
69c00744:	0e7010a5 	jal	69c04294 <pthread_getschedparam>
69c00748:	27a60838 	addiu	a2,sp,2104
69c0074c:	8fb60838 	lw	s6,2104(sp)
69c00750:	27a4082c 	addiu	a0,sp,2092
69c00754:	26d20001 	addiu	s2,s6,1
69c00758:	0e7010ae 	jal	69c042b8 <pthread_self>
69c0075c:	afb20838 	sw	s2,2104(sp)
69c00760:	8fa4082c 	lw	a0,2092(sp)
69c00764:	8fa50834 	lw	a1,2100(sp)
69c00768:	0e7010a8 	jal	69c042a0 <pthread_setschedparam>
69c0076c:	27a60838 	addiu	a2,sp,2104
69c00770:	1000ff6a 	b	69c0051c <_config_msg_cb+0x4ec>
69c00774:	24030003 	li	v1,3
69c00778:	241f07d1 	li	ra,2001
69c0077c:	24060400 	li	a2,1024
69c00780:	02602021 	move	a0,s3
69c00784:	00002821 	move	a1,zero
69c00788:	afbf0018 	sw	ra,24(sp)
69c0078c:	0e7010ee 	jal	69c043b8 <memset>
69c00790:	3c1e69c0 	lui	s8,0x69c0
69c00794:	02602021 	move	a0,s3
69c00798:	0e701169 	jal	69c045a4 <strcpy>
69c0079c:	27c54b18 	addiu	a1,s8,19224
69c007a0:	3c1969c0 	lui	t9,0x69c0
69c007a4:	27244938 	addiu	a0,t9,18744
69c007a8:	0e700662 	jal	69c01988 <send_async_msg>
69c007ac:	27a50018 	addiu	a1,sp,24
69c007b0:	24030006 	li	v1,6
69c007b4:	1000fe45 	b	69c000cc <_config_msg_cb+0x9c>
69c007b8:	aea378fc 	sw	v1,30972(s5)
69c007bc:	24040001 	li	a0,1
69c007c0:	0e700650 	jal	69c01940 <sys_get_media_dir>
69c007c4:	24050011 	li	a1,17
69c007c8:	3c0569c0 	lui	a1,0x69c0
69c007cc:	24a54b40 	addiu	a1,a1,19264
69c007d0:	0e70063b 	jal	69c018ec <sys_check_media_dir>
69c007d4:	00402021 	move	a0,v0
69c007d8:	3c0469c0 	lui	a0,0x69c0
69c007dc:	24854b4c 	addiu	a1,a0,19276
69c007e0:	240307d2 	li	v1,2002
69c007e4:	27a4001c 	addiu	a0,sp,28
69c007e8:	3c1069c0 	lui	s0,0x69c0
69c007ec:	0e701169 	jal	69c045a4 <strcpy>
69c007f0:	afa30018 	sw	v1,24(sp)
69c007f4:	26044938 	addiu	a0,s0,18744
69c007f8:	27a50018 	addiu	a1,sp,24
69c007fc:	27a60420 	addiu	a2,sp,1056
69c00800:	0e70065c 	jal	69c01970 <send_sync_msg>
69c00804:	00003821 	move	a3,zero
69c00808:	1000ff6a 	b	69c005b4 <_config_msg_cb+0x584>
69c0080c:	24020002 	li	v0,2
69c00810:	26644aec 	addiu	a0,s3,19180
69c00814:	27a50830 	addiu	a1,sp,2096
69c00818:	24060004 	li	a2,4
69c0081c:	0e701189 	jal	69c04624 <set_config>
69c00820:	afa00830 	sw	zero,2096(sp)
69c00824:	1000ff52 	b	69c00570 <_config_msg_cb+0x540>
69c00828:	8e0278f4 	lw	v0,30964(s0)
69c0082c:	0e700650 	jal	69c01940 <sys_get_media_dir>
69c00830:	24050011 	li	a1,17
69c00834:	3c0d69c0 	lui	t5,0x69c0
69c00838:	00402021 	move	a0,v0
69c0083c:	0e70063b 	jal	69c018ec <sys_check_media_dir>
69c00840:	25a54b40 	addiu	a1,t5,19264
69c00844:	1000ff8c 	b	69c00678 <_config_msg_cb+0x648>
69c00848:	00000000 	nop

69c0084c <_mount_flash_disk>:
69c0084c:	27bdfdc0 	addiu	sp,sp,-576
69c00850:	afb20228 	sw	s2,552(sp)
69c00854:	afbf0238 	sw	ra,568(sp)
69c00858:	afb50234 	sw	s5,564(sp)
69c0085c:	afb40230 	sw	s4,560(sp)
69c00860:	afb3022c 	sw	s3,556(sp)
69c00864:	afb10224 	sw	s1,548(sp)
69c00868:	afb00220 	sw	s0,544(sp)
69c0086c:	3c1269c0 	lui	s2,0x69c0
69c00870:	8e42790c 	lw	v0,30988(s2)
69c00874:	10400009 	beqz	v0,69c0089c <_mount_flash_disk+0x50>
69c00878:	8fbf0238 	lw	ra,568(sp)
69c0087c:	8fb50234 	lw	s5,564(sp)
69c00880:	8fb40230 	lw	s4,560(sp)
69c00884:	8fb3022c 	lw	s3,556(sp)
69c00888:	8fb20228 	lw	s2,552(sp)
69c0088c:	8fb10224 	lw	s1,548(sp)
69c00890:	8fb00220 	lw	s0,544(sp)
69c00894:	03e00008 	jr	ra
69c00898:	27bd0240 	addiu	sp,sp,576
69c0089c:	3c0769c0 	lui	a3,0x69c0
69c008a0:	24f34b74 	addiu	s3,a3,19316
69c008a4:	24060140 	li	a2,320
69c008a8:	02602021 	move	a0,s3
69c008ac:	0e7011a4 	jal	69c04690 <sys_mknod>
69c008b0:	24056000 	li	a1,24576
69c008b4:	3c0669c0 	lui	a2,0x69c0
69c008b8:	24c44b80 	addiu	a0,a2,19328
69c008bc:	0e7011bf 	jal	69c046fc <insmod>
69c008c0:	00002821 	move	a1,zero
69c008c4:	3c0569c0 	lui	a1,0x69c0
69c008c8:	24a44b88 	addiu	a0,a1,19336
69c008cc:	3406fe00 	li	a2,0xfe00
69c008d0:	0e7011a4 	jal	69c04690 <sys_mknod>
69c008d4:	24056000 	li	a1,24576
69c008d8:	3c0469c0 	lui	a0,0x69c0
69c008dc:	24844b94 	addiu	a0,a0,19348
69c008e0:	24056000 	li	a1,24576
69c008e4:	0e7011a4 	jal	69c04690 <sys_mknod>
69c008e8:	24064600 	li	a2,17920
69c008ec:	0e700644 	jal	69c01910 <sys_get_main_disk>
69c008f0:	00000000 	nop
69c008f4:	24030001 	li	v1,1
69c008f8:	1043000c 	beq	v0,v1,69c0092c <_mount_flash_disk+0xe0>
69c008fc:	02602021 	move	a0,s3
69c00900:	240f0001 	li	t7,1
69c00904:	ae4f790c 	sw	t7,30988(s2)
69c00908:	8fbf0238 	lw	ra,568(sp)
69c0090c:	8fb50234 	lw	s5,564(sp)
69c00910:	8fb40230 	lw	s4,560(sp)
69c00914:	8fb3022c 	lw	s3,556(sp)
69c00918:	8fb20228 	lw	s2,552(sp)
69c0091c:	8fb10224 	lw	s1,548(sp)
69c00920:	8fb00220 	lw	s0,544(sp)
69c00924:	03e00008 	jr	ra
69c00928:	27bd0240 	addiu	sp,sp,576
69c0092c:	00002821 	move	a1,zero
69c00930:	0e7011a7 	jal	69c0469c <sys_open>
69c00934:	00003021 	move	a2,zero
69c00938:	0440005e 	bltz	v0,69c00ab4 <_mount_flash_disk+0x268>
69c0093c:	00408821 	move	s1,v0
69c00940:	00402021 	move	a0,v0
69c00944:	27a50020 	addiu	a1,sp,32
69c00948:	0e7011ad 	jal	69c046b4 <sys_read>
69c0094c:	24060200 	li	a2,512
69c00950:	240d0200 	li	t5,512
69c00954:	104d0010 	beq	v0,t5,69c00998 <_mount_flash_disk+0x14c>
69c00958:	00000000 	nop
69c0095c:	0e701099 	jal	69c04264 <__errno>
69c00960:	3c1569c0 	lui	s5,0x69c0
69c00964:	0e701090 	jal	69c04240 <getpid>
69c00968:	00408021 	move	s0,v0
69c0096c:	8e050000 	lw	a1,0(s0)
69c00970:	3c1869c0 	lui	t8,0x69c0
69c00974:	3c0f69c0 	lui	t7,0x69c0
69c00978:	24140322 	li	s4,802
69c0097c:	25ee47a8 	addiu	t6,t7,18344
69c00980:	27044ba0 	addiu	a0,t8,19360
69c00984:	00403021 	move	a2,v0
69c00988:	26a748e4 	addiu	a3,s5,18660
69c0098c:	afb40010 	sw	s4,16(sp)
69c00990:	0e70119e 	jal	69c04678 <printf>
69c00994:	afae0014 	sw	t6,20(sp)
69c00998:	0e7011aa 	jal	69c046a8 <sys_close>
69c0099c:	02202021 	move	a0,s1
69c009a0:	93b9021e 	lbu	t9,542(sp)
69c009a4:	24110055 	li	s1,85
69c009a8:	17310005 	bne	t9,s1,69c009c0 <_mount_flash_disk+0x174>
69c009ac:	3c0369c0 	lui	v1,0x69c0
69c009b0:	93a2021f 	lbu	v0,543(sp)
69c009b4:	241f00aa 	li	ra,170
69c009b8:	105f0007 	beq	v0,ra,69c009d8 <_mount_flash_disk+0x18c>
69c009bc:	3c0769c0 	lui	a3,0x69c0
69c009c0:	24654bd4 	addiu	a1,v1,19412
69c009c4:	0e700ed7 	jal	69c03b5c <format>
69c009c8:	02602021 	move	a0,s3
69c009cc:	1440004c 	bnez	v0,69c00b00 <_mount_flash_disk+0x2b4>
69c009d0:	3c0469c0 	lui	a0,0x69c0
69c009d4:	3c0769c0 	lui	a3,0x69c0
69c009d8:	24f44b40 	addiu	s4,a3,19264
69c009dc:	02802021 	move	a0,s4
69c009e0:	0e7011b6 	jal	69c046d8 <sys_mkdir>
69c009e4:	00002821 	move	a1,zero
69c009e8:	3c0669c0 	lui	a2,0x69c0
69c009ec:	24d54c04 	addiu	s5,a2,19460
69c009f0:	02602021 	move	a0,s3
69c009f4:	02802821 	move	a1,s4
69c009f8:	02a03021 	move	a2,s5
69c009fc:	00003821 	move	a3,zero
69c00a00:	0e7011a1 	jal	69c04684 <sys_mount>
69c00a04:	afa00010 	sw	zero,16(sp)
69c00a08:	0441ffbe 	bgez	v0,69c00904 <_mount_flash_disk+0xb8>
69c00a0c:	240f0001 	li	t7,1
69c00a10:	0e701099 	jal	69c04264 <__errno>
69c00a14:	00000000 	nop
69c00a18:	0e701090 	jal	69c04240 <getpid>
69c00a1c:	00408021 	move	s0,v0
69c00a20:	3c0d69c0 	lui	t5,0x69c0
69c00a24:	8e050000 	lw	a1,0(s0)
69c00a28:	3c0c69c0 	lui	t4,0x69c0
69c00a2c:	25b048e4 	addiu	s0,t5,18660
69c00a30:	3c0a69c0 	lui	t2,0x69c0
69c00a34:	25844c08 	addiu	a0,t4,19464
69c00a38:	240b019d 	li	t3,413
69c00a3c:	25494794 	addiu	t1,t2,18324
69c00a40:	00403021 	move	a2,v0
69c00a44:	02003821 	move	a3,s0
69c00a48:	afab0010 	sw	t3,16(sp)
69c00a4c:	afa90014 	sw	t1,20(sp)
69c00a50:	afb30018 	sw	s3,24(sp)
69c00a54:	0e70119e 	jal	69c04678 <printf>
69c00a58:	afb4001c 	sw	s4,28(sp)
69c00a5c:	3c0869c0 	lui	t0,0x69c0
69c00a60:	02602021 	move	a0,s3
69c00a64:	0e700ed7 	jal	69c03b5c <format>
69c00a68:	25054bd4 	addiu	a1,t0,19412
69c00a6c:	1440002b 	bnez	v0,69c00b1c <_mount_flash_disk+0x2d0>
69c00a70:	3c0e69c0 	lui	t6,0x69c0
69c00a74:	02602021 	move	a0,s3
69c00a78:	02802821 	move	a1,s4
69c00a7c:	02a03021 	move	a2,s5
69c00a80:	00003821 	move	a3,zero
69c00a84:	0e7011a1 	jal	69c04684 <sys_mount>
69c00a88:	afa00010 	sw	zero,16(sp)
69c00a8c:	1040ff9d 	beqz	v0,69c00904 <_mount_flash_disk+0xb8>
69c00a90:	240f0001 	li	t7,1
69c00a94:	3c1369c0 	lui	s3,0x69c0
69c00a98:	26644bdc 	addiu	a0,s3,19420
69c00a9c:	02002821 	move	a1,s0
69c00aa0:	0e70119e 	jal	69c04678 <printf>
69c00aa4:	240601a1 	li	a2,417
69c00aa8:	240f0001 	li	t7,1
69c00aac:	1000ff96 	b	69c00908 <_mount_flash_disk+0xbc>
69c00ab0:	ae4f790c 	sw	t7,30988(s2)
69c00ab4:	0e701099 	jal	69c04264 <__errno>
69c00ab8:	00000000 	nop
69c00abc:	0e701090 	jal	69c04240 <getpid>
69c00ac0:	00408021 	move	s0,v0
69c00ac4:	8e050000 	lw	a1,0(s0)
69c00ac8:	3c0c69c0 	lui	t4,0x69c0
69c00acc:	3c0b69c0 	lui	t3,0x69c0
69c00ad0:	3c0969c0 	lui	t1,0x69c0
69c00ad4:	240a031b 	li	t2,795
69c00ad8:	252847a8 	addiu	t0,t1,18344
69c00adc:	25844c54 	addiu	a0,t4,19540
69c00ae0:	00403021 	move	a2,v0
69c00ae4:	256748e4 	addiu	a3,t3,18660
69c00ae8:	afaa0010 	sw	t2,16(sp)
69c00aec:	afa80014 	sw	t0,20(sp)
69c00af0:	0e70119e 	jal	69c04678 <printf>
69c00af4:	afb30018 	sw	s3,24(sp)
69c00af8:	1000ffb7 	b	69c009d8 <_mount_flash_disk+0x18c>
69c00afc:	3c0769c0 	lui	a3,0x69c0
69c00b00:	3c0569c0 	lui	a1,0x69c0
69c00b04:	24844bdc 	addiu	a0,a0,19420
69c00b08:	24a548e4 	addiu	a1,a1,18660
69c00b0c:	0e70119e 	jal	69c04678 <printf>
69c00b10:	24060196 	li	a2,406
69c00b14:	1000ffb0 	b	69c009d8 <_mount_flash_disk+0x18c>
69c00b18:	3c0769c0 	lui	a3,0x69c0
69c00b1c:	25c44bdc 	addiu	a0,t6,19420
69c00b20:	02002821 	move	a1,s0
69c00b24:	0e70119e 	jal	69c04678 <printf>
69c00b28:	2406019f 	li	a2,415
69c00b2c:	1000ffd2 	b	69c00a78 <_mount_flash_disk+0x22c>
69c00b30:	02602021 	move	a0,s3

69c00b34 <main>:
69c00b34:	27bdef70 	addiu	sp,sp,-4240
69c00b38:	afb41078 	sw	s4,4216(sp)
69c00b3c:	0080a021 	move	s4,a0
69c00b40:	27a41038 	addiu	a0,sp,4152
69c00b44:	afbf108c 	sw	ra,4236(sp)
69c00b48:	afbe1088 	sw	s8,4232(sp)
69c00b4c:	afb71084 	sw	s7,4228(sp)
69c00b50:	afb61080 	sw	s6,4224(sp)
69c00b54:	afb5107c 	sw	s5,4220(sp)
69c00b58:	afb31074 	sw	s3,4212(sp)
69c00b5c:	afb21070 	sw	s2,4208(sp)
69c00b60:	00a09821 	move	s3,a1
69c00b64:	afb1106c 	sw	s1,4204(sp)
69c00b68:	0e7010ae 	jal	69c042b8 <pthread_self>
69c00b6c:	afb01068 	sw	s0,4200(sp)
69c00b70:	8fa41038 	lw	a0,4152(sp)
69c00b74:	27a51050 	addiu	a1,sp,4176
69c00b78:	0e7010a5 	jal	69c04294 <pthread_getschedparam>
69c00b7c:	27a61054 	addiu	a2,sp,4180
69c00b80:	8fb71054 	lw	s7,4180(sp)
69c00b84:	27a4103c 	addiu	a0,sp,4156
69c00b88:	26f6ffff 	addiu	s6,s7,-1
69c00b8c:	0e7010ae 	jal	69c042b8 <pthread_self>
69c00b90:	afb61054 	sw	s6,4180(sp)
69c00b94:	8fa4103c 	lw	a0,4156(sp)
69c00b98:	8fa51050 	lw	a1,4176(sp)
69c00b9c:	27a61054 	addiu	a2,sp,4180
69c00ba0:	0e7010a8 	jal	69c042a0 <pthread_setschedparam>
69c00ba4:	3c1569c0 	lui	s5,0x69c0
69c00ba8:	3c1269c0 	lui	s2,0x69c0
69c00bac:	26a44c8c 	addiu	a0,s5,19596
69c00bb0:	0e7011c5 	jal	69c04714 <dlopen>
69c00bb4:	24050002 	li	a1,2
69c00bb8:	265151d0 	addiu	s1,s2,20944
69c00bbc:	24060001 	li	a2,1
69c00bc0:	02802021 	move	a0,s4
69c00bc4:	02602821 	move	a1,s3
69c00bc8:	3c1e69c0 	lui	s8,0x69c0
69c00bcc:	0e700653 	jal	69c0194c <applib_init>
69c00bd0:	afc27910 	sw	v0,30992(s8)
69c00bd4:	8e240000 	lw	a0,0(s1)
69c00bd8:	00002821 	move	a1,zero
69c00bdc:	0e7011bf 	jal	69c046fc <insmod>
69c00be0:	3c1069c0 	lui	s0,0x69c0
69c00be4:	3406e900 	li	a2,0xe900
69c00be8:	26044ca4 	addiu	a0,s0,19620
69c00bec:	0e7011a4 	jal	69c04690 <sys_mknod>
69c00bf0:	24052000 	li	a1,8192
69c00bf4:	3c0f69c0 	lui	t7,0x69c0
69c00bf8:	25ee51d4 	addiu	t6,t7,20948
69c00bfc:	8dc40000 	lw	a0,0(t6)
69c00c00:	0e7011bf 	jal	69c046fc <insmod>
69c00c04:	00002821 	move	a1,zero
69c00c08:	3c0d69c0 	lui	t5,0x69c0
69c00c0c:	25a44cbc 	addiu	a0,t5,19644
69c00c10:	24060200 	li	a2,512
69c00c14:	0e7011a4 	jal	69c04690 <sys_mknod>
69c00c18:	24052000 	li	a1,8192
69c00c1c:	3c0c69c0 	lui	t4,0x69c0
69c00c20:	258b51d8 	addiu	t3,t4,20952
69c00c24:	8d640000 	lw	a0,0(t3)
69c00c28:	0e7011bf 	jal	69c046fc <insmod>
69c00c2c:	00002821 	move	a1,zero
69c00c30:	3c0a69c0 	lui	t2,0x69c0
69c00c34:	25574ccc 	addiu	s7,t2,19660
69c00c38:	3406f000 	li	a2,0xf000
69c00c3c:	02e02021 	move	a0,s7
69c00c40:	0e7011a4 	jal	69c04690 <sys_mknod>
69c00c44:	24052000 	li	a1,8192
69c00c48:	3c0969c0 	lui	t1,0x69c0
69c00c4c:	252851dc 	addiu	t0,t1,20956
69c00c50:	8d040000 	lw	a0,0(t0)
69c00c54:	0e7011bf 	jal	69c046fc <insmod>
69c00c58:	00002821 	move	a1,zero
69c00c5c:	3c0769c0 	lui	a3,0x69c0
69c00c60:	24f14ce4 	addiu	s1,a3,19684
69c00c64:	24061d00 	li	a2,7424
69c00c68:	02202021 	move	a0,s1
69c00c6c:	0e7011a4 	jal	69c04690 <sys_mknod>
69c00c70:	24052000 	li	a1,8192
69c00c74:	3c0669c0 	lui	a2,0x69c0
69c00c78:	24c551e0 	addiu	a1,a2,20960
69c00c7c:	8ca40000 	lw	a0,0(a1)
69c00c80:	0e7011bf 	jal	69c046fc <insmod>
69c00c84:	00002821 	move	a1,zero
69c00c88:	3c0269c0 	lui	v0,0x69c0
69c00c8c:	24444cf4 	addiu	a0,v0,19700
69c00c90:	24052000 	li	a1,8192
69c00c94:	0e7011a4 	jal	69c04690 <sys_mknod>
69c00c98:	24061400 	li	a2,5120
69c00c9c:	02202021 	move	a0,s1
69c00ca0:	0e7010d8 	jal	69c04360 <open>
69c00ca4:	24050002 	li	a1,2
69c00ca8:	3c0469c0 	lui	a0,0x69c0
69c00cac:	3c0369c0 	lui	v1,0x69c0
69c00cb0:	afa41060 	sw	a0,4192(sp)
69c00cb4:	ac826014 	sw	v0,24596(a0)
69c00cb8:	044002fa 	bltz	v0,69c018a4 <main+0xd70>
69c00cbc:	247648e4 	addiu	s6,v1,18660
69c00cc0:	3c0269c0 	lui	v0,0x69c0
69c00cc4:	24444760 	addiu	a0,v0,18272
69c00cc8:	0e70063e 	jal	69c018f8 <sys_pm_set_clk_domain>
69c00ccc:	3c1569c0 	lui	s5,0x69c0
69c00cd0:	8ea47904 	lw	a0,30980(s5)
69c00cd4:	1080021d 	beqz	a0,69c0154c <main+0xa18>
69c00cd8:	3c0569c0 	lui	a1,0x69c0
69c00cdc:	3c0b69c0 	lui	t3,0x69c0
69c00ce0:	25644aec 	addiu	a0,t3,19180
69c00ce4:	27a51058 	addiu	a1,sp,4184
69c00ce8:	24060004 	li	a2,4
69c00cec:	0e70118d 	jal	69c04634 <get_config>
69c00cf0:	afa01058 	sw	zero,4184(sp)
69c00cf4:	2407ffff 	li	a3,-1
69c00cf8:	10470005 	beq	v0,a3,69c00d10 <main+0x1dc>
69c00cfc:	3c1269c0 	lui	s2,0x69c0
69c00d00:	8fac1058 	lw	t4,4184(sp)
69c00d04:	24020001 	li	v0,1
69c00d08:	51820001 	beql	t4,v0,69c00d10 <main+0x1dc>
69c00d0c:	ae4278f8 	sw	v0,30968(s2)
69c00d10:	3c0e69c0 	lui	t6,0x69c0
69c00d14:	25c44d0c 	addiu	a0,t6,19724
69c00d18:	27a51058 	addiu	a1,sp,4184
69c00d1c:	0e70118d 	jal	69c04634 <get_config>
69c00d20:	24060004 	li	a2,4
69c00d24:	240dffff 	li	t5,-1
69c00d28:	104d0004 	beq	v0,t5,69c00d3c <main+0x208>
69c00d2c:	8fa31058 	lw	v1,4184(sp)
69c00d30:	240f0001 	li	t7,1
69c00d34:	106f022e 	beq	v1,t7,69c015f0 <main+0xabc>
69c00d38:	3c1369c0 	lui	s3,0x69c0
69c00d3c:	3c1869c0 	lui	t8,0x69c0
69c00d40:	27044d1c 	addiu	a0,t8,19740
69c00d44:	27a51058 	addiu	a1,sp,4184
69c00d48:	0e70118d 	jal	69c04634 <get_config>
69c00d4c:	24060004 	li	a2,4
69c00d50:	2414ffff 	li	s4,-1
69c00d54:	10540005 	beq	v0,s4,69c00d6c <main+0x238>
69c00d58:	3c1069c0 	lui	s0,0x69c0
69c00d5c:	8fa31058 	lw	v1,4184(sp)
69c00d60:	24190001 	li	t9,1
69c00d64:	50790001 	beql	v1,t9,69c00d6c <main+0x238>
69c00d68:	ae037900 	sw	v1,30976(s0)
69c00d6c:	3c0369c0 	lui	v1,0x69c0
69c00d70:	24644d2c 	addiu	a0,v1,19756
69c00d74:	27a51058 	addiu	a1,sp,4184
69c00d78:	0e70118d 	jal	69c04634 <get_config>
69c00d7c:	24060004 	li	a2,4
69c00d80:	241fffff 	li	ra,-1
69c00d84:	105f0004 	beq	v0,ra,69c00d98 <main+0x264>
69c00d88:	8fa31058 	lw	v1,4184(sp)
69c00d8c:	24040001 	li	a0,1
69c00d90:	10640215 	beq	v1,a0,69c015e8 <main+0xab4>
69c00d94:	3c0269c0 	lui	v0,0x69c0
69c00d98:	3c0869c0 	lui	t0,0x69c0
69c00d9c:	27a51058 	addiu	a1,sp,4184
69c00da0:	25044d3c 	addiu	a0,t0,19772
69c00da4:	0e70118d 	jal	69c04634 <get_config>
69c00da8:	24060004 	li	a2,4
69c00dac:	2405ffff 	li	a1,-1
69c00db0:	10450004 	beq	v0,a1,69c00dc4 <main+0x290>
69c00db4:	8faa1058 	lw	t2,4184(sp)
69c00db8:	24090001 	li	t1,1
69c00dbc:	114902a0 	beq	t2,t1,69c01840 <main+0xd0c>
69c00dc0:	00000000 	nop
69c00dc4:	3c0769c0 	lui	a3,0x69c0
69c00dc8:	3c0669c0 	lui	a2,0x69c0
69c00dcc:	24e44d4c 	addiu	a0,a3,19788
69c00dd0:	24c54d54 	addiu	a1,a2,19796
69c00dd4:	0e701189 	jal	69c04624 <set_config>
69c00dd8:	24060003 	li	a2,3
69c00ddc:	0e700647 	jal	69c0191c <sys_set_main_disk>
69c00de0:	00002021 	move	a0,zero
69c00de4:	8e117900 	lw	s1,30976(s0)
69c00de8:	24060001 	li	a2,1
69c00dec:	122601ed 	beq	s1,a2,69c015a4 <main+0xa70>
69c00df0:	3c0f69c0 	lui	t7,0x69c0
69c00df4:	3c1469c0 	lui	s4,0x69c0
69c00df8:	2693491c 	addiu	s3,s4,18716
69c00dfc:	27b4042c 	addiu	s4,sp,1068
69c00e00:	02802021 	move	a0,s4
69c00e04:	02602821 	move	a1,s3
69c00e08:	240e07dc 	li	t6,2012
69c00e0c:	ade678fc 	sw	a2,30972(t7)
69c00e10:	0e701169 	jal	69c045a4 <strcpy>
69c00e14:	afae0428 	sw	t6,1064(sp)
69c00e18:	02602021 	move	a0,s3
69c00e1c:	0e700662 	jal	69c01988 <send_async_msg>
69c00e20:	27a50428 	addiu	a1,sp,1064
69c00e24:	3c0569c0 	lui	a1,0x69c0
69c00e28:	24a251e4 	addiu	v0,a1,20964
69c00e2c:	8c440000 	lw	a0,0(v0)
69c00e30:	0e7011bf 	jal	69c046fc <insmod>
69c00e34:	00002821 	move	a1,zero
69c00e38:	3c0469c0 	lui	a0,0x69c0
69c00e3c:	248351e8 	addiu	v1,a0,20968
69c00e40:	8c640000 	lw	a0,0(v1)
69c00e44:	3406e800 	li	a2,0xe800
69c00e48:	0e7011a4 	jal	69c04690 <sys_mknod>
69c00e4c:	24052000 	li	a1,8192
69c00e50:	3c1f69c0 	lui	ra,0x69c0
69c00e54:	27f951ec 	addiu	t9,ra,20972
69c00e58:	8f240000 	lw	a0,0(t9)
69c00e5c:	0e7011bf 	jal	69c046fc <insmod>
69c00e60:	00002821 	move	a1,zero
69c00e64:	3c1869c0 	lui	t8,0x69c0
69c00e68:	27044d78 	addiu	a0,t8,19832
69c00e6c:	3406ec00 	li	a2,0xec00
69c00e70:	24052000 	li	a1,8192
69c00e74:	0e7011a4 	jal	69c04690 <sys_mknod>
69c00e78:	3c1169c0 	lui	s1,0x69c0
69c00e7c:	262f51f0 	addiu	t7,s1,20976
69c00e80:	8de40000 	lw	a0,0(t7)
69c00e84:	0e7011bf 	jal	69c046fc <insmod>
69c00e88:	00002821 	move	a1,zero
69c00e8c:	3c0e69c0 	lui	t6,0x69c0
69c00e90:	25c44d90 	addiu	a0,t6,19856
69c00e94:	3406ef00 	li	a2,0xef00
69c00e98:	24052000 	li	a1,8192
69c00e9c:	0e7011a4 	jal	69c04690 <sys_mknod>
69c00ea0:	3c1369c0 	lui	s3,0x69c0
69c00ea4:	266d51f4 	addiu	t5,s3,20980
69c00ea8:	8da40000 	lw	a0,0(t5)
69c00eac:	0e7011bf 	jal	69c046fc <insmod>
69c00eb0:	00002821 	move	a1,zero
69c00eb4:	3c0c69c0 	lui	t4,0x69c0
69c00eb8:	25844da0 	addiu	a0,t4,19872
69c00ebc:	3406e600 	li	a2,0xe600
69c00ec0:	0e7011a4 	jal	69c04690 <sys_mknod>
69c00ec4:	24052000 	li	a1,8192
69c00ec8:	3c0b69c0 	lui	t3,0x69c0
69c00ecc:	257051f8 	addiu	s0,t3,20984
69c00ed0:	8e040000 	lw	a0,0(s0)
69c00ed4:	0e7011bf 	jal	69c046fc <insmod>
69c00ed8:	00002821 	move	a1,zero
69c00edc:	3c0769c0 	lui	a3,0x69c0
69c00ee0:	24e44db8 	addiu	a0,a3,19896
69c00ee4:	3406e500 	li	a2,0xe500
69c00ee8:	0e7011a4 	jal	69c04690 <sys_mknod>
69c00eec:	24052000 	li	a1,8192
69c00ef0:	3c0669c0 	lui	a2,0x69c0
69c00ef4:	24ca51fc 	addiu	t2,a2,20988
69c00ef8:	8d440000 	lw	a0,0(t2)
69c00efc:	0e7011bf 	jal	69c046fc <insmod>
69c00f00:	00002821 	move	a1,zero
69c00f04:	3c0969c0 	lui	t1,0x69c0
69c00f08:	25244dd4 	addiu	a0,t1,19924
69c00f0c:	3406ed00 	li	a2,0xed00
69c00f10:	0e7011a4 	jal	69c04690 <sys_mknod>
69c00f14:	24052000 	li	a1,8192
69c00f18:	3c0869c0 	lui	t0,0x69c0
69c00f1c:	25055200 	addiu	a1,t0,20992
69c00f20:	8ca40000 	lw	a0,0(a1)
69c00f24:	0e7011bf 	jal	69c046fc <insmod>
69c00f28:	00002821 	move	a1,zero
69c00f2c:	3c0269c0 	lui	v0,0x69c0
69c00f30:	3406fe00 	li	a2,0xfe00
69c00f34:	24444dec 	addiu	a0,v0,19948
69c00f38:	0e7011a4 	jal	69c04690 <sys_mknod>
69c00f3c:	24052000 	li	a1,8192
69c00f40:	3c0469c0 	lui	a0,0x69c0
69c00f44:	24844a28 	addiu	a0,a0,18984
69c00f48:	0e7011bf 	jal	69c046fc <insmod>
69c00f4c:	00002821 	move	a1,zero
69c00f50:	3c0369c0 	lui	v1,0x69c0
69c00f54:	24644954 	addiu	a0,v1,18772
69c00f58:	3406f900 	li	a2,0xf900
69c00f5c:	0e7011a4 	jal	69c04690 <sys_mknod>
69c00f60:	24052000 	li	a1,8192
69c00f64:	3c1f69c0 	lui	ra,0x69c0
69c00f68:	27f95204 	addiu	t9,ra,20996
69c00f6c:	8f240000 	lw	a0,0(t9)
69c00f70:	0e7011bf 	jal	69c046fc <insmod>
69c00f74:	00002821 	move	a1,zero
69c00f78:	3c1869c0 	lui	t8,0x69c0
69c00f7c:	27044e04 	addiu	a0,t8,19972
69c00f80:	3406fa00 	li	a2,0xfa00
69c00f84:	0e7011a4 	jal	69c04690 <sys_mknod>
69c00f88:	24052000 	li	a1,8192
69c00f8c:	3c1369c0 	lui	s3,0x69c0
69c00f90:	8fb11048 	lw	s1,4168(sp)
69c00f94:	266d5208 	addiu	t5,s3,21000
69c00f98:	362e0007 	ori	t6,s1,0x7
69c00f9c:	240ffff7 	li	t7,-9
69c00fa0:	8da40000 	lw	a0,0(t5)
69c00fa4:	01cf8024 	and	s0,t6,t7
69c00fa8:	240c01f4 	li	t4,500
69c00fac:	240b0064 	li	t3,100
69c00fb0:	27a51040 	addiu	a1,sp,4160
69c00fb4:	24110001 	li	s1,1
69c00fb8:	a7ac1044 	sh	t4,4164(sp)
69c00fbc:	a7ab1046 	sh	t3,4166(sp)
69c00fc0:	afb01048 	sw	s0,4168(sp)
69c00fc4:	0e7011bf 	jal	69c046fc <insmod>
69c00fc8:	afb11040 	sw	s1,4160(sp)
69c00fcc:	3c0769c0 	lui	a3,0x69c0
69c00fd0:	24e44e18 	addiu	a0,a3,19992
69c00fd4:	24052000 	li	a1,8192
69c00fd8:	0e7011a4 	jal	69c04690 <sys_mknod>
69c00fdc:	24060a00 	li	a2,2560
69c00fe0:	3c0669c0 	lui	a2,0x69c0
69c00fe4:	24c44e28 	addiu	a0,a2,20008
69c00fe8:	24052000 	li	a1,8192
69c00fec:	0e7011a4 	jal	69c04690 <sys_mknod>
69c00ff0:	24060d00 	li	a2,3328
69c00ff4:	3c0a69c0 	lui	t2,0x69c0
69c00ff8:	25444e38 	addiu	a0,t2,20024
69c00ffc:	24052000 	li	a1,8192
69c01000:	0e7011a4 	jal	69c04690 <sys_mknod>
69c01004:	24060d00 	li	a2,3328
69c01008:	3c0969c0 	lui	t1,0x69c0
69c0100c:	25244e44 	addiu	a0,t1,20036
69c01010:	24052000 	li	a1,8192
69c01014:	0e7011a4 	jal	69c04690 <sys_mknod>
69c01018:	24064900 	li	a2,18688
69c0101c:	3c0869c0 	lui	t0,0x69c0
69c01020:	25044e54 	addiu	a0,t0,20052
69c01024:	24052000 	li	a1,8192
69c01028:	0e7011a4 	jal	69c04690 <sys_mknod>
69c0102c:	24063d00 	li	a2,15616
69c01030:	3c0569c0 	lui	a1,0x69c0
69c01034:	24a44e60 	addiu	a0,a1,20064
69c01038:	24063c00 	li	a2,15360
69c0103c:	0e7011a4 	jal	69c04690 <sys_mknod>
69c01040:	24052000 	li	a1,8192
69c01044:	3c0269c0 	lui	v0,0x69c0
69c01048:	24444e6c 	addiu	a0,v0,20076
69c0104c:	24052000 	li	a1,8192
69c01050:	0e7011a4 	jal	69c04690 <sys_mknod>
69c01054:	3406f800 	li	a2,0xf800
69c01058:	3c0469c0 	lui	a0,0x69c0
69c0105c:	24844e7c 	addiu	a0,a0,20092
69c01060:	24052000 	li	a1,8192
69c01064:	0e7011a4 	jal	69c04690 <sys_mknod>
69c01068:	3406fc00 	li	a2,0xfc00
69c0106c:	3c0369c0 	lui	v1,0x69c0
69c01070:	24644e88 	addiu	a0,v1,20104
69c01074:	24052000 	li	a1,8192
69c01078:	0e7011a4 	jal	69c04690 <sys_mknod>
69c0107c:	24060c00 	li	a2,3072
69c01080:	3c1f69c0 	lui	ra,0x69c0
69c01084:	27e44e94 	addiu	a0,ra,20116
69c01088:	24052000 	li	a1,8192
69c0108c:	0e7011a4 	jal	69c04690 <sys_mknod>
69c01090:	24060d00 	li	a2,3328
69c01094:	3c1969c0 	lui	t9,0x69c0
69c01098:	27244ea0 	addiu	a0,t9,20128
69c0109c:	24052000 	li	a1,8192
69c010a0:	0e7011a4 	jal	69c04690 <sys_mknod>
69c010a4:	3406fb00 	li	a2,0xfb00
69c010a8:	3c1869c0 	lui	t8,0x69c0
69c010ac:	27044eac 	addiu	a0,t8,20140
69c010b0:	24052000 	li	a1,8192
69c010b4:	0e7011a4 	jal	69c04690 <sys_mknod>
69c010b8:	3406fd00 	li	a2,0xfd00
69c010bc:	0e700213 	jal	69c0084c <_mount_flash_disk>
69c010c0:	00000000 	nop
69c010c4:	8e4278f8 	lw	v0,30968(s2)
69c010c8:	105101c7 	beq	v0,s1,69c017e8 <main+0xcb4>
69c010cc:	27b10c38 	addiu	s1,sp,3128
69c010d0:	54400006 	bnezl	v0,69c010ec <main+0x5b8>
69c010d4:	3c1469c0 	lui	s4,0x69c0
69c010d8:	3c0669c0 	lui	a2,0x69c0
69c010dc:	8cd278f4 	lw	s2,30964(a2)
69c010e0:	12400164 	beqz	s2,69c01674 <main+0xb40>
69c010e4:	3c0d69c0 	lui	t5,0x69c0
69c010e8:	3c1469c0 	lui	s4,0x69c0
69c010ec:	0e700668 	jal	69c019a0 <register_sys_dispatcher>
69c010f0:	26840030 	addiu	a0,s4,48
69c010f4:	10000003 	b	69c01104 <main+0x5d0>
69c010f8:	24100001 	li	s0,1
69c010fc:	0e700665 	jal	69c01994 <dispatch_msg>
69c01100:	00000000 	nop
69c01104:	0e700659 	jal	69c01964 <get_msg>
69c01108:	27a40020 	addiu	a0,sp,32
69c0110c:	1050fffb 	beq	v0,s0,69c010fc <main+0x5c8>
69c01110:	27a40020 	addiu	a0,sp,32
69c01114:	02e02021 	move	a0,s7
69c01118:	0e7010d8 	jal	69c04360 <open>
69c0111c:	24050002 	li	a1,2
69c01120:	3c1169c0 	lui	s1,0x69c0
69c01124:	00402021 	move	a0,v0
69c01128:	ae22601c 	sw	v0,24604(s1)
69c0112c:	044001c8 	bltz	v0,69c01850 <main+0xd1c>
69c01130:	00401821 	move	v1,v0
69c01134:	2417ffff 	li	s7,-1
69c01138:	10770015 	beq	v1,s7,69c01190 <main+0x65c>
69c0113c:	2405ffff 	li	a1,-1
69c01140:	0e701090 	jal	69c04240 <getpid>
69c01144:	00000000 	nop
69c01148:	3c0469c0 	lui	a0,0x69c0
69c0114c:	3c0369c0 	lui	v1,0x69c0
69c01150:	24924804 	addiu	s2,a0,18436
69c01154:	00402821 	move	a1,v0
69c01158:	24644eb8 	addiu	a0,v1,20152
69c0115c:	02c03021 	move	a2,s6
69c01160:	24070305 	li	a3,773
69c01164:	afb20010 	sw	s2,16(sp)
69c01168:	0e70119e 	jal	69c04678 <printf>
69c0116c:	afa00014 	sw	zero,20(sp)
69c01170:	8e24601c 	lw	a0,24604(s1)
69c01174:	24054711 	li	a1,18193
69c01178:	0e7010d5 	jal	69c04354 <ioctl>
69c0117c:	00003021 	move	a2,zero
69c01180:	1440012d 	bnez	v0,69c01638 <main+0xb04>
69c01184:	00000000 	nop
69c01188:	8e24601c 	lw	a0,24604(s1)
69c0118c:	2405ffff 	li	a1,-1
69c01190:	10850006 	beq	a0,a1,69c011ac <main+0x678>
69c01194:	24054713 	li	a1,18195
69c01198:	0e7010d5 	jal	69c04354 <ioctl>
69c0119c:	24060001 	li	a2,1
69c011a0:	14400115 	bnez	v0,69c015f8 <main+0xac4>
69c011a4:	00000000 	nop
69c011a8:	8e24601c 	lw	a0,24604(s1)
69c011ac:	2411ffff 	li	s1,-1
69c011b0:	10910005 	beq	a0,s1,69c011c8 <main+0x694>
69c011b4:	00000000 	nop
69c011b8:	0e7010cc 	jal	69c04330 <close>
69c011bc:	00000000 	nop
69c011c0:	14400152 	bnez	v0,69c0170c <main+0xbd8>
69c011c4:	00000000 	nop
69c011c8:	0e701190 	jal	69c04640 <sync_config>
69c011cc:	00000000 	nop
69c011d0:	04400161 	bltz	v0,69c01758 <main+0xc24>
69c011d4:	00000000 	nop
69c011d8:	0e701194 	jal	69c04650 <nandflash_update>
69c011dc:	00000000 	nop
69c011e0:	04400170 	bltz	v0,69c017a4 <main+0xc70>
69c011e4:	00000000 	nop
69c011e8:	8ea47904 	lw	a0,30980(s5)
69c011ec:	148000b8 	bnez	a0,69c014d0 <main+0x99c>
69c011f0:	00000000 	nop
69c011f4:	3c0569c0 	lui	a1,0x69c0
69c011f8:	24a44b80 	addiu	a0,a1,19328
69c011fc:	0e7011c2 	jal	69c04708 <rmmod>
69c01200:	00002821 	move	a1,zero
69c01204:	3c0869c0 	lui	t0,0x69c0
69c01208:	251551e8 	addiu	s5,t0,20968
69c0120c:	8ea40000 	lw	a0,0(s5)
69c01210:	24050002 	li	a1,2
69c01214:	0e7010d8 	jal	69c04360 <open>
69c01218:	00003021 	move	a2,zero
69c0121c:	00409021 	move	s2,v0
69c01220:	044000ba 	bltz	v0,69c0150c <main+0x9d8>
69c01224:	24150004 	li	s5,4
69c01228:	3c1169c0 	lui	s1,0x69c0
69c0122c:	3c0669c0 	lui	a2,0x69c0
69c01230:	26344ee8 	addiu	s4,s1,20200
69c01234:	24d34854 	addiu	s3,a2,18516
69c01238:	2411000a 	li	s1,10
69c0123c:	0e7010c9 	jal	69c04324 <usleep>
69c01240:	3404c350 	li	a0,0xc350
69c01244:	02402021 	move	a0,s2
69c01248:	27a5105c 	addiu	a1,sp,4188
69c0124c:	0e7010cf 	jal	69c0433c <read>
69c01250:	24060004 	li	a2,4
69c01254:	0e701090 	jal	69c04240 <getpid>
69c01258:	0040b821 	move	s7,v0
69c0125c:	8fab105c 	lw	t3,4188(sp)
69c01260:	00402821 	move	a1,v0
69c01264:	02802021 	move	a0,s4
69c01268:	02c03021 	move	a2,s6
69c0126c:	240703a0 	li	a3,928
69c01270:	2631ffff 	addiu	s1,s1,-1
69c01274:	afab0018 	sw	t3,24(sp)
69c01278:	afb30010 	sw	s3,16(sp)
69c0127c:	0e70119e 	jal	69c04678 <printf>
69c01280:	afb70014 	sw	s7,20(sp)
69c01284:	12b7008e 	beq	s5,s7,69c014c0 <main+0x98c>
69c01288:	8fac105c 	lw	t4,4188(sp)
69c0128c:	1e20ffeb 	bgtz	s1,69c0123c <main+0x708>
69c01290:	00000000 	nop
69c01294:	0e7010cc 	jal	69c04330 <close>
69c01298:	02402021 	move	a0,s2
69c0129c:	3c0769c0 	lui	a3,0x69c0
69c012a0:	0e700641 	jal	69c01904 <sys_pm_clear_clk_domain>
69c012a4:	24e44758 	addiu	a0,a3,18264
69c012a8:	8fad1060 	lw	t5,4192(sp)
69c012ac:	8da46014 	lw	a0,24596(t5)
69c012b0:	18800004 	blez	a0,69c012c4 <main+0x790>
69c012b4:	3c0e69c0 	lui	t6,0x69c0
69c012b8:	0e7010cc 	jal	69c04330 <close>
69c012bc:	00000000 	nop
69c012c0:	3c0e69c0 	lui	t6,0x69c0
69c012c4:	25d25208 	addiu	s2,t6,21000
69c012c8:	8e440000 	lw	a0,0(s2)
69c012cc:	0e7011c2 	jal	69c04708 <rmmod>
69c012d0:	00002821 	move	a1,zero
69c012d4:	3c0769c0 	lui	a3,0x69c0
69c012d8:	24ed5200 	addiu	t5,a3,20992
69c012dc:	8da40000 	lw	a0,0(t5)
69c012e0:	0e7011c2 	jal	69c04708 <rmmod>
69c012e4:	00002821 	move	a1,zero
69c012e8:	3c0c69c0 	lui	t4,0x69c0
69c012ec:	258b51fc 	addiu	t3,t4,20988
69c012f0:	8d640000 	lw	a0,0(t3)
69c012f4:	3c1769c0 	lui	s7,0x69c0
69c012f8:	00002821 	move	a1,zero
69c012fc:	0e7011c2 	jal	69c04708 <rmmod>
69c01300:	26f151f8 	addiu	s1,s7,20984
69c01304:	8e240000 	lw	a0,0(s1)
69c01308:	0e7011c2 	jal	69c04708 <rmmod>
69c0130c:	00002821 	move	a1,zero
69c01310:	3c0669c0 	lui	a2,0x69c0
69c01314:	24d451d0 	addiu	s4,a2,20944
69c01318:	8e840000 	lw	a0,0(s4)
69c0131c:	00002821 	move	a1,zero
69c01320:	0e7011c2 	jal	69c04708 <rmmod>
69c01324:	3c1369c0 	lui	s3,0x69c0
69c01328:	266a51f4 	addiu	t2,s3,20980
69c0132c:	8d440000 	lw	a0,0(t2)
69c01330:	0e7011c2 	jal	69c04708 <rmmod>
69c01334:	00002821 	move	a1,zero
69c01338:	3c0969c0 	lui	t1,0x69c0
69c0133c:	253651f0 	addiu	s6,t1,20976
69c01340:	8ec40000 	lw	a0,0(s6)
69c01344:	0e7011c2 	jal	69c04708 <rmmod>
69c01348:	00002821 	move	a1,zero
69c0134c:	3c0569c0 	lui	a1,0x69c0
69c01350:	24a851ec 	addiu	t0,a1,20972
69c01354:	8d040000 	lw	a0,0(t0)
69c01358:	3c1569c0 	lui	s5,0x69c0
69c0135c:	00002821 	move	a1,zero
69c01360:	0e7011c2 	jal	69c04708 <rmmod>
69c01364:	26b051e4 	addiu	s0,s5,20964
69c01368:	8e040000 	lw	a0,0(s0)
69c0136c:	0e7011c2 	jal	69c04708 <rmmod>
69c01370:	00002821 	move	a1,zero
69c01374:	3c0469c0 	lui	a0,0x69c0
69c01378:	248251dc 	addiu	v0,a0,20956
69c0137c:	8c440000 	lw	a0,0(v0)
69c01380:	0e7011c2 	jal	69c04708 <rmmod>
69c01384:	00002821 	move	a1,zero
69c01388:	3c0369c0 	lui	v1,0x69c0
69c0138c:	247f51d8 	addiu	ra,v1,20952
69c01390:	8fe40000 	lw	a0,0(ra)
69c01394:	0e7011c2 	jal	69c04708 <rmmod>
69c01398:	00002821 	move	a1,zero
69c0139c:	3c1969c0 	lui	t9,0x69c0
69c013a0:	273851e0 	addiu	t8,t9,20960
69c013a4:	8f040000 	lw	a0,0(t8)
69c013a8:	0e7011c2 	jal	69c04708 <rmmod>
69c013ac:	00002821 	move	a1,zero
69c013b0:	3c0f69c0 	lui	t7,0x69c0
69c013b4:	25ee5204 	addiu	t6,t7,20996
69c013b8:	8dc40000 	lw	a0,0(t6)
69c013bc:	00002821 	move	a1,zero
69c013c0:	0e7011c2 	jal	69c04708 <rmmod>
69c013c4:	3c1269c0 	lui	s2,0x69c0
69c013c8:	8e446020 	lw	a0,24608(s2)
69c013cc:	18800004 	blez	a0,69c013e0 <main+0x8ac>
69c013d0:	3c1869c0 	lui	t8,0x69c0
69c013d4:	0e7010c6 	jal	69c04318 <sleep>
69c013d8:	00000000 	nop
69c013dc:	3c1869c0 	lui	t8,0x69c0
69c013e0:	270f51d4 	addiu	t7,t8,20948
69c013e4:	8de40000 	lw	a0,0(t7)
69c013e8:	0e7011c2 	jal	69c04708 <rmmod>
69c013ec:	00002821 	move	a1,zero
69c013f0:	0e70066b 	jal	69c019ac <unregister_sys_dispatcher>
69c013f4:	00000000 	nop
69c013f8:	0e700656 	jal	69c01958 <applib_quit>
69c013fc:	00000000 	nop
69c01400:	8fc47910 	lw	a0,30992(s8)
69c01404:	148000bd 	bnez	a0,69c016fc <main+0xbc8>
69c01408:	00000000 	nop
69c0140c:	0e7011d4 	jal	69c04750 <os_cpu_save_sr>
69c01410:	00000000 	nop
69c01414:	3c06b001 	lui	a2,0xb001
69c01418:	34c40080 	ori	a0,a2,0x80
69c0141c:	8c8a0000 	lw	t2,0(a0)
69c01420:	3c140001 	lui	s4,0x1
69c01424:	36930014 	ori	s3,s4,0x14
69c01428:	01534825 	or	t1,t2,s3
69c0142c:	ac890000 	sw	t1,0(a0)
69c01430:	3c10b003 	lui	s0,0xb003
69c01434:	8e080000 	lw	t0,0(s0)
69c01438:	3c16fff7 	lui	s6,0xfff7
69c0143c:	36c5ffff 	ori	a1,s6,0xffff
69c01440:	0105a824 	and	s5,t0,a1
69c01444:	36a300f4 	ori	v1,s5,0xf4
69c01448:	8c850000 	lw	a1,0(a0)
69c0144c:	3c0269c0 	lui	v0,0x69c0
69c01450:	ae030000 	sw	v1,0(s0)
69c01454:	0e70119e 	jal	69c04678 <printf>
69c01458:	24444f18 	addiu	a0,v0,20248
69c0145c:	3c1f69c0 	lui	ra,0x69c0
69c01460:	27e44f34 	addiu	a0,ra,20276
69c01464:	0e70119e 	jal	69c04678 <printf>
69c01468:	8e050000 	lw	a1,0(s0)
69c0146c:	3c1969c0 	lui	t9,0x69c0
69c01470:	27244f48 	addiu	a0,t9,20296
69c01474:	0e7011bf 	jal	69c046fc <insmod>
69c01478:	00002821 	move	a1,zero
69c0147c:	3c1e69c0 	lui	s8,0x69c0
69c01480:	27c44f54 	addiu	a0,s8,20308
69c01484:	0e70119e 	jal	69c04678 <printf>
69c01488:	00402821 	move	a1,v0
69c0148c:	8fbf108c 	lw	ra,4236(sp)
69c01490:	8fbe1088 	lw	s8,4232(sp)
69c01494:	8fb71084 	lw	s7,4228(sp)
69c01498:	8fb61080 	lw	s6,4224(sp)
69c0149c:	8fb5107c 	lw	s5,4220(sp)
69c014a0:	8fb41078 	lw	s4,4216(sp)
69c014a4:	8fb31074 	lw	s3,4212(sp)
69c014a8:	8fb21070 	lw	s2,4208(sp)
69c014ac:	8fb1106c 	lw	s1,4204(sp)
69c014b0:	8fb01068 	lw	s0,4200(sp)
69c014b4:	00001021 	move	v0,zero
69c014b8:	03e00008 	jr	ra
69c014bc:	27bd1090 	addiu	sp,sp,4240
69c014c0:	1580ff5e 	bnez	t4,69c0123c <main+0x708>
69c014c4:	2411000a 	li	s1,10
69c014c8:	1000ff72 	b	69c01294 <main+0x760>
69c014cc:	00000000 	nop
69c014d0:	0e7011c8 	jal	69c04720 <dlclose>
69c014d4:	00000000 	nop
69c014d8:	3c0569c0 	lui	a1,0x69c0
69c014dc:	24a44b80 	addiu	a0,a1,19328
69c014e0:	0e7011c2 	jal	69c04708 <rmmod>
69c014e4:	00002821 	move	a1,zero
69c014e8:	3c0869c0 	lui	t0,0x69c0
69c014ec:	251551e8 	addiu	s5,t0,20968
69c014f0:	8ea40000 	lw	a0,0(s5)
69c014f4:	24050002 	li	a1,2
69c014f8:	0e7010d8 	jal	69c04360 <open>
69c014fc:	00003021 	move	a2,zero
69c01500:	00409021 	move	s2,v0
69c01504:	0441ff48 	bgez	v0,69c01228 <main+0x6f4>
69c01508:	24150004 	li	s5,4
69c0150c:	0e701099 	jal	69c04264 <__errno>
69c01510:	3c1369c0 	lui	s3,0x69c0
69c01514:	0e701090 	jal	69c04240 <getpid>
69c01518:	0040a021 	move	s4,v0
69c0151c:	8e850000 	lw	a1,0(s4)
69c01520:	3c0969c0 	lui	t1,0x69c0
69c01524:	02c03821 	move	a3,s6
69c01528:	240a0395 	li	t2,917
69c0152c:	25364854 	addiu	s6,t1,18516
69c01530:	26644f9c 	addiu	a0,s3,20380
69c01534:	00403021 	move	a2,v0
69c01538:	afaa0010 	sw	t2,16(sp)
69c0153c:	0e70119e 	jal	69c04678 <printf>
69c01540:	afb60014 	sw	s6,20(sp)
69c01544:	1000ff56 	b	69c012a0 <main+0x76c>
69c01548:	3c0769c0 	lui	a3,0x69c0
69c0154c:	24a44d00 	addiu	a0,a1,19712
69c01550:	0e7011c5 	jal	69c04714 <dlopen>
69c01554:	24050002 	li	a1,2
69c01558:	1440fde0 	bnez	v0,69c00cdc <main+0x1a8>
69c0155c:	aea27904 	sw	v0,30980(s5)
69c01560:	0e701099 	jal	69c04264 <__errno>
69c01564:	00000000 	nop
69c01568:	0e701090 	jal	69c04240 <getpid>
69c0156c:	00408821 	move	s1,v0
69c01570:	8e250000 	lw	a1,0(s1)
69c01574:	3c0669c0 	lui	a2,0x69c0
69c01578:	3c0969c0 	lui	t1,0x69c0
69c0157c:	24c44fd8 	addiu	a0,a2,20440
69c01580:	240a03dc 	li	t2,988
69c01584:	252847c0 	addiu	t0,t1,18368
69c01588:	00403021 	move	a2,v0
69c0158c:	02c03821 	move	a3,s6
69c01590:	afaa0010 	sw	t2,16(sp)
69c01594:	0e70119e 	jal	69c04678 <printf>
69c01598:	afa80014 	sw	t0,20(sp)
69c0159c:	1000fdd0 	b	69c00ce0 <main+0x1ac>
69c015a0:	3c0b69c0 	lui	t3,0x69c0
69c015a4:	3c0d69c0 	lui	t5,0x69c0
69c015a8:	27b4042c 	addiu	s4,sp,1068
69c015ac:	25a55014 	addiu	a1,t5,20500
69c015b0:	02802021 	move	a0,s4
69c015b4:	3c0c69c0 	lui	t4,0x69c0
69c015b8:	240b07d2 	li	t3,2002
69c015bc:	3c1069c0 	lui	s0,0x69c0
69c015c0:	ad8678fc 	sw	a2,30972(t4)
69c015c4:	0e701169 	jal	69c045a4 <strcpy>
69c015c8:	afab0428 	sw	t3,1064(sp)
69c015cc:	26044938 	addiu	a0,s0,18744
69c015d0:	27a50428 	addiu	a1,sp,1064
69c015d4:	27a60830 	addiu	a2,sp,2096
69c015d8:	0e70065c 	jal	69c01970 <send_sync_msg>
69c015dc:	00003821 	move	a3,zero
69c015e0:	1000fe11 	b	69c00e28 <main+0x2f4>
69c015e4:	3c0569c0 	lui	a1,0x69c0
69c015e8:	1000fdeb 	b	69c00d98 <main+0x264>
69c015ec:	ac437908 	sw	v1,30984(v0)
69c015f0:	1000fdd2 	b	69c00d3c <main+0x208>
69c015f4:	ae6378f4 	sw	v1,30964(s3)
69c015f8:	0e701099 	jal	69c04264 <__errno>
69c015fc:	2413033a 	li	s3,826
69c01600:	0e701090 	jal	69c04240 <getpid>
69c01604:	0040a021 	move	s4,v0
69c01608:	8e850000 	lw	a1,0(s4)
69c0160c:	3c0669c0 	lui	a2,0x69c0
69c01610:	3c0a69c0 	lui	t2,0x69c0
69c01614:	24c45038 	addiu	a0,a2,20536
69c01618:	25494820 	addiu	t1,t2,18464
69c0161c:	00403021 	move	a2,v0
69c01620:	02c03821 	move	a3,s6
69c01624:	afb30010 	sw	s3,16(sp)
69c01628:	0e70119e 	jal	69c04678 <printf>
69c0162c:	afa90014 	sw	t1,20(sp)
69c01630:	1000fede 	b	69c011ac <main+0x678>
69c01634:	8e24601c 	lw	a0,24604(s1)
69c01638:	0e701099 	jal	69c04264 <__errno>
69c0163c:	00000000 	nop
69c01640:	0e701090 	jal	69c04240 <getpid>
69c01644:	00408021 	move	s0,v0
69c01648:	8e050000 	lw	a1,0(s0)
69c0164c:	3c0869c0 	lui	t0,0x69c0
69c01650:	00403021 	move	a2,v0
69c01654:	25045078 	addiu	a0,t0,20600
69c01658:	02c03821 	move	a3,s6
69c0165c:	24020309 	li	v0,777
69c01660:	afa20010 	sw	v0,16(sp)
69c01664:	0e70119e 	jal	69c04678 <printf>
69c01668:	afb20014 	sw	s2,20(sp)
69c0166c:	1000fec7 	b	69c0118c <main+0x658>
69c01670:	8e24601c 	lw	a0,24604(s1)
69c01674:	25a54a64 	addiu	a1,t5,19044
69c01678:	24060400 	li	a2,1024
69c0167c:	241307d2 	li	s3,2002
69c01680:	02802021 	move	a0,s4
69c01684:	0e701174 	jal	69c045d0 <strncpy>
69c01688:	afb30428 	sw	s3,1064(sp)
69c0168c:	3c0c69c0 	lui	t4,0x69c0
69c01690:	259150b8 	addiu	s1,t4,20664
69c01694:	02802021 	move	a0,s4
69c01698:	0e70113e 	jal	69c044f8 <strcat>
69c0169c:	02202821 	move	a1,s1
69c016a0:	3c0b69c0 	lui	t3,0x69c0
69c016a4:	25704938 	addiu	s0,t3,18744
69c016a8:	27b20830 	addiu	s2,sp,2096
69c016ac:	02403021 	move	a2,s2
69c016b0:	02002021 	move	a0,s0
69c016b4:	27a50428 	addiu	a1,sp,1064
69c016b8:	0e70065c 	jal	69c01970 <send_sync_msg>
69c016bc:	00003821 	move	a3,zero
69c016c0:	3c0769c0 	lui	a3,0x69c0
69c016c4:	24e5496c 	addiu	a1,a3,18796
69c016c8:	02802021 	move	a0,s4
69c016cc:	0e701169 	jal	69c045a4 <strcpy>
69c016d0:	afb30428 	sw	s3,1064(sp)
69c016d4:	02802021 	move	a0,s4
69c016d8:	0e70113e 	jal	69c044f8 <strcat>
69c016dc:	02202821 	move	a1,s1
69c016e0:	02002021 	move	a0,s0
69c016e4:	27a50428 	addiu	a1,sp,1064
69c016e8:	02403021 	move	a2,s2
69c016ec:	0e70065c 	jal	69c01970 <send_sync_msg>
69c016f0:	00003821 	move	a3,zero
69c016f4:	1000fe7d 	b	69c010ec <main+0x5b8>
69c016f8:	3c1469c0 	lui	s4,0x69c0
69c016fc:	0e7011c8 	jal	69c04720 <dlclose>
69c01700:	00000000 	nop
69c01704:	1000ff41 	b	69c0140c <main+0x8d8>
69c01708:	afc07910 	sw	zero,30992(s8)
69c0170c:	0e701099 	jal	69c04264 <__errno>
69c01710:	00000000 	nop
69c01714:	0e701090 	jal	69c04240 <getpid>
69c01718:	00409021 	move	s2,v0
69c0171c:	8e450000 	lw	a1,0(s2)
69c01720:	3c0769c0 	lui	a3,0x69c0
69c01724:	3c0c69c0 	lui	t4,0x69c0
69c01728:	24e450c4 	addiu	a0,a3,20676
69c0172c:	240d0347 	li	t5,839
69c01730:	258b483c 	addiu	t3,t4,18492
69c01734:	00403021 	move	a2,v0
69c01738:	02c03821 	move	a3,s6
69c0173c:	afad0010 	sw	t5,16(sp)
69c01740:	0e70119e 	jal	69c04678 <printf>
69c01744:	afab0014 	sw	t3,20(sp)
69c01748:	0e701190 	jal	69c04640 <sync_config>
69c0174c:	00000000 	nop
69c01750:	0441fea1 	bgez	v0,69c011d8 <main+0x6a4>
69c01754:	00000000 	nop
69c01758:	0e701099 	jal	69c04264 <__errno>
69c0175c:	00000000 	nop
69c01760:	0e701090 	jal	69c04240 <getpid>
69c01764:	0040b821 	move	s7,v0
69c01768:	8ee50000 	lw	a1,0(s7)
69c0176c:	3c1969c0 	lui	t9,0x69c0
69c01770:	3c0f69c0 	lui	t7,0x69c0
69c01774:	24180428 	li	t8,1064
69c01778:	25ee47c0 	addiu	t6,t7,18368
69c0177c:	27245104 	addiu	a0,t9,20740
69c01780:	00403021 	move	a2,v0
69c01784:	02c03821 	move	a3,s6
69c01788:	afb80010 	sw	t8,16(sp)
69c0178c:	0e70119e 	jal	69c04678 <printf>
69c01790:	afae0014 	sw	t6,20(sp)
69c01794:	0e701194 	jal	69c04650 <nandflash_update>
69c01798:	00000000 	nop
69c0179c:	0443fe93 	bgezl	v0,69c011ec <main+0x6b8>
69c017a0:	8ea47904 	lw	a0,30980(s5)
69c017a4:	0e701099 	jal	69c04264 <__errno>
69c017a8:	00000000 	nop
69c017ac:	0e701090 	jal	69c04240 <getpid>
69c017b0:	00408021 	move	s0,v0
69c017b4:	8e050000 	lw	a1,0(s0)
69c017b8:	3c0369c0 	lui	v1,0x69c0
69c017bc:	3c0469c0 	lui	a0,0x69c0
69c017c0:	00403021 	move	a2,v0
69c017c4:	247f47c0 	addiu	ra,v1,18368
69c017c8:	24845148 	addiu	a0,a0,20808
69c017cc:	2402042d 	li	v0,1069
69c017d0:	afa20010 	sw	v0,16(sp)
69c017d4:	afbf0014 	sw	ra,20(sp)
69c017d8:	0e70119e 	jal	69c04678 <printf>
69c017dc:	02c03821 	move	a3,s6
69c017e0:	1000fe82 	b	69c011ec <main+0x6b8>
69c017e4:	8ea47904 	lw	a0,30980(s5)
69c017e8:	3c0869c0 	lui	t0,0x69c0
69c017ec:	25045190 	addiu	a0,t0,20880
69c017f0:	02202821 	move	a1,s1
69c017f4:	0e70118d 	jal	69c04634 <get_config>
69c017f8:	24060400 	li	a2,1024
69c017fc:	1840000e 	blez	v0,69c01838 <main+0xd04>
69c01800:	3c0a69c0 	lui	t2,0x69c0
69c01804:	3c090001 	lui	t1,0x1
69c01808:	25444b40 	addiu	a0,t2,19264
69c0180c:	35250002 	ori	a1,t1,0x2
69c01810:	0e7010d8 	jal	69c04360 <open>
69c01814:	00003021 	move	a2,zero
69c01818:	04400007 	bltz	v0,69c01838 <main+0xd04>
69c0181c:	00408021 	move	s0,v0
69c01820:	00402021 	move	a0,v0
69c01824:	02203021 	move	a2,s1
69c01828:	0e7010d2 	jal	69c04348 <fcntl>
69c0182c:	24050020 	li	a1,32
69c01830:	0e7010cc 	jal	69c04330 <close>
69c01834:	02002021 	move	a0,s0
69c01838:	1000fe25 	b	69c010d0 <main+0x59c>
69c0183c:	8e4278f8 	lw	v0,30968(s2)
69c01840:	0e700213 	jal	69c0084c <_mount_flash_disk>
69c01844:	00000000 	nop
69c01848:	1000fd5f 	b	69c00dc8 <main+0x294>
69c0184c:	3c0769c0 	lui	a3,0x69c0
69c01850:	241fffff 	li	ra,-1
69c01854:	ae3f601c 	sw	ra,24604(s1)
69c01858:	0e701099 	jal	69c04264 <__errno>
69c0185c:	00000000 	nop
69c01860:	0e701090 	jal	69c04240 <getpid>
69c01864:	00409021 	move	s2,v0
69c01868:	8e450000 	lw	a1,0(s2)
69c0186c:	3c1969c0 	lui	t9,0x69c0
69c01870:	3c0f69c0 	lui	t7,0x69c0
69c01874:	2724519c 	addiu	a0,t9,20892
69c01878:	241802f6 	li	t8,758
69c0187c:	25ee47ec 	addiu	t6,t7,18412
69c01880:	00403021 	move	a2,v0
69c01884:	02c03821 	move	a3,s6
69c01888:	afb80010 	sw	t8,16(sp)
69c0188c:	afae0014 	sw	t6,20(sp)
69c01890:	0e70119e 	jal	69c04678 <printf>
69c01894:	afb70018 	sw	s7,24(sp)
69c01898:	8e24601c 	lw	a0,24604(s1)
69c0189c:	1000fe25 	b	69c01134 <main+0x600>
69c018a0:	00801821 	move	v1,a0
69c018a4:	0e701099 	jal	69c04264 <__errno>
69c018a8:	00000000 	nop
69c018ac:	0e701090 	jal	69c04240 <getpid>
69c018b0:	00408021 	move	s0,v0
69c018b4:	8e050000 	lw	a1,0(s0)
69c018b8:	3c0369c0 	lui	v1,0x69c0
69c018bc:	3c1969c0 	lui	t9,0x69c0
69c018c0:	241f0108 	li	ra,264
69c018c4:	273847c8 	addiu	t8,t9,18376
69c018c8:	2464519c 	addiu	a0,v1,20892
69c018cc:	00403021 	move	a2,v0
69c018d0:	02c03821 	move	a3,s6
69c018d4:	afbf0010 	sw	ra,16(sp)
69c018d8:	afb80014 	sw	t8,20(sp)
69c018dc:	0e70119e 	jal	69c04678 <printf>
69c018e0:	afb10018 	sw	s1,24(sp)
69c018e4:	1000fcf7 	b	69c00cc4 <main+0x190>
69c018e8:	3c0269c0 	lui	v0,0x69c0

69c018ec <sys_check_media_dir>:
69c018ec:	3c030012 	lui	v1,0x12
69c018f0:	3463007c 	ori	v1,v1,0x7c
69c018f4:	0000000c 	syscall

69c018f8 <sys_pm_set_clk_domain>:
69c018f8:	3c030012 	lui	v1,0x12
69c018fc:	3463008f 	ori	v1,v1,0x8f
69c01900:	0000000c 	syscall

69c01904 <sys_pm_clear_clk_domain>:
69c01904:	3c030012 	lui	v1,0x12
69c01908:	34630090 	ori	v1,v1,0x90
69c0190c:	0000000c 	syscall

69c01910 <sys_get_main_disk>:
69c01910:	3c030012 	lui	v1,0x12
69c01914:	3463009c 	ori	v1,v1,0x9c
69c01918:	0000000c 	syscall

69c0191c <sys_set_main_disk>:
69c0191c:	3c030012 	lui	v1,0x12
69c01920:	3463009d 	ori	v1,v1,0x9d
69c01924:	0000000c 	syscall

69c01928 <sys_enable_sys_evt_detect>:
69c01928:	3c030012 	lui	v1,0x12
69c0192c:	346300a1 	ori	v1,v1,0xa1
69c01930:	0000000c 	syscall

69c01934 <filter_msg>:
69c01934:	3c030012 	lui	v1,0x12
69c01938:	346300a2 	ori	v1,v1,0xa2
69c0193c:	0000000c 	syscall

69c01940 <sys_get_media_dir>:
69c01940:	3c030012 	lui	v1,0x12
69c01944:	346300a6 	ori	v1,v1,0xa6
69c01948:	0000000c 	syscall

69c0194c <applib_init>:
69c0194c:	3c030012 	lui	v1,0x12
69c01950:	34630036 	ori	v1,v1,0x36
69c01954:	0000000c 	syscall

69c01958 <applib_quit>:
69c01958:	3c030012 	lui	v1,0x12
69c0195c:	34630037 	ori	v1,v1,0x37
69c01960:	0000000c 	syscall

69c01964 <get_msg>:
69c01964:	3c030012 	lui	v1,0x12
69c01968:	34630038 	ori	v1,v1,0x38
69c0196c:	0000000c 	syscall

69c01970 <send_sync_msg>:
69c01970:	3c030012 	lui	v1,0x12
69c01974:	34630039 	ori	v1,v1,0x39
69c01978:	0000000c 	syscall

69c0197c <reply_sync_msg>:
69c0197c:	3c030012 	lui	v1,0x12
69c01980:	3463003a 	ori	v1,v1,0x3a
69c01984:	0000000c 	syscall

69c01988 <send_async_msg>:
69c01988:	3c030012 	lui	v1,0x12
69c0198c:	3463003b 	ori	v1,v1,0x3b
69c01990:	0000000c 	syscall

69c01994 <dispatch_msg>:
69c01994:	3c030012 	lui	v1,0x12
69c01998:	3463003d 	ori	v1,v1,0x3d
69c0199c:	0000000c 	syscall

69c019a0 <register_sys_dispatcher>:
69c019a0:	3c030012 	lui	v1,0x12
69c019a4:	3463003e 	ori	v1,v1,0x3e
69c019a8:	0000000c 	syscall

69c019ac <unregister_sys_dispatcher>:
69c019ac:	3c030012 	lui	v1,0x12
69c019b0:	3463003f 	ori	v1,v1,0x3f
69c019b4:	0000000c 	syscall

69c019b8 <exit_msg_loop>:
69c019b8:	3c030012 	lui	v1,0x12
69c019bc:	34630040 	ori	v1,v1,0x40
69c019c0:	0000000c 	syscall

69c019c4 <clear_sys_msg_queue>:
69c019c4:	3c030012 	lui	v1,0x12
69c019c8:	34630041 	ori	v1,v1,0x41
69c019cc:	0000000c 	syscall

69c019d0 <vfat_set_bit>:
69c019d0:	27bdffe8 	addiu	sp,sp,-24
69c019d4:	afbe0010 	sw	s8,16(sp)
69c019d8:	03a0f021 	move	s8,sp
69c019dc:	afc40018 	sw	a0,24(s8)
69c019e0:	afc5001c 	sw	a1,28(s8)
69c019e4:	8fc2001c 	lw	v0,28(s8)
69c019e8:	000210c2 	srl	v0,v0,0x3
69c019ec:	afc20000 	sw	v0,0(s8)
69c019f0:	8fc30018 	lw	v1,24(s8)
69c019f4:	8fc20000 	lw	v0,0(s8)
69c019f8:	00621021 	addu	v0,v1,v0
69c019fc:	afc20004 	sw	v0,4(s8)
69c01a00:	8fc20004 	lw	v0,4(s8)
69c01a04:	90420000 	lbu	v0,0(v0)
69c01a08:	a3c20008 	sb	v0,8(s8)
69c01a0c:	8fc40004 	lw	a0,4(s8)
69c01a10:	8fc2001c 	lw	v0,28(s8)
69c01a14:	30430007 	andi	v1,v0,0x7
69c01a18:	24020001 	li	v0,1
69c01a1c:	00621004 	sllv	v0,v0,v1
69c01a20:	00401821 	move	v1,v0
69c01a24:	93c20008 	lbu	v0,8(s8)
69c01a28:	00621025 	or	v0,v1,v0
69c01a2c:	a0820000 	sb	v0,0(a0)
69c01a30:	03c0e821 	move	sp,s8
69c01a34:	8fbe0010 	lw	s8,16(sp)
69c01a38:	27bd0018 	addiu	sp,sp,24
69c01a3c:	03e00008 	jr	ra
69c01a40:	00000000 	nop

69c01a44 <exfat_format>:
69c01a44:	27bdff40 	addiu	sp,sp,-192
69c01a48:	afbf00bc 	sw	ra,188(sp)
69c01a4c:	afbe00b8 	sw	s8,184(sp)
69c01a50:	03a0f021 	move	s8,sp
69c01a54:	afc400c0 	sw	a0,192(s8)
69c01a58:	afc00064 	sw	zero,100(s8)
69c01a5c:	8fc400c0 	lw	a0,192(s8)
69c01a60:	27c50018 	addiu	a1,s8,24
69c01a64:	0e7011b9 	jal	69c046e4 <sys_fstat>
69c01a68:	00000000 	nop
69c01a6c:	afc2009c 	sw	v0,156(s8)
69c01a70:	8fc2009c 	lw	v0,156(s8)
69c01a74:	04410003 	bgez	v0,69c01a84 <exfat_format+0x40>
69c01a78:	00000000 	nop
69c01a7c:	100002ba 	b	69c02568 <exfat_format+0xb24>
69c01a80:	00000000 	nop
69c01a84:	8fc2003c 	lw	v0,60(s8)
69c01a88:	afc20068 	sw	v0,104(s8)
69c01a8c:	8fc20038 	lw	v0,56(s8)
69c01a90:	afc200a0 	sw	v0,160(s8)
69c01a94:	24020009 	li	v0,9
69c01a98:	a3c200a8 	sb	v0,168(s8)
69c01a9c:	2402ffea 	li	v0,-22
69c01aa0:	afc2009c 	sw	v0,156(s8)
69c01aa4:	8fc300a0 	lw	v1,160(s8)
69c01aa8:	24020200 	li	v0,512
69c01aac:	1062000b 	beq	v1,v0,69c01adc <exfat_format+0x98>
69c01ab0:	00000000 	nop
69c01ab4:	8fc300a0 	lw	v1,160(s8)
69c01ab8:	24020400 	li	v0,1024
69c01abc:	10620007 	beq	v1,v0,69c01adc <exfat_format+0x98>
69c01ac0:	00000000 	nop
69c01ac4:	8fc300a0 	lw	v1,160(s8)
69c01ac8:	24020800 	li	v0,2048
69c01acc:	10620003 	beq	v1,v0,69c01adc <exfat_format+0x98>
69c01ad0:	00000000 	nop
69c01ad4:	100002a4 	b	69c02568 <exfat_format+0xb24>
69c01ad8:	00000000 	nop
69c01adc:	8fc300a0 	lw	v1,160(s8)
69c01ae0:	24020400 	li	v0,1024
69c01ae4:	14620003 	bne	v1,v0,69c01af4 <exfat_format+0xb0>
69c01ae8:	00000000 	nop
69c01aec:	2402000a 	li	v0,10
69c01af0:	a3c200a8 	sb	v0,168(s8)
69c01af4:	8fc300a0 	lw	v1,160(s8)
69c01af8:	24020800 	li	v0,2048
69c01afc:	14620003 	bne	v1,v0,69c01b0c <exfat_format+0xc8>
69c01b00:	00000000 	nop
69c01b04:	2402000b 	li	v0,11
69c01b08:	a3c200a8 	sb	v0,168(s8)
69c01b0c:	8fc20068 	lw	v0,104(s8)
69c01b10:	24037fff 	li	v1,32767
69c01b14:	0062102a 	slt	v0,v1,v0
69c01b18:	14400003 	bnez	v0,69c01b28 <exfat_format+0xe4>
69c01b1c:	00000000 	nop
69c01b20:	10000291 	b	69c02568 <exfat_format+0xb24>
69c01b24:	00000000 	nop
69c01b28:	24020006 	li	v0,6
69c01b2c:	a3c200a9 	sb	v0,169(s8)
69c01b30:	24020040 	li	v0,64
69c01b34:	afc2006c 	sw	v0,108(s8)
69c01b38:	8fc2006c 	lw	v0,108(s8)
69c01b3c:	10400019 	beqz	v0,69c01ba4 <exfat_format+0x160>
69c01b40:	00000000 	nop
69c01b44:	8fc2006c 	lw	v0,108(s8)
69c01b48:	00021940 	sll	v1,v0,0x5
69c01b4c:	8fc20068 	lw	v0,104(s8)
69c01b50:	00431823 	subu	v1,v0,v1
69c01b54:	8fc2006c 	lw	v0,108(s8)
69c01b58:	000211c0 	sll	v0,v0,0x7
69c01b5c:	0062001b 	divu	zero,v1,v0
69c01b60:	004001f4 	teq	v0,zero,0x7
69c01b64:	00001012 	mflo	v0
69c01b68:	afc20070 	sw	v0,112(s8)
69c01b6c:	8fc20070 	lw	v0,112(s8)
69c01b70:	2c420081 	sltiu	v0,v0,129
69c01b74:	14400003 	bnez	v0,69c01b84 <exfat_format+0x140>
69c01b78:	00000000 	nop
69c01b7c:	10000009 	b	69c01ba4 <exfat_format+0x160>
69c01b80:	00000000 	nop
69c01b84:	93c200a9 	lbu	v0,169(s8)
69c01b88:	2442ffff 	addiu	v0,v0,-1
69c01b8c:	a3c200a9 	sb	v0,169(s8)
69c01b90:	8fc2006c 	lw	v0,108(s8)
69c01b94:	00021042 	srl	v0,v0,0x1
69c01b98:	afc2006c 	sw	v0,108(s8)
69c01b9c:	1000ffe6 	b	69c01b38 <exfat_format+0xf4>
69c01ba0:	00000000 	nop
69c01ba4:	8fc2006c 	lw	v0,108(s8)
69c01ba8:	14400003 	bnez	v0,69c01bb8 <exfat_format+0x174>
69c01bac:	00000000 	nop
69c01bb0:	1000026d 	b	69c02568 <exfat_format+0xb24>
69c01bb4:	00000000 	nop
69c01bb8:	8fc20070 	lw	v0,112(s8)
69c01bbc:	24420001 	addiu	v0,v0,1
69c01bc0:	afc20070 	sw	v0,112(s8)
69c01bc4:	8fc20070 	lw	v0,112(s8)
69c01bc8:	afc20080 	sw	v0,128(s8)
69c01bcc:	8fc20070 	lw	v0,112(s8)
69c01bd0:	3042007f 	andi	v0,v0,0x7f
69c01bd4:	10400006 	beqz	v0,69c01bf0 <exfat_format+0x1ac>
69c01bd8:	00000000 	nop
69c01bdc:	8fc20070 	lw	v0,112(s8)
69c01be0:	000211c2 	srl	v0,v0,0x7
69c01be4:	000211c0 	sll	v0,v0,0x7
69c01be8:	24420080 	addiu	v0,v0,128
69c01bec:	afc20080 	sw	v0,128(s8)
69c01bf0:	24020080 	li	v0,128
69c01bf4:	afc2007c 	sw	v0,124(s8)
69c01bf8:	8fc30080 	lw	v1,128(s8)
69c01bfc:	8fc2007c 	lw	v0,124(s8)
69c01c00:	00621021 	addu	v0,v1,v0
69c01c04:	afc20080 	sw	v0,128(s8)
69c01c08:	8fc30068 	lw	v1,104(s8)
69c01c0c:	8fc20080 	lw	v0,128(s8)
69c01c10:	00621823 	subu	v1,v1,v0
69c01c14:	8fc2006c 	lw	v0,108(s8)
69c01c18:	0062001a 	div	zero,v1,v0
69c01c1c:	004001f4 	teq	v0,zero,0x7
69c01c20:	00001012 	mflo	v0
69c01c24:	afc20074 	sw	v0,116(s8)
69c01c28:	8fc20074 	lw	v0,116(s8)
69c01c2c:	afc200ac 	sw	v0,172(s8)
69c01c30:	8fc200ac 	lw	v0,172(s8)
69c01c34:	04410004 	bgez	v0,69c01c48 <exfat_format+0x204>
69c01c38:	00000000 	nop
69c01c3c:	8fc300ac 	lw	v1,172(s8)
69c01c40:	24630007 	addiu	v1,v1,7
69c01c44:	afc300ac 	sw	v1,172(s8)
69c01c48:	8fc400ac 	lw	a0,172(s8)
69c01c4c:	000410c3 	sra	v0,a0,0x3
69c01c50:	afc20078 	sw	v0,120(s8)
69c01c54:	8fc20074 	lw	v0,116(s8)
69c01c58:	30420007 	andi	v0,v0,0x7
69c01c5c:	10400004 	beqz	v0,69c01c70 <exfat_format+0x22c>
69c01c60:	00000000 	nop
69c01c64:	8fc20078 	lw	v0,120(s8)
69c01c68:	24420001 	addiu	v0,v0,1
69c01c6c:	afc20078 	sw	v0,120(s8)
69c01c70:	8fc3006c 	lw	v1,108(s8)
69c01c74:	8fc200a0 	lw	v0,160(s8)
69c01c78:	70621002 	mul	v0,v1,v0
69c01c7c:	afc200a4 	sw	v0,164(s8)
69c01c80:	24020002 	li	v0,2
69c01c84:	afc20084 	sw	v0,132(s8)
69c01c88:	afc00088 	sw	zero,136(s8)
69c01c8c:	8fc20078 	lw	v0,120(s8)
69c01c90:	afc20098 	sw	v0,152(s8)
69c01c94:	8fc20098 	lw	v0,152(s8)
69c01c98:	1840000a 	blez	v0,69c01cc4 <exfat_format+0x280>
69c01c9c:	00000000 	nop
69c01ca0:	8fc20088 	lw	v0,136(s8)
69c01ca4:	24420001 	addiu	v0,v0,1
69c01ca8:	afc20088 	sw	v0,136(s8)
69c01cac:	8fc30098 	lw	v1,152(s8)
69c01cb0:	8fc200a4 	lw	v0,164(s8)
69c01cb4:	00621023 	subu	v0,v1,v0
69c01cb8:	afc20098 	sw	v0,152(s8)
69c01cbc:	1000fff5 	b	69c01c94 <exfat_format+0x250>
69c01cc0:	00000000 	nop
69c01cc4:	8fc20088 	lw	v0,136(s8)
69c01cc8:	24420002 	addiu	v0,v0,2
69c01ccc:	afc2008c 	sw	v0,140(s8)
69c01cd0:	afc00090 	sw	zero,144(s8)
69c01cd4:	240216d0 	li	v0,5840
69c01cd8:	afc20098 	sw	v0,152(s8)
69c01cdc:	8fc20098 	lw	v0,152(s8)
69c01ce0:	1840000a 	blez	v0,69c01d0c <exfat_format+0x2c8>
69c01ce4:	00000000 	nop
69c01ce8:	8fc20090 	lw	v0,144(s8)
69c01cec:	24420001 	addiu	v0,v0,1
69c01cf0:	afc20090 	sw	v0,144(s8)
69c01cf4:	8fc30098 	lw	v1,152(s8)
69c01cf8:	8fc200a4 	lw	v0,164(s8)
69c01cfc:	00621023 	subu	v0,v1,v0
69c01d00:	afc20098 	sw	v0,152(s8)
69c01d04:	1000fff5 	b	69c01cdc <exfat_format+0x298>
69c01d08:	00000000 	nop
69c01d0c:	2402fff4 	li	v0,-12
69c01d10:	afc2009c 	sw	v0,156(s8)
69c01d14:	24042000 	li	a0,8192
69c01d18:	0e7011ce 	jal	69c04738 <kmalloc>
69c01d1c:	00000000 	nop
69c01d20:	afc20064 	sw	v0,100(s8)
69c01d24:	8fc20064 	lw	v0,100(s8)
69c01d28:	14400003 	bnez	v0,69c01d38 <exfat_format+0x2f4>
69c01d2c:	00000000 	nop
69c01d30:	1000020d 	b	69c02568 <exfat_format+0xb24>
69c01d34:	00000000 	nop
69c01d38:	8fc20064 	lw	v0,100(s8)
69c01d3c:	afc20054 	sw	v0,84(s8)
69c01d40:	8fc40054 	lw	a0,84(s8)
69c01d44:	00002821 	move	a1,zero
69c01d48:	24061800 	li	a2,6144
69c01d4c:	0e7010ee 	jal	69c043b8 <memset>
69c01d50:	00000000 	nop
69c01d54:	8fc40054 	lw	a0,84(s8)
69c01d58:	3c0269c0 	lui	v0,0x69c0
69c01d5c:	244576f4 	addiu	a1,v0,30452
69c01d60:	24060200 	li	a2,512
69c01d64:	0e7010da 	jal	69c04368 <memcpy>
69c01d68:	00000000 	nop
69c01d6c:	8fc30054 	lw	v1,84(s8)
69c01d70:	2402ffeb 	li	v0,-21
69c01d74:	a0620000 	sb	v0,0(v1)
69c01d78:	8fc30054 	lw	v1,84(s8)
69c01d7c:	24020076 	li	v0,118
69c01d80:	a0620001 	sb	v0,1(v1)
69c01d84:	8fc30054 	lw	v1,84(s8)
69c01d88:	2402ff90 	li	v0,-112
69c01d8c:	a0620002 	sb	v0,2(v1)
69c01d90:	8fc20054 	lw	v0,84(s8)
69c01d94:	24420003 	addiu	v0,v0,3
69c01d98:	00402021 	move	a0,v0
69c01d9c:	3c0269c0 	lui	v0,0x69c0
69c01da0:	24454868 	addiu	a1,v0,18536
69c01da4:	24060008 	li	a2,8
69c01da8:	0e7010da 	jal	69c04368 <memcpy>
69c01dac:	00000000 	nop
69c01db0:	8fc20054 	lw	v0,84(s8)
69c01db4:	00002021 	move	a0,zero
69c01db8:	00002821 	move	a1,zero
69c01dbc:	ac440040 	sw	a0,64(v0)
69c01dc0:	ac450044 	sw	a1,68(v0)
69c01dc4:	8fc30054 	lw	v1,84(s8)
69c01dc8:	8fc20068 	lw	v0,104(s8)
69c01dcc:	ac620048 	sw	v0,72(v1)
69c01dd0:	ac60004c 	sw	zero,76(v1)
69c01dd4:	8fc30054 	lw	v1,84(s8)
69c01dd8:	8fc2007c 	lw	v0,124(s8)
69c01ddc:	ac620050 	sw	v0,80(v1)
69c01de0:	8fc30054 	lw	v1,84(s8)
69c01de4:	8fc20070 	lw	v0,112(s8)
69c01de8:	ac620054 	sw	v0,84(v1)
69c01dec:	8fc30054 	lw	v1,84(s8)
69c01df0:	8fc20080 	lw	v0,128(s8)
69c01df4:	ac620058 	sw	v0,88(v1)
69c01df8:	8fc30054 	lw	v1,84(s8)
69c01dfc:	8fc20074 	lw	v0,116(s8)
69c01e00:	ac62005c 	sw	v0,92(v1)
69c01e04:	8fc40054 	lw	a0,84(s8)
69c01e08:	8fc30088 	lw	v1,136(s8)
69c01e0c:	8fc20090 	lw	v0,144(s8)
69c01e10:	00621021 	addu	v0,v1,v0
69c01e14:	24420002 	addiu	v0,v0,2
69c01e18:	ac820060 	sw	v0,96(a0)
69c01e1c:	8fc30054 	lw	v1,84(s8)
69c01e20:	93c200a8 	lbu	v0,168(s8)
69c01e24:	a062006c 	sb	v0,108(v1)
69c01e28:	8fc30054 	lw	v1,84(s8)
69c01e2c:	93c200a9 	lbu	v0,169(s8)
69c01e30:	a062006d 	sb	v0,109(v1)
69c01e34:	8fc30054 	lw	v1,84(s8)
69c01e38:	24020001 	li	v0,1
69c01e3c:	a062006e 	sb	v0,110(v1)
69c01e40:	8fc30054 	lw	v1,84(s8)
69c01e44:	2402ffff 	li	v0,-1
69c01e48:	a0620070 	sb	v0,112(v1)
69c01e4c:	8fc30054 	lw	v1,84(s8)
69c01e50:	2402aa55 	li	v0,-21931
69c01e54:	a46201fe 	sh	v0,510(v1)
69c01e58:	afc00098 	sw	zero,152(s8)
69c01e5c:	8fc20098 	lw	v0,152(s8)
69c01e60:	28420008 	slti	v0,v0,8
69c01e64:	1040000c 	beqz	v0,69c01e98 <exfat_format+0x454>
69c01e68:	00000000 	nop
69c01e6c:	8fc30054 	lw	v1,84(s8)
69c01e70:	8fc20098 	lw	v0,152(s8)
69c01e74:	00021240 	sll	v0,v0,0x9
69c01e78:	00431821 	addu	v1,v0,v1
69c01e7c:	2402aa55 	li	v0,-21931
69c01e80:	a46203fe 	sh	v0,1022(v1)
69c01e84:	8fc20098 	lw	v0,152(s8)
69c01e88:	24420001 	addiu	v0,v0,1
69c01e8c:	afc20098 	sw	v0,152(s8)
69c01e90:	1000fff2 	b	69c01e5c <exfat_format+0x418>
69c01e94:	00000000 	nop
69c01e98:	24021600 	li	v0,5632
69c01e9c:	afc20098 	sw	v0,152(s8)
69c01ea0:	afc00058 	sw	zero,88(s8)
69c01ea4:	afc00094 	sw	zero,148(s8)
69c01ea8:	8fc20094 	lw	v0,148(s8)
69c01eac:	8fc30098 	lw	v1,152(s8)
69c01eb0:	0043102a 	slt	v0,v0,v1
69c01eb4:	10400024 	beqz	v0,69c01f48 <exfat_format+0x504>
69c01eb8:	00000000 	nop
69c01ebc:	8fc30094 	lw	v1,148(s8)
69c01ec0:	2402006a 	li	v0,106
69c01ec4:	1062001b 	beq	v1,v0,69c01f34 <exfat_format+0x4f0>
69c01ec8:	00000000 	nop
69c01ecc:	8fc30094 	lw	v1,148(s8)
69c01ed0:	2402006b 	li	v0,107
69c01ed4:	10620017 	beq	v1,v0,69c01f34 <exfat_format+0x4f0>
69c01ed8:	00000000 	nop
69c01edc:	8fc30094 	lw	v1,148(s8)
69c01ee0:	24020070 	li	v0,112
69c01ee4:	10620013 	beq	v1,v0,69c01f34 <exfat_format+0x4f0>
69c01ee8:	00000000 	nop
69c01eec:	8fc20058 	lw	v0,88(s8)
69c01ef0:	00022042 	srl	a0,v0,0x1
69c01ef4:	8fc30064 	lw	v1,100(s8)
69c01ef8:	8fc20094 	lw	v0,148(s8)
69c01efc:	00621021 	addu	v0,v1,v0
69c01f00:	90420000 	lbu	v0,0(v0)
69c01f04:	00822021 	addu	a0,a0,v0
69c01f08:	afc400b0 	sw	a0,176(s8)
69c01f0c:	8fc20058 	lw	v0,88(s8)
69c01f10:	30420001 	andi	v0,v0,0x1
69c01f14:	10400005 	beqz	v0,69c01f2c <exfat_format+0x4e8>
69c01f18:	00000000 	nop
69c01f1c:	3c028000 	lui	v0,0x8000
69c01f20:	8fc500b0 	lw	a1,176(s8)
69c01f24:	00a22821 	addu	a1,a1,v0
69c01f28:	afc500b0 	sw	a1,176(s8)
69c01f2c:	8fc200b0 	lw	v0,176(s8)
69c01f30:	afc20058 	sw	v0,88(s8)
69c01f34:	8fc20094 	lw	v0,148(s8)
69c01f38:	24420001 	addiu	v0,v0,1
69c01f3c:	afc20094 	sw	v0,148(s8)
69c01f40:	1000ffd9 	b	69c01ea8 <exfat_format+0x464>
69c01f44:	00000000 	nop
69c01f48:	afc00094 	sw	zero,148(s8)
69c01f4c:	8fc20094 	lw	v0,148(s8)
69c01f50:	28420080 	slti	v0,v0,128
69c01f54:	1040000c 	beqz	v0,69c01f88 <exfat_format+0x544>
69c01f58:	00000000 	nop
69c01f5c:	8fc30054 	lw	v1,84(s8)
69c01f60:	8fc20094 	lw	v0,148(s8)
69c01f64:	00021080 	sll	v0,v0,0x2
69c01f68:	00431821 	addu	v1,v0,v1
69c01f6c:	8fc20058 	lw	v0,88(s8)
69c01f70:	ac621600 	sw	v0,5632(v1)
69c01f74:	8fc20094 	lw	v0,148(s8)
69c01f78:	24420001 	addiu	v0,v0,1
69c01f7c:	afc20094 	sw	v0,148(s8)
69c01f80:	1000fff2 	b	69c01f4c <exfat_format+0x508>
69c01f84:	00000000 	nop
69c01f88:	afa00010 	sw	zero,16(sp)
69c01f8c:	8fc400c0 	lw	a0,192(s8)
69c01f90:	00003021 	move	a2,zero
69c01f94:	00003821 	move	a3,zero
69c01f98:	0e7011b3 	jal	69c046cc <sys_lseek>
69c01f9c:	00000000 	nop
69c01fa0:	afc2009c 	sw	v0,156(s8)
69c01fa4:	24021800 	li	v0,6144
69c01fa8:	afc20098 	sw	v0,152(s8)
69c01fac:	8fc400c0 	lw	a0,192(s8)
69c01fb0:	8fc50064 	lw	a1,100(s8)
69c01fb4:	8fc60098 	lw	a2,152(s8)
69c01fb8:	0e7011b0 	jal	69c046c0 <sys_write>
69c01fbc:	00000000 	nop
69c01fc0:	afc2009c 	sw	v0,156(s8)
69c01fc4:	8fc3009c 	lw	v1,156(s8)
69c01fc8:	8fc20098 	lw	v0,152(s8)
69c01fcc:	10620003 	beq	v1,v0,69c01fdc <exfat_format+0x598>
69c01fd0:	00000000 	nop
69c01fd4:	10000164 	b	69c02568 <exfat_format+0xb24>
69c01fd8:	00000000 	nop
69c01fdc:	8fc400c0 	lw	a0,192(s8)
69c01fe0:	8fc50064 	lw	a1,100(s8)
69c01fe4:	8fc60098 	lw	a2,152(s8)
69c01fe8:	0e7011b0 	jal	69c046c0 <sys_write>
69c01fec:	00000000 	nop
69c01ff0:	afc2009c 	sw	v0,156(s8)
69c01ff4:	8fc3009c 	lw	v1,156(s8)
69c01ff8:	8fc20098 	lw	v0,152(s8)
69c01ffc:	10620003 	beq	v1,v0,69c0200c <exfat_format+0x5c8>
69c02000:	00000000 	nop
69c02004:	10000158 	b	69c02568 <exfat_format+0xb24>
69c02008:	00000000 	nop
69c0200c:	8fc40064 	lw	a0,100(s8)
69c02010:	00002821 	move	a1,zero
69c02014:	24060200 	li	a2,512
69c02018:	0e7010ee 	jal	69c043b8 <memset>
69c0201c:	00000000 	nop
69c02020:	8fc20064 	lw	v0,100(s8)
69c02024:	afc20060 	sw	v0,96(s8)
69c02028:	8fc30060 	lw	v1,96(s8)
69c0202c:	2402fff8 	li	v0,-8
69c02030:	ac620000 	sw	v0,0(v1)
69c02034:	8fc20060 	lw	v0,96(s8)
69c02038:	24420004 	addiu	v0,v0,4
69c0203c:	afc20060 	sw	v0,96(s8)
69c02040:	8fc30060 	lw	v1,96(s8)
69c02044:	2402ffff 	li	v0,-1
69c02048:	ac620000 	sw	v0,0(v1)
69c0204c:	8fc20060 	lw	v0,96(s8)
69c02050:	24420004 	addiu	v0,v0,4
69c02054:	afc20060 	sw	v0,96(s8)
69c02058:	24020003 	li	v0,3
69c0205c:	afc20098 	sw	v0,152(s8)
69c02060:	24020001 	li	v0,1
69c02064:	afc20094 	sw	v0,148(s8)
69c02068:	8fc20094 	lw	v0,148(s8)
69c0206c:	8fc30088 	lw	v1,136(s8)
69c02070:	0043102a 	slt	v0,v0,v1
69c02074:	1040000f 	beqz	v0,69c020b4 <exfat_format+0x670>
69c02078:	00000000 	nop
69c0207c:	8fc30060 	lw	v1,96(s8)
69c02080:	8fc20098 	lw	v0,152(s8)
69c02084:	ac620000 	sw	v0,0(v1)
69c02088:	8fc20060 	lw	v0,96(s8)
69c0208c:	24420004 	addiu	v0,v0,4
69c02090:	afc20060 	sw	v0,96(s8)
69c02094:	8fc20094 	lw	v0,148(s8)
69c02098:	24420001 	addiu	v0,v0,1
69c0209c:	afc20094 	sw	v0,148(s8)
69c020a0:	8fc20098 	lw	v0,152(s8)
69c020a4:	24420001 	addiu	v0,v0,1
69c020a8:	afc20098 	sw	v0,152(s8)
69c020ac:	1000ffee 	b	69c02068 <exfat_format+0x624>
69c020b0:	00000000 	nop
69c020b4:	8fc30060 	lw	v1,96(s8)
69c020b8:	2402ffff 	li	v0,-1
69c020bc:	ac620000 	sw	v0,0(v1)
69c020c0:	8fc20060 	lw	v0,96(s8)
69c020c4:	24420004 	addiu	v0,v0,4
69c020c8:	afc20060 	sw	v0,96(s8)
69c020cc:	8fc20088 	lw	v0,136(s8)
69c020d0:	24420003 	addiu	v0,v0,3
69c020d4:	afc20098 	sw	v0,152(s8)
69c020d8:	24020001 	li	v0,1
69c020dc:	afc20094 	sw	v0,148(s8)
69c020e0:	8fc20094 	lw	v0,148(s8)
69c020e4:	8fc30090 	lw	v1,144(s8)
69c020e8:	0043102a 	slt	v0,v0,v1
69c020ec:	1040000f 	beqz	v0,69c0212c <exfat_format+0x6e8>
69c020f0:	00000000 	nop
69c020f4:	8fc30060 	lw	v1,96(s8)
69c020f8:	8fc20098 	lw	v0,152(s8)
69c020fc:	ac620000 	sw	v0,0(v1)
69c02100:	8fc20060 	lw	v0,96(s8)
69c02104:	24420004 	addiu	v0,v0,4
69c02108:	afc20060 	sw	v0,96(s8)
69c0210c:	8fc20094 	lw	v0,148(s8)
69c02110:	24420001 	addiu	v0,v0,1
69c02114:	afc20094 	sw	v0,148(s8)
69c02118:	8fc20098 	lw	v0,152(s8)
69c0211c:	24420001 	addiu	v0,v0,1
69c02120:	afc20098 	sw	v0,152(s8)
69c02124:	1000ffee 	b	69c020e0 <exfat_format+0x69c>
69c02128:	00000000 	nop
69c0212c:	8fc30060 	lw	v1,96(s8)
69c02130:	2402ffff 	li	v0,-1
69c02134:	ac620000 	sw	v0,0(v1)
69c02138:	8fc20060 	lw	v0,96(s8)
69c0213c:	24420004 	addiu	v0,v0,4
69c02140:	afc20060 	sw	v0,96(s8)
69c02144:	8fc30060 	lw	v1,96(s8)
69c02148:	2402ffff 	li	v0,-1
69c0214c:	ac620000 	sw	v0,0(v1)
69c02150:	8fc3007c 	lw	v1,124(s8)
69c02154:	8fc200a0 	lw	v0,160(s8)
69c02158:	70622002 	mul	a0,v1,v0
69c0215c:	00042fc3 	sra	a1,a0,0x1f
69c02160:	00801021 	move	v0,a0
69c02164:	00a01821 	move	v1,a1
69c02168:	afa00010 	sw	zero,16(sp)
69c0216c:	8fc400c0 	lw	a0,192(s8)
69c02170:	00403021 	move	a2,v0
69c02174:	00603821 	move	a3,v1
69c02178:	0e7011b3 	jal	69c046cc <sys_lseek>
69c0217c:	00000000 	nop
69c02180:	afc2009c 	sw	v0,156(s8)
69c02184:	8fc400c0 	lw	a0,192(s8)
69c02188:	8fc50064 	lw	a1,100(s8)
69c0218c:	24060200 	li	a2,512
69c02190:	0e7011b0 	jal	69c046c0 <sys_write>
69c02194:	00000000 	nop
69c02198:	afc2009c 	sw	v0,156(s8)
69c0219c:	8fc3009c 	lw	v1,156(s8)
69c021a0:	24020200 	li	v0,512
69c021a4:	10620003 	beq	v1,v0,69c021b4 <exfat_format+0x770>
69c021a8:	00000000 	nop
69c021ac:	100000ee 	b	69c02568 <exfat_format+0xb24>
69c021b0:	00000000 	nop
69c021b4:	8fc30088 	lw	v1,136(s8)
69c021b8:	8fc20090 	lw	v0,144(s8)
69c021bc:	00621021 	addu	v0,v1,v0
69c021c0:	24420001 	addiu	v0,v0,1
69c021c4:	afc20098 	sw	v0,152(s8)
69c021c8:	8fc40064 	lw	a0,100(s8)
69c021cc:	00002821 	move	a1,zero
69c021d0:	24061000 	li	a2,4096
69c021d4:	0e7010ee 	jal	69c043b8 <memset>
69c021d8:	00000000 	nop
69c021dc:	afc00094 	sw	zero,148(s8)
69c021e0:	8fc20094 	lw	v0,148(s8)
69c021e4:	8fc30098 	lw	v1,152(s8)
69c021e8:	0043102a 	slt	v0,v0,v1
69c021ec:	1040000a 	beqz	v0,69c02218 <exfat_format+0x7d4>
69c021f0:	00000000 	nop
69c021f4:	8fc40064 	lw	a0,100(s8)
69c021f8:	8fc50094 	lw	a1,148(s8)
69c021fc:	0e700674 	jal	69c019d0 <vfat_set_bit>
69c02200:	00000000 	nop
69c02204:	8fc20094 	lw	v0,148(s8)
69c02208:	24420001 	addiu	v0,v0,1
69c0220c:	afc20094 	sw	v0,148(s8)
69c02210:	1000fff3 	b	69c021e0 <exfat_format+0x79c>
69c02214:	00000000 	nop
69c02218:	8fc30088 	lw	v1,136(s8)
69c0221c:	8fc200a0 	lw	v0,160(s8)
69c02220:	70621802 	mul	v1,v1,v0
69c02224:	8fc2006c 	lw	v0,108(s8)
69c02228:	70621002 	mul	v0,v1,v0
69c0222c:	afc20098 	sw	v0,152(s8)
69c02230:	8fc30080 	lw	v1,128(s8)
69c02234:	8fc200a0 	lw	v0,160(s8)
69c02238:	70622002 	mul	a0,v1,v0
69c0223c:	00042fc3 	sra	a1,a0,0x1f
69c02240:	00801021 	move	v0,a0
69c02244:	00a01821 	move	v1,a1
69c02248:	afa00010 	sw	zero,16(sp)
69c0224c:	8fc400c0 	lw	a0,192(s8)
69c02250:	00403021 	move	a2,v0
69c02254:	00603821 	move	a3,v1
69c02258:	0e7011b3 	jal	69c046cc <sys_lseek>
69c0225c:	00000000 	nop
69c02260:	8fc400c0 	lw	a0,192(s8)
69c02264:	8fc50064 	lw	a1,100(s8)
69c02268:	24061000 	li	a2,4096
69c0226c:	0e7011b0 	jal	69c046c0 <sys_write>
69c02270:	00000000 	nop
69c02274:	afc2009c 	sw	v0,156(s8)
69c02278:	8fc40064 	lw	a0,100(s8)
69c0227c:	00002821 	move	a1,zero
69c02280:	24061000 	li	a2,4096
69c02284:	0e7010ee 	jal	69c043b8 <memset>
69c02288:	00000000 	nop
69c0228c:	24021000 	li	v0,4096
69c02290:	afc20094 	sw	v0,148(s8)
69c02294:	8fc20094 	lw	v0,148(s8)
69c02298:	8fc30098 	lw	v1,152(s8)
69c0229c:	0043102a 	slt	v0,v0,v1
69c022a0:	1040000c 	beqz	v0,69c022d4 <exfat_format+0x890>
69c022a4:	00000000 	nop
69c022a8:	8fc400c0 	lw	a0,192(s8)
69c022ac:	8fc50064 	lw	a1,100(s8)
69c022b0:	24061000 	li	a2,4096
69c022b4:	0e7011b0 	jal	69c046c0 <sys_write>
69c022b8:	00000000 	nop
69c022bc:	afc2009c 	sw	v0,156(s8)
69c022c0:	8fc20094 	lw	v0,148(s8)
69c022c4:	24421000 	addiu	v0,v0,4096
69c022c8:	afc20094 	sw	v0,148(s8)
69c022cc:	1000fff1 	b	69c02294 <exfat_format+0x850>
69c022d0:	00000000 	nop
69c022d4:	8fc40064 	lw	a0,100(s8)
69c022d8:	00002821 	move	a1,zero
69c022dc:	24062000 	li	a2,8192
69c022e0:	0e7010ee 	jal	69c043b8 <memset>
69c022e4:	00000000 	nop
69c022e8:	8fc40064 	lw	a0,100(s8)
69c022ec:	3c0269c0 	lui	v0,0x69c0
69c022f0:	24456024 	addiu	a1,v0,24612
69c022f4:	240616d0 	li	a2,5840
69c022f8:	0e7010da 	jal	69c04368 <memcpy>
69c022fc:	00000000 	nop
69c02300:	8fc30088 	lw	v1,136(s8)
69c02304:	8fc2006c 	lw	v0,108(s8)
69c02308:	70621802 	mul	v1,v1,v0
69c0230c:	8fc20080 	lw	v0,128(s8)
69c02310:	00621821 	addu	v1,v1,v0
69c02314:	8fc200a0 	lw	v0,160(s8)
69c02318:	70621002 	mul	v0,v1,v0
69c0231c:	afc20098 	sw	v0,152(s8)
69c02320:	8fc20098 	lw	v0,152(s8)
69c02324:	000227c3 	sra	a0,v0,0x1f
69c02328:	8fc20098 	lw	v0,152(s8)
69c0232c:	00801821 	move	v1,a0
69c02330:	afa00010 	sw	zero,16(sp)
69c02334:	8fc400c0 	lw	a0,192(s8)
69c02338:	00403021 	move	a2,v0
69c0233c:	00603821 	move	a3,v1
69c02340:	0e7011b3 	jal	69c046cc <sys_lseek>
69c02344:	00000000 	nop
69c02348:	8fc30090 	lw	v1,144(s8)
69c0234c:	8fc200a0 	lw	v0,160(s8)
69c02350:	70621802 	mul	v1,v1,v0
69c02354:	8fc2006c 	lw	v0,108(s8)
69c02358:	70621002 	mul	v0,v1,v0
69c0235c:	afc20098 	sw	v0,152(s8)
69c02360:	8fc400c0 	lw	a0,192(s8)
69c02364:	8fc50064 	lw	a1,100(s8)
69c02368:	24062000 	li	a2,8192
69c0236c:	0e7011b0 	jal	69c046c0 <sys_write>
69c02370:	00000000 	nop
69c02374:	afc2009c 	sw	v0,156(s8)
69c02378:	8fc40064 	lw	a0,100(s8)
69c0237c:	00002821 	move	a1,zero
69c02380:	24062000 	li	a2,8192
69c02384:	0e7010ee 	jal	69c043b8 <memset>
69c02388:	00000000 	nop
69c0238c:	24022000 	li	v0,8192
69c02390:	afc20094 	sw	v0,148(s8)
69c02394:	8fc20094 	lw	v0,148(s8)
69c02398:	8fc30098 	lw	v1,152(s8)
69c0239c:	0043102a 	slt	v0,v0,v1
69c023a0:	1040000c 	beqz	v0,69c023d4 <exfat_format+0x990>
69c023a4:	00000000 	nop
69c023a8:	8fc400c0 	lw	a0,192(s8)
69c023ac:	8fc50064 	lw	a1,100(s8)
69c023b0:	24062000 	li	a2,8192
69c023b4:	0e7011b0 	jal	69c046c0 <sys_write>
69c023b8:	00000000 	nop
69c023bc:	afc2009c 	sw	v0,156(s8)
69c023c0:	8fc20094 	lw	v0,148(s8)
69c023c4:	24422000 	addiu	v0,v0,8192
69c023c8:	afc20094 	sw	v0,148(s8)
69c023cc:	1000fff1 	b	69c02394 <exfat_format+0x950>
69c023d0:	00000000 	nop
69c023d4:	8fc30088 	lw	v1,136(s8)
69c023d8:	8fc20090 	lw	v0,144(s8)
69c023dc:	00621821 	addu	v1,v1,v0
69c023e0:	8fc2006c 	lw	v0,108(s8)
69c023e4:	70621802 	mul	v1,v1,v0
69c023e8:	8fc20080 	lw	v0,128(s8)
69c023ec:	00621821 	addu	v1,v1,v0
69c023f0:	8fc200a0 	lw	v0,160(s8)
69c023f4:	70621002 	mul	v0,v1,v0
69c023f8:	afc20098 	sw	v0,152(s8)
69c023fc:	8fc20098 	lw	v0,152(s8)
69c02400:	000227c3 	sra	a0,v0,0x1f
69c02404:	8fc20098 	lw	v0,152(s8)
69c02408:	00801821 	move	v1,a0
69c0240c:	afa00010 	sw	zero,16(sp)
69c02410:	8fc400c0 	lw	a0,192(s8)
69c02414:	00403021 	move	a2,v0
69c02418:	00603821 	move	a3,v1
69c0241c:	0e7011b3 	jal	69c046cc <sys_lseek>
69c02420:	00000000 	nop
69c02424:	8fc3006c 	lw	v1,108(s8)
69c02428:	8fc200a0 	lw	v0,160(s8)
69c0242c:	70621002 	mul	v0,v1,v0
69c02430:	afc20098 	sw	v0,152(s8)
69c02434:	8fc40064 	lw	a0,100(s8)
69c02438:	00002821 	move	a1,zero
69c0243c:	24062000 	li	a2,8192
69c02440:	0e7010ee 	jal	69c043b8 <memset>
69c02444:	00000000 	nop
69c02448:	8fc20064 	lw	v0,100(s8)
69c0244c:	afc20050 	sw	v0,80(s8)
69c02450:	8fc30050 	lw	v1,80(s8)
69c02454:	24020003 	li	v0,3
69c02458:	a0620000 	sb	v0,0(v1)
69c0245c:	8fc20050 	lw	v0,80(s8)
69c02460:	24420020 	addiu	v0,v0,32
69c02464:	afc20050 	sw	v0,80(s8)
69c02468:	8fc30050 	lw	v1,80(s8)
69c0246c:	2402ff81 	li	v0,-127
69c02470:	a0620000 	sb	v0,0(v1)
69c02474:	8fc30050 	lw	v1,80(s8)
69c02478:	24020002 	li	v0,2
69c0247c:	ac620014 	sw	v0,20(v1)
69c02480:	8fc30050 	lw	v1,80(s8)
69c02484:	8fc20078 	lw	v0,120(s8)
69c02488:	ac620018 	sw	v0,24(v1)
69c0248c:	000217c3 	sra	v0,v0,0x1f
69c02490:	ac62001c 	sw	v0,28(v1)
69c02494:	8fc20050 	lw	v0,80(s8)
69c02498:	24420020 	addiu	v0,v0,32
69c0249c:	afc20050 	sw	v0,80(s8)
69c024a0:	8fc30050 	lw	v1,80(s8)
69c024a4:	2402ff82 	li	v0,-126
69c024a8:	a0620000 	sb	v0,0(v1)
69c024ac:	8fc30050 	lw	v1,80(s8)
69c024b0:	3c02e619 	lui	v0,0xe619
69c024b4:	3442d30d 	ori	v0,v0,0xd30d
69c024b8:	ac620004 	sw	v0,4(v1)
69c024bc:	8fc30050 	lw	v1,80(s8)
69c024c0:	8fc20088 	lw	v0,136(s8)
69c024c4:	24420002 	addiu	v0,v0,2
69c024c8:	ac620014 	sw	v0,20(v1)
69c024cc:	8fc40050 	lw	a0,80(s8)
69c024d0:	240216cc 	li	v0,5836
69c024d4:	00001821 	move	v1,zero
69c024d8:	ac820018 	sw	v0,24(a0)
69c024dc:	ac83001c 	sw	v1,28(a0)
69c024e0:	8fc400c0 	lw	a0,192(s8)
69c024e4:	8fc50064 	lw	a1,100(s8)
69c024e8:	24062000 	li	a2,8192
69c024ec:	0e7011b0 	jal	69c046c0 <sys_write>
69c024f0:	00000000 	nop
69c024f4:	afc2009c 	sw	v0,156(s8)
69c024f8:	8fc40064 	lw	a0,100(s8)
69c024fc:	00002821 	move	a1,zero
69c02500:	24062000 	li	a2,8192
69c02504:	0e7010ee 	jal	69c043b8 <memset>
69c02508:	00000000 	nop
69c0250c:	8fc3006c 	lw	v1,108(s8)
69c02510:	8fc200a0 	lw	v0,160(s8)
69c02514:	70621002 	mul	v0,v1,v0
69c02518:	afc20098 	sw	v0,152(s8)
69c0251c:	24022000 	li	v0,8192
69c02520:	afc20094 	sw	v0,148(s8)
69c02524:	8fc20094 	lw	v0,148(s8)
69c02528:	8fc30098 	lw	v1,152(s8)
69c0252c:	0043102a 	slt	v0,v0,v1
69c02530:	1040000c 	beqz	v0,69c02564 <exfat_format+0xb20>
69c02534:	00000000 	nop
69c02538:	8fc400c0 	lw	a0,192(s8)
69c0253c:	8fc50064 	lw	a1,100(s8)
69c02540:	24062000 	li	a2,8192
69c02544:	0e7011b0 	jal	69c046c0 <sys_write>
69c02548:	00000000 	nop
69c0254c:	afc2009c 	sw	v0,156(s8)
69c02550:	8fc20094 	lw	v0,148(s8)
69c02554:	24422000 	addiu	v0,v0,8192
69c02558:	afc20094 	sw	v0,148(s8)
69c0255c:	1000fff1 	b	69c02524 <exfat_format+0xae0>
69c02560:	00000000 	nop
69c02564:	afc0009c 	sw	zero,156(s8)
69c02568:	8fc20064 	lw	v0,100(s8)
69c0256c:	10400004 	beqz	v0,69c02580 <exfat_format+0xb3c>
69c02570:	00000000 	nop
69c02574:	8fc40064 	lw	a0,100(s8)
69c02578:	0e7011d1 	jal	69c04744 <kfree>
69c0257c:	00000000 	nop
69c02580:	8fc2009c 	lw	v0,156(s8)
69c02584:	03c0e821 	move	sp,s8
69c02588:	8fbf00bc 	lw	ra,188(sp)
69c0258c:	8fbe00b8 	lw	s8,184(sp)
69c02590:	27bd00c0 	addiu	sp,sp,192
69c02594:	03e00008 	jr	ra
69c02598:	00000000 	nop

69c0259c <fs_os_formatfat16>:
69c0259c:	27bdff58 	addiu	sp,sp,-168
69c025a0:	afbf00a4 	sw	ra,164(sp)
69c025a4:	afbe00a0 	sw	s8,160(sp)
69c025a8:	03a0f021 	move	s8,sp
69c025ac:	afc400a8 	sw	a0,168(s8)
69c025b0:	8fc400a8 	lw	a0,168(s8)
69c025b4:	27c50018 	addiu	a1,s8,24
69c025b8:	0e7011b9 	jal	69c046e4 <sys_fstat>
69c025bc:	00000000 	nop
69c025c0:	afc20064 	sw	v0,100(s8)
69c025c4:	8fc20064 	lw	v0,100(s8)
69c025c8:	04410003 	bgez	v0,69c025d8 <fs_os_formatfat16+0x3c>
69c025cc:	00000000 	nop
69c025d0:	1000026c 	b	69c02f84 <fs_os_formatfat16+0x9e8>
69c025d4:	00000000 	nop
69c025d8:	8fc2003c 	lw	v0,60(s8)
69c025dc:	afc20050 	sw	v0,80(s8)
69c025e0:	2402ffea 	li	v0,-22
69c025e4:	afc20064 	sw	v0,100(s8)
69c025e8:	8fc20038 	lw	v0,56(s8)
69c025ec:	afc20058 	sw	v0,88(s8)
69c025f0:	8fc30058 	lw	v1,88(s8)
69c025f4:	24020200 	li	v0,512
69c025f8:	1062000b 	beq	v1,v0,69c02628 <fs_os_formatfat16+0x8c>
69c025fc:	00000000 	nop
69c02600:	8fc30058 	lw	v1,88(s8)
69c02604:	24020400 	li	v0,1024
69c02608:	10620007 	beq	v1,v0,69c02628 <fs_os_formatfat16+0x8c>
69c0260c:	00000000 	nop
69c02610:	8fc30058 	lw	v1,88(s8)
69c02614:	24020800 	li	v0,2048
69c02618:	10620003 	beq	v1,v0,69c02628 <fs_os_formatfat16+0x8c>
69c0261c:	00000000 	nop
69c02620:	10000258 	b	69c02f84 <fs_os_formatfat16+0x9e8>
69c02624:	00000000 	nop
69c02628:	8fc20050 	lw	v0,80(s8)
69c0262c:	28421016 	slti	v0,v0,4118
69c02630:	10400003 	beqz	v0,69c02640 <fs_os_formatfat16+0xa4>
69c02634:	00000000 	nop
69c02638:	10000252 	b	69c02f84 <fs_os_formatfat16+0x9e8>
69c0263c:	00000000 	nop
69c02640:	8fc20050 	lw	v0,80(s8)
69c02644:	3403ffff 	li	v1,0xffff
69c02648:	0062102a 	slt	v0,v1,v0
69c0264c:	14400005 	bnez	v0,69c02664 <fs_os_formatfat16+0xc8>
69c02650:	00000000 	nop
69c02654:	24020001 	li	v0,1
69c02658:	afc20054 	sw	v0,84(s8)
69c0265c:	1000003b 	b	69c0274c <fs_os_formatfat16+0x1b0>
69c02660:	00000000 	nop
69c02664:	8fc30050 	lw	v1,80(s8)
69c02668:	3c020001 	lui	v0,0x1
69c0266c:	3442ffff 	ori	v0,v0,0xffff
69c02670:	0043102a 	slt	v0,v0,v1
69c02674:	14400005 	bnez	v0,69c0268c <fs_os_formatfat16+0xf0>
69c02678:	00000000 	nop
69c0267c:	24020002 	li	v0,2
69c02680:	afc20054 	sw	v0,84(s8)
69c02684:	10000031 	b	69c0274c <fs_os_formatfat16+0x1b0>
69c02688:	00000000 	nop
69c0268c:	8fc30050 	lw	v1,80(s8)
69c02690:	3c020003 	lui	v0,0x3
69c02694:	3442ffff 	ori	v0,v0,0xffff
69c02698:	0043102a 	slt	v0,v0,v1
69c0269c:	14400005 	bnez	v0,69c026b4 <fs_os_formatfat16+0x118>
69c026a0:	00000000 	nop
69c026a4:	24020004 	li	v0,4
69c026a8:	afc20054 	sw	v0,84(s8)
69c026ac:	10000027 	b	69c0274c <fs_os_formatfat16+0x1b0>
69c026b0:	00000000 	nop
69c026b4:	8fc30050 	lw	v1,80(s8)
69c026b8:	3c020007 	lui	v0,0x7
69c026bc:	3442ffff 	ori	v0,v0,0xffff
69c026c0:	0043102a 	slt	v0,v0,v1
69c026c4:	14400005 	bnez	v0,69c026dc <fs_os_formatfat16+0x140>
69c026c8:	00000000 	nop
69c026cc:	24020008 	li	v0,8
69c026d0:	afc20054 	sw	v0,84(s8)
69c026d4:	1000001d 	b	69c0274c <fs_os_formatfat16+0x1b0>
69c026d8:	00000000 	nop
69c026dc:	8fc30050 	lw	v1,80(s8)
69c026e0:	3c02000f 	lui	v0,0xf
69c026e4:	3442ffff 	ori	v0,v0,0xffff
69c026e8:	0043102a 	slt	v0,v0,v1
69c026ec:	14400005 	bnez	v0,69c02704 <fs_os_formatfat16+0x168>
69c026f0:	00000000 	nop
69c026f4:	24020010 	li	v0,16
69c026f8:	afc20054 	sw	v0,84(s8)
69c026fc:	10000013 	b	69c0274c <fs_os_formatfat16+0x1b0>
69c02700:	00000000 	nop
69c02704:	8fc30050 	lw	v1,80(s8)
69c02708:	3c02001f 	lui	v0,0x1f
69c0270c:	3442ffff 	ori	v0,v0,0xffff
69c02710:	0043102a 	slt	v0,v0,v1
69c02714:	14400005 	bnez	v0,69c0272c <fs_os_formatfat16+0x190>
69c02718:	00000000 	nop
69c0271c:	24020020 	li	v0,32
69c02720:	afc20054 	sw	v0,84(s8)
69c02724:	10000009 	b	69c0274c <fs_os_formatfat16+0x1b0>
69c02728:	00000000 	nop
69c0272c:	8fc30050 	lw	v1,80(s8)
69c02730:	3c02003f 	lui	v0,0x3f
69c02734:	3442ffff 	ori	v0,v0,0xffff
69c02738:	0043102a 	slt	v0,v0,v1
69c0273c:	14400211 	bnez	v0,69c02f84 <fs_os_formatfat16+0x9e8>
69c02740:	00000000 	nop
69c02744:	24020040 	li	v0,64
69c02748:	afc20054 	sw	v0,84(s8)
69c0274c:	2402fff4 	li	v0,-12
69c02750:	afc20064 	sw	v0,100(s8)
69c02754:	24042000 	li	a0,8192
69c02758:	0e7011ce 	jal	69c04738 <kmalloc>
69c0275c:	00000000 	nop
69c02760:	afc20068 	sw	v0,104(s8)
69c02764:	8fc20068 	lw	v0,104(s8)
69c02768:	14400003 	bnez	v0,69c02778 <fs_os_formatfat16+0x1dc>
69c0276c:	00000000 	nop
69c02770:	10000204 	b	69c02f84 <fs_os_formatfat16+0x9e8>
69c02774:	00000000 	nop
69c02778:	8fc20054 	lw	v0,84(s8)
69c0277c:	00021040 	sll	v0,v0,0x1
69c02780:	00021823 	negu	v1,v0
69c02784:	8fc20050 	lw	v0,80(s8)
69c02788:	00621021 	addu	v0,v1,v0
69c0278c:	2442ffc0 	addiu	v0,v0,-64
69c02790:	afc2005c 	sw	v0,92(s8)
69c02794:	8fc20054 	lw	v0,84(s8)
69c02798:	00021200 	sll	v0,v0,0x8
69c0279c:	24420002 	addiu	v0,v0,2
69c027a0:	afc20060 	sw	v0,96(s8)
69c027a4:	8fc3005c 	lw	v1,92(s8)
69c027a8:	8fc20060 	lw	v0,96(s8)
69c027ac:	0062001a 	div	zero,v1,v0
69c027b0:	004001f4 	teq	v0,zero,0x7
69c027b4:	00001010 	mfhi	v0
69c027b8:	afc20064 	sw	v0,100(s8)
69c027bc:	8fc3005c 	lw	v1,92(s8)
69c027c0:	8fc20060 	lw	v0,96(s8)
69c027c4:	0062001a 	div	zero,v1,v0
69c027c8:	004001f4 	teq	v0,zero,0x7
69c027cc:	00001012 	mflo	v0
69c027d0:	afc2005c 	sw	v0,92(s8)
69c027d4:	8fc20064 	lw	v0,100(s8)
69c027d8:	10400004 	beqz	v0,69c027ec <fs_os_formatfat16+0x250>
69c027dc:	00000000 	nop
69c027e0:	8fc2005c 	lw	v0,92(s8)
69c027e4:	24420001 	addiu	v0,v0,1
69c027e8:	afc2005c 	sw	v0,92(s8)
69c027ec:	8fc3005c 	lw	v1,92(s8)
69c027f0:	8fc2005c 	lw	v0,92(s8)
69c027f4:	00621021 	addu	v0,v1,v0
69c027f8:	afc20078 	sw	v0,120(s8)
69c027fc:	8fc20078 	lw	v0,120(s8)
69c02800:	3042001f 	andi	v0,v0,0x1f
69c02804:	1040000d 	beqz	v0,69c0283c <fs_os_formatfat16+0x2a0>
69c02808:	00000000 	nop
69c0280c:	8fc20078 	lw	v0,120(s8)
69c02810:	3043001f 	andi	v1,v0,0x1f
69c02814:	8fc20050 	lw	v0,80(s8)
69c02818:	00431023 	subu	v0,v0,v1
69c0281c:	afc20050 	sw	v0,80(s8)
69c02820:	8fc20078 	lw	v0,120(s8)
69c02824:	3043001f 	andi	v1,v0,0x1f
69c02828:	24020020 	li	v0,32
69c0282c:	00431023 	subu	v0,v0,v1
69c02830:	afc20078 	sw	v0,120(s8)
69c02834:	10000003 	b	69c02844 <fs_os_formatfat16+0x2a8>
69c02838:	00000000 	nop
69c0283c:	24020020 	li	v0,32
69c02840:	afc20078 	sw	v0,120(s8)
69c02844:	8fc20058 	lw	v0,88(s8)
69c02848:	afc20080 	sw	v0,128(s8)
69c0284c:	8fc20080 	lw	v0,128(s8)
69c02850:	04410004 	bgez	v0,69c02864 <fs_os_formatfat16+0x2c8>
69c02854:	00000000 	nop
69c02858:	8fc30080 	lw	v1,128(s8)
69c0285c:	246301ff 	addiu	v1,v1,511
69c02860:	afc30080 	sw	v1,128(s8)
69c02864:	8fc30080 	lw	v1,128(s8)
69c02868:	00031243 	sra	v0,v1,0x9
69c0286c:	afc20060 	sw	v0,96(s8)
69c02870:	8fc3005c 	lw	v1,92(s8)
69c02874:	8fc20060 	lw	v0,96(s8)
69c02878:	0062001a 	div	zero,v1,v0
69c0287c:	004001f4 	teq	v0,zero,0x7
69c02880:	00001010 	mfhi	v0
69c02884:	afc20064 	sw	v0,100(s8)
69c02888:	8fc3005c 	lw	v1,92(s8)
69c0288c:	8fc20060 	lw	v0,96(s8)
69c02890:	0062001a 	div	zero,v1,v0
69c02894:	004001f4 	teq	v0,zero,0x7
69c02898:	00001012 	mflo	v0
69c0289c:	afc2005c 	sw	v0,92(s8)
69c028a0:	8fc20064 	lw	v0,100(s8)
69c028a4:	10400004 	beqz	v0,69c028b8 <fs_os_formatfat16+0x31c>
69c028a8:	00000000 	nop
69c028ac:	8fc2005c 	lw	v0,92(s8)
69c028b0:	24420001 	addiu	v0,v0,1
69c028b4:	afc2005c 	sw	v0,92(s8)
69c028b8:	8fc40068 	lw	a0,104(s8)
69c028bc:	00002821 	move	a1,zero
69c028c0:	24062000 	li	a2,8192
69c028c4:	0e7010ee 	jal	69c043b8 <memset>
69c028c8:	00000000 	nop
69c028cc:	8fc30068 	lw	v1,104(s8)
69c028d0:	3c020090 	lui	v0,0x90
69c028d4:	34423eeb 	ori	v0,v0,0x3eeb
69c028d8:	ac620000 	sw	v0,0(v1)
69c028dc:	8fc20068 	lw	v0,104(s8)
69c028e0:	afc20084 	sw	v0,132(s8)
69c028e4:	8fc20058 	lw	v0,88(s8)
69c028e8:	afc20088 	sw	v0,136(s8)
69c028ec:	8fc30088 	lw	v1,136(s8)
69c028f0:	04610004 	bgez	v1,69c02904 <fs_os_formatfat16+0x368>
69c028f4:	00000000 	nop
69c028f8:	8fc20088 	lw	v0,136(s8)
69c028fc:	244200ff 	addiu	v0,v0,255
69c02900:	afc20088 	sw	v0,136(s8)
69c02904:	8fc30088 	lw	v1,136(s8)
69c02908:	00031203 	sra	v0,v1,0x8
69c0290c:	8fc30084 	lw	v1,132(s8)
69c02910:	a062000c 	sb	v0,12(v1)
69c02914:	8fc30068 	lw	v1,104(s8)
69c02918:	8fc20054 	lw	v0,84(s8)
69c0291c:	a062000d 	sb	v0,13(v1)
69c02920:	8fc30068 	lw	v1,104(s8)
69c02924:	8fc20078 	lw	v0,120(s8)
69c02928:	a462000e 	sh	v0,14(v1)
69c0292c:	8fc30068 	lw	v1,104(s8)
69c02930:	24020002 	li	v0,2
69c02934:	a0620010 	sb	v0,16(v1)
69c02938:	8fc30068 	lw	v1,104(s8)
69c0293c:	24020002 	li	v0,2
69c02940:	a0620012 	sb	v0,18(v1)
69c02944:	8fc30068 	lw	v1,104(s8)
69c02948:	2402fff8 	li	v0,-8
69c0294c:	a0620015 	sb	v0,21(v1)
69c02950:	8fc30068 	lw	v1,104(s8)
69c02954:	8fc2005c 	lw	v0,92(s8)
69c02958:	a4620016 	sh	v0,22(v1)
69c0295c:	8fc30068 	lw	v1,104(s8)
69c02960:	8fc20050 	lw	v0,80(s8)
69c02964:	ac620020 	sw	v0,32(v1)
69c02968:	8fc30068 	lw	v1,104(s8)
69c0296c:	2402ffff 	li	v0,-1
69c02970:	a46201be 	sh	v0,446(v1)
69c02974:	8fc30068 	lw	v1,104(s8)
69c02978:	2402aa55 	li	v0,-21931
69c0297c:	a46201fe 	sh	v0,510(v1)
69c02980:	8fc20078 	lw	v0,120(s8)
69c02984:	28420011 	slti	v0,v0,17
69c02988:	14400024 	bnez	v0,69c02a1c <fs_os_formatfat16+0x480>
69c0298c:	00000000 	nop
69c02990:	8fc400a8 	lw	a0,168(s8)
69c02994:	8fc50068 	lw	a1,104(s8)
69c02998:	24062000 	li	a2,8192
69c0299c:	0e7011b0 	jal	69c046c0 <sys_write>
69c029a0:	00000000 	nop
69c029a4:	afc20064 	sw	v0,100(s8)
69c029a8:	8fc30064 	lw	v1,100(s8)
69c029ac:	24022000 	li	v0,8192
69c029b0:	10620003 	beq	v1,v0,69c029c0 <fs_os_formatfat16+0x424>
69c029b4:	00000000 	nop
69c029b8:	10000176 	b	69c02f94 <fs_os_formatfat16+0x9f8>
69c029bc:	00000000 	nop
69c029c0:	8fc20078 	lw	v0,120(s8)
69c029c4:	2442fff0 	addiu	v0,v0,-16
69c029c8:	afc20060 	sw	v0,96(s8)
69c029cc:	8fc40068 	lw	a0,104(s8)
69c029d0:	00002821 	move	a1,zero
69c029d4:	24062000 	li	a2,8192
69c029d8:	0e7010ee 	jal	69c043b8 <memset>
69c029dc:	00000000 	nop
69c029e0:	8fc20060 	lw	v0,96(s8)
69c029e4:	00021240 	sll	v0,v0,0x9
69c029e8:	8fc400a8 	lw	a0,168(s8)
69c029ec:	8fc50068 	lw	a1,104(s8)
69c029f0:	00403021 	move	a2,v0
69c029f4:	0e7011b0 	jal	69c046c0 <sys_write>
69c029f8:	00000000 	nop
69c029fc:	afc20064 	sw	v0,100(s8)
69c02a00:	8fc20060 	lw	v0,96(s8)
69c02a04:	00021a40 	sll	v1,v0,0x9
69c02a08:	8fc20064 	lw	v0,100(s8)
69c02a0c:	10620012 	beq	v1,v0,69c02a58 <fs_os_formatfat16+0x4bc>
69c02a10:	00000000 	nop
69c02a14:	1000015f 	b	69c02f94 <fs_os_formatfat16+0x9f8>
69c02a18:	00000000 	nop
69c02a1c:	8fc20078 	lw	v0,120(s8)
69c02a20:	00021240 	sll	v0,v0,0x9
69c02a24:	8fc400a8 	lw	a0,168(s8)
69c02a28:	8fc50068 	lw	a1,104(s8)
69c02a2c:	00403021 	move	a2,v0
69c02a30:	0e7011b0 	jal	69c046c0 <sys_write>
69c02a34:	00000000 	nop
69c02a38:	afc20064 	sw	v0,100(s8)
69c02a3c:	8fc20078 	lw	v0,120(s8)
69c02a40:	00021a40 	sll	v1,v0,0x9
69c02a44:	8fc20064 	lw	v0,100(s8)
69c02a48:	10620003 	beq	v1,v0,69c02a58 <fs_os_formatfat16+0x4bc>
69c02a4c:	00000000 	nop
69c02a50:	10000150 	b	69c02f94 <fs_os_formatfat16+0x9f8>
69c02a54:	00000000 	nop
69c02a58:	8fc20078 	lw	v0,120(s8)
69c02a5c:	00022240 	sll	a0,v0,0x9
69c02a60:	00042fc3 	sra	a1,a0,0x1f
69c02a64:	00801021 	move	v0,a0
69c02a68:	00a01821 	move	v1,a1
69c02a6c:	afa00010 	sw	zero,16(sp)
69c02a70:	8fc400a8 	lw	a0,168(s8)
69c02a74:	00403021 	move	a2,v0
69c02a78:	00603821 	move	a3,v1
69c02a7c:	0e7011b3 	jal	69c046cc <sys_lseek>
69c02a80:	00000000 	nop
69c02a84:	afc20064 	sw	v0,100(s8)
69c02a88:	8fc40068 	lw	a0,104(s8)
69c02a8c:	00002821 	move	a1,zero
69c02a90:	24062000 	li	a2,8192
69c02a94:	0e7010ee 	jal	69c043b8 <memset>
69c02a98:	00000000 	nop
69c02a9c:	8fc30068 	lw	v1,104(s8)
69c02aa0:	2402fff8 	li	v0,-8
69c02aa4:	ac620000 	sw	v0,0(v1)
69c02aa8:	8fc20078 	lw	v0,120(s8)
69c02aac:	3042000f 	andi	v0,v0,0xf
69c02ab0:	1040001b 	beqz	v0,69c02b20 <fs_os_formatfat16+0x584>
69c02ab4:	00000000 	nop
69c02ab8:	8fc20078 	lw	v0,120(s8)
69c02abc:	3043000f 	andi	v1,v0,0xf
69c02ac0:	24020010 	li	v0,16
69c02ac4:	00431023 	subu	v0,v0,v1
69c02ac8:	afc20060 	sw	v0,96(s8)
69c02acc:	8fc20060 	lw	v0,96(s8)
69c02ad0:	00021240 	sll	v0,v0,0x9
69c02ad4:	8fc400a8 	lw	a0,168(s8)
69c02ad8:	8fc50068 	lw	a1,104(s8)
69c02adc:	00403021 	move	a2,v0
69c02ae0:	0e7011b0 	jal	69c046c0 <sys_write>
69c02ae4:	00000000 	nop
69c02ae8:	afc20064 	sw	v0,100(s8)
69c02aec:	8fc20060 	lw	v0,96(s8)
69c02af0:	00021a40 	sll	v1,v0,0x9
69c02af4:	8fc20064 	lw	v0,100(s8)
69c02af8:	10620003 	beq	v1,v0,69c02b08 <fs_os_formatfat16+0x56c>
69c02afc:	00000000 	nop
69c02b00:	10000124 	b	69c02f94 <fs_os_formatfat16+0x9f8>
69c02b04:	00000000 	nop
69c02b08:	8fc2005c 	lw	v0,92(s8)
69c02b0c:	8fc30060 	lw	v1,96(s8)
69c02b10:	00431023 	subu	v0,v0,v1
69c02b14:	afc20074 	sw	v0,116(s8)
69c02b18:	10000010 	b	69c02b5c <fs_os_formatfat16+0x5c0>
69c02b1c:	00000000 	nop
69c02b20:	8fc400a8 	lw	a0,168(s8)
69c02b24:	8fc50068 	lw	a1,104(s8)
69c02b28:	24062000 	li	a2,8192
69c02b2c:	0e7011b0 	jal	69c046c0 <sys_write>
69c02b30:	00000000 	nop
69c02b34:	afc20064 	sw	v0,100(s8)
69c02b38:	8fc30064 	lw	v1,100(s8)
69c02b3c:	24022000 	li	v0,8192
69c02b40:	10620003 	beq	v1,v0,69c02b50 <fs_os_formatfat16+0x5b4>
69c02b44:	00000000 	nop
69c02b48:	10000112 	b	69c02f94 <fs_os_formatfat16+0x9f8>
69c02b4c:	00000000 	nop
69c02b50:	8fc2005c 	lw	v0,92(s8)
69c02b54:	2442fff0 	addiu	v0,v0,-16
69c02b58:	afc20074 	sw	v0,116(s8)
69c02b5c:	8fc40068 	lw	a0,104(s8)
69c02b60:	00002821 	move	a1,zero
69c02b64:	24062000 	li	a2,8192
69c02b68:	0e7010ee 	jal	69c043b8 <memset>
69c02b6c:	00000000 	nop
69c02b70:	8fc20074 	lw	v0,116(s8)
69c02b74:	afc2008c 	sw	v0,140(s8)
69c02b78:	8fc2008c 	lw	v0,140(s8)
69c02b7c:	04410004 	bgez	v0,69c02b90 <fs_os_formatfat16+0x5f4>
69c02b80:	00000000 	nop
69c02b84:	8fc3008c 	lw	v1,140(s8)
69c02b88:	2463000f 	addiu	v1,v1,15
69c02b8c:	afc3008c 	sw	v1,140(s8)
69c02b90:	8fc3008c 	lw	v1,140(s8)
69c02b94:	00031103 	sra	v0,v1,0x4
69c02b98:	afc20070 	sw	v0,112(s8)
69c02b9c:	afc00060 	sw	zero,96(s8)
69c02ba0:	8fc20060 	lw	v0,96(s8)
69c02ba4:	8fc30070 	lw	v1,112(s8)
69c02ba8:	0043102a 	slt	v0,v0,v1
69c02bac:	10400012 	beqz	v0,69c02bf8 <fs_os_formatfat16+0x65c>
69c02bb0:	00000000 	nop
69c02bb4:	8fc400a8 	lw	a0,168(s8)
69c02bb8:	8fc50068 	lw	a1,104(s8)
69c02bbc:	24062000 	li	a2,8192
69c02bc0:	0e7011b0 	jal	69c046c0 <sys_write>
69c02bc4:	00000000 	nop
69c02bc8:	afc20064 	sw	v0,100(s8)
69c02bcc:	8fc30064 	lw	v1,100(s8)
69c02bd0:	24022000 	li	v0,8192
69c02bd4:	10620003 	beq	v1,v0,69c02be4 <fs_os_formatfat16+0x648>
69c02bd8:	00000000 	nop
69c02bdc:	100000ed 	b	69c02f94 <fs_os_formatfat16+0x9f8>
69c02be0:	00000000 	nop
69c02be4:	8fc20060 	lw	v0,96(s8)
69c02be8:	24420001 	addiu	v0,v0,1
69c02bec:	afc20060 	sw	v0,96(s8)
69c02bf0:	1000ffeb 	b	69c02ba0 <fs_os_formatfat16+0x604>
69c02bf4:	00000000 	nop
69c02bf8:	8fc40068 	lw	a0,104(s8)
69c02bfc:	00002821 	move	a1,zero
69c02c00:	24062000 	li	a2,8192
69c02c04:	0e7010ee 	jal	69c043b8 <memset>
69c02c08:	00000000 	nop
69c02c0c:	8fc20074 	lw	v0,116(s8)
69c02c10:	3042000f 	andi	v0,v0,0xf
69c02c14:	afc20060 	sw	v0,96(s8)
69c02c18:	8fc20060 	lw	v0,96(s8)
69c02c1c:	00021240 	sll	v0,v0,0x9
69c02c20:	8fc400a8 	lw	a0,168(s8)
69c02c24:	8fc50068 	lw	a1,104(s8)
69c02c28:	00403021 	move	a2,v0
69c02c2c:	0e7011b0 	jal	69c046c0 <sys_write>
69c02c30:	00000000 	nop
69c02c34:	afc20064 	sw	v0,100(s8)
69c02c38:	8fc20060 	lw	v0,96(s8)
69c02c3c:	00021a40 	sll	v1,v0,0x9
69c02c40:	8fc20064 	lw	v0,100(s8)
69c02c44:	10620003 	beq	v1,v0,69c02c54 <fs_os_formatfat16+0x6b8>
69c02c48:	00000000 	nop
69c02c4c:	100000d1 	b	69c02f94 <fs_os_formatfat16+0x9f8>
69c02c50:	00000000 	nop
69c02c54:	8fc30078 	lw	v1,120(s8)
69c02c58:	8fc2005c 	lw	v0,92(s8)
69c02c5c:	00621021 	addu	v0,v1,v0
69c02c60:	00022240 	sll	a0,v0,0x9
69c02c64:	00042fc3 	sra	a1,a0,0x1f
69c02c68:	00801021 	move	v0,a0
69c02c6c:	00a01821 	move	v1,a1
69c02c70:	afa00010 	sw	zero,16(sp)
69c02c74:	8fc400a8 	lw	a0,168(s8)
69c02c78:	00403021 	move	a2,v0
69c02c7c:	00603821 	move	a3,v1
69c02c80:	0e7011b3 	jal	69c046cc <sys_lseek>
69c02c84:	00000000 	nop
69c02c88:	afc20064 	sw	v0,100(s8)
69c02c8c:	8fc40068 	lw	a0,104(s8)
69c02c90:	00002821 	move	a1,zero
69c02c94:	24062000 	li	a2,8192
69c02c98:	0e7010ee 	jal	69c043b8 <memset>
69c02c9c:	00000000 	nop
69c02ca0:	8fc30068 	lw	v1,104(s8)
69c02ca4:	2402fff8 	li	v0,-8
69c02ca8:	ac620000 	sw	v0,0(v1)
69c02cac:	8fc30078 	lw	v1,120(s8)
69c02cb0:	8fc2005c 	lw	v0,92(s8)
69c02cb4:	00621021 	addu	v0,v1,v0
69c02cb8:	3042000f 	andi	v0,v0,0xf
69c02cbc:	1040001d 	beqz	v0,69c02d34 <fs_os_formatfat16+0x798>
69c02cc0:	00000000 	nop
69c02cc4:	8fc30078 	lw	v1,120(s8)
69c02cc8:	8fc2005c 	lw	v0,92(s8)
69c02ccc:	00621021 	addu	v0,v1,v0
69c02cd0:	3043000f 	andi	v1,v0,0xf
69c02cd4:	24020010 	li	v0,16
69c02cd8:	00431023 	subu	v0,v0,v1
69c02cdc:	afc20060 	sw	v0,96(s8)
69c02ce0:	8fc20060 	lw	v0,96(s8)
69c02ce4:	00021240 	sll	v0,v0,0x9
69c02ce8:	8fc400a8 	lw	a0,168(s8)
69c02cec:	8fc50068 	lw	a1,104(s8)
69c02cf0:	00403021 	move	a2,v0
69c02cf4:	0e7011b0 	jal	69c046c0 <sys_write>
69c02cf8:	00000000 	nop
69c02cfc:	afc20064 	sw	v0,100(s8)
69c02d00:	8fc20060 	lw	v0,96(s8)
69c02d04:	00021a40 	sll	v1,v0,0x9
69c02d08:	8fc20064 	lw	v0,100(s8)
69c02d0c:	10620003 	beq	v1,v0,69c02d1c <fs_os_formatfat16+0x780>
69c02d10:	00000000 	nop
69c02d14:	1000009f 	b	69c02f94 <fs_os_formatfat16+0x9f8>
69c02d18:	00000000 	nop
69c02d1c:	8fc2005c 	lw	v0,92(s8)
69c02d20:	8fc30060 	lw	v1,96(s8)
69c02d24:	00431023 	subu	v0,v0,v1
69c02d28:	afc20074 	sw	v0,116(s8)
69c02d2c:	10000010 	b	69c02d70 <fs_os_formatfat16+0x7d4>
69c02d30:	00000000 	nop
69c02d34:	8fc400a8 	lw	a0,168(s8)
69c02d38:	8fc50068 	lw	a1,104(s8)
69c02d3c:	24062000 	li	a2,8192
69c02d40:	0e7011b0 	jal	69c046c0 <sys_write>
69c02d44:	00000000 	nop
69c02d48:	afc20064 	sw	v0,100(s8)
69c02d4c:	8fc30064 	lw	v1,100(s8)
69c02d50:	24022000 	li	v0,8192
69c02d54:	10620003 	beq	v1,v0,69c02d64 <fs_os_formatfat16+0x7c8>
69c02d58:	00000000 	nop
69c02d5c:	1000008d 	b	69c02f94 <fs_os_formatfat16+0x9f8>
69c02d60:	00000000 	nop
69c02d64:	8fc2005c 	lw	v0,92(s8)
69c02d68:	2442fff0 	addiu	v0,v0,-16
69c02d6c:	afc20074 	sw	v0,116(s8)
69c02d70:	8fc40068 	lw	a0,104(s8)
69c02d74:	00002821 	move	a1,zero
69c02d78:	24062000 	li	a2,8192
69c02d7c:	0e7010ee 	jal	69c043b8 <memset>
69c02d80:	00000000 	nop
69c02d84:	8fc20074 	lw	v0,116(s8)
69c02d88:	afc20090 	sw	v0,144(s8)
69c02d8c:	8fc20090 	lw	v0,144(s8)
69c02d90:	04410004 	bgez	v0,69c02da4 <fs_os_formatfat16+0x808>
69c02d94:	00000000 	nop
69c02d98:	8fc30090 	lw	v1,144(s8)
69c02d9c:	2463000f 	addiu	v1,v1,15
69c02da0:	afc30090 	sw	v1,144(s8)
69c02da4:	8fc30090 	lw	v1,144(s8)
69c02da8:	00031103 	sra	v0,v1,0x4
69c02dac:	afc20070 	sw	v0,112(s8)
69c02db0:	afc00060 	sw	zero,96(s8)
69c02db4:	8fc20060 	lw	v0,96(s8)
69c02db8:	8fc30070 	lw	v1,112(s8)
69c02dbc:	0043102a 	slt	v0,v0,v1
69c02dc0:	10400012 	beqz	v0,69c02e0c <fs_os_formatfat16+0x870>
69c02dc4:	00000000 	nop
69c02dc8:	8fc400a8 	lw	a0,168(s8)
69c02dcc:	8fc50068 	lw	a1,104(s8)
69c02dd0:	24062000 	li	a2,8192
69c02dd4:	0e7011b0 	jal	69c046c0 <sys_write>
69c02dd8:	00000000 	nop
69c02ddc:	afc20064 	sw	v0,100(s8)
69c02de0:	8fc30064 	lw	v1,100(s8)
69c02de4:	24022000 	li	v0,8192
69c02de8:	10620003 	beq	v1,v0,69c02df8 <fs_os_formatfat16+0x85c>
69c02dec:	00000000 	nop
69c02df0:	10000068 	b	69c02f94 <fs_os_formatfat16+0x9f8>
69c02df4:	00000000 	nop
69c02df8:	8fc20060 	lw	v0,96(s8)
69c02dfc:	24420001 	addiu	v0,v0,1
69c02e00:	afc20060 	sw	v0,96(s8)
69c02e04:	1000ffeb 	b	69c02db4 <fs_os_formatfat16+0x818>
69c02e08:	00000000 	nop
69c02e0c:	8fc40068 	lw	a0,104(s8)
69c02e10:	00002821 	move	a1,zero
69c02e14:	24062000 	li	a2,8192
69c02e18:	0e7010ee 	jal	69c043b8 <memset>
69c02e1c:	00000000 	nop
69c02e20:	8fc20074 	lw	v0,116(s8)
69c02e24:	3042000f 	andi	v0,v0,0xf
69c02e28:	afc20060 	sw	v0,96(s8)
69c02e2c:	8fc20060 	lw	v0,96(s8)
69c02e30:	00021240 	sll	v0,v0,0x9
69c02e34:	8fc400a8 	lw	a0,168(s8)
69c02e38:	8fc50068 	lw	a1,104(s8)
69c02e3c:	00403021 	move	a2,v0
69c02e40:	0e7011b0 	jal	69c046c0 <sys_write>
69c02e44:	00000000 	nop
69c02e48:	afc20064 	sw	v0,100(s8)
69c02e4c:	8fc20060 	lw	v0,96(s8)
69c02e50:	00021a40 	sll	v1,v0,0x9
69c02e54:	8fc20064 	lw	v0,100(s8)
69c02e58:	10620003 	beq	v1,v0,69c02e68 <fs_os_formatfat16+0x8cc>
69c02e5c:	00000000 	nop
69c02e60:	1000004c 	b	69c02f94 <fs_os_formatfat16+0x9f8>
69c02e64:	00000000 	nop
69c02e68:	8fc30078 	lw	v1,120(s8)
69c02e6c:	8fc2005c 	lw	v0,92(s8)
69c02e70:	00621821 	addu	v1,v1,v0
69c02e74:	8fc2005c 	lw	v0,92(s8)
69c02e78:	00621021 	addu	v0,v1,v0
69c02e7c:	00022240 	sll	a0,v0,0x9
69c02e80:	00042fc3 	sra	a1,a0,0x1f
69c02e84:	00801021 	move	v0,a0
69c02e88:	00a01821 	move	v1,a1
69c02e8c:	afa00010 	sw	zero,16(sp)
69c02e90:	8fc400a8 	lw	a0,168(s8)
69c02e94:	00403021 	move	a2,v0
69c02e98:	00603821 	move	a3,v1
69c02e9c:	0e7011b3 	jal	69c046cc <sys_lseek>
69c02ea0:	00000000 	nop
69c02ea4:	afc20064 	sw	v0,100(s8)
69c02ea8:	8fc40068 	lw	a0,104(s8)
69c02eac:	00002821 	move	a1,zero
69c02eb0:	24062000 	li	a2,8192
69c02eb4:	0e7010ee 	jal	69c043b8 <memset>
69c02eb8:	00000000 	nop
69c02ebc:	8fc20058 	lw	v0,88(s8)
69c02ec0:	afc20094 	sw	v0,148(s8)
69c02ec4:	8fc20094 	lw	v0,148(s8)
69c02ec8:	04410004 	bgez	v0,69c02edc <fs_os_formatfat16+0x940>
69c02ecc:	00000000 	nop
69c02ed0:	8fc30094 	lw	v1,148(s8)
69c02ed4:	246301ff 	addiu	v1,v1,511
69c02ed8:	afc30094 	sw	v1,148(s8)
69c02edc:	8fc20094 	lw	v0,148(s8)
69c02ee0:	00021a43 	sra	v1,v0,0x9
69c02ee4:	24020020 	li	v0,32
69c02ee8:	0043001a 	div	zero,v0,v1
69c02eec:	006001f4 	teq	v1,zero,0x7
69c02ef0:	00001012 	mflo	v0
69c02ef4:	afc20060 	sw	v0,96(s8)
69c02ef8:	8fc20060 	lw	v0,96(s8)
69c02efc:	afc20098 	sw	v0,152(s8)
69c02f00:	8fc20098 	lw	v0,152(s8)
69c02f04:	04410004 	bgez	v0,69c02f18 <fs_os_formatfat16+0x97c>
69c02f08:	00000000 	nop
69c02f0c:	8fc30098 	lw	v1,152(s8)
69c02f10:	2463000f 	addiu	v1,v1,15
69c02f14:	afc30098 	sw	v1,152(s8)
69c02f18:	8fc30098 	lw	v1,152(s8)
69c02f1c:	00031103 	sra	v0,v1,0x4
69c02f20:	afc20060 	sw	v0,96(s8)
69c02f24:	8fc20060 	lw	v0,96(s8)
69c02f28:	18400012 	blez	v0,69c02f74 <fs_os_formatfat16+0x9d8>
69c02f2c:	00000000 	nop
69c02f30:	8fc400a8 	lw	a0,168(s8)
69c02f34:	8fc50068 	lw	a1,104(s8)
69c02f38:	24062000 	li	a2,8192
69c02f3c:	0e7011b0 	jal	69c046c0 <sys_write>
69c02f40:	00000000 	nop
69c02f44:	afc20064 	sw	v0,100(s8)
69c02f48:	8fc30064 	lw	v1,100(s8)
69c02f4c:	24022000 	li	v0,8192
69c02f50:	10620003 	beq	v1,v0,69c02f60 <fs_os_formatfat16+0x9c4>
69c02f54:	00000000 	nop
69c02f58:	1000000e 	b	69c02f94 <fs_os_formatfat16+0x9f8>
69c02f5c:	00000000 	nop
69c02f60:	8fc20060 	lw	v0,96(s8)
69c02f64:	2442ffff 	addiu	v0,v0,-1
69c02f68:	afc20060 	sw	v0,96(s8)
69c02f6c:	1000ffed 	b	69c02f24 <fs_os_formatfat16+0x988>
69c02f70:	00000000 	nop
69c02f74:	afc00064 	sw	zero,100(s8)
69c02f78:	8fc40068 	lw	a0,104(s8)
69c02f7c:	0e7011d1 	jal	69c04744 <kfree>
69c02f80:	00000000 	nop
69c02f84:	8fc20064 	lw	v0,100(s8)
69c02f88:	afc2007c 	sw	v0,124(s8)
69c02f8c:	10000006 	b	69c02fa8 <fs_os_formatfat16+0xa0c>
69c02f90:	00000000 	nop
69c02f94:	8fc40068 	lw	a0,104(s8)
69c02f98:	0e7011d1 	jal	69c04744 <kfree>
69c02f9c:	00000000 	nop
69c02fa0:	2402fffb 	li	v0,-5
69c02fa4:	afc2007c 	sw	v0,124(s8)
69c02fa8:	8fc2007c 	lw	v0,124(s8)
69c02fac:	03c0e821 	move	sp,s8
69c02fb0:	8fbf00a4 	lw	ra,164(sp)
69c02fb4:	8fbe00a0 	lw	s8,160(sp)
69c02fb8:	27bd00a8 	addiu	sp,sp,168
69c02fbc:	03e00008 	jr	ra
69c02fc0:	00000000 	nop

69c02fc4 <fs_os_formatfat32>:
69c02fc4:	27bdff50 	addiu	sp,sp,-176
69c02fc8:	afbf00ac 	sw	ra,172(sp)
69c02fcc:	afbe00a8 	sw	s8,168(sp)
69c02fd0:	03a0f021 	move	s8,sp
69c02fd4:	afc400b0 	sw	a0,176(s8)
69c02fd8:	8fc400b0 	lw	a0,176(s8)
69c02fdc:	27c50018 	addiu	a1,s8,24
69c02fe0:	0e7011b9 	jal	69c046e4 <sys_fstat>
69c02fe4:	00000000 	nop
69c02fe8:	afc20064 	sw	v0,100(s8)
69c02fec:	8fc20064 	lw	v0,100(s8)
69c02ff0:	04410003 	bgez	v0,69c03000 <fs_os_formatfat32+0x3c>
69c02ff4:	00000000 	nop
69c02ff8:	100002c8 	b	69c03b1c <fs_os_formatfat32+0xb58>
69c02ffc:	00000000 	nop
69c03000:	8fc2003c 	lw	v0,60(s8)
69c03004:	afc20054 	sw	v0,84(s8)
69c03008:	2402ffea 	li	v0,-22
69c0300c:	afc20064 	sw	v0,100(s8)
69c03010:	8fc20038 	lw	v0,56(s8)
69c03014:	afc2006c 	sw	v0,108(s8)
69c03018:	8fc3006c 	lw	v1,108(s8)
69c0301c:	24020200 	li	v0,512
69c03020:	1062000b 	beq	v1,v0,69c03050 <fs_os_formatfat32+0x8c>
69c03024:	00000000 	nop
69c03028:	8fc3006c 	lw	v1,108(s8)
69c0302c:	24020400 	li	v0,1024
69c03030:	10620007 	beq	v1,v0,69c03050 <fs_os_formatfat32+0x8c>
69c03034:	00000000 	nop
69c03038:	8fc3006c 	lw	v1,108(s8)
69c0303c:	24020800 	li	v0,2048
69c03040:	10620003 	beq	v1,v0,69c03050 <fs_os_formatfat32+0x8c>
69c03044:	00000000 	nop
69c03048:	100002b4 	b	69c03b1c <fs_os_formatfat32+0xb58>
69c0304c:	00000000 	nop
69c03050:	8fc20054 	lw	v0,84(s8)
69c03054:	3403ffff 	li	v1,0xffff
69c03058:	0062102a 	slt	v0,v1,v0
69c0305c:	14400003 	bnez	v0,69c0306c <fs_os_formatfat32+0xa8>
69c03060:	00000000 	nop
69c03064:	100002ad 	b	69c03b1c <fs_os_formatfat32+0xb58>
69c03068:	00000000 	nop
69c0306c:	8fc30054 	lw	v1,84(s8)
69c03070:	3c020001 	lui	v0,0x1
69c03074:	3442ffff 	ori	v0,v0,0xffff
69c03078:	0043102a 	slt	v0,v0,v1
69c0307c:	14400005 	bnez	v0,69c03094 <fs_os_formatfat32+0xd0>
69c03080:	00000000 	nop
69c03084:	24020001 	li	v0,1
69c03088:	afc20058 	sw	v0,88(s8)
69c0308c:	1000003b 	b	69c0317c <fs_os_formatfat32+0x1b8>
69c03090:	00000000 	nop
69c03094:	8fc30054 	lw	v1,84(s8)
69c03098:	3c020003 	lui	v0,0x3
69c0309c:	3442ffff 	ori	v0,v0,0xffff
69c030a0:	0043102a 	slt	v0,v0,v1
69c030a4:	14400005 	bnez	v0,69c030bc <fs_os_formatfat32+0xf8>
69c030a8:	00000000 	nop
69c030ac:	24020002 	li	v0,2
69c030b0:	afc20058 	sw	v0,88(s8)
69c030b4:	10000031 	b	69c0317c <fs_os_formatfat32+0x1b8>
69c030b8:	00000000 	nop
69c030bc:	8fc30054 	lw	v1,84(s8)
69c030c0:	3c020007 	lui	v0,0x7
69c030c4:	3442ffff 	ori	v0,v0,0xffff
69c030c8:	0043102a 	slt	v0,v0,v1
69c030cc:	14400005 	bnez	v0,69c030e4 <fs_os_formatfat32+0x120>
69c030d0:	00000000 	nop
69c030d4:	24020004 	li	v0,4
69c030d8:	afc20058 	sw	v0,88(s8)
69c030dc:	10000027 	b	69c0317c <fs_os_formatfat32+0x1b8>
69c030e0:	00000000 	nop
69c030e4:	8fc30054 	lw	v1,84(s8)
69c030e8:	3c02001f 	lui	v0,0x1f
69c030ec:	3442ffff 	ori	v0,v0,0xffff
69c030f0:	0043102a 	slt	v0,v0,v1
69c030f4:	14400005 	bnez	v0,69c0310c <fs_os_formatfat32+0x148>
69c030f8:	00000000 	nop
69c030fc:	24020008 	li	v0,8
69c03100:	afc20058 	sw	v0,88(s8)
69c03104:	1000001d 	b	69c0317c <fs_os_formatfat32+0x1b8>
69c03108:	00000000 	nop
69c0310c:	8fc30054 	lw	v1,84(s8)
69c03110:	3c02003f 	lui	v0,0x3f
69c03114:	3442ffff 	ori	v0,v0,0xffff
69c03118:	0043102a 	slt	v0,v0,v1
69c0311c:	14400005 	bnez	v0,69c03134 <fs_os_formatfat32+0x170>
69c03120:	00000000 	nop
69c03124:	24020010 	li	v0,16
69c03128:	afc20058 	sw	v0,88(s8)
69c0312c:	10000013 	b	69c0317c <fs_os_formatfat32+0x1b8>
69c03130:	00000000 	nop
69c03134:	8fc30054 	lw	v1,84(s8)
69c03138:	3c0203ff 	lui	v0,0x3ff
69c0313c:	3442ffff 	ori	v0,v0,0xffff
69c03140:	0043102a 	slt	v0,v0,v1
69c03144:	14400005 	bnez	v0,69c0315c <fs_os_formatfat32+0x198>
69c03148:	00000000 	nop
69c0314c:	24020020 	li	v0,32
69c03150:	afc20058 	sw	v0,88(s8)
69c03154:	10000009 	b	69c0317c <fs_os_formatfat32+0x1b8>
69c03158:	00000000 	nop
69c0315c:	8fc30054 	lw	v1,84(s8)
69c03160:	3c020fff 	lui	v0,0xfff
69c03164:	3442ffff 	ori	v0,v0,0xffff
69c03168:	0043102a 	slt	v0,v0,v1
69c0316c:	1440026b 	bnez	v0,69c03b1c <fs_os_formatfat32+0xb58>
69c03170:	00000000 	nop
69c03174:	24020040 	li	v0,64
69c03178:	afc20058 	sw	v0,88(s8)
69c0317c:	2402fff4 	li	v0,-12
69c03180:	afc20064 	sw	v0,100(s8)
69c03184:	24042000 	li	a0,8192
69c03188:	0e7011ce 	jal	69c04738 <kmalloc>
69c0318c:	00000000 	nop
69c03190:	afc20068 	sw	v0,104(s8)
69c03194:	8fc20068 	lw	v0,104(s8)
69c03198:	14400003 	bnez	v0,69c031a8 <fs_os_formatfat32+0x1e4>
69c0319c:	00000000 	nop
69c031a0:	1000025e 	b	69c03b1c <fs_os_formatfat32+0xb58>
69c031a4:	00000000 	nop
69c031a8:	8fc20058 	lw	v0,88(s8)
69c031ac:	00021080 	sll	v0,v0,0x2
69c031b0:	00021823 	negu	v1,v0
69c031b4:	8fc20054 	lw	v0,84(s8)
69c031b8:	00621021 	addu	v0,v1,v0
69c031bc:	2442ffc0 	addiu	v0,v0,-64
69c031c0:	afc2005c 	sw	v0,92(s8)
69c031c4:	8fc20058 	lw	v0,88(s8)
69c031c8:	000211c0 	sll	v0,v0,0x7
69c031cc:	24420002 	addiu	v0,v0,2
69c031d0:	afc20060 	sw	v0,96(s8)
69c031d4:	8fc3005c 	lw	v1,92(s8)
69c031d8:	8fc20060 	lw	v0,96(s8)
69c031dc:	0062001a 	div	zero,v1,v0
69c031e0:	004001f4 	teq	v0,zero,0x7
69c031e4:	00001010 	mfhi	v0
69c031e8:	afc20064 	sw	v0,100(s8)
69c031ec:	8fc3005c 	lw	v1,92(s8)
69c031f0:	8fc20060 	lw	v0,96(s8)
69c031f4:	0062001a 	div	zero,v1,v0
69c031f8:	004001f4 	teq	v0,zero,0x7
69c031fc:	00001012 	mflo	v0
69c03200:	afc2005c 	sw	v0,92(s8)
69c03204:	8fc20064 	lw	v0,100(s8)
69c03208:	10400004 	beqz	v0,69c0321c <fs_os_formatfat32+0x258>
69c0320c:	00000000 	nop
69c03210:	8fc2005c 	lw	v0,92(s8)
69c03214:	24420001 	addiu	v0,v0,1
69c03218:	afc2005c 	sw	v0,92(s8)
69c0321c:	8fc3005c 	lw	v1,92(s8)
69c03220:	8fc2005c 	lw	v0,92(s8)
69c03224:	00621021 	addu	v0,v1,v0
69c03228:	afc2007c 	sw	v0,124(s8)
69c0322c:	8fc2007c 	lw	v0,124(s8)
69c03230:	3042001f 	andi	v0,v0,0x1f
69c03234:	1040000d 	beqz	v0,69c0326c <fs_os_formatfat32+0x2a8>
69c03238:	00000000 	nop
69c0323c:	8fc2007c 	lw	v0,124(s8)
69c03240:	3043001f 	andi	v1,v0,0x1f
69c03244:	8fc20054 	lw	v0,84(s8)
69c03248:	00431023 	subu	v0,v0,v1
69c0324c:	afc20054 	sw	v0,84(s8)
69c03250:	8fc2007c 	lw	v0,124(s8)
69c03254:	3043001f 	andi	v1,v0,0x1f
69c03258:	24020040 	li	v0,64
69c0325c:	00431023 	subu	v0,v0,v1
69c03260:	afc2007c 	sw	v0,124(s8)
69c03264:	10000003 	b	69c03274 <fs_os_formatfat32+0x2b0>
69c03268:	00000000 	nop
69c0326c:	24020020 	li	v0,32
69c03270:	afc2007c 	sw	v0,124(s8)
69c03274:	8fc2006c 	lw	v0,108(s8)
69c03278:	afc20088 	sw	v0,136(s8)
69c0327c:	8fc20088 	lw	v0,136(s8)
69c03280:	04410004 	bgez	v0,69c03294 <fs_os_formatfat32+0x2d0>
69c03284:	00000000 	nop
69c03288:	8fc30088 	lw	v1,136(s8)
69c0328c:	246301ff 	addiu	v1,v1,511
69c03290:	afc30088 	sw	v1,136(s8)
69c03294:	8fc30088 	lw	v1,136(s8)
69c03298:	00031243 	sra	v0,v1,0x9
69c0329c:	afc20060 	sw	v0,96(s8)
69c032a0:	8fc3005c 	lw	v1,92(s8)
69c032a4:	8fc20060 	lw	v0,96(s8)
69c032a8:	0062001a 	div	zero,v1,v0
69c032ac:	004001f4 	teq	v0,zero,0x7
69c032b0:	00001010 	mfhi	v0
69c032b4:	afc20064 	sw	v0,100(s8)
69c032b8:	8fc3005c 	lw	v1,92(s8)
69c032bc:	8fc20060 	lw	v0,96(s8)
69c032c0:	0062001a 	div	zero,v1,v0
69c032c4:	004001f4 	teq	v0,zero,0x7
69c032c8:	00001012 	mflo	v0
69c032cc:	afc2005c 	sw	v0,92(s8)
69c032d0:	8fc20064 	lw	v0,100(s8)
69c032d4:	10400004 	beqz	v0,69c032e8 <fs_os_formatfat32+0x324>
69c032d8:	00000000 	nop
69c032dc:	8fc2005c 	lw	v0,92(s8)
69c032e0:	24420001 	addiu	v0,v0,1
69c032e4:	afc2005c 	sw	v0,92(s8)
69c032e8:	8fc40068 	lw	a0,104(s8)
69c032ec:	00002821 	move	a1,zero
69c032f0:	24062000 	li	a2,8192
69c032f4:	0e7010ee 	jal	69c043b8 <memset>
69c032f8:	00000000 	nop
69c032fc:	8fc30068 	lw	v1,104(s8)
69c03300:	3c020090 	lui	v0,0x90
69c03304:	344258eb 	ori	v0,v0,0x58eb
69c03308:	ac620000 	sw	v0,0(v1)
69c0330c:	8fc20068 	lw	v0,104(s8)
69c03310:	afc2008c 	sw	v0,140(s8)
69c03314:	8fc2006c 	lw	v0,108(s8)
69c03318:	afc20090 	sw	v0,144(s8)
69c0331c:	8fc30090 	lw	v1,144(s8)
69c03320:	04610004 	bgez	v1,69c03334 <fs_os_formatfat32+0x370>
69c03324:	00000000 	nop
69c03328:	8fc20090 	lw	v0,144(s8)
69c0332c:	244200ff 	addiu	v0,v0,255
69c03330:	afc20090 	sw	v0,144(s8)
69c03334:	8fc30090 	lw	v1,144(s8)
69c03338:	00031203 	sra	v0,v1,0x8
69c0333c:	8fc3008c 	lw	v1,140(s8)
69c03340:	a062000c 	sb	v0,12(v1)
69c03344:	8fc30068 	lw	v1,104(s8)
69c03348:	8fc20058 	lw	v0,88(s8)
69c0334c:	a062000d 	sb	v0,13(v1)
69c03350:	8fc30068 	lw	v1,104(s8)
69c03354:	8fc2007c 	lw	v0,124(s8)
69c03358:	a462000e 	sh	v0,14(v1)
69c0335c:	8fc30068 	lw	v1,104(s8)
69c03360:	24020002 	li	v0,2
69c03364:	a0620010 	sb	v0,16(v1)
69c03368:	8fc30068 	lw	v1,104(s8)
69c0336c:	2402fff8 	li	v0,-8
69c03370:	a0620015 	sb	v0,21(v1)
69c03374:	8fc30068 	lw	v1,104(s8)
69c03378:	8fc20054 	lw	v0,84(s8)
69c0337c:	ac620020 	sw	v0,32(v1)
69c03380:	8fc30068 	lw	v1,104(s8)
69c03384:	8fc2005c 	lw	v0,92(s8)
69c03388:	ac620024 	sw	v0,36(v1)
69c0338c:	8fc30068 	lw	v1,104(s8)
69c03390:	24020002 	li	v0,2
69c03394:	ac62002c 	sw	v0,44(v1)
69c03398:	8fc30068 	lw	v1,104(s8)
69c0339c:	24020029 	li	v0,41
69c033a0:	a0620042 	sb	v0,66(v1)
69c033a4:	8fc20068 	lw	v0,104(s8)
69c033a8:	24420052 	addiu	v0,v0,82
69c033ac:	00402021 	move	a0,v0
69c033b0:	3c0269c0 	lui	v0,0x69c0
69c033b4:	24454874 	addiu	a1,v0,18548
69c033b8:	24060008 	li	a2,8
69c033bc:	0e7010da 	jal	69c04368 <memcpy>
69c033c0:	00000000 	nop
69c033c4:	8fc30068 	lw	v1,104(s8)
69c033c8:	2402ffff 	li	v0,-1
69c033cc:	a46201be 	sh	v0,446(v1)
69c033d0:	8fc30068 	lw	v1,104(s8)
69c033d4:	2402aa55 	li	v0,-21931
69c033d8:	a46201fe 	sh	v0,510(v1)
69c033dc:	8fc2007c 	lw	v0,124(s8)
69c033e0:	28420011 	slti	v0,v0,17
69c033e4:	1440004a 	bnez	v0,69c03510 <fs_os_formatfat32+0x54c>
69c033e8:	00000000 	nop
69c033ec:	8fc400b0 	lw	a0,176(s8)
69c033f0:	8fc50068 	lw	a1,104(s8)
69c033f4:	24062000 	li	a2,8192
69c033f8:	0e7011b0 	jal	69c046c0 <sys_write>
69c033fc:	00000000 	nop
69c03400:	afc20064 	sw	v0,100(s8)
69c03404:	8fc30064 	lw	v1,100(s8)
69c03408:	24022000 	li	v0,8192
69c0340c:	10620003 	beq	v1,v0,69c0341c <fs_os_formatfat32+0x458>
69c03410:	00000000 	nop
69c03414:	100001c5 	b	69c03b2c <fs_os_formatfat32+0xb68>
69c03418:	00000000 	nop
69c0341c:	8fc2007c 	lw	v0,124(s8)
69c03420:	2442fff0 	addiu	v0,v0,-16
69c03424:	afc20060 	sw	v0,96(s8)
69c03428:	8fc40068 	lw	a0,104(s8)
69c0342c:	00002821 	move	a1,zero
69c03430:	24062000 	li	a2,8192
69c03434:	0e7010ee 	jal	69c043b8 <memset>
69c03438:	00000000 	nop
69c0343c:	8fc20060 	lw	v0,96(s8)
69c03440:	afc20094 	sw	v0,148(s8)
69c03444:	8fc20094 	lw	v0,148(s8)
69c03448:	04410004 	bgez	v0,69c0345c <fs_os_formatfat32+0x498>
69c0344c:	00000000 	nop
69c03450:	8fc30094 	lw	v1,148(s8)
69c03454:	2463000f 	addiu	v1,v1,15
69c03458:	afc30094 	sw	v1,148(s8)
69c0345c:	8fc30094 	lw	v1,148(s8)
69c03460:	00031103 	sra	v0,v1,0x4
69c03464:	afc20078 	sw	v0,120(s8)
69c03468:	afc00060 	sw	zero,96(s8)
69c0346c:	8fc20060 	lw	v0,96(s8)
69c03470:	8fc30078 	lw	v1,120(s8)
69c03474:	0043102a 	slt	v0,v0,v1
69c03478:	10400012 	beqz	v0,69c034c4 <fs_os_formatfat32+0x500>
69c0347c:	00000000 	nop
69c03480:	8fc400b0 	lw	a0,176(s8)
69c03484:	8fc50068 	lw	a1,104(s8)
69c03488:	24062000 	li	a2,8192
69c0348c:	0e7011b0 	jal	69c046c0 <sys_write>
69c03490:	00000000 	nop
69c03494:	afc20064 	sw	v0,100(s8)
69c03498:	8fc30064 	lw	v1,100(s8)
69c0349c:	24022000 	li	v0,8192
69c034a0:	10620003 	beq	v1,v0,69c034b0 <fs_os_formatfat32+0x4ec>
69c034a4:	00000000 	nop
69c034a8:	100001a0 	b	69c03b2c <fs_os_formatfat32+0xb68>
69c034ac:	00000000 	nop
69c034b0:	8fc20060 	lw	v0,96(s8)
69c034b4:	24420001 	addiu	v0,v0,1
69c034b8:	afc20060 	sw	v0,96(s8)
69c034bc:	1000ffeb 	b	69c0346c <fs_os_formatfat32+0x4a8>
69c034c0:	00000000 	nop
69c034c4:	8fc2007c 	lw	v0,124(s8)
69c034c8:	2442fff0 	addiu	v0,v0,-16
69c034cc:	3042000f 	andi	v0,v0,0xf
69c034d0:	afc20060 	sw	v0,96(s8)
69c034d4:	8fc20060 	lw	v0,96(s8)
69c034d8:	00021240 	sll	v0,v0,0x9
69c034dc:	8fc400b0 	lw	a0,176(s8)
69c034e0:	8fc50068 	lw	a1,104(s8)
69c034e4:	00403021 	move	a2,v0
69c034e8:	0e7011b0 	jal	69c046c0 <sys_write>
69c034ec:	00000000 	nop
69c034f0:	afc20064 	sw	v0,100(s8)
69c034f4:	8fc20060 	lw	v0,96(s8)
69c034f8:	00021a40 	sll	v1,v0,0x9
69c034fc:	8fc20064 	lw	v0,100(s8)
69c03500:	10620012 	beq	v1,v0,69c0354c <fs_os_formatfat32+0x588>
69c03504:	00000000 	nop
69c03508:	10000188 	b	69c03b2c <fs_os_formatfat32+0xb68>
69c0350c:	00000000 	nop
69c03510:	8fc2007c 	lw	v0,124(s8)
69c03514:	00021240 	sll	v0,v0,0x9
69c03518:	8fc400b0 	lw	a0,176(s8)
69c0351c:	8fc50068 	lw	a1,104(s8)
69c03520:	00403021 	move	a2,v0
69c03524:	0e7011b0 	jal	69c046c0 <sys_write>
69c03528:	00000000 	nop
69c0352c:	afc20064 	sw	v0,100(s8)
69c03530:	8fc2007c 	lw	v0,124(s8)
69c03534:	00021a40 	sll	v1,v0,0x9
69c03538:	8fc20064 	lw	v0,100(s8)
69c0353c:	10620003 	beq	v1,v0,69c0354c <fs_os_formatfat32+0x588>
69c03540:	00000000 	nop
69c03544:	10000179 	b	69c03b2c <fs_os_formatfat32+0xb68>
69c03548:	00000000 	nop
69c0354c:	8fc2007c 	lw	v0,124(s8)
69c03550:	00022240 	sll	a0,v0,0x9
69c03554:	00042fc3 	sra	a1,a0,0x1f
69c03558:	00801021 	move	v0,a0
69c0355c:	00a01821 	move	v1,a1
69c03560:	afa00010 	sw	zero,16(sp)
69c03564:	8fc400b0 	lw	a0,176(s8)
69c03568:	00403021 	move	a2,v0
69c0356c:	00603821 	move	a3,v1
69c03570:	0e7011b3 	jal	69c046cc <sys_lseek>
69c03574:	00000000 	nop
69c03578:	afc20064 	sw	v0,100(s8)
69c0357c:	8fc40068 	lw	a0,104(s8)
69c03580:	00002821 	move	a1,zero
69c03584:	24062000 	li	a2,8192
69c03588:	0e7010ee 	jal	69c043b8 <memset>
69c0358c:	00000000 	nop
69c03590:	8fc30068 	lw	v1,104(s8)
69c03594:	3c020fff 	lui	v0,0xfff
69c03598:	3442fff8 	ori	v0,v0,0xfff8
69c0359c:	ac620000 	sw	v0,0(v1)
69c035a0:	8fc30068 	lw	v1,104(s8)
69c035a4:	2402ffff 	li	v0,-1
69c035a8:	ac620004 	sw	v0,4(v1)
69c035ac:	8fc30068 	lw	v1,104(s8)
69c035b0:	3c020fff 	lui	v0,0xfff
69c035b4:	3442ffff 	ori	v0,v0,0xffff
69c035b8:	ac620008 	sw	v0,8(v1)
69c035bc:	8fc2007c 	lw	v0,124(s8)
69c035c0:	3042000f 	andi	v0,v0,0xf
69c035c4:	1040001b 	beqz	v0,69c03634 <fs_os_formatfat32+0x670>
69c035c8:	00000000 	nop
69c035cc:	8fc2007c 	lw	v0,124(s8)
69c035d0:	3043000f 	andi	v1,v0,0xf
69c035d4:	24020010 	li	v0,16
69c035d8:	00431023 	subu	v0,v0,v1
69c035dc:	afc20060 	sw	v0,96(s8)
69c035e0:	8fc20060 	lw	v0,96(s8)
69c035e4:	00021240 	sll	v0,v0,0x9
69c035e8:	8fc400b0 	lw	a0,176(s8)
69c035ec:	8fc50068 	lw	a1,104(s8)
69c035f0:	00403021 	move	a2,v0
69c035f4:	0e7011b0 	jal	69c046c0 <sys_write>
69c035f8:	00000000 	nop
69c035fc:	afc20064 	sw	v0,100(s8)
69c03600:	8fc20060 	lw	v0,96(s8)
69c03604:	00021a40 	sll	v1,v0,0x9
69c03608:	8fc20064 	lw	v0,100(s8)
69c0360c:	10620003 	beq	v1,v0,69c0361c <fs_os_formatfat32+0x658>
69c03610:	00000000 	nop
69c03614:	10000145 	b	69c03b2c <fs_os_formatfat32+0xb68>
69c03618:	00000000 	nop
69c0361c:	8fc2005c 	lw	v0,92(s8)
69c03620:	8fc30060 	lw	v1,96(s8)
69c03624:	00431023 	subu	v0,v0,v1
69c03628:	afc20070 	sw	v0,112(s8)
69c0362c:	10000010 	b	69c03670 <fs_os_formatfat32+0x6ac>
69c03630:	00000000 	nop
69c03634:	8fc400b0 	lw	a0,176(s8)
69c03638:	8fc50068 	lw	a1,104(s8)
69c0363c:	24062000 	li	a2,8192
69c03640:	0e7011b0 	jal	69c046c0 <sys_write>
69c03644:	00000000 	nop
69c03648:	afc20064 	sw	v0,100(s8)
69c0364c:	8fc30064 	lw	v1,100(s8)
69c03650:	24022000 	li	v0,8192
69c03654:	10620003 	beq	v1,v0,69c03664 <fs_os_formatfat32+0x6a0>
69c03658:	00000000 	nop
69c0365c:	10000133 	b	69c03b2c <fs_os_formatfat32+0xb68>
69c03660:	00000000 	nop
69c03664:	8fc2005c 	lw	v0,92(s8)
69c03668:	2442fff0 	addiu	v0,v0,-16
69c0366c:	afc20070 	sw	v0,112(s8)
69c03670:	8fc40068 	lw	a0,104(s8)
69c03674:	00002821 	move	a1,zero
69c03678:	24062000 	li	a2,8192
69c0367c:	0e7010ee 	jal	69c043b8 <memset>
69c03680:	00000000 	nop
69c03684:	8fc20070 	lw	v0,112(s8)
69c03688:	afc20098 	sw	v0,152(s8)
69c0368c:	8fc20098 	lw	v0,152(s8)
69c03690:	04410004 	bgez	v0,69c036a4 <fs_os_formatfat32+0x6e0>
69c03694:	00000000 	nop
69c03698:	8fc30098 	lw	v1,152(s8)
69c0369c:	2463000f 	addiu	v1,v1,15
69c036a0:	afc30098 	sw	v1,152(s8)
69c036a4:	8fc30098 	lw	v1,152(s8)
69c036a8:	00031103 	sra	v0,v1,0x4
69c036ac:	afc20078 	sw	v0,120(s8)
69c036b0:	afc00060 	sw	zero,96(s8)
69c036b4:	8fc20060 	lw	v0,96(s8)
69c036b8:	8fc30078 	lw	v1,120(s8)
69c036bc:	0043102a 	slt	v0,v0,v1
69c036c0:	10400012 	beqz	v0,69c0370c <fs_os_formatfat32+0x748>
69c036c4:	00000000 	nop
69c036c8:	8fc400b0 	lw	a0,176(s8)
69c036cc:	8fc50068 	lw	a1,104(s8)
69c036d0:	24062000 	li	a2,8192
69c036d4:	0e7011b0 	jal	69c046c0 <sys_write>
69c036d8:	00000000 	nop
69c036dc:	afc20064 	sw	v0,100(s8)
69c036e0:	8fc30064 	lw	v1,100(s8)
69c036e4:	24022000 	li	v0,8192
69c036e8:	10620003 	beq	v1,v0,69c036f8 <fs_os_formatfat32+0x734>
69c036ec:	00000000 	nop
69c036f0:	1000010e 	b	69c03b2c <fs_os_formatfat32+0xb68>
69c036f4:	00000000 	nop
69c036f8:	8fc20060 	lw	v0,96(s8)
69c036fc:	24420001 	addiu	v0,v0,1
69c03700:	afc20060 	sw	v0,96(s8)
69c03704:	1000ffeb 	b	69c036b4 <fs_os_formatfat32+0x6f0>
69c03708:	00000000 	nop
69c0370c:	8fc40068 	lw	a0,104(s8)
69c03710:	00002821 	move	a1,zero
69c03714:	24062000 	li	a2,8192
69c03718:	0e7010ee 	jal	69c043b8 <memset>
69c0371c:	00000000 	nop
69c03720:	8fc20070 	lw	v0,112(s8)
69c03724:	3042000f 	andi	v0,v0,0xf
69c03728:	afc20060 	sw	v0,96(s8)
69c0372c:	8fc20060 	lw	v0,96(s8)
69c03730:	00021240 	sll	v0,v0,0x9
69c03734:	8fc400b0 	lw	a0,176(s8)
69c03738:	8fc50068 	lw	a1,104(s8)
69c0373c:	00403021 	move	a2,v0
69c03740:	0e7011b0 	jal	69c046c0 <sys_write>
69c03744:	00000000 	nop
69c03748:	afc20064 	sw	v0,100(s8)
69c0374c:	8fc20060 	lw	v0,96(s8)
69c03750:	00021a40 	sll	v1,v0,0x9
69c03754:	8fc20064 	lw	v0,100(s8)
69c03758:	10620003 	beq	v1,v0,69c03768 <fs_os_formatfat32+0x7a4>
69c0375c:	00000000 	nop
69c03760:	100000f2 	b	69c03b2c <fs_os_formatfat32+0xb68>
69c03764:	00000000 	nop
69c03768:	8fc3007c 	lw	v1,124(s8)
69c0376c:	8fc2005c 	lw	v0,92(s8)
69c03770:	00621021 	addu	v0,v1,v0
69c03774:	00022240 	sll	a0,v0,0x9
69c03778:	00042fc3 	sra	a1,a0,0x1f
69c0377c:	00801021 	move	v0,a0
69c03780:	00a01821 	move	v1,a1
69c03784:	afa00010 	sw	zero,16(sp)
69c03788:	8fc400b0 	lw	a0,176(s8)
69c0378c:	00403021 	move	a2,v0
69c03790:	00603821 	move	a3,v1
69c03794:	0e7011b3 	jal	69c046cc <sys_lseek>
69c03798:	00000000 	nop
69c0379c:	afc20064 	sw	v0,100(s8)
69c037a0:	8fc40068 	lw	a0,104(s8)
69c037a4:	00002821 	move	a1,zero
69c037a8:	24062000 	li	a2,8192
69c037ac:	0e7010ee 	jal	69c043b8 <memset>
69c037b0:	00000000 	nop
69c037b4:	8fc30068 	lw	v1,104(s8)
69c037b8:	3c020fff 	lui	v0,0xfff
69c037bc:	3442fff8 	ori	v0,v0,0xfff8
69c037c0:	ac620000 	sw	v0,0(v1)
69c037c4:	8fc30068 	lw	v1,104(s8)
69c037c8:	2402ffff 	li	v0,-1
69c037cc:	ac620004 	sw	v0,4(v1)
69c037d0:	8fc30068 	lw	v1,104(s8)
69c037d4:	3c020fff 	lui	v0,0xfff
69c037d8:	3442ffff 	ori	v0,v0,0xffff
69c037dc:	ac620008 	sw	v0,8(v1)
69c037e0:	8fc3007c 	lw	v1,124(s8)
69c037e4:	8fc2005c 	lw	v0,92(s8)
69c037e8:	00621021 	addu	v0,v1,v0
69c037ec:	3042000f 	andi	v0,v0,0xf
69c037f0:	1040001d 	beqz	v0,69c03868 <fs_os_formatfat32+0x8a4>
69c037f4:	00000000 	nop
69c037f8:	8fc3007c 	lw	v1,124(s8)
69c037fc:	8fc2005c 	lw	v0,92(s8)
69c03800:	00621021 	addu	v0,v1,v0
69c03804:	3043000f 	andi	v1,v0,0xf
69c03808:	24020010 	li	v0,16
69c0380c:	00431023 	subu	v0,v0,v1
69c03810:	afc20060 	sw	v0,96(s8)
69c03814:	8fc20060 	lw	v0,96(s8)
69c03818:	00021240 	sll	v0,v0,0x9
69c0381c:	8fc400b0 	lw	a0,176(s8)
69c03820:	8fc50068 	lw	a1,104(s8)
69c03824:	00403021 	move	a2,v0
69c03828:	0e7011b0 	jal	69c046c0 <sys_write>
69c0382c:	00000000 	nop
69c03830:	afc20064 	sw	v0,100(s8)
69c03834:	8fc20060 	lw	v0,96(s8)
69c03838:	00021a40 	sll	v1,v0,0x9
69c0383c:	8fc20064 	lw	v0,100(s8)
69c03840:	10620003 	beq	v1,v0,69c03850 <fs_os_formatfat32+0x88c>
69c03844:	00000000 	nop
69c03848:	100000b8 	b	69c03b2c <fs_os_formatfat32+0xb68>
69c0384c:	00000000 	nop
69c03850:	8fc2005c 	lw	v0,92(s8)
69c03854:	8fc30060 	lw	v1,96(s8)
69c03858:	00431023 	subu	v0,v0,v1
69c0385c:	afc20070 	sw	v0,112(s8)
69c03860:	10000010 	b	69c038a4 <fs_os_formatfat32+0x8e0>
69c03864:	00000000 	nop
69c03868:	8fc400b0 	lw	a0,176(s8)
69c0386c:	8fc50068 	lw	a1,104(s8)
69c03870:	24062000 	li	a2,8192
69c03874:	0e7011b0 	jal	69c046c0 <sys_write>
69c03878:	00000000 	nop
69c0387c:	afc20064 	sw	v0,100(s8)
69c03880:	8fc30064 	lw	v1,100(s8)
69c03884:	24022000 	li	v0,8192
69c03888:	10620003 	beq	v1,v0,69c03898 <fs_os_formatfat32+0x8d4>
69c0388c:	00000000 	nop
69c03890:	100000a6 	b	69c03b2c <fs_os_formatfat32+0xb68>
69c03894:	00000000 	nop
69c03898:	8fc2005c 	lw	v0,92(s8)
69c0389c:	2442fff0 	addiu	v0,v0,-16
69c038a0:	afc20070 	sw	v0,112(s8)
69c038a4:	8fc40068 	lw	a0,104(s8)
69c038a8:	00002821 	move	a1,zero
69c038ac:	24062000 	li	a2,8192
69c038b0:	0e7010ee 	jal	69c043b8 <memset>
69c038b4:	00000000 	nop
69c038b8:	8fc20070 	lw	v0,112(s8)
69c038bc:	afc2009c 	sw	v0,156(s8)
69c038c0:	8fc2009c 	lw	v0,156(s8)
69c038c4:	04410004 	bgez	v0,69c038d8 <fs_os_formatfat32+0x914>
69c038c8:	00000000 	nop
69c038cc:	8fc3009c 	lw	v1,156(s8)
69c038d0:	2463000f 	addiu	v1,v1,15
69c038d4:	afc3009c 	sw	v1,156(s8)
69c038d8:	8fc3009c 	lw	v1,156(s8)
69c038dc:	00031103 	sra	v0,v1,0x4
69c038e0:	afc20078 	sw	v0,120(s8)
69c038e4:	afc00060 	sw	zero,96(s8)
69c038e8:	8fc20060 	lw	v0,96(s8)
69c038ec:	8fc30078 	lw	v1,120(s8)
69c038f0:	0043102a 	slt	v0,v0,v1
69c038f4:	10400012 	beqz	v0,69c03940 <fs_os_formatfat32+0x97c>
69c038f8:	00000000 	nop
69c038fc:	8fc400b0 	lw	a0,176(s8)
69c03900:	8fc50068 	lw	a1,104(s8)
69c03904:	24062000 	li	a2,8192
69c03908:	0e7011b0 	jal	69c046c0 <sys_write>
69c0390c:	00000000 	nop
69c03910:	afc20064 	sw	v0,100(s8)
69c03914:	8fc30064 	lw	v1,100(s8)
69c03918:	24022000 	li	v0,8192
69c0391c:	10620003 	beq	v1,v0,69c0392c <fs_os_formatfat32+0x968>
69c03920:	00000000 	nop
69c03924:	10000081 	b	69c03b2c <fs_os_formatfat32+0xb68>
69c03928:	00000000 	nop
69c0392c:	8fc20060 	lw	v0,96(s8)
69c03930:	24420001 	addiu	v0,v0,1
69c03934:	afc20060 	sw	v0,96(s8)
69c03938:	1000ffeb 	b	69c038e8 <fs_os_formatfat32+0x924>
69c0393c:	00000000 	nop
69c03940:	8fc40068 	lw	a0,104(s8)
69c03944:	00002821 	move	a1,zero
69c03948:	24062000 	li	a2,8192
69c0394c:	0e7010ee 	jal	69c043b8 <memset>
69c03950:	00000000 	nop
69c03954:	8fc20070 	lw	v0,112(s8)
69c03958:	3042000f 	andi	v0,v0,0xf
69c0395c:	afc20060 	sw	v0,96(s8)
69c03960:	8fc20060 	lw	v0,96(s8)
69c03964:	00021240 	sll	v0,v0,0x9
69c03968:	8fc400b0 	lw	a0,176(s8)
69c0396c:	8fc50068 	lw	a1,104(s8)
69c03970:	00403021 	move	a2,v0
69c03974:	0e7011b0 	jal	69c046c0 <sys_write>
69c03978:	00000000 	nop
69c0397c:	afc20064 	sw	v0,100(s8)
69c03980:	8fc20060 	lw	v0,96(s8)
69c03984:	00021a40 	sll	v1,v0,0x9
69c03988:	8fc20064 	lw	v0,100(s8)
69c0398c:	10620003 	beq	v1,v0,69c0399c <fs_os_formatfat32+0x9d8>
69c03990:	00000000 	nop
69c03994:	10000065 	b	69c03b2c <fs_os_formatfat32+0xb68>
69c03998:	00000000 	nop
69c0399c:	8fc40068 	lw	a0,104(s8)
69c039a0:	00002821 	move	a1,zero
69c039a4:	24062000 	li	a2,8192
69c039a8:	0e7010ee 	jal	69c043b8 <memset>
69c039ac:	00000000 	nop
69c039b0:	8fc3007c 	lw	v1,124(s8)
69c039b4:	8fc2005c 	lw	v0,92(s8)
69c039b8:	00621821 	addu	v1,v1,v0
69c039bc:	8fc2005c 	lw	v0,92(s8)
69c039c0:	00621021 	addu	v0,v1,v0
69c039c4:	00022240 	sll	a0,v0,0x9
69c039c8:	00042fc3 	sra	a1,a0,0x1f
69c039cc:	00801021 	move	v0,a0
69c039d0:	00a01821 	move	v1,a1
69c039d4:	afa00010 	sw	zero,16(sp)
69c039d8:	8fc400b0 	lw	a0,176(s8)
69c039dc:	00403021 	move	a2,v0
69c039e0:	00603821 	move	a3,v1
69c039e4:	0e7011b3 	jal	69c046cc <sys_lseek>
69c039e8:	00000000 	nop
69c039ec:	afc20064 	sw	v0,100(s8)
69c039f0:	8fc20058 	lw	v0,88(s8)
69c039f4:	00021a40 	sll	v1,v0,0x9
69c039f8:	8fc2006c 	lw	v0,108(s8)
69c039fc:	0062001a 	div	zero,v1,v0
69c03a00:	004001f4 	teq	v0,zero,0x7
69c03a04:	00001012 	mflo	v0
69c03a08:	afc20080 	sw	v0,128(s8)
69c03a0c:	8fc20080 	lw	v0,128(s8)
69c03a10:	28420011 	slti	v0,v0,17
69c03a14:	1440002e 	bnez	v0,69c03ad0 <fs_os_formatfat32+0xb0c>
69c03a18:	00000000 	nop
69c03a1c:	8fc20080 	lw	v0,128(s8)
69c03a20:	afc200a0 	sw	v0,160(s8)
69c03a24:	8fc200a0 	lw	v0,160(s8)
69c03a28:	04410004 	bgez	v0,69c03a3c <fs_os_formatfat32+0xa78>
69c03a2c:	00000000 	nop
69c03a30:	8fc300a0 	lw	v1,160(s8)
69c03a34:	2463000f 	addiu	v1,v1,15
69c03a38:	afc300a0 	sw	v1,160(s8)
69c03a3c:	8fc300a0 	lw	v1,160(s8)
69c03a40:	00031103 	sra	v0,v1,0x4
69c03a44:	afc20078 	sw	v0,120(s8)
69c03a48:	8fc20080 	lw	v0,128(s8)
69c03a4c:	3042000f 	andi	v0,v0,0xf
69c03a50:	10400008 	beqz	v0,69c03a74 <fs_os_formatfat32+0xab0>
69c03a54:	00000000 	nop
69c03a58:	3c0269c0 	lui	v0,0x69c0
69c03a5c:	24444880 	addiu	a0,v0,18560
69c03a60:	3c0269c0 	lui	v0,0x69c0
69c03a64:	244548a8 	addiu	a1,v0,18600
69c03a68:	2406053b 	li	a2,1339
69c03a6c:	0e70119e 	jal	69c04678 <printf>
69c03a70:	00000000 	nop
69c03a74:	afc00060 	sw	zero,96(s8)
69c03a78:	8fc20060 	lw	v0,96(s8)
69c03a7c:	8fc30078 	lw	v1,120(s8)
69c03a80:	0043102a 	slt	v0,v0,v1
69c03a84:	10400021 	beqz	v0,69c03b0c <fs_os_formatfat32+0xb48>
69c03a88:	00000000 	nop
69c03a8c:	8fc400b0 	lw	a0,176(s8)
69c03a90:	8fc50068 	lw	a1,104(s8)
69c03a94:	24062000 	li	a2,8192
69c03a98:	0e7011b0 	jal	69c046c0 <sys_write>
69c03a9c:	00000000 	nop
69c03aa0:	afc20064 	sw	v0,100(s8)
69c03aa4:	8fc30064 	lw	v1,100(s8)
69c03aa8:	24022000 	li	v0,8192
69c03aac:	10620003 	beq	v1,v0,69c03abc <fs_os_formatfat32+0xaf8>
69c03ab0:	00000000 	nop
69c03ab4:	1000001d 	b	69c03b2c <fs_os_formatfat32+0xb68>
69c03ab8:	00000000 	nop
69c03abc:	8fc20060 	lw	v0,96(s8)
69c03ac0:	24420001 	addiu	v0,v0,1
69c03ac4:	afc20060 	sw	v0,96(s8)
69c03ac8:	1000ffeb 	b	69c03a78 <fs_os_formatfat32+0xab4>
69c03acc:	00000000 	nop
69c03ad0:	8fc20080 	lw	v0,128(s8)
69c03ad4:	00021240 	sll	v0,v0,0x9
69c03ad8:	8fc400b0 	lw	a0,176(s8)
69c03adc:	8fc50068 	lw	a1,104(s8)
69c03ae0:	00403021 	move	a2,v0
69c03ae4:	0e7011b0 	jal	69c046c0 <sys_write>
69c03ae8:	00000000 	nop
69c03aec:	afc20064 	sw	v0,100(s8)
69c03af0:	8fc20080 	lw	v0,128(s8)
69c03af4:	00021a40 	sll	v1,v0,0x9
69c03af8:	8fc20064 	lw	v0,100(s8)
69c03afc:	10620003 	beq	v1,v0,69c03b0c <fs_os_formatfat32+0xb48>
69c03b00:	00000000 	nop
69c03b04:	10000009 	b	69c03b2c <fs_os_formatfat32+0xb68>
69c03b08:	00000000 	nop
69c03b0c:	afc00064 	sw	zero,100(s8)
69c03b10:	8fc40068 	lw	a0,104(s8)
69c03b14:	0e7011d1 	jal	69c04744 <kfree>
69c03b18:	00000000 	nop
69c03b1c:	8fc20064 	lw	v0,100(s8)
69c03b20:	afc20084 	sw	v0,132(s8)
69c03b24:	10000006 	b	69c03b40 <fs_os_formatfat32+0xb7c>
69c03b28:	00000000 	nop
69c03b2c:	8fc40068 	lw	a0,104(s8)
69c03b30:	0e7011d1 	jal	69c04744 <kfree>
69c03b34:	00000000 	nop
69c03b38:	2402fffb 	li	v0,-5
69c03b3c:	afc20084 	sw	v0,132(s8)
69c03b40:	8fc20084 	lw	v0,132(s8)
69c03b44:	03c0e821 	move	sp,s8
69c03b48:	8fbf00ac 	lw	ra,172(sp)
69c03b4c:	8fbe00a8 	lw	s8,168(sp)
69c03b50:	27bd00b0 	addiu	sp,sp,176
69c03b54:	03e00008 	jr	ra
69c03b58:	00000000 	nop

69c03b5c <format>:
69c03b5c:	27bdffd8 	addiu	sp,sp,-40
69c03b60:	afbf0024 	sw	ra,36(sp)
69c03b64:	afbe0020 	sw	s8,32(sp)
69c03b68:	03a0f021 	move	s8,sp
69c03b6c:	afc40028 	sw	a0,40(s8)
69c03b70:	afc5002c 	sw	a1,44(s8)
69c03b74:	afc00010 	sw	zero,16(s8)
69c03b78:	8fc40028 	lw	a0,40(s8)
69c03b7c:	24050002 	li	a1,2
69c03b80:	00003021 	move	a2,zero
69c03b84:	0e7011a7 	jal	69c0469c <sys_open>
69c03b88:	00000000 	nop
69c03b8c:	afc20014 	sw	v0,20(s8)
69c03b90:	8fc20014 	lw	v0,20(s8)
69c03b94:	04410005 	bgez	v0,69c03bac <format+0x50>
69c03b98:	00000000 	nop
69c03b9c:	8fc20014 	lw	v0,20(s8)
69c03ba0:	afc20018 	sw	v0,24(s8)
69c03ba4:	10000048 	b	69c03cc8 <format+0x16c>
69c03ba8:	00000000 	nop
69c03bac:	8fc4002c 	lw	a0,44(s8)
69c03bb0:	3c0269c0 	lui	v0,0x69c0
69c03bb4:	244548b4 	addiu	a1,v0,18612
69c03bb8:	0e7010ff 	jal	69c043fc <strcasecmp>
69c03bbc:	00000000 	nop
69c03bc0:	14400012 	bnez	v0,69c03c0c <format+0xb0>
69c03bc4:	00000000 	nop
69c03bc8:	8fc40014 	lw	a0,20(s8)
69c03bcc:	0e700bf1 	jal	69c02fc4 <fs_os_formatfat32>
69c03bd0:	00000000 	nop
69c03bd4:	afc20010 	sw	v0,16(s8)
69c03bd8:	8fc20010 	lw	v0,16(s8)
69c03bdc:	10400032 	beqz	v0,69c03ca8 <format+0x14c>
69c03be0:	00000000 	nop
69c03be4:	0e701099 	jal	69c04264 <__errno>
69c03be8:	00000000 	nop
69c03bec:	00401821 	move	v1,v0
69c03bf0:	8fc20010 	lw	v0,16(s8)
69c03bf4:	00021023 	negu	v0,v0
69c03bf8:	ac620000 	sw	v0,0(v1)
69c03bfc:	2402ffff 	li	v0,-1
69c03c00:	afc20010 	sw	v0,16(s8)
69c03c04:	10000028 	b	69c03ca8 <format+0x14c>
69c03c08:	00000000 	nop
69c03c0c:	8fc4002c 	lw	a0,44(s8)
69c03c10:	3c0269c0 	lui	v0,0x69c0
69c03c14:	244548bc 	addiu	a1,v0,18620
69c03c18:	0e7010ff 	jal	69c043fc <strcasecmp>
69c03c1c:	00000000 	nop
69c03c20:	14400012 	bnez	v0,69c03c6c <format+0x110>
69c03c24:	00000000 	nop
69c03c28:	8fc40014 	lw	a0,20(s8)
69c03c2c:	0e700967 	jal	69c0259c <fs_os_formatfat16>
69c03c30:	00000000 	nop
69c03c34:	afc20010 	sw	v0,16(s8)
69c03c38:	8fc20010 	lw	v0,16(s8)
69c03c3c:	1040001a 	beqz	v0,69c03ca8 <format+0x14c>
69c03c40:	00000000 	nop
69c03c44:	0e701099 	jal	69c04264 <__errno>
69c03c48:	00000000 	nop
69c03c4c:	00401821 	move	v1,v0
69c03c50:	8fc20010 	lw	v0,16(s8)
69c03c54:	00021023 	negu	v0,v0
69c03c58:	ac620000 	sw	v0,0(v1)
69c03c5c:	2402ffff 	li	v0,-1
69c03c60:	afc20010 	sw	v0,16(s8)
69c03c64:	10000010 	b	69c03ca8 <format+0x14c>
69c03c68:	00000000 	nop
69c03c6c:	8fc4002c 	lw	a0,44(s8)
69c03c70:	3c0269c0 	lui	v0,0x69c0
69c03c74:	244548c4 	addiu	a1,v0,18628
69c03c78:	0e7010ff 	jal	69c043fc <strcasecmp>
69c03c7c:	00000000 	nop
69c03c80:	14400007 	bnez	v0,69c03ca0 <format+0x144>
69c03c84:	00000000 	nop
69c03c88:	8fc40014 	lw	a0,20(s8)
69c03c8c:	0e700691 	jal	69c01a44 <exfat_format>
69c03c90:	00000000 	nop
69c03c94:	afc20010 	sw	v0,16(s8)
69c03c98:	10000003 	b	69c03ca8 <format+0x14c>
69c03c9c:	00000000 	nop
69c03ca0:	2402ffff 	li	v0,-1
69c03ca4:	afc20010 	sw	v0,16(s8)
69c03ca8:	8fc40014 	lw	a0,20(s8)
69c03cac:	0e7011bc 	jal	69c046f0 <sys_fsync>
69c03cb0:	00000000 	nop
69c03cb4:	8fc40014 	lw	a0,20(s8)
69c03cb8:	0e7011aa 	jal	69c046a8 <sys_close>
69c03cbc:	00000000 	nop
69c03cc0:	8fc20010 	lw	v0,16(s8)
69c03cc4:	afc20018 	sw	v0,24(s8)
69c03cc8:	8fc20018 	lw	v0,24(s8)
69c03ccc:	03c0e821 	move	sp,s8
69c03cd0:	8fbf0024 	lw	ra,36(sp)
69c03cd4:	8fbe0020 	lw	s8,32(sp)
69c03cd8:	27bd0028 	addiu	sp,sp,40
69c03cdc:	03e00008 	jr	ra
69c03ce0:	00000000 	nop

69c03ce4 <is_block_dev_format>:
69c03ce4:	27bdfdd8 	addiu	sp,sp,-552
69c03ce8:	afbf0224 	sw	ra,548(sp)
69c03cec:	afbe0220 	sw	s8,544(sp)
69c03cf0:	03a0f021 	move	s8,sp
69c03cf4:	afc40228 	sw	a0,552(s8)
69c03cf8:	8fc40228 	lw	a0,552(s8)
69c03cfc:	00002821 	move	a1,zero
69c03d00:	00003021 	move	a2,zero
69c03d04:	0e7011a7 	jal	69c0469c <sys_open>
69c03d08:	00000000 	nop
69c03d0c:	afc20210 	sw	v0,528(s8)
69c03d10:	8fc20210 	lw	v0,528(s8)
69c03d14:	1c400008 	bgtz	v0,69c03d38 <is_block_dev_format+0x54>
69c03d18:	00000000 	nop
69c03d1c:	3c0269c0 	lui	v0,0x69c0
69c03d20:	24444880 	addiu	a0,v0,18560
69c03d24:	3c0269c0 	lui	v0,0x69c0
69c03d28:	244548a8 	addiu	a1,v0,18600
69c03d2c:	24060598 	li	a2,1432
69c03d30:	0e70119e 	jal	69c04678 <printf>
69c03d34:	00000000 	nop
69c03d38:	8fc40210 	lw	a0,528(s8)
69c03d3c:	27c50010 	addiu	a1,s8,16
69c03d40:	24060200 	li	a2,512
69c03d44:	0e7011ad 	jal	69c046b4 <sys_read>
69c03d48:	00000000 	nop
69c03d4c:	afc20214 	sw	v0,532(s8)
69c03d50:	8fc30214 	lw	v1,532(s8)
69c03d54:	24020200 	li	v0,512
69c03d58:	10620008 	beq	v1,v0,69c03d7c <is_block_dev_format+0x98>
69c03d5c:	00000000 	nop
69c03d60:	3c0269c0 	lui	v0,0x69c0
69c03d64:	24444880 	addiu	a0,v0,18560
69c03d68:	3c0269c0 	lui	v0,0x69c0
69c03d6c:	244548a8 	addiu	a1,v0,18600
69c03d70:	2406059b 	li	a2,1435
69c03d74:	0e70119e 	jal	69c04678 <printf>
69c03d78:	00000000 	nop
69c03d7c:	8fc40210 	lw	a0,528(s8)
69c03d80:	0e7011aa 	jal	69c046a8 <sys_close>
69c03d84:	00000000 	nop
69c03d88:	93c3020e 	lbu	v1,526(s8)
69c03d8c:	24020055 	li	v0,85
69c03d90:	14620009 	bne	v1,v0,69c03db8 <is_block_dev_format+0xd4>
69c03d94:	00000000 	nop
69c03d98:	93c3020f 	lbu	v1,527(s8)
69c03d9c:	240200aa 	li	v0,170
69c03da0:	14620005 	bne	v1,v0,69c03db8 <is_block_dev_format+0xd4>
69c03da4:	00000000 	nop
69c03da8:	24020001 	li	v0,1
69c03dac:	afc20218 	sw	v0,536(s8)
69c03db0:	10000002 	b	69c03dbc <is_block_dev_format+0xd8>
69c03db4:	00000000 	nop
69c03db8:	afc00218 	sw	zero,536(s8)
69c03dbc:	8fc20218 	lw	v0,536(s8)
69c03dc0:	03c0e821 	move	sp,s8
69c03dc4:	8fbf0224 	lw	ra,548(sp)
69c03dc8:	8fbe0220 	lw	s8,544(sp)
69c03dcc:	27bd0228 	addiu	sp,sp,552
69c03dd0:	03e00008 	jr	ra
69c03dd4:	00000000 	nop

69c03dd8 <__do_global_dtors_aux>:
69c03dd8:	27bdffe0 	addiu	sp,sp,-32
69c03ddc:	afbf001c 	sw	ra,28(sp)
69c03de0:	afbe0018 	sw	s8,24(sp)
69c03de4:	03a0f021 	move	s8,sp
69c03de8:	3c0269c0 	lui	v0,0x69c0
69c03dec:	2442600c 	addiu	v0,v0,24588
69c03df0:	afc20010 	sw	v0,16(s8)
69c03df4:	8fc20010 	lw	v0,16(s8)
69c03df8:	8c420000 	lw	v0,0(v0)
69c03dfc:	1040000a 	beqz	v0,69c03e28 <__do_global_dtors_aux+0x50>
69c03e00:	00000000 	nop
69c03e04:	8fc20010 	lw	v0,16(s8)
69c03e08:	8c420000 	lw	v0,0(v0)
69c03e0c:	0040f809 	jalr	v0
69c03e10:	00000000 	nop
69c03e14:	8fc20010 	lw	v0,16(s8)
69c03e18:	24420004 	addiu	v0,v0,4
69c03e1c:	afc20010 	sw	v0,16(s8)
69c03e20:	1000fff4 	b	69c03df4 <__do_global_dtors_aux+0x1c>
69c03e24:	00000000 	nop
69c03e28:	03c0e821 	move	sp,s8
69c03e2c:	8fbf001c 	lw	ra,28(sp)
69c03e30:	8fbe0018 	lw	s8,24(sp)
69c03e34:	27bd0020 	addiu	sp,sp,32
69c03e38:	03e00008 	jr	ra
69c03e3c:	00000000 	nop

69c03e40 <exec_release>:
69c03e40:	03e00008 	jr	ra
69c03e44:	00001021 	move	v0,zero

69c03e48 <dumpargv>:
69c03e48:	10800007 	beqz	a0,69c03e68 <dumpargv+0x20>
69c03e4c:	00001821 	move	v1,zero
69c03e50:	10000003 	b	69c03e60 <dumpargv+0x18>
69c03e54:	8c820000 	lw	v0,0(a0)
69c03e58:	8c820000 	lw	v0,0(a0)
69c03e5c:	24630001 	addiu	v1,v1,1
69c03e60:	1440fffd 	bnez	v0,69c03e58 <dumpargv+0x10>
69c03e64:	24840004 	addiu	a0,a0,4
69c03e68:	0003202a 	slt	a0,zero,v1
69c03e6c:	1080000b 	beqz	a0,69c03e9c <dumpargv+0x54>
69c03e70:	00000000 	nop
69c03e74:	00601021 	move	v0,v1
69c03e78:	2442ffff 	addiu	v0,v0,-1
69c03e7c:	5440ffff 	bnezl	v0,69c03e7c <dumpargv+0x34>
69c03e80:	2442ffff 	addiu	v0,v0,-1
69c03e84:	10800005 	beqz	a0,69c03e9c <dumpargv+0x54>
69c03e88:	00000000 	nop
69c03e8c:	00601021 	move	v0,v1
69c03e90:	2442ffff 	addiu	v0,v0,-1
69c03e94:	5440ffff 	bnezl	v0,69c03e94 <dumpargv+0x4c>
69c03e98:	2442ffff 	addiu	v0,v0,-1
69c03e9c:	03e00008 	jr	ra
69c03ea0:	00000000 	nop

69c03ea4 <process_start>:
69c03ea4:	27bdffe0 	addiu	sp,sp,-32
69c03ea8:	afbf001c 	sw	ra,28(sp)
69c03eac:	afb10014 	sw	s1,20(sp)
69c03eb0:	afb20018 	sw	s2,24(sp)
69c03eb4:	0e701090 	jal	69c04240 <getpid>
69c03eb8:	afb00010 	sw	s0,16(sp)
69c03ebc:	0e701096 	jal	69c04258 <__kernel_get_process_struct>
69c03ec0:	00402021 	move	a0,v0
69c03ec4:	1040002e 	beqz	v0,69c03f80 <process_start+0xdc>
69c03ec8:	00008821 	move	s1,zero
69c03ecc:	8c520060 	lw	s2,96(v0)
69c03ed0:	2405004f 	li	a1,79
69c03ed4:	0e700f92 	jal	69c03e48 <dumpargv>
69c03ed8:	02402021 	move	a0,s2
69c03edc:	12400009 	beqz	s2,69c03f04 <process_start+0x60>
69c03ee0:	3c0369c0 	lui	v1,0x69c0
69c03ee4:	8e420000 	lw	v0,0(s2)
69c03ee8:	10400005 	beqz	v0,69c03f00 <process_start+0x5c>
69c03eec:	02401821 	move	v1,s2
69c03ef0:	24630004 	addiu	v1,v1,4
69c03ef4:	8c660000 	lw	a2,0(v1)
69c03ef8:	14c0fffd 	bnez	a2,69c03ef0 <process_start+0x4c>
69c03efc:	26310001 	addiu	s1,s1,1
69c03f00:	3c0369c0 	lui	v1,0x69c0
69c03f04:	2470520c 	addiu	s0,v1,21004
69c03f08:	02002021 	move	a0,s0
69c03f0c:	0e7011c5 	jal	69c04714 <dlopen>
69c03f10:	24050002 	li	a1,2
69c03f14:	5040000c 	beqzl	v0,69c03f48 <process_start+0xa4>
69c03f18:	02002021 	move	a0,s0
69c03f1c:	02202021 	move	a0,s1
69c03f20:	0e7002cd 	jal	69c00b34 <main>
69c03f24:	02402821 	move	a1,s2
69c03f28:	0e7010c0 	jal	69c04300 <exit>
69c03f2c:	00002021 	move	a0,zero
69c03f30:	8fbf001c 	lw	ra,28(sp)
69c03f34:	8fb20018 	lw	s2,24(sp)
69c03f38:	8fb10014 	lw	s1,20(sp)
69c03f3c:	8fb00010 	lw	s0,16(sp)
69c03f40:	03e00008 	jr	ra
69c03f44:	27bd0020 	addiu	sp,sp,32
69c03f48:	0e7011c5 	jal	69c04714 <dlopen>
69c03f4c:	24050002 	li	a1,2
69c03f50:	5440fff3 	bnezl	v0,69c03f20 <process_start+0x7c>
69c03f54:	02202021 	move	a0,s1
69c03f58:	0e7011d4 	jal	69c04750 <os_cpu_save_sr>
69c03f5c:	00000000 	nop
69c03f60:	3c0769c0 	lui	a3,0x69c0
69c03f64:	00408021 	move	s0,v0
69c03f68:	0e70119e 	jal	69c04678 <printf>
69c03f6c:	24e45218 	addiu	a0,a3,21016
69c03f70:	0e7011cb 	jal	69c0472c <os_cpu_store_sr>
69c03f74:	02002021 	move	a0,s0
69c03f78:	1000ffe9 	b	69c03f20 <process_start+0x7c>
69c03f7c:	02202021 	move	a0,s1
69c03f80:	0e7011d4 	jal	69c04750 <os_cpu_save_sr>
69c03f84:	00000000 	nop
69c03f88:	0e701090 	jal	69c04240 <getpid>
69c03f8c:	00408021 	move	s0,v0
69c03f90:	3c0469c0 	lui	a0,0x69c0
69c03f94:	3c0569c0 	lui	a1,0x69c0
69c03f98:	24845230 	addiu	a0,a0,21040
69c03f9c:	24a548cc 	addiu	a1,a1,18636
69c03fa0:	00403821 	move	a3,v0
69c03fa4:	0e70119e 	jal	69c04678 <printf>
69c03fa8:	24060048 	li	a2,72
69c03fac:	0e7011cb 	jal	69c0472c <os_cpu_store_sr>
69c03fb0:	02002021 	move	a0,s0
69c03fb4:	1000ffde 	b	69c03f30 <process_start+0x8c>
69c03fb8:	00001021 	move	v0,zero

69c03fbc <__start>:
69c03fbc:	27bdffb0 	addiu	sp,sp,-80
69c03fc0:	afbf004c 	sw	ra,76(sp)
69c03fc4:	afb20048 	sw	s2,72(sp)
69c03fc8:	afb10044 	sw	s1,68(sp)
69c03fcc:	afb00040 	sw	s0,64(sp)
69c03fd0:	00808821 	move	s1,a0
69c03fd4:	00a09021 	move	s2,a1
69c03fd8:	00c08021 	move	s0,a2
69c03fdc:	0e700000 	jal	69c00000 <_init>
69c03fe0:	afa00038 	sw	zero,56(sp)
69c03fe4:	0e701198 	jal	69c04660 <os_sched_lock>
69c03fe8:	00000000 	nop
69c03fec:	0e7010b1 	jal	69c042c4 <__kernel_get_pid>
69c03ff0:	27a40038 	addiu	a0,sp,56
69c03ff4:	14400058 	bnez	v0,69c04158 <__start+0x19c>
69c03ff8:	00000000 	nop
69c03ffc:	0e70109c 	jal	69c04270 <__current_pid>
69c04000:	00000000 	nop
69c04004:	8fa40038 	lw	a0,56(sp)
69c04008:	0e70109f 	jal	69c0427c <__kernel_insert_sub_to_parent>
69c0400c:	00402821 	move	a1,v0
69c04010:	0e70109c 	jal	69c04270 <__current_pid>
69c04014:	00000000 	nop
69c04018:	8fa40038 	lw	a0,56(sp)
69c0401c:	02202821 	move	a1,s1
69c04020:	02003821 	move	a3,s0
69c04024:	0e701093 	jal	69c0424c <__kernel_set_envp>
69c04028:	02403021 	move	a2,s2
69c0402c:	14400029 	bnez	v0,69c040d4 <__start+0x118>
69c04030:	00408821 	move	s1,v0
69c04034:	0e701096 	jal	69c04258 <__kernel_get_process_struct>
69c04038:	8fa40038 	lw	a0,56(sp)
69c0403c:	10400055 	beqz	v0,69c04194 <__start+0x1d8>
69c04040:	3c0869c0 	lui	t0,0x69c0
69c04044:	25073e40 	addiu	a3,t0,15936
69c04048:	ac470008 	sw	a3,8(v0)
69c0404c:	0e7010b4 	jal	69c042d0 <pthread_attr_init>
69c04050:	27a40010 	addiu	a0,sp,16
69c04054:	27a40010 	addiu	a0,sp,16
69c04058:	0e7010ba 	jal	69c042e8 <pthread_attr_setinheritsched>
69c0405c:	24050002 	li	a1,2
69c04060:	27a40010 	addiu	a0,sp,16
69c04064:	0e7010bd 	jal	69c042f4 <pthread_attr_setdetachstate>
69c04068:	00002821 	move	a1,zero
69c0406c:	02402021 	move	a0,s2
69c04070:	0e700f92 	jal	69c03e48 <dumpargv>
69c04074:	24050099 	li	a1,153
69c04078:	0e7010c3 	jal	69c0430c <_kernel_change_thread_pid>
69c0407c:	8fa40038 	lw	a0,56(sp)
69c04080:	3c0669c0 	lui	a2,0x69c0
69c04084:	00409021 	move	s2,v0
69c04088:	24c63ea4 	addiu	a2,a2,16036
69c0408c:	27a4003c 	addiu	a0,sp,60
69c04090:	27a50010 	addiu	a1,sp,16
69c04094:	0e7010ab 	jal	69c042ac <pthread_create>
69c04098:	00003821 	move	a3,zero
69c0409c:	02402021 	move	a0,s2
69c040a0:	0e7010c3 	jal	69c0430c <_kernel_change_thread_pid>
69c040a4:	00408821 	move	s1,v0
69c040a8:	0e7010b7 	jal	69c042dc <pthread_attr_destroy>
69c040ac:	27a40010 	addiu	a0,sp,16
69c040b0:	12200020 	beqz	s1,69c04134 <__start+0x178>
69c040b4:	00000000 	nop
69c040b8:	0e70109c 	jal	69c04270 <__current_pid>
69c040bc:	00000000 	nop
69c040c0:	8fa40038 	lw	a0,56(sp)
69c040c4:	0e7010a2 	jal	69c04288 <__kernel_remove_sub_from_parent>
69c040c8:	00402821 	move	a1,v0
69c040cc:	0e70108d 	jal	69c04234 <__kernel_release_pid>
69c040d0:	8fa40038 	lw	a0,56(sp)
69c040d4:	0e701099 	jal	69c04264 <__errno>
69c040d8:	00000000 	nop
69c040dc:	0e7011d4 	jal	69c04750 <os_cpu_save_sr>
69c040e0:	ac510000 	sw	s1,0(v0)
69c040e4:	0e701099 	jal	69c04264 <__errno>
69c040e8:	00408021 	move	s0,v0
69c040ec:	8c470000 	lw	a3,0(v0)
69c040f0:	3c0a69c0 	lui	t2,0x69c0
69c040f4:	3c0969c0 	lui	t1,0x69c0
69c040f8:	2524525c 	addiu	a0,t1,21084
69c040fc:	254548dc 	addiu	a1,t2,18652
69c04100:	0e70119e 	jal	69c04678 <printf>
69c04104:	240600ad 	li	a2,173
69c04108:	0e7011cb 	jal	69c0472c <os_cpu_store_sr>
69c0410c:	02002021 	move	a0,s0
69c04110:	0e70119b 	jal	69c0466c <os_sched_unlock>
69c04114:	00000000 	nop
69c04118:	8fbf004c 	lw	ra,76(sp)
69c0411c:	8fb20048 	lw	s2,72(sp)
69c04120:	8fb10044 	lw	s1,68(sp)
69c04124:	8fb00040 	lw	s0,64(sp)
69c04128:	2402ffff 	li	v0,-1
69c0412c:	03e00008 	jr	ra
69c04130:	27bd0050 	addiu	sp,sp,80
69c04134:	0e70119b 	jal	69c0466c <os_sched_unlock>
69c04138:	00000000 	nop
69c0413c:	8fbf004c 	lw	ra,76(sp)
69c04140:	8fb20048 	lw	s2,72(sp)
69c04144:	8fb10044 	lw	s1,68(sp)
69c04148:	8fb00040 	lw	s0,64(sp)
69c0414c:	00001021 	move	v0,zero
69c04150:	03e00008 	jr	ra
69c04154:	27bd0050 	addiu	sp,sp,80
69c04158:	0e7011d4 	jal	69c04750 <os_cpu_save_sr>
69c0415c:	00000000 	nop
69c04160:	3c0569c0 	lui	a1,0x69c0
69c04164:	3c0469c0 	lui	a0,0x69c0
69c04168:	00408021 	move	s0,v0
69c0416c:	24a548dc 	addiu	a1,a1,18652
69c04170:	24060074 	li	a2,116
69c04174:	0e70119e 	jal	69c04678 <printf>
69c04178:	24845280 	addiu	a0,a0,21120
69c0417c:	0e7011cb 	jal	69c0472c <os_cpu_store_sr>
69c04180:	02002021 	move	a0,s0
69c04184:	0e70119b 	jal	69c0466c <os_sched_unlock>
69c04188:	00000000 	nop
69c0418c:	1000ffe3 	b	69c0411c <__start+0x160>
69c04190:	8fbf004c 	lw	ra,76(sp)
69c04194:	0e7011d4 	jal	69c04750 <os_cpu_save_sr>
69c04198:	00000000 	nop
69c0419c:	00408021 	move	s0,v0
69c041a0:	3c0369c0 	lui	v1,0x69c0
69c041a4:	8fa70038 	lw	a3,56(sp)
69c041a8:	3c0269c0 	lui	v0,0x69c0
69c041ac:	24645230 	addiu	a0,v1,21040
69c041b0:	244548dc 	addiu	a1,v0,18652
69c041b4:	0e70119e 	jal	69c04678 <printf>
69c041b8:	2406008d 	li	a2,141
69c041bc:	0e7011cb 	jal	69c0472c <os_cpu_store_sr>
69c041c0:	02002021 	move	a0,s0
69c041c4:	1000ffd5 	b	69c0411c <__start+0x160>
69c041c8:	8fbf004c 	lw	ra,76(sp)

69c041cc <__do_global_ctors_aux>:
69c041cc:	27bdffe0 	addiu	sp,sp,-32
69c041d0:	afbf001c 	sw	ra,28(sp)
69c041d4:	afbe0018 	sw	s8,24(sp)
69c041d8:	03a0f021 	move	s8,sp
69c041dc:	3c0269c0 	lui	v0,0x69c0
69c041e0:	24426004 	addiu	v0,v0,24580
69c041e4:	afc20010 	sw	v0,16(s8)
69c041e8:	8fc20010 	lw	v0,16(s8)
69c041ec:	8c420000 	lw	v0,0(v0)
69c041f0:	1040000a 	beqz	v0,69c0421c <__do_global_ctors_aux+0x50>
69c041f4:	00000000 	nop
69c041f8:	8fc20010 	lw	v0,16(s8)
69c041fc:	8c420000 	lw	v0,0(v0)
69c04200:	0040f809 	jalr	v0
69c04204:	00000000 	nop
69c04208:	8fc20010 	lw	v0,16(s8)
69c0420c:	24420004 	addiu	v0,v0,4
69c04210:	afc20010 	sw	v0,16(s8)
69c04214:	1000fff4 	b	69c041e8 <__do_global_ctors_aux+0x1c>
69c04218:	00000000 	nop
69c0421c:	03c0e821 	move	sp,s8
69c04220:	8fbf001c 	lw	ra,28(sp)
69c04224:	8fbe0018 	lw	s8,24(sp)
69c04228:	27bd0020 	addiu	sp,sp,32
69c0422c:	03e00008 	jr	ra
69c04230:	00000000 	nop

69c04234 <__kernel_release_pid>:
69c04234:	3c030007 	lui	v1,0x7
69c04238:	34630005 	ori	v1,v1,0x5
69c0423c:	0000000c 	syscall

69c04240 <getpid>:
69c04240:	3c030007 	lui	v1,0x7
69c04244:	34630016 	ori	v1,v1,0x16
69c04248:	0000000c 	syscall

69c0424c <__kernel_set_envp>:
69c0424c:	3c030007 	lui	v1,0x7
69c04250:	3463001d 	ori	v1,v1,0x1d
69c04254:	0000000c 	syscall

69c04258 <__kernel_get_process_struct>:
69c04258:	3c030007 	lui	v1,0x7
69c0425c:	34630006 	ori	v1,v1,0x6
69c04260:	0000000c 	syscall

69c04264 <__errno>:
69c04264:	3c030007 	lui	v1,0x7
69c04268:	34630024 	ori	v1,v1,0x24
69c0426c:	0000000c 	syscall

69c04270 <__current_pid>:
69c04270:	3c030007 	lui	v1,0x7
69c04274:	34630025 	ori	v1,v1,0x25
69c04278:	0000000c 	syscall

69c0427c <__kernel_insert_sub_to_parent>:
69c0427c:	3c030007 	lui	v1,0x7
69c04280:	34630027 	ori	v1,v1,0x27
69c04284:	0000000c 	syscall

69c04288 <__kernel_remove_sub_from_parent>:
69c04288:	3c030007 	lui	v1,0x7
69c0428c:	34630028 	ori	v1,v1,0x28
69c04290:	0000000c 	syscall

69c04294 <pthread_getschedparam>:
69c04294:	3c030007 	lui	v1,0x7
69c04298:	3463005d 	ori	v1,v1,0x5d
69c0429c:	0000000c 	syscall

69c042a0 <pthread_setschedparam>:
69c042a0:	3c030007 	lui	v1,0x7
69c042a4:	3463005e 	ori	v1,v1,0x5e
69c042a8:	0000000c 	syscall

69c042ac <pthread_create>:
69c042ac:	3c030007 	lui	v1,0x7
69c042b0:	34630060 	ori	v1,v1,0x60
69c042b4:	0000000c 	syscall

69c042b8 <pthread_self>:
69c042b8:	3c030007 	lui	v1,0x7
69c042bc:	34630063 	ori	v1,v1,0x63
69c042c0:	0000000c 	syscall

69c042c4 <__kernel_get_pid>:
69c042c4:	3c030007 	lui	v1,0x7
69c042c8:	34630004 	ori	v1,v1,0x4
69c042cc:	0000000c 	syscall

69c042d0 <pthread_attr_init>:
69c042d0:	3c030007 	lui	v1,0x7
69c042d4:	34630070 	ori	v1,v1,0x70
69c042d8:	0000000c 	syscall

69c042dc <pthread_attr_destroy>:
69c042dc:	3c030007 	lui	v1,0x7
69c042e0:	34630071 	ori	v1,v1,0x71
69c042e4:	0000000c 	syscall

69c042e8 <pthread_attr_setinheritsched>:
69c042e8:	3c030007 	lui	v1,0x7
69c042ec:	34630072 	ori	v1,v1,0x72
69c042f0:	0000000c 	syscall

69c042f4 <pthread_attr_setdetachstate>:
69c042f4:	3c030007 	lui	v1,0x7
69c042f8:	34630074 	ori	v1,v1,0x74
69c042fc:	0000000c 	syscall

69c04300 <exit>:
69c04300:	3c030007 	lui	v1,0x7
69c04304:	34630082 	ori	v1,v1,0x82
69c04308:	0000000c 	syscall

69c0430c <_kernel_change_thread_pid>:
69c0430c:	3c030007 	lui	v1,0x7
69c04310:	3463000e 	ori	v1,v1,0xe
69c04314:	0000000c 	syscall

69c04318 <sleep>:
69c04318:	3c030007 	lui	v1,0x7
69c0431c:	34630083 	ori	v1,v1,0x83
69c04320:	0000000c 	syscall

69c04324 <usleep>:
69c04324:	3c030007 	lui	v1,0x7
69c04328:	34630084 	ori	v1,v1,0x84
69c0432c:	0000000c 	syscall

69c04330 <close>:
69c04330:	3c030006 	lui	v1,0x6
69c04334:	34630001 	ori	v1,v1,0x1
69c04338:	0000000c 	syscall

69c0433c <read>:
69c0433c:	3c030006 	lui	v1,0x6
69c04340:	34630002 	ori	v1,v1,0x2
69c04344:	0000000c 	syscall

69c04348 <fcntl>:
69c04348:	3c030006 	lui	v1,0x6
69c0434c:	34630005 	ori	v1,v1,0x5
69c04350:	0000000c 	syscall

69c04354 <ioctl>:
69c04354:	3c030006 	lui	v1,0x6
69c04358:	3463003f 	ori	v1,v1,0x3f
69c0435c:	0000000c 	syscall

69c04360 <open>:
69c04360:	3c030006 	lui	v1,0x6
69c04364:	0000000c 	syscall

69c04368 <memcpy>:
69c04368:	10000005 	b	69c04380 <memcpy+0x18>
69c0436c:	00801821 	move	v1,a0
69c04370:	24c6ffff 	addiu	a2,a2,-1
69c04374:	a0820000 	sb	v0,0(a0)
69c04378:	24a50001 	addiu	a1,a1,1
69c0437c:	24840001 	addiu	a0,a0,1
69c04380:	54c0fffb 	bnezl	a2,69c04370 <memcpy+0x8>
69c04384:	90a20000 	lbu	v0,0(a1)
69c04388:	03e00008 	jr	ra
69c0438c:	00601021 	move	v0,v1

69c04390 <bcopy>:
69c04390:	10c00007 	beqz	a2,69c043b0 <bcopy+0x20>
69c04394:	00000000 	nop
69c04398:	90820000 	lbu	v0,0(a0)
69c0439c:	24c6ffff 	addiu	a2,a2,-1
69c043a0:	a0a20000 	sb	v0,0(a1)
69c043a4:	24840001 	addiu	a0,a0,1
69c043a8:	14c0fffb 	bnez	a2,69c04398 <bcopy+0x8>
69c043ac:	24a50001 	addiu	a1,a1,1
69c043b0:	03e00008 	jr	ra
69c043b4:	00000000 	nop

69c043b8 <memset>:
69c043b8:	00801021 	move	v0,a0
69c043bc:	10000003 	b	69c043cc <memset+0x14>
69c043c0:	00801821 	move	v1,a0
69c043c4:	24c6ffff 	addiu	a2,a2,-1
69c043c8:	24630001 	addiu	v1,v1,1
69c043cc:	54c0fffd 	bnezl	a2,69c043c4 <memset+0xc>
69c043d0:	a0650000 	sb	a1,0(v1)
69c043d4:	03e00008 	jr	ra
69c043d8:	00000000 	nop

69c043dc <bzero>:
69c043dc:	10a00005 	beqz	a1,69c043f4 <bzero+0x18>
69c043e0:	00000000 	nop
69c043e4:	a0800000 	sb	zero,0(a0)
69c043e8:	24a5ffff 	addiu	a1,a1,-1
69c043ec:	14a0fffd 	bnez	a1,69c043e4 <bzero+0x8>
69c043f0:	24840001 	addiu	a0,a0,1
69c043f4:	03e00008 	jr	ra
69c043f8:	00000000 	nop

69c043fc <strcasecmp>:
69c043fc:	10850018 	beq	a0,a1,69c04460 <strcasecmp+0x64>
69c04400:	00001021 	move	v0,zero
69c04404:	90860000 	lbu	a2,0(a0)
69c04408:	24840001 	addiu	a0,a0,1
69c0440c:	24c8ffbf 	addiu	t0,a2,-65
69c04410:	310700ff 	andi	a3,t0,0xff
69c04414:	2ce2001a 	sltiu	v0,a3,26
69c04418:	24c30020 	addiu	v1,a2,32
69c0441c:	14400002 	bnez	v0,69c04428 <strcasecmp+0x2c>
69c04420:	306700ff 	andi	a3,v1,0xff
69c04424:	30c700ff 	andi	a3,a2,0xff
69c04428:	90a60000 	lbu	a2,0(a1)
69c0442c:	24a50001 	addiu	a1,a1,1
69c04430:	24ccffbf 	addiu	t4,a2,-65
69c04434:	318b00ff 	andi	t3,t4,0xff
69c04438:	24ca0020 	addiu	t2,a2,32
69c0443c:	2d69001a 	sltiu	t1,t3,26
69c04440:	15200002 	bnez	t1,69c0444c <strcasecmp+0x50>
69c04444:	314300ff 	andi	v1,t2,0xff
69c04448:	30c300ff 	andi	v1,a2,0xff
69c0444c:	10e00004 	beqz	a3,69c04460 <strcasecmp+0x64>
69c04450:	00e31023 	subu	v0,a3,v1
69c04454:	50e3ffec 	beql	a3,v1,69c04408 <strcasecmp+0xc>
69c04458:	90860000 	lbu	a2,0(a0)
69c0445c:	00e31023 	subu	v0,a3,v1
69c04460:	03e00008 	jr	ra
69c04464:	00000000 	nop

69c04468 <strncasecmp>:
69c04468:	00854026 	xor	t0,a0,a1
69c0446c:	2cc30001 	sltiu	v1,a2,1
69c04470:	2d070001 	sltiu	a3,t0,1
69c04474:	00e31025 	or	v0,a3,v1
69c04478:	1440001d 	bnez	v0,69c044f0 <strncasecmp+0x88>
69c0447c:	00001821 	move	v1,zero
69c04480:	90870000 	lbu	a3,0(a0)
69c04484:	24c6ffff 	addiu	a2,a2,-1
69c04488:	24ecffbf 	addiu	t4,a3,-65
69c0448c:	318b00ff 	andi	t3,t4,0xff
69c04490:	24ea0020 	addiu	t2,a3,32
69c04494:	2d69001a 	sltiu	t1,t3,26
69c04498:	15200002 	bnez	t1,69c044a4 <strncasecmp+0x3c>
69c0449c:	314800ff 	andi	t0,t2,0xff
69c044a0:	30e800ff 	andi	t0,a3,0xff
69c044a4:	90a70000 	lbu	a3,0(a1)
69c044a8:	2d090001 	sltiu	t1,t0,1
69c044ac:	24f8ffbf 	addiu	t8,a3,-65
69c044b0:	330f00ff 	andi	t7,t8,0xff
69c044b4:	24ee0020 	addiu	t6,a3,32
69c044b8:	2ded001a 	sltiu	t5,t7,26
69c044bc:	24840001 	addiu	a0,a0,1
69c044c0:	24a50001 	addiu	a1,a1,1
69c044c4:	15a00002 	bnez	t5,69c044d0 <strncasecmp+0x68>
69c044c8:	31c300ff 	andi	v1,t6,0xff
69c044cc:	30e300ff 	andi	v1,a3,0xff
69c044d0:	01033826 	xor	a3,t0,v1
69c044d4:	0007102b 	sltu	v0,zero,a3
69c044d8:	0122c825 	or	t9,t1,v0
69c044dc:	57200004 	bnezl	t9,69c044f0 <strncasecmp+0x88>
69c044e0:	01031823 	subu	v1,t0,v1
69c044e4:	54c0ffe7 	bnezl	a2,69c04484 <strncasecmp+0x1c>
69c044e8:	90870000 	lbu	a3,0(a0)
69c044ec:	01031823 	subu	v1,t0,v1
69c044f0:	03e00008 	jr	ra
69c044f4:	00601021 	move	v0,v1

69c044f8 <strcat>:
69c044f8:	2c870001 	sltiu	a3,a0,1
69c044fc:	2ca30001 	sltiu	v1,a1,1
69c04500:	00e31025 	or	v0,a3,v1
69c04504:	1440000d 	bnez	v0,69c0453c <strcat+0x44>
69c04508:	00803021 	move	a2,a0
69c0450c:	10000002 	b	69c04518 <strcat+0x20>
69c04510:	80820000 	lb	v0,0(a0)
69c04514:	80820000 	lb	v0,0(a0)
69c04518:	5440fffe 	bnezl	v0,69c04514 <strcat+0x1c>
69c0451c:	24840001 	addiu	a0,a0,1
69c04520:	10000004 	b	69c04534 <strcat+0x3c>
69c04524:	90a20000 	lbu	v0,0(a1)
69c04528:	24a50001 	addiu	a1,a1,1
69c0452c:	90a20000 	lbu	v0,0(a1)
69c04530:	24840001 	addiu	a0,a0,1
69c04534:	1440fffc 	bnez	v0,69c04528 <strcat+0x30>
69c04538:	a0820000 	sb	v0,0(a0)
69c0453c:	03e00008 	jr	ra
69c04540:	00c01021 	move	v0,a2

69c04544 <strncat>:
69c04544:	2c880001 	sltiu	t0,a0,1
69c04548:	2ca30001 	sltiu	v1,a1,1
69c0454c:	01031025 	or	v0,t0,v1
69c04550:	14400012 	bnez	v0,69c0459c <strncat+0x58>
69c04554:	00803821 	move	a3,a0
69c04558:	10c00010 	beqz	a2,69c0459c <strncat+0x58>
69c0455c:	00000000 	nop
69c04560:	10000002 	b	69c0456c <strncat+0x28>
69c04564:	80820000 	lb	v0,0(a0)
69c04568:	80820000 	lb	v0,0(a0)
69c0456c:	5440fffe 	bnezl	v0,69c04568 <strncat+0x24>
69c04570:	24840001 	addiu	a0,a0,1
69c04574:	90a20000 	lbu	v0,0(a1)
69c04578:	a0820000 	sb	v0,0(a0)
69c0457c:	10400007 	beqz	v0,69c0459c <strncat+0x58>
69c04580:	24840001 	addiu	a0,a0,1
69c04584:	24a50001 	addiu	a1,a1,1
69c04588:	90a20000 	lbu	v0,0(a1)
69c0458c:	24c6ffff 	addiu	a2,a2,-1
69c04590:	14c0fffa 	bnez	a2,69c0457c <strncat+0x38>
69c04594:	a0820000 	sb	v0,0(a0)
69c04598:	a0800000 	sb	zero,0(a0)
69c0459c:	03e00008 	jr	ra
69c045a0:	00e01021 	move	v0,a3

69c045a4 <strcpy>:
69c045a4:	90a20000 	lbu	v0,0(a1)
69c045a8:	00801821 	move	v1,a0
69c045ac:	10000004 	b	69c045c0 <strcpy+0x1c>
69c045b0:	a0820000 	sb	v0,0(a0)
69c045b4:	90a20000 	lbu	v0,0(a1)
69c045b8:	24840001 	addiu	a0,a0,1
69c045bc:	a0820000 	sb	v0,0(a0)
69c045c0:	5440fffc 	bnezl	v0,69c045b4 <strcpy+0x10>
69c045c4:	24a50001 	addiu	a1,a1,1
69c045c8:	03e00008 	jr	ra
69c045cc:	00601021 	move	v0,v1

69c045d0 <strncpy>:
69c045d0:	10c00008 	beqz	a2,69c045f4 <strncpy+0x24>
69c045d4:	00801821 	move	v1,a0
69c045d8:	90a20000 	lbu	v0,0(a1)
69c045dc:	24a50001 	addiu	a1,a1,1
69c045e0:	10400006 	beqz	v0,69c045fc <strncpy+0x2c>
69c045e4:	a0820000 	sb	v0,0(a0)
69c045e8:	24c6ffff 	addiu	a2,a2,-1
69c045ec:	14c0fffa 	bnez	a2,69c045d8 <strncpy+0x8>
69c045f0:	24840001 	addiu	a0,a0,1
69c045f4:	03e00008 	jr	ra
69c045f8:	00601021 	move	v0,v1
69c045fc:	10c0fffd 	beqz	a2,69c045f4 <strncpy+0x24>
69c04600:	00000000 	nop
69c04604:	10000003 	b	69c04614 <strncpy+0x44>
69c04608:	24c6ffff 	addiu	a2,a2,-1
69c0460c:	24c6ffff 	addiu	a2,a2,-1
69c04610:	a0800000 	sb	zero,0(a0)
69c04614:	14c0fffd 	bnez	a2,69c0460c <strncpy+0x3c>
69c04618:	24840001 	addiu	a0,a0,1
69c0461c:	03e00008 	jr	ra
69c04620:	00601021 	move	v0,v1

69c04624 <set_config>:
69c04624:	3c030011 	lui	v1,0x11
69c04628:	34630001 	ori	v1,v1,0x1
69c0462c:	0000000c 	syscall
69c04630:	00000000 	nop

69c04634 <get_config>:
69c04634:	3c030011 	lui	v1,0x11
69c04638:	0000000c 	syscall
69c0463c:	00000000 	nop

69c04640 <sync_config>:
69c04640:	3c030011 	lui	v1,0x11
69c04644:	34630006 	ori	v1,v1,0x6
69c04648:	0000000c 	syscall
69c0464c:	00000000 	nop

69c04650 <nandflash_update>:
69c04650:	3c030011 	lui	v1,0x11
69c04654:	34630007 	ori	v1,v1,0x7
69c04658:	0000000c 	syscall
69c0465c:	00000000 	nop

69c04660 <os_sched_lock>:
69c04660:	3c030001 	lui	v1,0x1
69c04664:	34630002 	ori	v1,v1,0x2
69c04668:	0000000c 	syscall

69c0466c <os_sched_unlock>:
69c0466c:	3c030001 	lui	v1,0x1
69c04670:	34630003 	ori	v1,v1,0x3
69c04674:	0000000c 	syscall

69c04678 <printf>:
69c04678:	3c030001 	lui	v1,0x1
69c0467c:	34630032 	ori	v1,v1,0x32
69c04680:	0000000c 	syscall

69c04684 <sys_mount>:
69c04684:	3c030001 	lui	v1,0x1
69c04688:	34630041 	ori	v1,v1,0x41
69c0468c:	0000000c 	syscall

69c04690 <sys_mknod>:
69c04690:	3c030001 	lui	v1,0x1
69c04694:	34630043 	ori	v1,v1,0x43
69c04698:	0000000c 	syscall

69c0469c <sys_open>:
69c0469c:	3c030001 	lui	v1,0x1
69c046a0:	34630044 	ori	v1,v1,0x44
69c046a4:	0000000c 	syscall

69c046a8 <sys_close>:
69c046a8:	3c030001 	lui	v1,0x1
69c046ac:	34630045 	ori	v1,v1,0x45
69c046b0:	0000000c 	syscall

69c046b4 <sys_read>:
69c046b4:	3c030001 	lui	v1,0x1
69c046b8:	34630046 	ori	v1,v1,0x46
69c046bc:	0000000c 	syscall

69c046c0 <sys_write>:
69c046c0:	3c030001 	lui	v1,0x1
69c046c4:	34630047 	ori	v1,v1,0x47
69c046c8:	0000000c 	syscall

69c046cc <sys_lseek>:
69c046cc:	3c030001 	lui	v1,0x1
69c046d0:	34630048 	ori	v1,v1,0x48
69c046d4:	0000000c 	syscall

69c046d8 <sys_mkdir>:
69c046d8:	3c030001 	lui	v1,0x1
69c046dc:	3463004e 	ori	v1,v1,0x4e
69c046e0:	0000000c 	syscall

69c046e4 <sys_fstat>:
69c046e4:	3c030001 	lui	v1,0x1
69c046e8:	34630050 	ori	v1,v1,0x50
69c046ec:	0000000c 	syscall

69c046f0 <sys_fsync>:
69c046f0:	3c030001 	lui	v1,0x1
69c046f4:	34630056 	ori	v1,v1,0x56
69c046f8:	0000000c 	syscall

69c046fc <insmod>:
69c046fc:	3c030001 	lui	v1,0x1
69c04700:	3463006a 	ori	v1,v1,0x6a
69c04704:	0000000c 	syscall

69c04708 <rmmod>:
69c04708:	3c030001 	lui	v1,0x1
69c0470c:	3463006b 	ori	v1,v1,0x6b
69c04710:	0000000c 	syscall

69c04714 <dlopen>:
69c04714:	3c030001 	lui	v1,0x1
69c04718:	3463006c 	ori	v1,v1,0x6c
69c0471c:	0000000c 	syscall

69c04720 <dlclose>:
69c04720:	3c030001 	lui	v1,0x1
69c04724:	3463006d 	ori	v1,v1,0x6d
69c04728:	0000000c 	syscall

69c0472c <os_cpu_store_sr>:
69c0472c:	3c030002 	lui	v1,0x2
69c04730:	34630001 	ori	v1,v1,0x1
69c04734:	0000000c 	syscall

69c04738 <kmalloc>:
69c04738:	3c030002 	lui	v1,0x2
69c0473c:	34630023 	ori	v1,v1,0x23
69c04740:	0000000c 	syscall

69c04744 <kfree>:
69c04744:	3c030002 	lui	v1,0x2
69c04748:	34630024 	ori	v1,v1,0x24
69c0474c:	0000000c 	syscall

69c04750 <os_cpu_save_sr>:
69c04750:	3c030002 	lui	v1,0x2
69c04754:	0000000c 	syscall

69c04758 <s_clk_domain_running>:
69c04758:	00000000 	nop
69c0475c:	00000001 	movf	zero,zero,$fcc0

69c04760 <s_clk_domain_boot>:
69c04760:	00000003 	sra	zero,zero,0x0
69c04764:	00000003 	sra	zero,zero,0x0

69c04768 <__func__.10>:
69c04768:	6e6f635f 	0x6e6f635f
69c0476c:	5f676966 	0x5f676966
69c04770:	5f67736d 	0x5f67736d
69c04774:	00006263 	0x6263
69c04778:	69c000cc 	0x69c000cc
69c0477c:	69c00524 	0x69c00524
69c04780:	69c00428 	0x69c00428
69c04784:	69c000cc 	0x69c000cc
69c04788:	69c003b8 	0x69c003b8
69c0478c:	69c0035c 	0x69c0035c
69c04790:	69c00314 	0x69c00314

69c04794 <__func__.2>:
69c04794:	756f6d5f 	jalx	65bdb57c <_init-0x4024a84>
69c04798:	665f746e 	0x665f746e
69c0479c:	6873616c 	0x6873616c
69c047a0:	7369645f 	udi15	k1,t1,t4,0x11
69c047a4:	0000006b 	0x6b

69c047a8 <__func__.4>:
69c047a8:	5f73695f 	0x5f73695f
69c047ac:	636f6c62 	0x636f6c62
69c047b0:	65645f6b 	0x65645f6b
69c047b4:	6f665f76 	0x6f665f76
69c047b8:	74616d72 	jalx	6185b5c8 <_init-0x83a4a38>
69c047bc:	00006465 	0x6465

69c047c0 <__func__.0>:
69c047c0:	6e69616d 	0x6e69616d
69c047c4:	00000000 	nop

69c047c8 <__func__.1>:
69c047c8:	736e695f 	udi15	k1,t6,t5,0x5
69c047cc:	6c6c6174 	0x6c6c6174
69c047d0:	6572705f 	0x6572705f
69c047d4:	64616f6c 	0x64616f6c
69c047d8:	6168635f 	0x6168635f
69c047dc:	65645f72 	0x65645f72
69c047e0:	6d6b5f76 	0x6d6b5f76
69c047e4:	6c75646f 	0x6c75646f
69c047e8:	00000065 	0x65

69c047ec <__func__.5>:
69c047ec:	7672645f 	jalx	69c9917c <pthread_share_type_t+0x91864>
69c047f0:	5f706f5f 	0x5f706f5f
69c047f4:	5f64636c 	0x5f64636c
69c047f8:	6e65706f 	0x6e65706f
69c047fc:	7665645f 	jalx	6995917c <_init-0x2a6e84>
69c04800:	00000000 	nop

69c04804 <__func__.6>:
69c04804:	7672645f 	jalx	69c9917c <pthread_share_type_t+0x91864>
69c04808:	5f706f5f 	0x5f706f5f
69c0480c:	5f64636c 	0x5f64636c
69c04810:	5f746573 	0x5f746573
69c04814:	6b636162 	0x6b636162
69c04818:	6867696c 	0x6867696c
69c0481c:	00000074 	teq	zero,zero,0x1

69c04820 <__func__.7>:
69c04820:	7672645f 	jalx	69c9917c <pthread_share_type_t+0x91864>
69c04824:	5f706f5f 	0x5f706f5f
69c04828:	5f64636c 	0x5f64636c
69c0482c:	65746e65 	0x65746e65
69c04830:	74735f72 	jalx	61cd7dc8 <_init-0x7f28238>
69c04834:	62646e61 	0x62646e61
69c04838:	00000079 	0x79

69c0483c <__func__.8>:
69c0483c:	7672645f 	jalx	69c9917c <pthread_share_type_t+0x91864>
69c04840:	5f706f5f 	0x5f706f5f
69c04844:	5f64636c 	0x5f64636c
69c04848:	736f6c63 	0x736f6c63
69c0484c:	65645f65 	0x65645f65
69c04850:	00000076 	tne	zero,zero,0x1

69c04854 <__func__.9>:
69c04854:	6961775f 	0x6961775f
69c04858:	6f6e5f74 	0x6f6e5f74
69c0485c:	79656b5f 	0x79656b5f
69c04860:	6572705f 	0x6572705f
69c04864:	00007373 	tltu	zero,zero,0x1cd
69c04868:	41465845 	0x41465845
69c0486c:	20202054 	addi	zero,at,8276
69c04870:	00000000 	nop
69c04874:	33544146 	andi	s4,k0,0x4146
69c04878:	20202032 	addi	zero,at,8242
69c0487c:	00000000 	nop
69c04880:	65737361 	0x65737361
69c04884:	66207472 	0x66207472
69c04888:	656c6961 	0x656c6961
69c0488c:	6e692064 	0x6e692064
69c04890:	6c696620 	0x6c696620
69c04894:	73252065 	0x73252065
69c04898:	20746120 	addi	s4,v1,24864
69c0489c:	656e696c 	0x656e696c
69c048a0:	0a642520 	j	69909480 <_init-0x2f6b80>
69c048a4:	00000000 	nop
69c048a8:	6d726f66 	0x6d726f66
69c048ac:	632e7461 	0x632e7461
69c048b0:	00000000 	nop
69c048b4:	33746166 	andi	s4,k1,0x6166
69c048b8:	00000032 	tlt	zero,zero
69c048bc:	31746166 	andi	s4,t3,0x6166
69c048c0:	00000036 	tne	zero,zero
69c048c4:	61667865 	0x61667865
69c048c8:	00000074 	teq	zero,zero,0x1

69c048cc <__FUNCTION__.1>:
69c048cc:	636f7270 	0x636f7270
69c048d0:	5f737365 	0x5f737365
69c048d4:	72617473 	0x72617473
69c048d8:	00000074 	teq	zero,zero,0x1

69c048dc <__FUNCTION__.0>:
69c048dc:	74735f5f 	jalx	61cd7d7c <_init-0x7f28284>
69c048e0:	00747261 	0x747261
69c048e4:	666e6f63 	0x666e6f63
69c048e8:	6d5f6769 	0x6d5f6769
69c048ec:	2e6e6961 	sltiu	t6,s3,26977
69c048f0:	00000063 	0x63
69c048f4:	55424544 	bnel	t2,v0,69c15e08 <pthread_share_type_t+0xe4f0>
69c048f8:	69702d47 	0x69702d47
69c048fc:	64253a64 	0x64253a64
69c04900:	2c73252d 	sltiu	s3,v1,9517
69c04904:	252c6425 	addiu	t4,t1,25637
69c04908:	2d2d2d73 	sltiu	t5,t1,11635
69c0490c:	67736d20 	0x67736d20
69c04910:	7079742e 	0x7079742e
69c04914:	64253a65 	0x64253a65
69c04918:	00000a0a 	0xa0a
69c0491c:	746e6d2f 	jalx	61b9b4bc <_init-0x8064b44>
69c04920:	7369642f 	0x7369642f
69c04924:	612f616b 	0x612f616b
69c04928:	2f737070 	sltiu	s3,k1,28784
69c0492c:	666e6f63 	0x666e6f63
69c04930:	612e6769 	0x612e6769
69c04934:	00007070 	tge	zero,zero,0x1c1
69c04938:	746e6d2f 	jalx	61b9b4bc <_init-0x8064b44>
69c0493c:	7369642f 	0x7369642f
69c04940:	612f616b 	0x612f616b
69c04944:	2f737070 	sltiu	s3,k1,28784
69c04948:	616e616d 	0x616e616d
69c0494c:	2e726567 	sltiu	s2,s3,25959
69c04950:	00707061 	0x707061
69c04954:	7665642f 	jalx	699590bc <_init-0x2a6f44>
69c04958:	6164612f 	0x6164612f
69c0495c:	00000000 	nop
69c04960:	43494f56 	c0	0x1494f56
69c04964:	4f565f45 	c3	0x1565f45
69c04968:	004d554c 	syscall	0x13555
69c0496c:	746e6d2f 	jalx	61b9b4bc <_init-0x8064b44>
69c04970:	7369642f 	0x7369642f
69c04974:	612f616b 	0x612f616b
69c04978:	2f737070 	sltiu	s3,k1,28784
69c0497c:	6e75616c 	0x6e75616c
69c04980:	72656863 	0x72656863
69c04984:	75616c2f 	jalx	6585b0bc <_init-0x43a4f44>
69c04988:	6568636e 	0x6568636e
69c0498c:	70612e72 	0x70612e72
69c04990:	00000070 	tge	zero,zero,0x1
69c04994:	4f525245 	c3	0x1525245
69c04998:	72652852 	udi2	s3,a1,a1,0x1
69c0499c:	3d6f6e72 	0x3d6f6e72
69c049a0:	2d296425 	sltiu	t1,t1,25637
69c049a4:	3a646970 	xori	a0,s3,0x6970
69c049a8:	252d6425 	addiu	t5,t1,25637
69c049ac:	64252c73 	0x64252c73
69c049b0:	2d73252c 	sltiu	s3,t3,9516
69c049b4:	0a202d2d 	j	6880b4b4 <_init-0x13f4b4c>
69c049b8:	00000000 	nop
69c049bc:	55424544 	bnel	t2,v0,69c15ed0 <pthread_share_type_t+0xe5b8>
69c049c0:	69702d47 	0x69702d47
69c049c4:	64253a64 	0x64253a64
69c049c8:	2c73252d 	sltiu	s3,v1,9517
69c049cc:	252c6425 	addiu	t4,t1,25637
69c049d0:	2d2d2d73 	sltiu	t5,t1,11635
69c049d4:	3e3e2020 	0x3e3e2020
69c049d8:	5320203e 	beqzl	t9,69c0cad4 <pthread_share_type_t+0x51bc>
69c049dc:	45474154 	0x45474154
69c049e0:	494e415f 	0x494e415f
69c049e4:	46464f4d 	c1	0x464f4d
69c049e8:	3c3c2020 	0x3c3c2020
69c049ec:	00000a3c 	0xa3c
69c049f0:	55424544 	bnel	t2,v0,69c15f04 <pthread_share_type_t+0xe5ec>
69c049f4:	69702d47 	0x69702d47
69c049f8:	64253a64 	0x64253a64
69c049fc:	2c73252d 	sltiu	s3,v1,9517
69c04a00:	252c6425 	addiu	t4,t1,25637
69c04a04:	2d2d2d73 	sltiu	t5,t1,11635
69c04a08:	3e3e2020 	0x3e3e2020
69c04a0c:	5320203e 	beqzl	t9,69c0cb08 <pthread_share_type_t+0x51f0>
69c04a10:	45474154 	0x45474154
69c04a14:	47534d5f 	c1	0x1534d5f
69c04a18:	56524553 	bnel	s2,s2,69c15f68 <pthread_share_type_t+0xe650>
69c04a1c:	20205245 	addi	zero,at,21061
69c04a20:	0a3c3c3c 	j	68f0f0f0 <_init-0xcf0f10>
69c04a24:	00000000 	nop
69c04a28:	2e616461 	sltiu	at,s3,25697
69c04a2c:	00006f6b 	0x6f6b
69c04a30:	55424544 	bnel	t2,v0,69c15f44 <pthread_share_type_t+0xe62c>
69c04a34:	69702d47 	0x69702d47
69c04a38:	64253a64 	0x64253a64
69c04a3c:	2c73252d 	sltiu	s3,v1,9517
69c04a40:	252c6425 	addiu	t4,t1,25637
69c04a44:	2d2d2d73 	sltiu	t5,t1,11635
69c04a48:	3e3e2020 	0x3e3e2020
69c04a4c:	5320203e 	beqzl	t9,69c0cb48 <pthread_share_type_t+0x5230>
69c04a50:	45474154 	0x45474154
69c04a54:	55414c5f 	bnel	t2,at,69c17bd4 <pthread_share_type_t+0x102bc>
69c04a58:	4548434e 	0x4548434e
69c04a5c:	3c202052 	0x3c202052
69c04a60:	000a3c3c 	0xa3c3c
69c04a64:	746e6d2f 	jalx	61b9b4bc <_init-0x8064b44>
69c04a68:	7369642f 	0x7369642f
69c04a6c:	612f616b 	0x612f616b
69c04a70:	2f737070 	sltiu	s3,k1,28784
69c04a74:	5f67736d 	0x5f67736d
69c04a78:	76726573 	jalx	69c995cc <pthread_share_type_t+0x91cb4>
69c04a7c:	7070612e 	0x7070612e
69c04a80:	00000000 	nop
69c04a84:	55424544 	bnel	t2,v0,69c15f98 <pthread_share_type_t+0xe680>
69c04a88:	69702d47 	0x69702d47
69c04a8c:	64253a64 	0x64253a64
69c04a90:	2c73252d 	sltiu	s3,v1,9517
69c04a94:	252c6425 	addiu	t4,t1,25637
69c04a98:	2d2d2d73 	sltiu	t5,t1,11635
69c04a9c:	3e3e2020 	0x3e3e2020
69c04aa0:	5320203e 	beqzl	t9,69c0cb9c <pthread_share_type_t+0x5284>
69c04aa4:	45474154 	0x45474154
69c04aa8:	474c505f 	c1	0x14c505f
69c04aac:	20524e45 	addi	s2,v0,20037
69c04ab0:	0a3c3c3c 	j	68f0f0f0 <_init-0xcf0f10>
69c04ab4:	00000000 	nop
69c04ab8:	55424544 	bnel	t2,v0,69c15fcc <pthread_share_type_t+0xe6b4>
69c04abc:	69702d47 	0x69702d47
69c04ac0:	64253a64 	0x64253a64
69c04ac4:	2c73252d 	sltiu	s3,v1,9517
69c04ac8:	252c6425 	addiu	t4,t1,25637
69c04acc:	2d2d2d73 	sltiu	t5,t1,11635
69c04ad0:	3e3e2020 	0x3e3e2020
69c04ad4:	5320203e 	beqzl	t9,69c0cbd0 <pthread_share_type_t+0x52b8>
69c04ad8:	45474154 	0x45474154
69c04adc:	494e415f 	0x494e415f
69c04ae0:	204e4f4d 	addi	t6,v0,20301
69c04ae4:	3c3c3c20 	0x3c3c3c20
69c04ae8:	0000000a 	movz	zero,zero,zero
69c04aec:	52475055 	beql	s2,a3,69c18c44 <pthread_share_type_t+0x1132c>
69c04af0:	5f454441 	0x5f454441
69c04af4:	47414c46 	c1	0x1414c46
69c04af8:	00000000 	nop
69c04afc:	4f464e49 	c3	0x1464e49
69c04b00:	6469702d 	0x6469702d
69c04b04:	2d64253a 	sltiu	a0,t3,9530
69c04b08:	252c7325 	addiu	t4,t1,29477
69c04b0c:	73252c64 	0x73252c64
69c04b10:	202d2d2d 	addi	t5,at,11565
69c04b14:	0000000a 	movz	zero,zero,zero
69c04b18:	746e6d2f 	jalx	61b9b4bc <_init-0x8064b44>
69c04b1c:	7369642f 	0x7369642f
69c04b20:	612f616b 	0x612f616b
69c04b24:	2f737070 	sltiu	s3,k1,28784
69c04b28:	6d696e61 	0x6d696e61
69c04b2c:	66666f5f 	0x66666f5f
69c04b30:	696e612f 	0x696e612f
69c04b34:	666f5f6d 	0x666f5f6d
69c04b38:	70612e66 	0x70612e66
69c04b3c:	00000070 	tge	zero,zero,0x1
69c04b40:	746e6d2f 	jalx	61b9b4bc <_init-0x8064b44>
69c04b44:	7369642f 	0x7369642f
69c04b48:	0000306b 	0x306b
69c04b4c:	746e6d2f 	jalx	61b9b4bc <_init-0x8064b44>
69c04b50:	7369642f 	0x7369642f
69c04b54:	612f616b 	0x612f616b
69c04b58:	2f737070 	sltiu	s3,k1,28784
69c04b5c:	675f6c70 	0x675f6c70
69c04b60:	72656e65 	0x72656e65
69c04b64:	5f6c702f 	0x5f6c702f
69c04b68:	656e6567 	0x656e6567
69c04b6c:	70612e72 	0x70612e72
69c04b70:	00000070 	tge	zero,zero,0x1
69c04b74:	7665642f 	jalx	699590bc <_init-0x2a6f44>
69c04b78:	616c662f 	0x616c662f
69c04b7c:	00756873 	tltu	v1,s5,0x1a1
69c04b80:	64726163 	0x64726163
69c04b84:	006f6b2e 	0x6f6b2e
69c04b88:	7665642f 	jalx	699590bc <_init-0x2a6f44>
69c04b8c:	7261632f 	0x7261632f
69c04b90:	00000064 	0x64
69c04b94:	7665642f 	jalx	699590bc <_init-0x2a6f44>
69c04b98:	7473752f 	jalx	61cdd4bc <_init-0x7f22b44>
69c04b9c:	0000726f 	0x726f
69c04ba0:	4f525245 	c3	0x1525245
69c04ba4:	72652852 	udi2	s3,a1,a1,0x1
69c04ba8:	3d6f6e72 	0x3d6f6e72
69c04bac:	2d296425 	sltiu	t1,t1,25637
69c04bb0:	3a646970 	xori	a0,s3,0x6970
69c04bb4:	252d6425 	addiu	t5,t1,25637
69c04bb8:	64252c73 	0x64252c73
69c04bbc:	2d73252c 	sltiu	s3,t3,9516
69c04bc0:	73202d2d 	0x73202d2d
69c04bc4:	725f7379 	0x725f7379
69c04bc8:	20646165 	addi	a0,v1,24933
69c04bcc:	6c696166 	0x6c696166
69c04bd0:	000a6465 	0xa6465
69c04bd4:	33746166 	andi	s4,k1,0x6166
69c04bd8:	00000032 	tlt	zero,zero
69c04bdc:	65737361 	0x65737361
69c04be0:	66207472 	0x66207472
69c04be4:	656c6961 	0x656c6961
69c04be8:	6e692064 	0x6e692064
69c04bec:	6c696620 	0x6c696620
69c04bf0:	73252065 	0x73252065
69c04bf4:	20746120 	addi	s4,v1,24864
69c04bf8:	656e696c 	0x656e696c
69c04bfc:	0a642520 	j	69909480 <_init-0x2f6b80>
69c04c00:	00000000 	nop
69c04c04:	00746166 	0x746166
69c04c08:	4f525245 	c3	0x1525245
69c04c0c:	72652852 	udi2	s3,a1,a1,0x1
69c04c10:	3d6f6e72 	0x3d6f6e72
69c04c14:	2d296425 	sltiu	t1,t1,25637
69c04c18:	3a646970 	xori	a0,s3,0x6970
69c04c1c:	252d6425 	addiu	t5,t1,25637
69c04c20:	64252c73 	0x64252c73
69c04c24:	2d73252c 	sltiu	s3,t3,9516
69c04c28:	6d202d2d 	0x6d202d2d
69c04c2c:	746e756f 	jalx	61b9d5bc <_init-0x8062a44>
69c04c30:	20732520 	addi	s3,v1,9504
69c04c34:	25206f74 	addiu	zero,t1,28532
69c04c38:	72652073 	0x72652073
69c04c3c:	21726f72 	addi	s2,t3,28530
69c04c40:	79727420 	0x79727420
69c04c44:	206f7420 	addi	t7,v1,29728
69c04c48:	6d726f66 	0x6d726f66
69c04c4c:	69207461 	0x69207461
69c04c50:	000a2074 	teq	zero,t2,0x81
69c04c54:	4f525245 	c3	0x1525245
69c04c58:	72652852 	udi2	s3,a1,a1,0x1
69c04c5c:	3d6f6e72 	0x3d6f6e72
69c04c60:	2d296425 	sltiu	t1,t1,25637
69c04c64:	3a646970 	xori	a0,s3,0x6970
69c04c68:	252d6425 	addiu	t5,t1,25637
69c04c6c:	64252c73 	0x64252c73
69c04c70:	2d73252c 	sltiu	s3,t3,9516
69c04c74:	73202d2d 	0x73202d2d
69c04c78:	6f5f7379 	0x6f5f7379
69c04c7c:	206e6570 	addi	t6,v1,25968
69c04c80:	66207325 	0x66207325
69c04c84:	656c6961 	0x656c6961
69c04c88:	000a2e64 	0xa2e64
69c04c8c:	6c707061 	0x6c707061
69c04c90:	732e6269 	0x732e6269
69c04c94:	0000006f 	0x6f
69c04c98:	6e657367 	0x6e657367
69c04c9c:	2e726f73 	sltiu	s2,s3,28531
69c04ca0:	00006f6b 	0x6f6b
69c04ca4:	7665642f 	jalx	699590bc <_init-0x2a6f44>
69c04ca8:	6573672f 	0x6573672f
69c04cac:	726f736e 	0x726f736e
69c04cb0:	00000000 	nop
69c04cb4:	6b2e6d70 	0x6b2e6d70
69c04cb8:	0000006f 	0x6f
69c04cbc:	7665642f 	jalx	699590bc <_init-0x2a6f44>
69c04cc0:	006d702f 	0x6d702f
69c04cc4:	2e64636c 	sltiu	a0,s3,25452
69c04cc8:	00006f6b 	0x6f6b
69c04ccc:	7665642f 	jalx	699590bc <_init-0x2a6f44>
69c04cd0:	64636c2f 	0x64636c2f
69c04cd4:	00000000 	nop
69c04cd8:	645f6266 	0x645f6266
69c04cdc:	6b2e7672 	0x6b2e7672
69c04ce0:	0000006f 	0x6f
69c04ce4:	7665642f 	jalx	699590bc <_init-0x2a6f44>
69c04ce8:	0062662f 	0x62662f
69c04cec:	2e746666 	sltiu	s4,s3,26214
69c04cf0:	00006f6b 	0x6f6b
69c04cf4:	7665642f 	jalx	699590bc <_init-0x2a6f44>
69c04cf8:	7466662f 	jalx	619998bc <_init-0x8266744>
69c04cfc:	00000000 	nop
69c04d00:	6f637061 	0x6f637061
69c04d04:	6769666e 	0x6769666e
69c04d08:	006f732e 	0x6f732e
69c04d0c:	6465656e 	0x6465656e
69c04d10:	6e65675f 	0x6e65675f
69c04d14:	696c705f 	0x696c705f
69c04d18:	00007473 	tltu	zero,zero,0x1d1
69c04d1c:	65776f70 	0x65776f70
69c04d20:	5f6e6f72 	0x5f6e6f72
69c04d24:	62616e65 	0x62616e65
69c04d28:	0000656c 	0x656c
69c04d2c:	65776f70 	0x65776f70
69c04d30:	66666f72 	0x66666f72
69c04d34:	616e655f 	0x616e655f
69c04d38:	00656c62 	0x656c62
69c04d3c:	52455355 	beql	s2,a1,69c19a94 <pthread_share_type_t+0x1217c>
69c04d40:	4e4f465f 	c3	0x4f465f
69c04d44:	41565f54 	0x41565f54
69c04d48:	0044494c 	syscall	0x11125
69c04d4c:	554f5654 	bnel	t2,t7,69c1a6a0 <pthread_share_type_t+0x12d88>
69c04d50:	00000054 	0x54
69c04d54:	0066664f 	0x66664f
69c04d58:	2e79656b 	sltiu	t9,s3,25963
69c04d5c:	00006f6b 	0x6f6b
69c04d60:	7665642f 	jalx	699590bc <_init-0x2a6f44>
69c04d64:	79656b2f 	0x79656b2f
69c04d68:	00000000 	nop
69c04d6c:	72616863 	0x72616863
69c04d70:	6b2e6567 	0x6b2e6567
69c04d74:	0000006f 	0x6f
69c04d78:	7665642f 	jalx	699590bc <_init-0x2a6f44>
69c04d7c:	6168632f 	0x6168632f
69c04d80:	72656772 	0x72656772
69c04d84:	00000000 	nop
69c04d88:	6b2e6d66 	0x6b2e6d66
69c04d8c:	0000006f 	0x6f
69c04d90:	7665642f 	jalx	699590bc <_init-0x2a6f44>
69c04d94:	006d662f 	0x6d662f
69c04d98:	2e637472 	sltiu	v1,s3,29810
69c04d9c:	00006f6b 	0x6f6b
69c04da0:	7665642f 	jalx	699590bc <_init-0x2a6f44>
69c04da4:	6374722f 	0x6374722f
69c04da8:	00000000 	nop
69c04dac:	6e72656b 	0x6e72656b
69c04db0:	6f666e69 	0x6f666e69
69c04db4:	006f6b2e 	0x6f6b2e
69c04db8:	7665642f 	jalx	699590bc <_init-0x2a6f44>
69c04dbc:	72656b2f 	0x72656b2f
69c04dc0:	666e696e 	0x666e696e
69c04dc4:	0000006f 	0x6f
69c04dc8:	756f7674 	jalx	65bdd9d0 <_init-0x4022630>
69c04dcc:	6f6b2e74 	0x6f6b2e74
69c04dd0:	00000000 	nop
69c04dd4:	7665642f 	jalx	699590bc <_init-0x2a6f44>
69c04dd8:	6f76742f 	0x6f76742f
69c04ddc:	00007475 	0x7475
69c04de0:	72616c61 	0x72616c61
69c04de4:	6f6b2e6d 	0x6f6b2e6d
69c04de8:	00000000 	nop
69c04dec:	7665642f 	jalx	699590bc <_init-0x2a6f44>
69c04df0:	616c612f 	0x616c612f
69c04df4:	00006d72 	tlt	zero,zero,0x1b5
69c04df8:	63746177 	0x63746177
69c04dfc:	676f6468 	0x676f6468
69c04e00:	006f6b2e 	0x6f6b2e
69c04e04:	7665642f 	jalx	699590bc <_init-0x2a6f44>
69c04e08:	0064772f 	0x64772f
69c04e0c:	6e6f6d75 	0x6e6f6d75
69c04e10:	726f7469 	0x726f7469
69c04e14:	006f6b2e 	0x6f6b2e
69c04e18:	7665642f 	jalx	699590bc <_init-0x2a6f44>
69c04e1c:	6f6d752f 	0x6f6d752f
69c04e20:	6f74696e 	0x6f74696e
69c04e24:	00000072 	tlt	zero,zero,0x1
69c04e28:	7665642f 	jalx	699590bc <_init-0x2a6f44>
69c04e2c:	6770752f 	0x6770752f
69c04e30:	65646172 	0x65646172
69c04e34:	00000000 	nop
69c04e38:	7665642f 	jalx	699590bc <_init-0x2a6f44>
69c04e3c:	63736d2f 	0x63736d2f
69c04e40:	00000000 	nop
69c04e44:	7665642f 	jalx	699590bc <_init-0x2a6f44>
69c04e48:	746f682f 	jalx	61bda0bc <_init-0x8025f44>
69c04e4c:	67756c70 	0x67756c70
69c04e50:	00000000 	nop
69c04e54:	7665642f 	jalx	699590bc <_init-0x2a6f44>
69c04e58:	70746d2f 	0x70746d2f
69c04e5c:	006d7264 	0x6d7264
69c04e60:	7665642f 	jalx	699590bc <_init-0x2a6f44>
69c04e64:	6e75742f 	0x6e75742f
69c04e68:	006c656e 	0x6c656e
69c04e6c:	7665642f 	jalx	699590bc <_init-0x2a6f44>
69c04e70:	6469762f 	0x6469762f
69c04e74:	695f6f65 	0x695f6f65
69c04e78:	0000006e 	0x6e
69c04e7c:	7665642f 	jalx	699590bc <_init-0x2a6f44>
69c04e80:	7073642f 	0x7073642f
69c04e84:	0065615f 	0x65615f
69c04e88:	7665642f 	jalx	699590bc <_init-0x2a6f44>
69c04e8c:	6364752f 	0x6364752f
69c04e90:	00000000 	nop
69c04e94:	7665642f 	jalx	699590bc <_init-0x2a6f44>
69c04e98:	6376752f 	0x6376752f
69c04e9c:	00000000 	nop
69c04ea0:	7665642f 	jalx	699590bc <_init-0x2a6f44>
69c04ea4:	7073642f 	0x7073642f
69c04ea8:	0064615f 	0x64615f
69c04eac:	7665642f 	jalx	699590bc <_init-0x2a6f44>
69c04eb0:	7264612f 	0x7264612f
69c04eb4:	0000006d 	0x6d
69c04eb8:	4f464e49 	c3	0x1464e49
69c04ebc:	6469702d 	0x6469702d
69c04ec0:	2d64253a 	sltiu	a0,t3,9530
69c04ec4:	252c7325 	addiu	t4,t1,29477
69c04ec8:	73252c64 	0x73252c64
69c04ecc:	202d2d2d 	addi	t5,at,11565
69c04ed0:	20746573 	addi	s4,v1,25971
69c04ed4:	2064636c 	addi	a0,v1,25452
69c04ed8:	6b636162 	0x6b636162
69c04edc:	6867696c 	0x6867696c
69c04ee0:	253a2074 	addiu	k0,t1,8308
69c04ee4:	00000a64 	0xa64
69c04ee8:	55424544 	bnel	t2,v0,69c163fc <pthread_share_type_t+0xeae4>
69c04eec:	69702d47 	0x69702d47
69c04ef0:	64253a64 	0x64253a64
69c04ef4:	2c73252d 	sltiu	s3,v1,9517
69c04ef8:	252c6425 	addiu	t4,t1,25637
69c04efc:	2d2d2d73 	sltiu	t5,t1,11635
69c04f00:	74657220 	jalx	6195c880 <_init-0x82a3780>
69c04f04:	2c64253a 	sltiu	a0,v1,9530
69c04f08:	79656b20 	0x79656b20
69c04f0c:	6c61765f 	0x6c61765f
69c04f10:	0a64253a 	j	699094e8 <_init-0x2f6b18>
69c04f14:	00000000 	nop
69c04f18:	6e616863 	0x6e616863
69c04f1c:	200a6567 	addi	t2,zero,25959
69c04f20:	5f756d63 	0x5f756d63
69c04f24:	63766564 	0x63766564
69c04f28:	6e656b6c 	0x6e656b6c
69c04f2c:	0a78253d 	j	69e094f4 <pthread_share_type_t+0x201bdc>
69c04f30:	00000000 	nop
69c04f34:	41525320 	0x41525320
69c04f38:	5f434f4d 	0x5f434f4d
69c04f3c:	204c5443 	addi	t4,v0,21571
69c04f40:	7825203d 	0x7825203d
69c04f44:	0000000a 	movz	zero,zero,zero
69c04f48:	74756873 	jalx	61d5a1cc <_init-0x7ea5e34>
69c04f4c:	2e66666f 	sltiu	a2,s3,26223
69c04f50:	00006f6b 	0x6f6b
69c04f54:	610a0a0a 	0x610a0a0a
69c04f58:	72657466 	0x72657466
69c04f5c:	736e6920 	0x736e6920
69c04f60:	20646f6d 	addi	a0,v1,28525
69c04f64:	74756873 	jalx	61d5a1cc <_init-0x7ea5e34>
69c04f68:	2c66666f 	sltiu	a2,v1,26223
69c04f6c:	73657220 	0x73657220
69c04f70:	3a746c75 	xori	s4,s3,0x6c75
69c04f74:	2e2e6425 	sltiu	t6,s1,25637
69c04f78:	6e697270 	0x6e697270
69c04f7c:	68742074 	0x68742074
69c04f80:	69207369 	0x69207369
69c04f84:	68732073 	0x68732073
69c04f88:	666f7475 	0x666f7475
69c04f8c:	61662066 	0x61662066
69c04f90:	64656c69 	0x64656c69
69c04f94:	0a0a0a0a 	j	68282828 <_init-0x197d7d8>
69c04f98:	00000000 	nop
69c04f9c:	4f525245 	c3	0x1525245
69c04fa0:	72652852 	udi2	s3,a1,a1,0x1
69c04fa4:	3d6f6e72 	0x3d6f6e72
69c04fa8:	2d296425 	sltiu	t1,t1,25637
69c04fac:	3a646970 	xori	a0,s3,0x6970
69c04fb0:	252d6425 	addiu	t5,t1,25637
69c04fb4:	64252c73 	0x64252c73
69c04fb8:	2d73252c 	sltiu	s3,t3,9516
69c04fbc:	6f202d2d 	0x6f202d2d
69c04fc0:	206e6570 	addi	t6,v1,25968
69c04fc4:	2079656b 	addi	t9,v1,25963
69c04fc8:	69766564 	0x69766564
69c04fcc:	66206563 	0x66206563
69c04fd0:	656c6961 	0x656c6961
69c04fd4:	000a2164 	0xa2164
69c04fd8:	4f525245 	c3	0x1525245
69c04fdc:	72652852 	udi2	s3,a1,a1,0x1
69c04fe0:	3d6f6e72 	0x3d6f6e72
69c04fe4:	2d296425 	sltiu	t1,t1,25637
69c04fe8:	3a646970 	xori	a0,s3,0x6970
69c04fec:	252d6425 	addiu	t5,t1,25637
69c04ff0:	64252c73 	0x64252c73
69c04ff4:	2d73252c 	sltiu	s3,t3,9516
69c04ff8:	64202d2d 	0x64202d2d
69c04ffc:	65706f6c 	0x65706f6c
69c05000:	7567206e 	jalx	659c81b8 <_init-0x4237e48>
69c05004:	6f732e69 	0x6f732e69
69c05008:	69616620 	0x69616620
69c0500c:	2e64656c 	sltiu	a0,s3,25964
69c05010:	0000000a 	movz	zero,zero,zero
69c05014:	746e6d2f 	jalx	61b9b4bc <_init-0x8064b44>
69c05018:	7369642f 	0x7369642f
69c0501c:	612f616b 	0x612f616b
69c05020:	2f737070 	sltiu	s3,k1,28784
69c05024:	6d696e61 	0x6d696e61
69c05028:	2f6e6f5f 	sltiu	t6,k1,28511
69c0502c:	6d696e61 	0x6d696e61
69c05030:	2e6e6f5f 	sltiu	t6,s3,28511
69c05034:	00707061 	0x707061
69c05038:	4f525245 	c3	0x1525245
69c0503c:	72652852 	udi2	s3,a1,a1,0x1
69c05040:	3d6f6e72 	0x3d6f6e72
69c05044:	2d296425 	sltiu	t1,t1,25637
69c05048:	3a646970 	xori	a0,s3,0x6970
69c0504c:	252d6425 	addiu	t5,t1,25637
69c05050:	64252c73 	0x64252c73
69c05054:	2d73252c 	sltiu	s3,t3,9516
69c05058:	65202d2d 	0x65202d2d
69c0505c:	7265746e 	0x7265746e
69c05060:	64636c20 	0x64636c20
69c05064:	61747320 	0x61747320
69c05068:	7962646e 	0x7962646e
69c0506c:	69616620 	0x69616620
69c05070:	2164656c 	addi	a0,t3,25964
69c05074:	0000000a 	movz	zero,zero,zero
69c05078:	4f525245 	c3	0x1525245
69c0507c:	72652852 	udi2	s3,a1,a1,0x1
69c05080:	3d6f6e72 	0x3d6f6e72
69c05084:	2d296425 	sltiu	t1,t1,25637
69c05088:	3a646970 	xori	a0,s3,0x6970
69c0508c:	252d6425 	addiu	t5,t1,25637
69c05090:	64252c73 	0x64252c73
69c05094:	2d73252c 	sltiu	s3,t3,9516
69c05098:	73202d2d 	0x73202d2d
69c0509c:	6c207465 	0x6c207465
69c050a0:	62206463 	0x62206463
69c050a4:	6c6b6361 	0x6c6b6361
69c050a8:	74686769 	jalx	61a19da4 <_init-0x81e625c>
69c050ac:	69616620 	0x69616620
69c050b0:	2164656c 	addi	a0,t3,25964
69c050b4:	0000000a 	movz	zero,zero,zero
69c050b8:	6e6f6320 	0x6e6f6320
69c050bc:	656c6f73 	0x656c6f73
69c050c0:	00000000 	nop
69c050c4:	4f525245 	c3	0x1525245
69c050c8:	72652852 	udi2	s3,a1,a1,0x1
69c050cc:	3d6f6e72 	0x3d6f6e72
69c050d0:	2d296425 	sltiu	t1,t1,25637
69c050d4:	3a646970 	xori	a0,s3,0x6970
69c050d8:	252d6425 	addiu	t5,t1,25637
69c050dc:	64252c73 	0x64252c73
69c050e0:	2d73252c 	sltiu	s3,t3,9516
69c050e4:	63202d2d 	0x63202d2d
69c050e8:	65736f6c 	0x65736f6c
69c050ec:	64636c20 	0x64636c20
69c050f0:	76656420 	jalx	69959080 <_init-0x2a6f80>
69c050f4:	20656369 	addi	a1,v1,25449
69c050f8:	6c696166 	0x6c696166
69c050fc:	0a216465 	j	68859194 <_init-0x13a6e6c>
69c05100:	00000000 	nop
69c05104:	4f525245 	c3	0x1525245
69c05108:	72652852 	udi2	s3,a1,a1,0x1
69c0510c:	3d6f6e72 	0x3d6f6e72
69c05110:	2d296425 	sltiu	t1,t1,25637
69c05114:	3a646970 	xori	a0,s3,0x6970
69c05118:	252d6425 	addiu	t5,t1,25637
69c0511c:	64252c73 	0x64252c73
69c05120:	2d73252c 	sltiu	s3,t3,9516
69c05124:	69202d2d 	0x69202d2d
69c05128:	6b6f766e 	0x6b6f766e
69c0512c:	79732065 	0x79732065
69c05130:	635f636e 	0x635f636e
69c05134:	69666e6f 	0x69666e6f
69c05138:	20292867 	addi	t1,at,10343
69c0513c:	6c696166 	0x6c696166
69c05140:	0a216465 	j	68859194 <_init-0x13a6e6c>
69c05144:	00000000 	nop
69c05148:	4f525245 	c3	0x1525245
69c0514c:	72652852 	udi2	s3,a1,a1,0x1
69c05150:	3d6f6e72 	0x3d6f6e72
69c05154:	2d296425 	sltiu	t1,t1,25637
69c05158:	3a646970 	xori	a0,s3,0x6970
69c0515c:	252d6425 	addiu	t5,t1,25637
69c05160:	64252c73 	0x64252c73
69c05164:	2d73252c 	sltiu	s3,t3,9516
69c05168:	69202d2d 	0x69202d2d
69c0516c:	6b6f766e 	0x6b6f766e
69c05170:	616e2065 	0x616e2065
69c05174:	6c66646e 	0x6c66646e
69c05178:	5f687361 	0x5f687361
69c0517c:	61647075 	0x61647075
69c05180:	29286574 	slti	t0,t1,25972
69c05184:	69616620 	0x69616620
69c05188:	2164656c 	addi	a0,t3,25964
69c0518c:	0000000a 	movz	zero,zero,zero
69c05190:	73696455 	udi5	k1,t1,t4,0x11
69c05194:	6c6f566b 	0x6c6f566b
69c05198:	00656d75 	0x656d75
69c0519c:	4f525245 	c3	0x1525245
69c051a0:	72652852 	udi2	s3,a1,a1,0x1
69c051a4:	3d6f6e72 	0x3d6f6e72
69c051a8:	2d296425 	sltiu	t1,t1,25637
69c051ac:	3a646970 	xori	a0,s3,0x6970
69c051b0:	252d6425 	addiu	t5,t1,25637
69c051b4:	64252c73 	0x64252c73
69c051b8:	2d73252c 	sltiu	s3,t3,9516
69c051bc:	6f202d2d 	0x6f202d2d
69c051c0:	206e6570 	addi	t6,v1,25968
69c051c4:	66207325 	0x66207325
69c051c8:	656c6961 	0x656c6961
69c051cc:	000a2164 	0xa2164
69c051d0:	69c04c98 	0x69c04c98
69c051d4:	69c04cb4 	0x69c04cb4
69c051d8:	69c04cc4 	0x69c04cc4
69c051dc:	69c04cd8 	0x69c04cd8
69c051e0:	69c04cec 	0x69c04cec
69c051e4:	69c04d58 	0x69c04d58
69c051e8:	69c04d60 	0x69c04d60
69c051ec:	69c04d6c 	0x69c04d6c
69c051f0:	69c04d88 	0x69c04d88
69c051f4:	69c04d98 	0x69c04d98
69c051f8:	69c04dac 	0x69c04dac
69c051fc:	69c04dc8 	0x69c04dc8
69c05200:	69c04de0 	0x69c04de0
69c05204:	69c04df8 	0x69c04df8
69c05208:	69c04e0c 	0x69c04e0c
69c0520c:	6362696c 	0x6362696c
69c05210:	2e73665f 	sltiu	s3,s3,26207
69c05214:	00006f73 	tltu	zero,zero,0x1bd
69c05218:	6362696c 	0x6362696c
69c0521c:	2e73665f 	sltiu	s3,s3,26207
69c05220:	6f206f73 	0x6f206f73
69c05224:	206e6570 	addi	t6,v1,25968
69c05228:	6f727265 	0x6f727265
69c0522c:	00000a72 	tlt	zero,zero,0x29
69c05230:	6f727265 	0x6f727265
69c05234:	25202172 	addiu	zero,t1,8562
69c05238:	64252c73 	0x64252c73
69c0523c:	b7dece3a 	0xb7dece3a
69c05240:	b5d2d5a8 	0xb5d2d5a8
69c05244:	697028bd 	0x697028bd
69c05248:	253d3d64 	addiu	sp,t1,15716
69c0524c:	c4b52964 	lwc1	$f21,10596(a1)
69c05250:	ccb3f8bd 	pref	0x13,-1859(a1)
69c05254:	b9b9e1bd 	swr	t9,-7747(t5)
69c05258:	000ae5cc 	syscall	0x2b97
69c0525c:	6f727265 	0x6f727265
69c05260:	25202172 	addiu	zero,t1,8562
69c05264:	64252c73 	0x64252c73
69c05268:	b3f8bd3a 	0xb3f8bd3a
69c0526c:	bdb4b4cc 	cache	0x14,-19252(t5)
69c05270:	b0a7caa8 	0xb0a7caa8
69c05274:	727265dc 	udi12	s3,s2,t4,0x17
69c05278:	253d6f6e 	addiu	sp,t1,28526
69c0527c:	00000a64 	0xa64
69c05280:	6f727265 	0x6f727265
69c05284:	25202172 	addiu	zero,t1,8562
69c05288:	64252c73 	0x64252c73
69c0528c:	b4d1d23a 	0xb4d1d23a
69c05290:	cfbdb5ef 	pref	0x1d,-18961(sp)
69c05294:	d6b3cdb5 	ldc1	$f19,-12875(s5)
69c05298:	b5d6b3a7 	0xb5d6b3a7
69c0529c:	b4eed7c4 	0xb4eed7c4
69c052a0:	b3f8bdf3 	0xb3f8bdf3
69c052a4:	0afdcacc 	j	6bf72b30 <pthread_share_type_t+0x236b218>
69c052a8:	Address 0x69c052a8 is out of bounds.

Disassembly of section .fini:

69c052ac <_fini>:
69c052ac:	27bdffe0 	addiu	sp,sp,-32
69c052b0:	afbf0014 	sw	ra,20(sp)
69c052b4:	0e700f76 	jal	69c03dd8 <__do_global_dtors_aux>
69c052b8:	00000000 	nop
69c052bc:	8fbf0014 	lw	ra,20(sp)
69c052c0:	27bd0020 	addiu	sp,sp,32
69c052c4:	03e00008 	jr	ra
69c052c8:	00000000 	nop
Disassembly of section .ctors:

69c06000 <__CTOR_LIST__>:
69c06000:	ffffffff 	sdc3	$31,-1(ra)

69c06004 <__CTOR_END__>:
69c06004:	00000000 	nop
Disassembly of section .dtors:

69c06008 <__DTOR_LIST__>:
69c06008:	ffffffff 	sdc3	$31,-1(ra)
69c0600c:	69c03e40 	0x69c03e40

69c06010 <__DTOR_END__>:
69c06010:	00000000 	nop
Disassembly of section .data:

69c06014 <s_fb_dev_fd>:
69c06014:	ffffffff 	sdc3	$31,-1(ra)

69c06018 <s_fontdes>:
69c06018:	ffffffff 	sdc3	$31,-1(ra)

69c0601c <s_dev_fd>:
69c0601c:	ffffffff 	sdc3	$31,-1(ra)

69c06020 <s_ada_sleep_time>:
69c06020:	00000002 	srl	zero,zero,0x0

69c06024 <big_table>:
69c06024:	00010000 	sll	zero,at,0x0
69c06028:	00030002 	srl	zero,v1,0x0
69c0602c:	00050004 	sllv	zero,a1,zero
69c06030:	00070006 	srlv	zero,a3,zero
69c06034:	00090008 	0x90008
69c06038:	000b000a 	movz	zero,zero,t3
69c0603c:	000d000c 	syscall	0x3400
69c06040:	000f000e 	0xf000e
69c06044:	00110010 	0x110010
69c06048:	00130012 	0x130012
69c0604c:	00150014 	0x150014
69c06050:	00170016 	0x170016
69c06054:	00190018 	mult	zero,t9
69c06058:	001b001a 	div	zero,zero,k1
69c0605c:	001d001c 	0x1d001c
69c06060:	001f001e 	0x1f001e
69c06064:	00210020 	add	zero,at,at
69c06068:	00230022 	sub	zero,at,v1
69c0606c:	00250024 	and	zero,at,a1
69c06070:	00270026 	xor	zero,at,a3
69c06074:	00290028 	0x290028
69c06078:	002b002a 	slt	zero,at,t3
69c0607c:	002d002c 	0x2d002c
69c06080:	002f002e 	0x2f002e
69c06084:	00310030 	tge	at,s1
69c06088:	00330032 	tlt	at,s3
69c0608c:	00350034 	teq	at,s5
69c06090:	00370036 	tne	at,s7
69c06094:	00390038 	0x390038
69c06098:	003b003a 	0x3b003a
69c0609c:	003d003c 	0x3d003c
69c060a0:	003f003e 	0x3f003e
69c060a4:	00410040 	0x410040
69c060a8:	00430042 	0x430042
69c060ac:	00450044 	0x450044
69c060b0:	00470046 	rorv	zero,a3,v0
69c060b4:	00490048 	0x490048
69c060b8:	004b004a 	0x4b004a
69c060bc:	004d004c 	syscall	0x13401
69c060c0:	004f004e 	0x4f004e
69c060c4:	00510050 	0x510050
69c060c8:	00530052 	0x530052
69c060cc:	00550054 	0x550054
69c060d0:	00570056 	0x570056
69c060d4:	00590058 	0x590058
69c060d8:	005b005a 	0x5b005a
69c060dc:	005d005c 	0x5d005c
69c060e0:	005f005e 	0x5f005e
69c060e4:	00410060 	0x410060
69c060e8:	00430042 	0x430042
69c060ec:	00450044 	0x450044
69c060f0:	00470046 	rorv	zero,a3,v0
69c060f4:	00490048 	0x490048
69c060f8:	004b004a 	0x4b004a
69c060fc:	004d004c 	syscall	0x13401
69c06100:	004f004e 	0x4f004e
69c06104:	00510050 	0x510050
69c06108:	00530052 	0x530052
69c0610c:	00550054 	0x550054
69c06110:	00570056 	0x570056
69c06114:	00590058 	0x590058
69c06118:	007b005a 	0x7b005a
69c0611c:	007d007c 	0x7d007c
69c06120:	007f007e 	0x7f007e
69c06124:	00810080 	0x810080
69c06128:	00830082 	0x830082
69c0612c:	00850084 	0x850084
69c06130:	00870086 	0x870086
69c06134:	00890088 	0x890088
69c06138:	008b008a 	0x8b008a
69c0613c:	008d008c 	syscall	0x23402
69c06140:	008f008e 	0x8f008e
69c06144:	00910090 	0x910090
69c06148:	00930092 	0x930092
69c0614c:	00950094 	0x950094
69c06150:	00970096 	0x970096
69c06154:	00990098 	0x990098
69c06158:	009b009a 	0x9b009a
69c0615c:	009d009c 	0x9d009c
69c06160:	009f009e 	0x9f009e
69c06164:	00a100a0 	0xa100a0
69c06168:	00a300a2 	0xa300a2
69c0616c:	00a500a4 	0xa500a4
69c06170:	00a700a6 	0xa700a6
69c06174:	00a900a8 	0xa900a8
69c06178:	00ab00aa 	0xab00aa
69c0617c:	00ad00ac 	0xad00ac
69c06180:	00af00ae 	0xaf00ae
69c06184:	00b100b0 	tge	a1,s1,0x2
69c06188:	00b300b2 	tlt	a1,s3,0x2
69c0618c:	00b500b4 	teq	a1,s5,0x2
69c06190:	00b700b6 	tne	a1,s7,0x2
69c06194:	00b900b8 	0xb900b8
69c06198:	00bb00ba 	0xbb00ba
69c0619c:	00bd00bc 	0xbd00bc
69c061a0:	00bf00be 	0xbf00be
69c061a4:	00c100c0 	0xc100c0
69c061a8:	00c300c2 	0xc300c2
69c061ac:	00c500c4 	0xc500c4
69c061b0:	00c700c6 	0xc700c6
69c061b4:	00c900c8 	0xc900c8
69c061b8:	00cb00ca 	0xcb00ca
69c061bc:	00cd00cc 	syscall	0x33403
69c061c0:	00cf00ce 	0xcf00ce
69c061c4:	00d100d0 	0xd100d0
69c061c8:	00d300d2 	0xd300d2
69c061cc:	00d500d4 	0xd500d4
69c061d0:	00d700d6 	0xd700d6
69c061d4:	00d900d8 	0xd900d8
69c061d8:	00db00da 	0xdb00da
69c061dc:	00dd00dc 	0xdd00dc
69c061e0:	00df00de 	0xdf00de
69c061e4:	00c100c0 	0xc100c0
69c061e8:	00c300c2 	0xc300c2
69c061ec:	00c500c4 	0xc500c4
69c061f0:	00c700c6 	0xc700c6
69c061f4:	00c900c8 	0xc900c8
69c061f8:	00cb00ca 	0xcb00ca
69c061fc:	00cd00cc 	syscall	0x33403
69c06200:	00cf00ce 	0xcf00ce
69c06204:	00d100d0 	0xd100d0
69c06208:	00d300d2 	0xd300d2
69c0620c:	00d500d4 	0xd500d4
69c06210:	00f700d6 	0xf700d6
69c06214:	00d900d8 	0xd900d8
69c06218:	00db00da 	0xdb00da
69c0621c:	00dd00dc 	0xdd00dc
69c06220:	017800de 	0x17800de
69c06224:	01000100 	0x1000100
69c06228:	01020102 	0x1020102
69c0622c:	01040104 	0x1040104
69c06230:	01060106 	0x1060106
69c06234:	01080108 	0x1080108
69c06238:	010a010a 	0x10a010a
69c0623c:	010c010c 	syscall	0x43004
69c06240:	010e010e 	0x10e010e
69c06244:	01100110 	0x1100110
69c06248:	01120112 	0x1120112
69c0624c:	01140114 	0x1140114
69c06250:	01160116 	0x1160116
69c06254:	01180118 	0x1180118
69c06258:	011a011a 	0x11a011a
69c0625c:	011c011c 	0x11c011c
69c06260:	011e011e 	0x11e011e
69c06264:	01200120 	0x1200120
69c06268:	01220122 	0x1220122
69c0626c:	01240124 	0x1240124
69c06270:	01260126 	0x1260126
69c06274:	01280128 	0x1280128
69c06278:	012a012a 	0x12a012a
69c0627c:	012c012c 	0x12c012c
69c06280:	012e012e 	0x12e012e
69c06284:	01310130 	tge	t1,s1,0x4
69c06288:	01320132 	tlt	t1,s2,0x4
69c0628c:	01340134 	teq	t1,s4,0x4
69c06290:	01360136 	tne	t1,s6,0x4
69c06294:	01390138 	0x1390138
69c06298:	013b0139 	0x13b0139
69c0629c:	013d013b 	0x13d013b
69c062a0:	013f013d 	0x13f013d
69c062a4:	0141013f 	0x141013f
69c062a8:	01430141 	0x1430141
69c062ac:	01450143 	0x1450143
69c062b0:	01470145 	0x1470145
69c062b4:	01490147 	0x1490147
69c062b8:	014a014a 	0x14a014a
69c062bc:	014c014c 	syscall	0x53005
69c062c0:	014e014e 	0x14e014e
69c062c4:	01500150 	0x1500150
69c062c8:	01520152 	0x1520152
69c062cc:	01540154 	0x1540154
69c062d0:	01560156 	0x1560156
69c062d4:	01580158 	0x1580158
69c062d8:	015a015a 	0x15a015a
69c062dc:	015c015c 	0x15c015c
69c062e0:	015e015e 	0x15e015e
69c062e4:	01600160 	0x1600160
69c062e8:	01620162 	0x1620162
69c062ec:	01640164 	0x1640164
69c062f0:	01660166 	0x1660166
69c062f4:	01680168 	0x1680168
69c062f8:	016a016a 	0x16a016a
69c062fc:	016c016c 	0x16c016c
69c06300:	016e016e 	0x16e016e
69c06304:	01700170 	tge	t3,s0,0x5
69c06308:	01720172 	tlt	t3,s2,0x5
69c0630c:	01740174 	teq	t3,s4,0x5
69c06310:	01760176 	tne	t3,s6,0x5
69c06314:	01790178 	0x1790178
69c06318:	017b0179 	0x17b0179
69c0631c:	017d017b 	0x17d017b
69c06320:	017f017d 	0x17f017d
69c06324:	01810243 	0x1810243
69c06328:	01820182 	0x1820182
69c0632c:	01840184 	0x1840184
69c06330:	01870186 	0x1870186
69c06334:	01890187 	0x1890187
69c06338:	018b018a 	0x18b018a
69c0633c:	018d018b 	0x18d018b
69c06340:	018f018e 	0x18f018e
69c06344:	01910190 	0x1910190
69c06348:	01930191 	0x1930191
69c0634c:	01f60194 	0x1f60194
69c06350:	01970196 	0x1970196
69c06354:	01980198 	0x1980198
69c06358:	019b023d 	0x19b023d
69c0635c:	019d019c 	0x19d019c
69c06360:	019f0220 	0x19f0220
69c06364:	01a001a0 	0x1a001a0
69c06368:	01a201a2 	0x1a201a2
69c0636c:	01a401a4 	0x1a401a4
69c06370:	01a701a6 	0x1a701a6
69c06374:	01a901a7 	0x1a901a7
69c06378:	01ab01aa 	0x1ab01aa
69c0637c:	01ac01ac 	0x1ac01ac
69c06380:	01af01ae 	0x1af01ae
69c06384:	01b101af 	0x1b101af
69c06388:	01b301b2 	tlt	t5,s3,0x6
69c0638c:	01b501b3 	tltu	t5,s5,0x6
69c06390:	01b701b5 	0x1b701b5
69c06394:	01b801b8 	0x1b801b8
69c06398:	01bb01ba 	0x1bb01ba
69c0639c:	01bc01bc 	0x1bc01bc
69c063a0:	01f701be 	0x1f701be
69c063a4:	01c101c0 	0x1c101c0
69c063a8:	01c301c2 	0x1c301c2
69c063ac:	01c501c4 	0x1c501c4
69c063b0:	01c701c4 	0x1c701c4
69c063b4:	01c701c8 	0x1c701c8
69c063b8:	01cb01ca 	0x1cb01ca
69c063bc:	01cd01ca 	0x1cd01ca
69c063c0:	01cf01cd 	break	0x1cf,0x7
69c063c4:	01d101cf 	0x1d101cf
69c063c8:	01d301d1 	0x1d301d1
69c063cc:	01d501d3 	0x1d501d3
69c063d0:	01d701d5 	0x1d701d5
69c063d4:	01d901d7 	0x1d901d7
69c063d8:	01db01d9 	0x1db01d9
69c063dc:	018e01db 	0x18e01db
69c063e0:	01de01de 	0x1de01de
69c063e4:	01e001e0 	0x1e001e0
69c063e8:	01e201e2 	0x1e201e2
69c063ec:	01e401e4 	0x1e401e4
69c063f0:	01e601e6 	0x1e601e6
69c063f4:	01e801e8 	0x1e801e8
69c063f8:	01ea01ea 	0x1ea01ea
69c063fc:	01ec01ec 	0x1ec01ec
69c06400:	01ee01ee 	0x1ee01ee
69c06404:	01f101f0 	tge	t7,s1,0x7
69c06408:	01f101f2 	tlt	t7,s1,0x7
69c0640c:	01f401f4 	teq	t7,s4,0x7
69c06410:	01f701f6 	tne	t7,s7,0x7
69c06414:	01f801f8 	0x1f801f8
69c06418:	01fa01fa 	0x1fa01fa
69c0641c:	01fc01fc 	0x1fc01fc
69c06420:	01fe01fe 	0x1fe01fe
69c06424:	02000200 	0x2000200
69c06428:	02020202 	0x2020202
69c0642c:	02040204 	0x2040204
69c06430:	02060206 	0x2060206
69c06434:	02080208 	0x2080208
69c06438:	020a020a 	0x20a020a
69c0643c:	020c020c 	syscall	0x83008
69c06440:	020e020e 	0x20e020e
69c06444:	02100210 	0x2100210
69c06448:	02120212 	0x2120212
69c0644c:	02140214 	0x2140214
69c06450:	02160216 	0x2160216
69c06454:	02180218 	0x2180218
69c06458:	021a021a 	0x21a021a
69c0645c:	021c021c 	0x21c021c
69c06460:	021e021e 	0x21e021e
69c06464:	02210220 	0x2210220
69c06468:	02220222 	0x2220222
69c0646c:	02240224 	0x2240224
69c06470:	02260226 	0x2260226
69c06474:	02280228 	0x2280228
69c06478:	022a022a 	0x22a022a
69c0647c:	022c022c 	0x22c022c
69c06480:	022e022e 	0x22e022e
69c06484:	02300230 	tge	s1,s0,0x8
69c06488:	02320232 	tlt	s1,s2,0x8
69c0648c:	02350234 	teq	s1,s5,0x8
69c06490:	02370236 	tne	s1,s7,0x8
69c06494:	02390238 	0x2390238
69c06498:	023b2c65 	0x23b2c65
69c0649c:	023d023b 	0x23d023b
69c064a0:	023f2c66 	0x23f2c66
69c064a4:	02410240 	0x2410240
69c064a8:	02430241 	0x2430241
69c064ac:	02450244 	0x2450244
69c064b0:	02460246 	0x2460246
69c064b4:	02480248 	0x2480248
69c064b8:	024a024a 	0x24a024a
69c064bc:	024c024c 	syscall	0x93009
69c064c0:	024e024e 	0x24e024e
69c064c4:	02510250 	0x2510250
69c064c8:	01810252 	0x1810252
69c064cc:	02550186 	0x2550186
69c064d0:	018a0189 	0x18a0189
69c064d4:	018f0258 	0x18f0258
69c064d8:	0190025a 	0x190025a
69c064dc:	025d025c 	0x25d025c
69c064e0:	025f025e 	0x25f025e
69c064e4:	02610193 	0x2610193
69c064e8:	01940262 	0x1940262
69c064ec:	02650264 	0x2650264
69c064f0:	02670266 	0x2670266
69c064f4:	01960197 	0x1960197
69c064f8:	2c62026a 	sltiu	v0,v1,618
69c064fc:	026d026c 	0x26d026c
69c06500:	019c026e 	0x19c026e
69c06504:	02710270 	tge	s3,s1,0x9
69c06508:	0273019d 	0x273019d
69c0650c:	019f0274 	teq	t4,ra,0x9
69c06510:	02770276 	tne	s3,s7,0x9
69c06514:	02790278 	0x2790278
69c06518:	027b027a 	0x27b027a
69c0651c:	2c64027c 	sltiu	a0,v1,636
69c06520:	027f027e 	0x27f027e
69c06524:	028101a6 	0x28101a6
69c06528:	01a90282 	0x1a90282
69c0652c:	02850284 	0x2850284
69c06530:	02870286 	0x2870286
69c06534:	024401ae 	0x24401ae
69c06538:	01b201b1 	tgeu	t5,s2,0x6
69c0653c:	028d0245 	0x28d0245
69c06540:	028f028e 	0x28f028e
69c06544:	02910290 	0x2910290
69c06548:	029301b7 	0x29301b7
69c0654c:	02950294 	0x2950294
69c06550:	02970296 	0x2970296
69c06554:	02990298 	0x2990298
69c06558:	029b029a 	0x29b029a
69c0655c:	029d029c 	0x29d029c
69c06560:	029f029e 	0x29f029e
69c06564:	02a102a0 	0x2a102a0
69c06568:	02a302a2 	0x2a302a2
69c0656c:	02a502a4 	0x2a502a4
69c06570:	02a702a6 	0x2a702a6
69c06574:	02a902a8 	0x2a902a8
69c06578:	02ab02aa 	0x2ab02aa
69c0657c:	02ad02ac 	0x2ad02ac
69c06580:	02af02ae 	0x2af02ae
69c06584:	02b102b0 	tge	s5,s1,0xa
69c06588:	02b302b2 	tlt	s5,s3,0xa
69c0658c:	02b502b4 	teq	s5,s5,0xa
69c06590:	02b702b6 	tne	s5,s7,0xa
69c06594:	02b902b8 	0x2b902b8
69c06598:	02bb02ba 	0x2bb02ba
69c0659c:	02bd02bc 	0x2bd02bc
69c065a0:	02bf02be 	0x2bf02be
69c065a4:	02c102c0 	0x2c102c0
69c065a8:	02c302c2 	0x2c302c2
69c065ac:	02c502c4 	0x2c502c4
69c065b0:	02c702c6 	0x2c702c6
69c065b4:	02c902c8 	0x2c902c8
69c065b8:	02cb02ca 	0x2cb02ca
69c065bc:	02cd02cc 	syscall	0xb340b
69c065c0:	02cf02ce 	0x2cf02ce
69c065c4:	02d102d0 	0x2d102d0
69c065c8:	02d302d2 	0x2d302d2
69c065cc:	02d502d4 	0x2d502d4
69c065d0:	02d702d6 	0x2d702d6
69c065d4:	02d902d8 	0x2d902d8
69c065d8:	02db02da 	0x2db02da
69c065dc:	02dd02dc 	0x2dd02dc
69c065e0:	02df02de 	0x2df02de
69c065e4:	02e102e0 	0x2e102e0
69c065e8:	02e302e2 	0x2e302e2
69c065ec:	02e502e4 	0x2e502e4
69c065f0:	02e702e6 	0x2e702e6
69c065f4:	02e902e8 	0x2e902e8
69c065f8:	02eb02ea 	0x2eb02ea
69c065fc:	02ed02ec 	0x2ed02ec
69c06600:	02ef02ee 	0x2ef02ee
69c06604:	02f102f0 	tge	s7,s1,0xb
69c06608:	02f302f2 	tlt	s7,s3,0xb
69c0660c:	02f502f4 	teq	s7,s5,0xb
69c06610:	02f702f6 	tne	s7,s7,0xb
69c06614:	02f902f8 	0x2f902f8
69c06618:	02fb02fa 	0x2fb02fa
69c0661c:	02fd02fc 	0x2fd02fc
69c06620:	02ff02fe 	0x2ff02fe
69c06624:	03010300 	0x3010300
69c06628:	03030302 	0x3030302
69c0662c:	03050304 	0x3050304
69c06630:	03070306 	0x3070306
69c06634:	03090308 	0x3090308
69c06638:	030b030a 	0x30b030a
69c0663c:	030d030c 	syscall	0xc340c
69c06640:	030f030e 	0x30f030e
69c06644:	03110310 	0x3110310
69c06648:	03130312 	0x3130312
69c0664c:	03150314 	0x3150314
69c06650:	03170316 	0x3170316
69c06654:	03190318 	0x3190318
69c06658:	031b031a 	0x31b031a
69c0665c:	031d031c 	0x31d031c
69c06660:	031f031e 	0x31f031e
69c06664:	03210320 	0x3210320
69c06668:	03230322 	0x3230322
69c0666c:	03250324 	0x3250324
69c06670:	03270326 	0x3270326
69c06674:	03290328 	0x3290328
69c06678:	032b032a 	0x32b032a
69c0667c:	032d032c 	0x32d032c
69c06680:	032f032e 	0x32f032e
69c06684:	03310330 	tge	t9,s1,0xc
69c06688:	03330332 	tlt	t9,s3,0xc
69c0668c:	03350334 	teq	t9,s5,0xc
69c06690:	03370336 	tne	t9,s7,0xc
69c06694:	03390338 	0x3390338
69c06698:	033b033a 	0x33b033a
69c0669c:	033d033c 	0x33d033c
69c066a0:	033f033e 	0x33f033e
69c066a4:	03410340 	0x3410340
69c066a8:	03430342 	0x3430342
69c066ac:	03450344 	0x3450344
69c066b0:	03470346 	0x3470346
69c066b4:	03490348 	0x3490348
69c066b8:	034b034a 	0x34b034a
69c066bc:	034d034c 	syscall	0xd340d
69c066c0:	034f034e 	0x34f034e
69c066c4:	03510350 	0x3510350
69c066c8:	03530352 	0x3530352
69c066cc:	03550354 	0x3550354
69c066d0:	03570356 	0x3570356
69c066d4:	03590358 	0x3590358
69c066d8:	035b035a 	0x35b035a
69c066dc:	035d035c 	0x35d035c
69c066e0:	035f035e 	0x35f035e
69c066e4:	03610360 	0x3610360
69c066e8:	03630362 	0x3630362
69c066ec:	03650364 	0x3650364
69c066f0:	03670366 	0x3670366
69c066f4:	03690368 	0x3690368
69c066f8:	036b036a 	0x36b036a
69c066fc:	036d036c 	0x36d036c
69c06700:	036f036e 	0x36f036e
69c06704:	03710370 	tge	k1,s1,0xd
69c06708:	03730372 	tlt	k1,s3,0xd
69c0670c:	03750374 	teq	k1,s5,0xd
69c06710:	03770376 	tne	k1,s7,0xd
69c06714:	03790378 	0x3790378
69c06718:	03fd037a 	0x3fd037a
69c0671c:	03ff03fe 	0x3ff03fe
69c06720:	037f037e 	0x37f037e
69c06724:	03810380 	0x3810380
69c06728:	03830382 	0x3830382
69c0672c:	03850384 	0x3850384
69c06730:	03870386 	0x3870386
69c06734:	03890388 	0x3890388
69c06738:	038b038a 	0x38b038a
69c0673c:	038d038c 	syscall	0xe340e
69c06740:	038f038e 	0x38f038e
69c06744:	03910390 	0x3910390
69c06748:	03930392 	0x3930392
69c0674c:	03950394 	0x3950394
69c06750:	03970396 	0x3970396
69c06754:	03990398 	0x3990398
69c06758:	039b039a 	0x39b039a
69c0675c:	039d039c 	0x39d039c
69c06760:	039f039e 	0x39f039e
69c06764:	03a103a0 	0x3a103a0
69c06768:	03a303a2 	0x3a303a2
69c0676c:	03a503a4 	0x3a503a4
69c06770:	03a703a6 	0x3a703a6
69c06774:	03a903a8 	0x3a903a8
69c06778:	03ab03aa 	0x3ab03aa
69c0677c:	03880386 	0x3880386
69c06780:	038a0389 	0x38a0389
69c06784:	039103b0 	tge	gp,s1,0xe
69c06788:	03930392 	0x3930392
69c0678c:	03950394 	0x3950394
69c06790:	03970396 	0x3970396
69c06794:	03990398 	0x3990398
69c06798:	039b039a 	0x39b039a
69c0679c:	039d039c 	0x39d039c
69c067a0:	039f039e 	0x39f039e
69c067a4:	03a103a0 	0x3a103a0
69c067a8:	03a303a3 	0x3a303a3
69c067ac:	03a503a4 	0x3a503a4
69c067b0:	03a703a6 	0x3a703a6
69c067b4:	03a903a8 	0x3a903a8
69c067b8:	03ab03aa 	0x3ab03aa
69c067bc:	038e038c 	syscall	0xe380e
69c067c0:	03cf038f 	0x3cf038f
69c067c4:	03d103d0 	0x3d103d0
69c067c8:	03d303d2 	0x3d303d2
69c067cc:	03d503d4 	0x3d503d4
69c067d0:	03d703d6 	0x3d703d6
69c067d4:	03d803d8 	0x3d803d8
69c067d8:	03da03da 	0x3da03da
69c067dc:	03dc03dc 	0x3dc03dc
69c067e0:	03de03de 	0x3de03de
69c067e4:	03e003e0 	0x3e003e0
69c067e8:	03e203e2 	0x3e203e2
69c067ec:	03e403e4 	0x3e403e4
69c067f0:	03e603e6 	0x3e603e6
69c067f4:	03e803e8 	0x3e803e8
69c067f8:	03ea03ea 	0x3ea03ea
69c067fc:	03ec03ec 	0x3ec03ec
69c06800:	03ee03ee 	0x3ee03ee
69c06804:	03f103f0 	tge	ra,s1,0xf
69c06808:	03f303f9 	0x3f303f9
69c0680c:	03f503f4 	teq	ra,s5,0xf
69c06810:	03f703f6 	tne	ra,s7,0xf
69c06814:	03f903f7 	0x3f903f7
69c06818:	03fa03fa 	0x3fa03fa
69c0681c:	03fd03fc 	0x3fd03fc
69c06820:	03ff03fe 	0x3ff03fe
69c06824:	04010400 	b	69c07828 <boot_table+0x134>
69c06828:	04030402 	bgezl	zero,69c07834 <boot_table+0x140>
69c0682c:	04050404 	0x4050404
69c06830:	04070406 	0x4070406
69c06834:	04090408 	tgeiu	zero,1032
69c06838:	040b040a 	tltiu	zero,1034
69c0683c:	040d040c 	0x40d040c
69c06840:	040f040e 	0x40f040e
69c06844:	04110410 	bal	69c07888 <boot_table+0x194>
69c06848:	04130412 	bgezall	zero,69c07894 <boot_table+0x1a0>
69c0684c:	04150414 	0x4150414
69c06850:	04170416 	0x4170416
69c06854:	04190418 	0x4190418
69c06858:	041b041a 	0x41b041a
69c0685c:	041d041c 	0x41d041c
69c06860:	041f041e 	synci	1054(zero)
69c06864:	04210420 	bgez	at,69c078e8 <boot_table+0x1f4>
69c06868:	04230422 	bgezl	at,69c078f4 <plist_flag>
69c0686c:	04250424 	0x4250424
69c06870:	04270426 	0x4270426
69c06874:	04290428 	tgeiu	at,1064
69c06878:	042b042a 	tltiu	at,1066
69c0687c:	042d042c 	0x42d042c
69c06880:	042f042e 	0x42f042e
69c06884:	04110410 	bal	69c078c8 <boot_table+0x1d4>
69c06888:	04130412 	bgezall	zero,69c078d4 <boot_table+0x1e0>
69c0688c:	04150414 	0x4150414
69c06890:	04170416 	0x4170416
69c06894:	04190418 	0x4190418
69c06898:	041b041a 	0x41b041a
69c0689c:	041d041c 	0x41d041c
69c068a0:	041f041e 	synci	1054(zero)
69c068a4:	04210420 	bgez	at,69c07928 <pthread_share_type_t+0x10>
69c068a8:	04230422 	bgezl	at,69c07934 <pthread_share_type_t+0x1c>
69c068ac:	04250424 	0x4250424
69c068b0:	04270426 	0x4270426
69c068b4:	04290428 	tgeiu	at,1064
69c068b8:	042b042a 	tltiu	at,1066
69c068bc:	042d042c 	0x42d042c
69c068c0:	042f042e 	0x42f042e
69c068c4:	04010400 	b	69c078c8 <boot_table+0x1d4>
69c068c8:	04030402 	bgezl	zero,69c078d4 <boot_table+0x1e0>
69c068cc:	04050404 	0x4050404
69c068d0:	04070406 	0x4070406
69c068d4:	04090408 	tgeiu	zero,1032
69c068d8:	040b040a 	tltiu	zero,1034
69c068dc:	040d040c 	0x40d040c
69c068e0:	040f040e 	0x40f040e
69c068e4:	04600460 	bltz	v1,69c07a68 <pthread_share_type_t+0x150>
69c068e8:	04620462 	bltzl	v1,69c07a74 <pthread_share_type_t+0x15c>
69c068ec:	04640464 	0x4640464
69c068f0:	04660466 	0x4660466
69c068f4:	04680468 	tgei	v1,1128
69c068f8:	046a046a 	tlti	v1,1130
69c068fc:	046c046c 	teqi	v1,1132
69c06900:	046e046e 	tnei	v1,1134
69c06904:	04700470 	bltzal	v1,69c07ac8 <pthread_share_type_t+0x1b0>
69c06908:	04720472 	bltzall	v1,69c07ad4 <pthread_share_type_t+0x1bc>
69c0690c:	04740474 	0x4740474
69c06910:	04760476 	0x4760476
69c06914:	04780478 	0x4780478
69c06918:	047a047a 	0x47a047a
69c0691c:	047c047c 	0x47c047c
69c06920:	047e047e 	0x47e047e
69c06924:	04800480 	bltz	a0,69c07b28 <pthread_share_type_t+0x210>
69c06928:	04830482 	bgezl	a0,69c07b34 <pthread_share_type_t+0x21c>
69c0692c:	04850484 	0x4850484
69c06930:	04870486 	0x4870486
69c06934:	04890488 	tgeiu	a0,1160
69c06938:	048a048a 	tlti	a0,1162
69c0693c:	048c048c 	teqi	a0,1164
69c06940:	048e048e 	tnei	a0,1166
69c06944:	04900490 	bltzal	a0,69c07b88 <pthread_share_type_t+0x270>
69c06948:	04920492 	bltzall	a0,69c07b94 <pthread_share_type_t+0x27c>
69c0694c:	04940494 	0x4940494
69c06950:	04960496 	0x4960496
69c06954:	04980498 	0x4980498
69c06958:	049a049a 	0x49a049a
69c0695c:	049c049c 	0x49c049c
69c06960:	049e049e 	0x49e049e
69c06964:	04a004a0 	bltz	a1,69c07be8 <pthread_share_type_t+0x2d0>
69c06968:	04a204a2 	bltzl	a1,69c07bf4 <pthread_share_type_t+0x2dc>
69c0696c:	04a404a4 	0x4a404a4
69c06970:	04a604a6 	0x4a604a6
69c06974:	04a804a8 	tgei	a1,1192
69c06978:	04aa04aa 	tlti	a1,1194
69c0697c:	04ac04ac 	teqi	a1,1196
69c06980:	04ae04ae 	tnei	a1,1198
69c06984:	04b004b0 	bltzal	a1,69c07c48 <pthread_share_type_t+0x330>
69c06988:	04b204b2 	bltzall	a1,69c07c54 <pthread_share_type_t+0x33c>
69c0698c:	04b404b4 	0x4b404b4
69c06990:	04b604b6 	0x4b604b6
69c06994:	04b804b8 	0x4b804b8
69c06998:	04ba04ba 	0x4ba04ba
69c0699c:	04bc04bc 	0x4bc04bc
69c069a0:	04be04be 	0x4be04be
69c069a4:	04c104c0 	bgez	a2,69c07ca8 <pthread_share_type_t+0x390>
69c069a8:	04c304c1 	bgezl	a2,69c07cb0 <pthread_share_type_t+0x398>
69c069ac:	04c504c3 	0x4c504c3
69c069b0:	04c704c5 	0x4c704c5
69c069b4:	04c904c7 	tgeiu	a2,1223
69c069b8:	04cb04c9 	tltiu	a2,1225
69c069bc:	04cd04cb 	0x4cd04cb
69c069c0:	04c004cd 	bltz	a2,69c07cf8 <pthread_share_type_t+0x3e0>
69c069c4:	04d004d0 	bltzal	a2,69c07d08 <pthread_share_type_t+0x3f0>
69c069c8:	04d204d2 	bltzall	a2,69c07d14 <pthread_share_type_t+0x3fc>
69c069cc:	04d404d4 	0x4d404d4
69c069d0:	04d604d6 	0x4d604d6
69c069d4:	04d804d8 	0x4d804d8
69c069d8:	04da04da 	0x4da04da
69c069dc:	04dc04dc 	0x4dc04dc
69c069e0:	04de04de 	0x4de04de
69c069e4:	04e004e0 	bltz	a3,69c07d68 <pthread_share_type_t+0x450>
69c069e8:	04e204e2 	bltzl	a3,69c07d74 <pthread_share_type_t+0x45c>
69c069ec:	04e404e4 	0x4e404e4
69c069f0:	04e604e6 	0x4e604e6
69c069f4:	04e804e8 	tgei	a3,1256
69c069f8:	04ea04ea 	tlti	a3,1258
69c069fc:	04ec04ec 	teqi	a3,1260
69c06a00:	04ee04ee 	tnei	a3,1262
69c06a04:	04f004f0 	bltzal	a3,69c07dc8 <pthread_share_type_t+0x4b0>
69c06a08:	04f204f2 	bltzall	a3,69c07dd4 <pthread_share_type_t+0x4bc>
69c06a0c:	04f404f4 	0x4f404f4
69c06a10:	04f604f6 	0x4f604f6
69c06a14:	04f804f8 	0x4f804f8
69c06a18:	04fa04fa 	0x4fa04fa
69c06a1c:	04fc04fc 	0x4fc04fc
69c06a20:	04fe04fe 	0x4fe04fe
69c06a24:	05000500 	bltz	t0,69c07e28 <pthread_share_type_t+0x510>
69c06a28:	05020502 	bltzl	t0,69c07e34 <pthread_share_type_t+0x51c>
69c06a2c:	05040504 	0x5040504
69c06a30:	05060506 	0x5060506
69c06a34:	05080508 	tgei	t0,1288
69c06a38:	050a050a 	tlti	t0,1290
69c06a3c:	050c050c 	teqi	t0,1292
69c06a40:	050e050e 	tnei	t0,1294
69c06a44:	05100510 	bltzal	t0,69c07e88 <pthread_share_type_t+0x570>
69c06a48:	05120512 	bltzall	t0,69c07e94 <pthread_share_type_t+0x57c>
69c06a4c:	05150514 	0x5150514
69c06a50:	05170516 	0x5170516
69c06a54:	05190518 	0x5190518
69c06a58:	051b051a 	0x51b051a
69c06a5c:	051d051c 	0x51d051c
69c06a60:	051f051e 	synci	1310(t0)
69c06a64:	05210520 	bgez	t1,69c07ee8 <pthread_share_type_t+0x5d0>
69c06a68:	05230522 	bgezl	t1,69c07ef4 <pthread_share_type_t+0x5dc>
69c06a6c:	05250524 	0x5250524
69c06a70:	05270526 	0x5270526
69c06a74:	05290528 	tgeiu	t1,1320
69c06a78:	052b052a 	tltiu	t1,1322
69c06a7c:	052d052c 	0x52d052c
69c06a80:	052f052e 	0x52f052e
69c06a84:	05310530 	bgezal	t1,69c07f48 <pthread_share_type_t+0x630>
69c06a88:	05330532 	bgezall	t1,69c07f54 <pthread_share_type_t+0x63c>
69c06a8c:	05350534 	0x5350534
69c06a90:	05370536 	0x5370536
69c06a94:	05390538 	0x5390538
69c06a98:	053b053a 	0x53b053a
69c06a9c:	053d053c 	0x53d053c
69c06aa0:	053f053e 	synci	1342(t1)
69c06aa4:	05410540 	bgez	t2,69c07fa8 <pthread_share_type_t+0x690>
69c06aa8:	05430542 	bgezl	t2,69c07fb4 <pthread_share_type_t+0x69c>
69c06aac:	05450544 	0x5450544
69c06ab0:	05470546 	0x5470546
69c06ab4:	05490548 	tgeiu	t2,1352
69c06ab8:	054b054a 	tltiu	t2,1354
69c06abc:	054d054c 	0x54d054c
69c06ac0:	054f054e 	0x54f054e
69c06ac4:	05510550 	bgezal	t2,69c08008 <pthread_share_type_t+0x6f0>
69c06ac8:	05530552 	bgezall	t2,69c08014 <pthread_share_type_t+0x6fc>
69c06acc:	05550554 	0x5550554
69c06ad0:	05570556 	0x5570556
69c06ad4:	05590558 	0x5590558
69c06ad8:	055b055a 	0x55b055a
69c06adc:	055d055c 	0x55d055c
69c06ae0:	055f055e 	synci	1374(t2)
69c06ae4:	05310560 	bgezal	t1,69c08068 <pthread_share_type_t+0x750>
69c06ae8:	05330532 	bgezall	t1,69c07fb4 <pthread_share_type_t+0x69c>
69c06aec:	05350534 	0x5350534
69c06af0:	05370536 	0x5370536
69c06af4:	05390538 	0x5390538
69c06af8:	053b053a 	0x53b053a
69c06afc:	053d053c 	0x53d053c
69c06b00:	053f053e 	synci	1342(t1)
69c06b04:	05410540 	bgez	t2,69c08008 <pthread_share_type_t+0x6f0>
69c06b08:	05430542 	bgezl	t2,69c08014 <pthread_share_type_t+0x6fc>
69c06b0c:	05450544 	0x5450544
69c06b10:	05470546 	0x5470546
69c06b14:	05490548 	tgeiu	t2,1352
69c06b18:	054b054a 	tltiu	t2,1354
69c06b1c:	054d054c 	0x54d054c
69c06b20:	054f054e 	0x54f054e
69c06b24:	05510550 	bgezal	t2,69c08068 <pthread_share_type_t+0x750>
69c06b28:	05530552 	bgezall	t2,69c08074 <pthread_share_type_t+0x75c>
69c06b2c:	05550554 	0x5550554
69c06b30:	ffff0556 	sdc3	$31,1366(ra)
69c06b34:	2c6317f6 	sltiu	v1,v1,6134
69c06b38:	1d7f1d7e 	0x1d7f1d7e
69c06b3c:	1d811d80 	0x1d811d80
69c06b40:	1d831d82 	0x1d831d82
69c06b44:	1d851d84 	0x1d851d84
69c06b48:	1d871d86 	0x1d871d86
69c06b4c:	1d891d88 	0x1d891d88
69c06b50:	1d8b1d8a 	0x1d8b1d8a
69c06b54:	1d8d1d8c 	0x1d8d1d8c
69c06b58:	1d8f1d8e 	0x1d8f1d8e
69c06b5c:	1d911d90 	0x1d911d90
69c06b60:	1d931d92 	0x1d931d92
69c06b64:	1d951d94 	0x1d951d94
69c06b68:	1d971d96 	0x1d971d96
69c06b6c:	1d991d98 	0x1d991d98
69c06b70:	1d9b1d9a 	0x1d9b1d9a
69c06b74:	1d9d1d9c 	0x1d9d1d9c
69c06b78:	1d9f1d9e 	0x1d9f1d9e
69c06b7c:	1da11da0 	0x1da11da0
69c06b80:	1da31da2 	0x1da31da2
69c06b84:	1da51da4 	0x1da51da4
69c06b88:	1da71da6 	0x1da71da6
69c06b8c:	1da91da8 	0x1da91da8
69c06b90:	1dab1daa 	0x1dab1daa
69c06b94:	1dad1dac 	0x1dad1dac
69c06b98:	1daf1dae 	0x1daf1dae
69c06b9c:	1db11db0 	0x1db11db0
69c06ba0:	1db31db2 	0x1db31db2
69c06ba4:	1db51db4 	0x1db51db4
69c06ba8:	1db71db6 	0x1db71db6
69c06bac:	1db91db8 	0x1db91db8
69c06bb0:	1dbb1dba 	0x1dbb1dba
69c06bb4:	1dbd1dbc 	0x1dbd1dbc
69c06bb8:	1dbf1dbe 	0x1dbf1dbe
69c06bbc:	1dc11dc0 	0x1dc11dc0
69c06bc0:	1dc31dc2 	0x1dc31dc2
69c06bc4:	1dc51dc4 	0x1dc51dc4
69c06bc8:	1dc71dc6 	0x1dc71dc6
69c06bcc:	1dc91dc8 	0x1dc91dc8
69c06bd0:	1dcb1dca 	0x1dcb1dca
69c06bd4:	1dcd1dcc 	0x1dcd1dcc
69c06bd8:	1dcf1dce 	0x1dcf1dce
69c06bdc:	1dd11dd0 	0x1dd11dd0
69c06be0:	1dd31dd2 	0x1dd31dd2
69c06be4:	1dd51dd4 	0x1dd51dd4
69c06be8:	1dd71dd6 	0x1dd71dd6
69c06bec:	1dd91dd8 	0x1dd91dd8
69c06bf0:	1ddb1dda 	0x1ddb1dda
69c06bf4:	1ddd1ddc 	0x1ddd1ddc
69c06bf8:	1ddf1dde 	0x1ddf1dde
69c06bfc:	1de11de0 	0x1de11de0
69c06c00:	1de31de2 	0x1de31de2
69c06c04:	1de51de4 	0x1de51de4
69c06c08:	1de71de6 	0x1de71de6
69c06c0c:	1de91de8 	0x1de91de8
69c06c10:	1deb1dea 	0x1deb1dea
69c06c14:	1ded1dec 	0x1ded1dec
69c06c18:	1def1dee 	0x1def1dee
69c06c1c:	1df11df0 	0x1df11df0
69c06c20:	1df31df2 	0x1df31df2
69c06c24:	1df51df4 	0x1df51df4
69c06c28:	1df71df6 	0x1df71df6
69c06c2c:	1df91df8 	0x1df91df8
69c06c30:	1dfb1dfa 	0x1dfb1dfa
69c06c34:	1dfd1dfc 	0x1dfd1dfc
69c06c38:	1dff1dfe 	0x1dff1dfe
69c06c3c:	1e001e00 	bgtz	s0,69c0e440 <pthread_share_type_t+0x6b28>
69c06c40:	1e021e02 	0x1e021e02
69c06c44:	1e041e04 	0x1e041e04
69c06c48:	1e061e06 	0x1e061e06
69c06c4c:	1e081e08 	0x1e081e08
69c06c50:	1e0a1e0a 	0x1e0a1e0a
69c06c54:	1e0c1e0c 	0x1e0c1e0c
69c06c58:	1e0e1e0e 	0x1e0e1e0e
69c06c5c:	1e101e10 	0x1e101e10
69c06c60:	1e121e12 	0x1e121e12
69c06c64:	1e141e14 	0x1e141e14
69c06c68:	1e161e16 	0x1e161e16
69c06c6c:	1e181e18 	0x1e181e18
69c06c70:	1e1a1e1a 	0x1e1a1e1a
69c06c74:	1e1c1e1c 	0x1e1c1e1c
69c06c78:	1e1e1e1e 	0x1e1e1e1e
69c06c7c:	1e201e20 	bgtz	s1,69c0e500 <pthread_share_type_t+0x6be8>
69c06c80:	1e221e22 	0x1e221e22
69c06c84:	1e241e24 	0x1e241e24
69c06c88:	1e261e26 	0x1e261e26
69c06c8c:	1e281e28 	0x1e281e28
69c06c90:	1e2a1e2a 	0x1e2a1e2a
69c06c94:	1e2c1e2c 	0x1e2c1e2c
69c06c98:	1e2e1e2e 	0x1e2e1e2e
69c06c9c:	1e301e30 	0x1e301e30
69c06ca0:	1e321e32 	0x1e321e32
69c06ca4:	1e341e34 	0x1e341e34
69c06ca8:	1e361e36 	0x1e361e36
69c06cac:	1e381e38 	0x1e381e38
69c06cb0:	1e3a1e3a 	0x1e3a1e3a
69c06cb4:	1e3c1e3c 	0x1e3c1e3c
69c06cb8:	1e3e1e3e 	0x1e3e1e3e
69c06cbc:	1e401e40 	bgtz	s2,69c0e5c0 <pthread_share_type_t+0x6ca8>
69c06cc0:	1e421e42 	0x1e421e42
69c06cc4:	1e441e44 	0x1e441e44
69c06cc8:	1e461e46 	0x1e461e46
69c06ccc:	1e481e48 	0x1e481e48
69c06cd0:	1e4a1e4a 	0x1e4a1e4a
69c06cd4:	1e4c1e4c 	0x1e4c1e4c
69c06cd8:	1e4e1e4e 	0x1e4e1e4e
69c06cdc:	1e501e50 	0x1e501e50
69c06ce0:	1e521e52 	0x1e521e52
69c06ce4:	1e541e54 	0x1e541e54
69c06ce8:	1e561e56 	0x1e561e56
69c06cec:	1e581e58 	0x1e581e58
69c06cf0:	1e5a1e5a 	0x1e5a1e5a
69c06cf4:	1e5c1e5c 	0x1e5c1e5c
69c06cf8:	1e5e1e5e 	0x1e5e1e5e
69c06cfc:	1e601e60 	bgtz	s3,69c0e680 <pthread_share_type_t+0x6d68>
69c06d00:	1e621e62 	0x1e621e62
69c06d04:	1e641e64 	0x1e641e64
69c06d08:	1e661e66 	0x1e661e66
69c06d0c:	1e681e68 	0x1e681e68
69c06d10:	1e6a1e6a 	0x1e6a1e6a
69c06d14:	1e6c1e6c 	0x1e6c1e6c
69c06d18:	1e6e1e6e 	0x1e6e1e6e
69c06d1c:	1e701e70 	0x1e701e70
69c06d20:	1e721e72 	0x1e721e72
69c06d24:	1e741e74 	0x1e741e74
69c06d28:	1e761e76 	0x1e761e76
69c06d2c:	1e781e78 	0x1e781e78
69c06d30:	1e7a1e7a 	0x1e7a1e7a
69c06d34:	1e7c1e7c 	0x1e7c1e7c
69c06d38:	1e7e1e7e 	0x1e7e1e7e
69c06d3c:	1e801e80 	bgtz	s4,69c0e740 <pthread_share_type_t+0x6e28>
69c06d40:	1e821e82 	0x1e821e82
69c06d44:	1e841e84 	0x1e841e84
69c06d48:	1e861e86 	0x1e861e86
69c06d4c:	1e881e88 	0x1e881e88
69c06d50:	1e8a1e8a 	0x1e8a1e8a
69c06d54:	1e8c1e8c 	0x1e8c1e8c
69c06d58:	1e8e1e8e 	0x1e8e1e8e
69c06d5c:	1e901e90 	0x1e901e90
69c06d60:	1e921e92 	0x1e921e92
69c06d64:	1e941e94 	0x1e941e94
69c06d68:	1e971e96 	0x1e971e96
69c06d6c:	1e991e98 	0x1e991e98
69c06d70:	1e9b1e9a 	0x1e9b1e9a
69c06d74:	1e9d1e9c 	0x1e9d1e9c
69c06d78:	1e9f1e9e 	0x1e9f1e9e
69c06d7c:	1ea01ea0 	bgtz	s5,69c0e800 <pthread_share_type_t+0x6ee8>
69c06d80:	1ea21ea2 	0x1ea21ea2
69c06d84:	1ea41ea4 	0x1ea41ea4
69c06d88:	1ea61ea6 	0x1ea61ea6
69c06d8c:	1ea81ea8 	0x1ea81ea8
69c06d90:	1eaa1eaa 	0x1eaa1eaa
69c06d94:	1eac1eac 	0x1eac1eac
69c06d98:	1eae1eae 	0x1eae1eae
69c06d9c:	1eb01eb0 	0x1eb01eb0
69c06da0:	1eb21eb2 	0x1eb21eb2
69c06da4:	1eb41eb4 	0x1eb41eb4
69c06da8:	1eb61eb6 	0x1eb61eb6
69c06dac:	1eb81eb8 	0x1eb81eb8
69c06db0:	1eba1eba 	0x1eba1eba
69c06db4:	1ebc1ebc 	0x1ebc1ebc
69c06db8:	1ebe1ebe 	0x1ebe1ebe
69c06dbc:	1ec01ec0 	bgtz	s6,69c0e8c0 <pthread_share_type_t+0x6fa8>
69c06dc0:	1ec21ec2 	0x1ec21ec2
69c06dc4:	1ec41ec4 	0x1ec41ec4
69c06dc8:	1ec61ec6 	0x1ec61ec6
69c06dcc:	1ec81ec8 	0x1ec81ec8
69c06dd0:	1eca1eca 	0x1eca1eca
69c06dd4:	1ecc1ecc 	0x1ecc1ecc
69c06dd8:	1ece1ece 	0x1ece1ece
69c06ddc:	1ed01ed0 	0x1ed01ed0
69c06de0:	1ed21ed2 	0x1ed21ed2
69c06de4:	1ed41ed4 	0x1ed41ed4
69c06de8:	1ed61ed6 	0x1ed61ed6
69c06dec:	1ed81ed8 	0x1ed81ed8
69c06df0:	1eda1eda 	0x1eda1eda
69c06df4:	1edc1edc 	0x1edc1edc
69c06df8:	1ede1ede 	0x1ede1ede
69c06dfc:	1ee01ee0 	bgtz	s7,69c0e980 <pthread_share_type_t+0x7068>
69c06e00:	1ee21ee2 	0x1ee21ee2
69c06e04:	1ee41ee4 	0x1ee41ee4
69c06e08:	1ee61ee6 	0x1ee61ee6
69c06e0c:	1ee81ee8 	0x1ee81ee8
69c06e10:	1eea1eea 	0x1eea1eea
69c06e14:	1eec1eec 	0x1eec1eec
69c06e18:	1eee1eee 	0x1eee1eee
69c06e1c:	1ef01ef0 	0x1ef01ef0
69c06e20:	1ef21ef2 	0x1ef21ef2
69c06e24:	1ef41ef4 	0x1ef41ef4
69c06e28:	1ef61ef6 	0x1ef61ef6
69c06e2c:	1ef81ef8 	0x1ef81ef8
69c06e30:	1efb1efa 	0x1efb1efa
69c06e34:	1efd1efc 	0x1efd1efc
69c06e38:	1eff1efe 	0x1eff1efe
69c06e3c:	1f091f08 	0x1f091f08
69c06e40:	1f0b1f0a 	0x1f0b1f0a
69c06e44:	1f0d1f0c 	0x1f0d1f0c
69c06e48:	1f0f1f0e 	0x1f0f1f0e
69c06e4c:	1f091f08 	0x1f091f08
69c06e50:	1f0b1f0a 	0x1f0b1f0a
69c06e54:	1f0d1f0c 	0x1f0d1f0c
69c06e58:	1f0f1f0e 	0x1f0f1f0e
69c06e5c:	1f191f18 	0x1f191f18
69c06e60:	1f1b1f1a 	0x1f1b1f1a
69c06e64:	1f1d1f1c 	0x1f1d1f1c
69c06e68:	1f171f16 	0x1f171f16
69c06e6c:	1f191f18 	0x1f191f18
69c06e70:	1f1b1f1a 	0x1f1b1f1a
69c06e74:	1f1d1f1c 	0x1f1d1f1c
69c06e78:	1f1f1f1e 	0x1f1f1f1e
69c06e7c:	1f291f28 	0x1f291f28
69c06e80:	1f2b1f2a 	0x1f2b1f2a
69c06e84:	1f2d1f2c 	0x1f2d1f2c
69c06e88:	1f2f1f2e 	0x1f2f1f2e
69c06e8c:	1f291f28 	0x1f291f28
69c06e90:	1f2b1f2a 	0x1f2b1f2a
69c06e94:	1f2d1f2c 	0x1f2d1f2c
69c06e98:	1f2f1f2e 	0x1f2f1f2e
69c06e9c:	1f391f38 	0x1f391f38
69c06ea0:	1f3b1f3a 	0x1f3b1f3a
69c06ea4:	1f3d1f3c 	0x1f3d1f3c
69c06ea8:	1f3f1f3e 	0x1f3f1f3e
69c06eac:	1f391f38 	0x1f391f38
69c06eb0:	1f3b1f3a 	0x1f3b1f3a
69c06eb4:	1f3d1f3c 	0x1f3d1f3c
69c06eb8:	1f3f1f3e 	0x1f3f1f3e
69c06ebc:	1f491f48 	0x1f491f48
69c06ec0:	1f4b1f4a 	0x1f4b1f4a
69c06ec4:	1f4d1f4c 	0x1f4d1f4c
69c06ec8:	1f471f46 	0x1f471f46
69c06ecc:	1f491f48 	0x1f491f48
69c06ed0:	1f4b1f4a 	0x1f4b1f4a
69c06ed4:	1f4d1f4c 	0x1f4d1f4c
69c06ed8:	1f4f1f4e 	0x1f4f1f4e
69c06edc:	1f591f50 	0x1f591f50
69c06ee0:	1f5b1f52 	0x1f5b1f52
69c06ee4:	1f5d1f54 	0x1f5d1f54
69c06ee8:	1f5f1f56 	0x1f5f1f56
69c06eec:	1f591f58 	0x1f591f58
69c06ef0:	1f5b1f5a 	0x1f5b1f5a
69c06ef4:	1f5d1f5c 	0x1f5d1f5c
69c06ef8:	1f5f1f5e 	0x1f5f1f5e
69c06efc:	1f691f68 	0x1f691f68
69c06f00:	1f6b1f6a 	0x1f6b1f6a
69c06f04:	1f6d1f6c 	0x1f6d1f6c
69c06f08:	1f6f1f6e 	0x1f6f1f6e
69c06f0c:	1f691f68 	0x1f691f68
69c06f10:	1f6b1f6a 	0x1f6b1f6a
69c06f14:	1f6d1f6c 	0x1f6d1f6c
69c06f18:	1f6f1f6e 	0x1f6f1f6e
69c06f1c:	1fbb1fba 	0x1fbb1fba
69c06f20:	1fc91fc8 	0x1fc91fc8
69c06f24:	1fcb1fca 	0x1fcb1fca
69c06f28:	1fdb1fda 	0x1fdb1fda
69c06f2c:	1ff91ff8 	0x1ff91ff8
69c06f30:	1feb1fea 	0x1feb1fea
69c06f34:	1ffb1ffa 	0x1ffb1ffa
69c06f38:	1f7f1f7e 	0x1f7f1f7e
69c06f3c:	1f891f88 	0x1f891f88
69c06f40:	1f8b1f8a 	0x1f8b1f8a
69c06f44:	1f8d1f8c 	0x1f8d1f8c
69c06f48:	1f8f1f8e 	0x1f8f1f8e
69c06f4c:	1f891f88 	0x1f891f88
69c06f50:	1f8b1f8a 	0x1f8b1f8a
69c06f54:	1f8d1f8c 	0x1f8d1f8c
69c06f58:	1f8f1f8e 	0x1f8f1f8e
69c06f5c:	1f991f98 	0x1f991f98
69c06f60:	1f9b1f9a 	0x1f9b1f9a
69c06f64:	1f9d1f9c 	0x1f9d1f9c
69c06f68:	1f9f1f9e 	0x1f9f1f9e
69c06f6c:	1f991f98 	0x1f991f98
69c06f70:	1f9b1f9a 	0x1f9b1f9a
69c06f74:	1f9d1f9c 	0x1f9d1f9c
69c06f78:	1f9f1f9e 	0x1f9f1f9e
69c06f7c:	1fa91fa8 	0x1fa91fa8
69c06f80:	1fab1faa 	0x1fab1faa
69c06f84:	1fad1fac 	0x1fad1fac
69c06f88:	1faf1fae 	0x1faf1fae
69c06f8c:	1fa91fa8 	0x1fa91fa8
69c06f90:	1fab1faa 	0x1fab1faa
69c06f94:	1fad1fac 	0x1fad1fac
69c06f98:	1faf1fae 	0x1faf1fae
69c06f9c:	1fb91fb8 	0x1fb91fb8
69c06fa0:	1fbc1fb2 	0x1fbc1fb2
69c06fa4:	1fb51fb4 	0x1fb51fb4
69c06fa8:	1fb71fb6 	0x1fb71fb6
69c06fac:	1fb91fb8 	0x1fb91fb8
69c06fb0:	1fbb1fba 	0x1fbb1fba
69c06fb4:	1fbd1fbc 	0x1fbd1fbc
69c06fb8:	1fbf1fbe 	0x1fbf1fbe
69c06fbc:	1fc11fc0 	0x1fc11fc0
69c06fc0:	1fc31fc2 	0x1fc31fc2
69c06fc4:	1fc51fc4 	0x1fc51fc4
69c06fc8:	1fc71fc6 	0x1fc71fc6
69c06fcc:	1fc91fc8 	0x1fc91fc8
69c06fd0:	1fcb1fca 	0x1fcb1fca
69c06fd4:	1fcd1fc3 	0x1fcd1fc3
69c06fd8:	1fcf1fce 	0x1fcf1fce
69c06fdc:	1fd91fd8 	0x1fd91fd8
69c06fe0:	1fd31fd2 	0x1fd31fd2
69c06fe4:	1fd51fd4 	0x1fd51fd4
69c06fe8:	1fd71fd6 	0x1fd71fd6
69c06fec:	1fd91fd8 	0x1fd91fd8
69c06ff0:	1fdb1fda 	0x1fdb1fda
69c06ff4:	1fdd1fdc 	0x1fdd1fdc
69c06ff8:	1fdf1fde 	0x1fdf1fde
69c06ffc:	1fe91fe8 	0x1fe91fe8
69c07000:	1fe31fe2 	0x1fe31fe2
69c07004:	1fec1fe4 	0x1fec1fe4
69c07008:	1fe71fe6 	0x1fe71fe6
69c0700c:	1fe91fe8 	0x1fe91fe8
69c07010:	1feb1fea 	0x1feb1fea
69c07014:	1fed1fec 	0x1fed1fec
69c07018:	1fef1fee 	0x1fef1fee
69c0701c:	1ff11ff0 	0x1ff11ff0
69c07020:	1ff31ff2 	0x1ff31ff2
69c07024:	1ff51ff4 	0x1ff51ff4
69c07028:	1ff71ff6 	0x1ff71ff6
69c0702c:	1ff91ff8 	0x1ff91ff8
69c07030:	1ffb1ffa 	0x1ffb1ffa
69c07034:	1ffd1ff3 	0x1ffd1ff3
69c07038:	1fff1ffe 	0x1fff1ffe
69c0703c:	20012000 	addi	at,zero,8192
69c07040:	20032002 	addi	v1,zero,8194
69c07044:	20052004 	addi	a1,zero,8196
69c07048:	20072006 	addi	a3,zero,8198
69c0704c:	20092008 	addi	t1,zero,8200
69c07050:	200b200a 	addi	t3,zero,8202
69c07054:	200d200c 	addi	t5,zero,8204
69c07058:	200f200e 	addi	t7,zero,8206
69c0705c:	20112010 	addi	s1,zero,8208
69c07060:	20132012 	addi	s3,zero,8210
69c07064:	20152014 	addi	s5,zero,8212
69c07068:	20172016 	addi	s7,zero,8214
69c0706c:	20192018 	addi	t9,zero,8216
69c07070:	201b201a 	addi	k1,zero,8218
69c07074:	201d201c 	addi	sp,zero,8220
69c07078:	201f201e 	addi	ra,zero,8222
69c0707c:	20212020 	addi	at,at,8224
69c07080:	20232022 	addi	v1,at,8226
69c07084:	20252024 	addi	a1,at,8228
69c07088:	20272026 	addi	a3,at,8230
69c0708c:	20292028 	addi	t1,at,8232
69c07090:	202b202a 	addi	t3,at,8234
69c07094:	202d202c 	addi	t5,at,8236
69c07098:	202f202e 	addi	t7,at,8238
69c0709c:	20312030 	addi	s1,at,8240
69c070a0:	20332032 	addi	s3,at,8242
69c070a4:	20352034 	addi	s5,at,8244
69c070a8:	20372036 	addi	s7,at,8246
69c070ac:	20392038 	addi	t9,at,8248
69c070b0:	203b203a 	addi	k1,at,8250
69c070b4:	203d203c 	addi	sp,at,8252
69c070b8:	203f203e 	addi	ra,at,8254
69c070bc:	20412040 	addi	at,v0,8256
69c070c0:	20432042 	addi	v1,v0,8258
69c070c4:	20452044 	addi	a1,v0,8260
69c070c8:	20472046 	addi	a3,v0,8262
69c070cc:	20492048 	addi	t1,v0,8264
69c070d0:	204b204a 	addi	t3,v0,8266
69c070d4:	204d204c 	addi	t5,v0,8268
69c070d8:	204f204e 	addi	t7,v0,8270
69c070dc:	20512050 	addi	s1,v0,8272
69c070e0:	20532052 	addi	s3,v0,8274
69c070e4:	20552054 	addi	s5,v0,8276
69c070e8:	20572056 	addi	s7,v0,8278
69c070ec:	20592058 	addi	t9,v0,8280
69c070f0:	205b205a 	addi	k1,v0,8282
69c070f4:	205d205c 	addi	sp,v0,8284
69c070f8:	205f205e 	addi	ra,v0,8286
69c070fc:	20612060 	addi	at,v1,8288
69c07100:	20632062 	addi	v1,v1,8290
69c07104:	20652064 	addi	a1,v1,8292
69c07108:	20672066 	addi	a3,v1,8294
69c0710c:	20692068 	addi	t1,v1,8296
69c07110:	206b206a 	addi	t3,v1,8298
69c07114:	206d206c 	addi	t5,v1,8300
69c07118:	206f206e 	addi	t7,v1,8302
69c0711c:	20712070 	addi	s1,v1,8304
69c07120:	20732072 	addi	s3,v1,8306
69c07124:	20752074 	addi	s5,v1,8308
69c07128:	20772076 	addi	s7,v1,8310
69c0712c:	20792078 	addi	t9,v1,8312
69c07130:	207b207a 	addi	k1,v1,8314
69c07134:	207d207c 	addi	sp,v1,8316
69c07138:	207f207e 	addi	ra,v1,8318
69c0713c:	20812080 	addi	at,a0,8320
69c07140:	20832082 	addi	v1,a0,8322
69c07144:	20852084 	addi	a1,a0,8324
69c07148:	20872086 	addi	a3,a0,8326
69c0714c:	20892088 	addi	t1,a0,8328
69c07150:	208b208a 	addi	t3,a0,8330
69c07154:	208d208c 	addi	t5,a0,8332
69c07158:	208f208e 	addi	t7,a0,8334
69c0715c:	20912090 	addi	s1,a0,8336
69c07160:	20932092 	addi	s3,a0,8338
69c07164:	20952094 	addi	s5,a0,8340
69c07168:	20972096 	addi	s7,a0,8342
69c0716c:	20992098 	addi	t9,a0,8344
69c07170:	209b209a 	addi	k1,a0,8346
69c07174:	209d209c 	addi	sp,a0,8348
69c07178:	209f209e 	addi	ra,a0,8350
69c0717c:	20a120a0 	addi	at,a1,8352
69c07180:	20a320a2 	addi	v1,a1,8354
69c07184:	20a520a4 	addi	a1,a1,8356
69c07188:	20a720a6 	addi	a3,a1,8358
69c0718c:	20a920a8 	addi	t1,a1,8360
69c07190:	20ab20aa 	addi	t3,a1,8362
69c07194:	20ad20ac 	addi	t5,a1,8364
69c07198:	20af20ae 	addi	t7,a1,8366
69c0719c:	20b120b0 	addi	s1,a1,8368
69c071a0:	20b320b2 	addi	s3,a1,8370
69c071a4:	20b520b4 	addi	s5,a1,8372
69c071a8:	20b720b6 	addi	s7,a1,8374
69c071ac:	20b920b8 	addi	t9,a1,8376
69c071b0:	20bb20ba 	addi	k1,a1,8378
69c071b4:	20bd20bc 	addi	sp,a1,8380
69c071b8:	20bf20be 	addi	ra,a1,8382
69c071bc:	20c120c0 	addi	at,a2,8384
69c071c0:	20c320c2 	addi	v1,a2,8386
69c071c4:	20c520c4 	addi	a1,a2,8388
69c071c8:	20c720c6 	addi	a3,a2,8390
69c071cc:	20c920c8 	addi	t1,a2,8392
69c071d0:	20cb20ca 	addi	t3,a2,8394
69c071d4:	20cd20cc 	addi	t5,a2,8396
69c071d8:	20cf20ce 	addi	t7,a2,8398
69c071dc:	20d120d0 	addi	s1,a2,8400
69c071e0:	20d320d2 	addi	s3,a2,8402
69c071e4:	20d520d4 	addi	s5,a2,8404
69c071e8:	20d720d6 	addi	s7,a2,8406
69c071ec:	20d920d8 	addi	t9,a2,8408
69c071f0:	20db20da 	addi	k1,a2,8410
69c071f4:	20dd20dc 	addi	sp,a2,8412
69c071f8:	20df20de 	addi	ra,a2,8414
69c071fc:	20e120e0 	addi	at,a3,8416
69c07200:	20e320e2 	addi	v1,a3,8418
69c07204:	20e520e4 	addi	a1,a3,8420
69c07208:	20e720e6 	addi	a3,a3,8422
69c0720c:	20e920e8 	addi	t1,a3,8424
69c07210:	20eb20ea 	addi	t3,a3,8426
69c07214:	20ed20ec 	addi	t5,a3,8428
69c07218:	20ef20ee 	addi	t7,a3,8430
69c0721c:	20f120f0 	addi	s1,a3,8432
69c07220:	20f320f2 	addi	s3,a3,8434
69c07224:	20f520f4 	addi	s5,a3,8436
69c07228:	20f720f6 	addi	s7,a3,8438
69c0722c:	20f920f8 	addi	t9,a3,8440
69c07230:	20fb20fa 	addi	k1,a3,8442
69c07234:	20fd20fc 	addi	sp,a3,8444
69c07238:	20ff20fe 	addi	ra,a3,8446
69c0723c:	21012100 	addi	at,t0,8448
69c07240:	21032102 	addi	v1,t0,8450
69c07244:	21052104 	addi	a1,t0,8452
69c07248:	21072106 	addi	a3,t0,8454
69c0724c:	21092108 	addi	t1,t0,8456
69c07250:	210b210a 	addi	t3,t0,8458
69c07254:	210d210c 	addi	t5,t0,8460
69c07258:	210f210e 	addi	t7,t0,8462
69c0725c:	21112110 	addi	s1,t0,8464
69c07260:	21132112 	addi	s3,t0,8466
69c07264:	21152114 	addi	s5,t0,8468
69c07268:	21172116 	addi	s7,t0,8470
69c0726c:	21192118 	addi	t9,t0,8472
69c07270:	211b211a 	addi	k1,t0,8474
69c07274:	211d211c 	addi	sp,t0,8476
69c07278:	211f211e 	addi	ra,t0,8478
69c0727c:	21212120 	addi	at,t1,8480
69c07280:	21232122 	addi	v1,t1,8482
69c07284:	21252124 	addi	a1,t1,8484
69c07288:	21272126 	addi	a3,t1,8486
69c0728c:	21292128 	addi	t1,t1,8488
69c07290:	212b212a 	addi	t3,t1,8490
69c07294:	212d212c 	addi	t5,t1,8492
69c07298:	212f212e 	addi	t7,t1,8494
69c0729c:	21312130 	addi	s1,t1,8496
69c072a0:	21332132 	addi	s3,t1,8498
69c072a4:	21352134 	addi	s5,t1,8500
69c072a8:	21372136 	addi	s7,t1,8502
69c072ac:	21392138 	addi	t9,t1,8504
69c072b0:	213b213a 	addi	k1,t1,8506
69c072b4:	213d213c 	addi	sp,t1,8508
69c072b8:	213f213e 	addi	ra,t1,8510
69c072bc:	21412140 	addi	at,t2,8512
69c072c0:	21432142 	addi	v1,t2,8514
69c072c4:	21452144 	addi	a1,t2,8516
69c072c8:	21472146 	addi	a3,t2,8518
69c072cc:	21492148 	addi	t1,t2,8520
69c072d0:	214b214a 	addi	t3,t2,8522
69c072d4:	214d214c 	addi	t5,t2,8524
69c072d8:	214f2132 	addi	t7,t2,8498
69c072dc:	21512150 	addi	s1,t2,8528
69c072e0:	21532152 	addi	s3,t2,8530
69c072e4:	21552154 	addi	s5,t2,8532
69c072e8:	21572156 	addi	s7,t2,8534
69c072ec:	21592158 	addi	t9,t2,8536
69c072f0:	215b215a 	addi	k1,t2,8538
69c072f4:	215d215c 	addi	sp,t2,8540
69c072f8:	215f215e 	addi	ra,t2,8542
69c072fc:	21612160 	addi	at,t3,8544
69c07300:	21632162 	addi	v1,t3,8546
69c07304:	21652164 	addi	a1,t3,8548
69c07308:	21672166 	addi	a3,t3,8550
69c0730c:	21692168 	addi	t1,t3,8552
69c07310:	216b216a 	addi	t3,t3,8554
69c07314:	216d216c 	addi	t5,t3,8556
69c07318:	216f216e 	addi	t7,t3,8558
69c0731c:	21612160 	addi	at,t3,8544
69c07320:	21632162 	addi	v1,t3,8546
69c07324:	21652164 	addi	a1,t3,8548
69c07328:	21672166 	addi	a3,t3,8550
69c0732c:	21692168 	addi	t1,t3,8552
69c07330:	216b216a 	addi	t3,t3,8554
69c07334:	216d216c 	addi	t5,t3,8556
69c07338:	216f216e 	addi	t7,t3,8558
69c0733c:	21812180 	addi	at,t4,8576
69c07340:	21832182 	addi	v1,t4,8578
69c07344:	ffff2183 	sdc3	$31,8579(ra)
69c07348:	24b6034b 	addiu	s6,a1,843
69c0734c:	24b824b7 	addiu	t8,a1,9399
69c07350:	24ba24b9 	addiu	k0,a1,9401
69c07354:	24bc24bb 	addiu	gp,a1,9403
69c07358:	24be24bd 	addiu	s8,a1,9405
69c0735c:	24c024bf 	addiu	zero,a2,9407
69c07360:	24c224c1 	addiu	v0,a2,9409
69c07364:	24c424c3 	addiu	a0,a2,9411
69c07368:	24c624c5 	addiu	a2,a2,9413
69c0736c:	24c824c7 	addiu	t0,a2,9415
69c07370:	24ca24c9 	addiu	t2,a2,9417
69c07374:	24cc24cb 	addiu	t4,a2,9419
69c07378:	24ce24cd 	addiu	t6,a2,9421
69c0737c:	ffff24cf 	sdc3	$31,9423(ra)
69c07380:	2c000746 	sltiu	zero,zero,1862
69c07384:	2c022c01 	sltiu	v0,zero,11265
69c07388:	2c042c03 	sltiu	a0,zero,11267
69c0738c:	2c062c05 	sltiu	a2,zero,11269
69c07390:	2c082c07 	sltiu	t0,zero,11271
69c07394:	2c0a2c09 	sltiu	t2,zero,11273
69c07398:	2c0c2c0b 	sltiu	t4,zero,11275
69c0739c:	2c0e2c0d 	sltiu	t6,zero,11277
69c073a0:	2c102c0f 	sltiu	s0,zero,11279
69c073a4:	2c122c11 	sltiu	s2,zero,11281
69c073a8:	2c142c13 	sltiu	s4,zero,11283
69c073ac:	2c162c15 	sltiu	s6,zero,11285
69c073b0:	2c182c17 	sltiu	t8,zero,11287
69c073b4:	2c1a2c19 	sltiu	k0,zero,11289
69c073b8:	2c1c2c1b 	sltiu	gp,zero,11291
69c073bc:	2c1e2c1d 	sltiu	s8,zero,11293
69c073c0:	2c202c1f 	sltiu	zero,at,11295
69c073c4:	2c222c21 	sltiu	v0,at,11297
69c073c8:	2c242c23 	sltiu	a0,at,11299
69c073cc:	2c262c25 	sltiu	a2,at,11301
69c073d0:	2c282c27 	sltiu	t0,at,11303
69c073d4:	2c2a2c29 	sltiu	t2,at,11305
69c073d8:	2c2c2c2b 	sltiu	t4,at,11307
69c073dc:	2c2e2c2d 	sltiu	t6,at,11309
69c073e0:	2c602c5f 	sltiu	zero,v1,11359
69c073e4:	2c622c60 	sltiu	v0,v1,11360
69c073e8:	2c642c63 	sltiu	a0,v1,11363
69c073ec:	2c662c65 	sltiu	a2,v1,11365
69c073f0:	2c672c67 	sltiu	a3,v1,11367
69c073f4:	2c692c69 	sltiu	t1,v1,11369
69c073f8:	2c6b2c6b 	sltiu	t3,v1,11371
69c073fc:	2c6e2c6d 	sltiu	t6,v1,11373
69c07400:	2c702c6f 	sltiu	s0,v1,11375
69c07404:	2c722c71 	sltiu	s2,v1,11377
69c07408:	2c742c73 	sltiu	s4,v1,11379
69c0740c:	2c752c75 	sltiu	s5,v1,11381
69c07410:	2c782c77 	sltiu	t8,v1,11383
69c07414:	2c7a2c79 	sltiu	k0,v1,11385
69c07418:	2c7c2c7b 	sltiu	gp,v1,11387
69c0741c:	2c7e2c7d 	sltiu	s8,v1,11389
69c07420:	2c802c7f 	sltiu	zero,a0,11391
69c07424:	2c822c80 	sltiu	v0,a0,11392
69c07428:	2c842c82 	sltiu	a0,a0,11394
69c0742c:	2c862c84 	sltiu	a2,a0,11396
69c07430:	2c882c86 	sltiu	t0,a0,11398
69c07434:	2c8a2c88 	sltiu	t2,a0,11400
69c07438:	2c8c2c8a 	sltiu	t4,a0,11402
69c0743c:	2c8e2c8c 	sltiu	t6,a0,11404
69c07440:	2c902c8e 	sltiu	s0,a0,11406
69c07444:	2c922c90 	sltiu	s2,a0,11408
69c07448:	2c942c92 	sltiu	s4,a0,11410
69c0744c:	2c962c94 	sltiu	s6,a0,11412
69c07450:	2c982c96 	sltiu	t8,a0,11414
69c07454:	2c9a2c98 	sltiu	k0,a0,11416
69c07458:	2c9c2c9a 	sltiu	gp,a0,11418
69c0745c:	2c9e2c9c 	sltiu	s8,a0,11420
69c07460:	2ca02c9e 	sltiu	zero,a1,11422
69c07464:	2ca22ca0 	sltiu	v0,a1,11424
69c07468:	2ca42ca2 	sltiu	a0,a1,11426
69c0746c:	2ca62ca4 	sltiu	a2,a1,11428
69c07470:	2ca82ca6 	sltiu	t0,a1,11430
69c07474:	2caa2ca8 	sltiu	t2,a1,11432
69c07478:	2cac2caa 	sltiu	t4,a1,11434
69c0747c:	2cae2cac 	sltiu	t6,a1,11436
69c07480:	2cb02cae 	sltiu	s0,a1,11438
69c07484:	2cb22cb0 	sltiu	s2,a1,11440
69c07488:	2cb42cb2 	sltiu	s4,a1,11442
69c0748c:	2cb62cb4 	sltiu	s6,a1,11444
69c07490:	2cb82cb6 	sltiu	t8,a1,11446
69c07494:	2cba2cb8 	sltiu	k0,a1,11448
69c07498:	2cbc2cba 	sltiu	gp,a1,11450
69c0749c:	2cbe2cbc 	sltiu	s8,a1,11452
69c074a0:	2cc02cbe 	sltiu	zero,a2,11454
69c074a4:	2cc22cc0 	sltiu	v0,a2,11456
69c074a8:	2cc42cc2 	sltiu	a0,a2,11458
69c074ac:	2cc62cc4 	sltiu	a2,a2,11460
69c074b0:	2cc82cc6 	sltiu	t0,a2,11462
69c074b4:	2cca2cc8 	sltiu	t2,a2,11464
69c074b8:	2ccc2cca 	sltiu	t4,a2,11466
69c074bc:	2cce2ccc 	sltiu	t6,a2,11468
69c074c0:	2cd02cce 	sltiu	s0,a2,11470
69c074c4:	2cd22cd0 	sltiu	s2,a2,11472
69c074c8:	2cd42cd2 	sltiu	s4,a2,11474
69c074cc:	2cd62cd4 	sltiu	s6,a2,11476
69c074d0:	2cd82cd6 	sltiu	t8,a2,11478
69c074d4:	2cda2cd8 	sltiu	k0,a2,11480
69c074d8:	2cdc2cda 	sltiu	gp,a2,11482
69c074dc:	2cde2cdc 	sltiu	s8,a2,11484
69c074e0:	2ce02cde 	sltiu	zero,a3,11486
69c074e4:	2ce22ce0 	sltiu	v0,a3,11488
69c074e8:	2ce42ce2 	sltiu	a0,a3,11490
69c074ec:	2ce62ce5 	sltiu	a2,a3,11493
69c074f0:	2ce82ce7 	sltiu	t0,a3,11495
69c074f4:	2cea2ce9 	sltiu	t2,a3,11497
69c074f8:	2cec2ceb 	sltiu	t4,a3,11499
69c074fc:	2cee2ced 	sltiu	t6,a3,11501
69c07500:	2cf02cef 	sltiu	s0,a3,11503
69c07504:	2cf22cf1 	sltiu	s2,a3,11505
69c07508:	2cf42cf3 	sltiu	s4,a3,11507
69c0750c:	2cf62cf5 	sltiu	s6,a3,11509
69c07510:	2cf82cf7 	sltiu	t8,a3,11511
69c07514:	2cfa2cf9 	sltiu	k0,a3,11513
69c07518:	2cfc2cfb 	sltiu	gp,a3,11515
69c0751c:	2cfe2cfd 	sltiu	s8,a3,11517
69c07520:	10a02cff 	beqz	a1,69c12920 <pthread_share_type_t+0xb008>
69c07524:	10a210a1 	beq	a1,v0,69c0b7ac <pthread_share_type_t+0x3e94>
69c07528:	10a410a3 	beq	a1,a0,69c0b7b8 <pthread_share_type_t+0x3ea0>
69c0752c:	10a610a5 	beq	a1,a2,69c0b7c4 <pthread_share_type_t+0x3eac>
69c07530:	10a810a7 	beq	a1,t0,69c0b7d0 <pthread_share_type_t+0x3eb8>
69c07534:	10aa10a9 	beq	a1,t2,69c0b7dc <pthread_share_type_t+0x3ec4>
69c07538:	10ac10ab 	beq	a1,t4,69c0b7e8 <pthread_share_type_t+0x3ed0>
69c0753c:	10ae10ad 	beq	a1,t6,69c0b7f4 <pthread_share_type_t+0x3edc>
69c07540:	10b010af 	beq	a1,s0,69c0b800 <pthread_share_type_t+0x3ee8>
69c07544:	10b210b1 	beq	a1,s2,69c0b80c <pthread_share_type_t+0x3ef4>
69c07548:	10b410b3 	beq	a1,s4,69c0b818 <pthread_share_type_t+0x3f00>
69c0754c:	10b610b5 	beq	a1,s6,69c0b824 <pthread_share_type_t+0x3f0c>
69c07550:	10b810b7 	beq	a1,t8,69c0b830 <pthread_share_type_t+0x3f18>
69c07554:	10ba10b9 	beq	a1,k0,69c0b83c <pthread_share_type_t+0x3f24>
69c07558:	10bc10bb 	beq	a1,gp,69c0b848 <pthread_share_type_t+0x3f30>
69c0755c:	10be10bd 	beq	a1,s8,69c0b854 <pthread_share_type_t+0x3f3c>
69c07560:	10c010bf 	beqz	a2,69c0b860 <pthread_share_type_t+0x3f48>
69c07564:	10c210c1 	beq	a2,v0,69c0b86c <pthread_share_type_t+0x3f54>
69c07568:	10c410c3 	beq	a2,a0,69c0b878 <pthread_share_type_t+0x3f60>
69c0756c:	ffff10c5 	sdc3	$31,4293(ra)
69c07570:	ff21d21b 	sdc3	$1,-11749(t9)
69c07574:	ff23ff22 	sdc3	$3,-222(t9)
69c07578:	ff25ff24 	sdc3	$5,-220(t9)
69c0757c:	ff27ff26 	sdc3	$7,-218(t9)
69c07580:	ff29ff28 	sdc3	$9,-216(t9)
69c07584:	ff2bff2a 	sdc3	$11,-214(t9)
69c07588:	ff2dff2c 	sdc3	$13,-212(t9)
69c0758c:	ff2fff2e 	sdc3	$15,-210(t9)
69c07590:	ff31ff30 	sdc3	$17,-208(t9)
69c07594:	ff33ff32 	sdc3	$19,-206(t9)
69c07598:	ff35ff34 	sdc3	$21,-204(t9)
69c0759c:	ff37ff36 	sdc3	$23,-202(t9)
69c075a0:	ff39ff38 	sdc3	$25,-200(t9)
69c075a4:	ff5bff3a 	sdc3	$27,-198(k0)
69c075a8:	ff5dff5c 	sdc3	$29,-164(k0)
69c075ac:	ff5fff5e 	sdc3	$31,-162(k0)
69c075b0:	ff61ff60 	sdc3	$1,-160(k1)
69c075b4:	ff63ff62 	sdc3	$3,-158(k1)
69c075b8:	ff65ff64 	sdc3	$5,-156(k1)
69c075bc:	ff67ff66 	sdc3	$7,-154(k1)
69c075c0:	ff69ff68 	sdc3	$9,-152(k1)
69c075c4:	ff6bff6a 	sdc3	$11,-150(k1)
69c075c8:	ff6dff6c 	sdc3	$13,-148(k1)
69c075cc:	ff6fff6e 	sdc3	$15,-146(k1)
69c075d0:	ff71ff70 	sdc3	$17,-144(k1)
69c075d4:	ff73ff72 	sdc3	$19,-142(k1)
69c075d8:	ff75ff74 	sdc3	$21,-140(k1)
69c075dc:	ff77ff76 	sdc3	$23,-138(k1)
69c075e0:	ff79ff78 	sdc3	$25,-136(k1)
69c075e4:	ff7bff7a 	sdc3	$27,-134(k1)
69c075e8:	ff7dff7c 	sdc3	$29,-132(k1)
69c075ec:	ff7fff7e 	sdc3	$31,-130(k1)
69c075f0:	ff81ff80 	sdc3	$1,-128(gp)
69c075f4:	ff83ff82 	sdc3	$3,-126(gp)
69c075f8:	ff85ff84 	sdc3	$5,-124(gp)
69c075fc:	ff87ff86 	sdc3	$7,-122(gp)
69c07600:	ff89ff88 	sdc3	$9,-120(gp)
69c07604:	ff8bff8a 	sdc3	$11,-118(gp)
69c07608:	ff8dff8c 	sdc3	$13,-116(gp)
69c0760c:	ff8fff8e 	sdc3	$15,-114(gp)
69c07610:	ff91ff90 	sdc3	$17,-112(gp)
69c07614:	ff93ff92 	sdc3	$19,-110(gp)
69c07618:	ff95ff94 	sdc3	$21,-108(gp)
69c0761c:	ff97ff96 	sdc3	$23,-106(gp)
69c07620:	ff99ff98 	sdc3	$25,-104(gp)
69c07624:	ff9bff9a 	sdc3	$27,-102(gp)
69c07628:	ff9dff9c 	sdc3	$29,-100(gp)
69c0762c:	ff9fff9e 	sdc3	$31,-98(gp)
69c07630:	ffa1ffa0 	sdc3	$1,-96(sp)
69c07634:	ffa3ffa2 	sdc3	$3,-94(sp)
69c07638:	ffa5ffa4 	sdc3	$5,-92(sp)
69c0763c:	ffa7ffa6 	sdc3	$7,-90(sp)
69c07640:	ffa9ffa8 	sdc3	$9,-88(sp)
69c07644:	ffabffaa 	sdc3	$11,-86(sp)
69c07648:	ffadffac 	sdc3	$13,-84(sp)
69c0764c:	ffafffae 	sdc3	$15,-82(sp)
69c07650:	ffb1ffb0 	sdc3	$17,-80(sp)
69c07654:	ffb3ffb2 	sdc3	$19,-78(sp)
69c07658:	ffb5ffb4 	sdc3	$21,-76(sp)
69c0765c:	ffb7ffb6 	sdc3	$23,-74(sp)
69c07660:	ffb9ffb8 	sdc3	$25,-72(sp)
69c07664:	ffbbffba 	sdc3	$27,-70(sp)
69c07668:	ffbdffbc 	sdc3	$29,-68(sp)
69c0766c:	ffbfffbe 	sdc3	$31,-66(sp)
69c07670:	ffc1ffc0 	sdc3	$1,-64(s8)
69c07674:	ffc3ffc2 	sdc3	$3,-62(s8)
69c07678:	ffc5ffc4 	sdc3	$5,-60(s8)
69c0767c:	ffc7ffc6 	sdc3	$7,-58(s8)
69c07680:	ffc9ffc8 	sdc3	$9,-56(s8)
69c07684:	ffcbffca 	sdc3	$11,-54(s8)
69c07688:	ffcdffcc 	sdc3	$13,-52(s8)
69c0768c:	ffcfffce 	sdc3	$15,-50(s8)
69c07690:	ffd1ffd0 	sdc3	$17,-48(s8)
69c07694:	ffd3ffd2 	sdc3	$19,-46(s8)
69c07698:	ffd5ffd4 	sdc3	$21,-44(s8)
69c0769c:	ffd7ffd6 	sdc3	$23,-42(s8)
69c076a0:	ffd9ffd8 	sdc3	$25,-40(s8)
69c076a4:	ffdbffda 	sdc3	$27,-38(s8)
69c076a8:	ffddffdc 	sdc3	$29,-36(s8)
69c076ac:	ffdfffde 	sdc3	$31,-34(s8)
69c076b0:	ffe1ffe0 	sdc3	$1,-32(ra)
69c076b4:	ffe3ffe2 	sdc3	$3,-30(ra)
69c076b8:	ffe5ffe4 	sdc3	$5,-28(ra)
69c076bc:	ffe7ffe6 	sdc3	$7,-26(ra)
69c076c0:	ffe9ffe8 	sdc3	$9,-24(ra)
69c076c4:	ffebffea 	sdc3	$11,-22(ra)
69c076c8:	ffedffec 	sdc3	$13,-20(ra)
69c076cc:	ffefffee 	sdc3	$15,-18(ra)
69c076d0:	fff1fff0 	sdc3	$17,-16(ra)
69c076d4:	fff3fff2 	sdc3	$19,-14(ra)
69c076d8:	fff5fff4 	sdc3	$21,-12(ra)
69c076dc:	fff7fff6 	sdc3	$23,-10(ra)
69c076e0:	fff9fff8 	sdc3	$25,-8(ra)
69c076e4:	fffbfffa 	sdc3	$27,-6(ra)
69c076e8:	fffdfffc 	sdc3	$29,-4(ra)
69c076ec:	fffffffe 	sdc3	$31,-2(ra)
69c076f0:	00000000 	nop

69c076f4 <boot_table>:
69c076f4:	459076eb 	0x459076eb
69c076f8:	54414658 	bnel	v0,at,69c1905c <pthread_share_type_t+0x11744>
69c076fc:	00202020 	add	a0,at,zero
	...
69c0773c:	0003c080 	sll	t8,v1,0x2
69c07740:	00000000 	nop
69c07744:	00000080 	sll	zero,zero,0x2
69c07748:	000000f8 	0xf8
69c0774c:	00000180 	sll	zero,zero,0x6
69c07750:	000077e0 	0x77e0
69c07754:	00000005 	0x5
69c07758:	48b34e25 	0x48b34e25
69c0775c:	00000100 	sll	zero,zero,0x4
69c07760:	80010309 	lb	at,777(zero)
	...
69c0776c:	d18ec033 	0xd18ec033
69c07770:	8e7bf0bc 	lw	k1,-3908(s3)
69c07774:	7dfba0d9 	0x7dfba0d9
69c07778:	f08b7db4 	0xf08b7db4
69c0777c:	744098ac 	jalx	610262b0 <_init-0x8bd9d50>
69c07780:	0e74480c 	jal	69d12030 <pthread_share_type_t+0x10a718>
69c07784:	07bb0eb4 	0x7bb0eb4
69c07788:	eb10cd00 	swc2	$16,-13056(t8)
69c0778c:	7dfda0ef 	0x7dfda0ef
69c07790:	16cde6eb 	bne	s6,t5,69c01340 <main+0x80c>
69c07794:	000019cd 	break	0x0,0x67
	...
69c077f4:	65520a0d 	0x65520a0d
69c077f8:	65766f6d 	0x65766f6d
69c077fc:	73696420 	0x73696420
69c07800:	6f20736b 	0x6f20736b
69c07804:	746f2072 	jalx	61bc81c8 <_init-0x8037e38>
69c07808:	20726568 	addi	s2,v1,25960
69c0780c:	6964656d 	0x6964656d
69c07810:	0dff2e61 	jal	67fcb984 <_init-0x1c3467c>
69c07814:	7369440a 	0x7369440a
69c07818:	7265206b 	0x7265206b
69c0781c:	ff726f72 	sdc3	$18,28530(k1)
69c07820:	72500a0d 	0x72500a0d
69c07824:	20737365 	addi	s3,v1,29541
69c07828:	20796e61 	addi	t9,v1,28257
69c0782c:	2079656b 	addi	t9,v1,25963
69c07830:	72206f74 	0x72206f74
69c07834:	61747365 	0x61747365
69c07838:	0a0d7472 	j	6835d1c8 <_init-0x18a2e38>
69c0783c:	00000000 	nop
	...
69c078b0:	ffff0000 	sdc3	$31,0(ra)
69c078b4:	ffffffff 	sdc3	$31,-1(ra)
69c078b8:	ffffffff 	sdc3	$31,-1(ra)
69c078bc:	ffffffff 	sdc3	$31,-1(ra)
69c078c0:	ffffffff 	sdc3	$31,-1(ra)
69c078c4:	ffffffff 	sdc3	$31,-1(ra)
69c078c8:	ffffffff 	sdc3	$31,-1(ra)
69c078cc:	ffffffff 	sdc3	$31,-1(ra)
69c078d0:	ffffffff 	sdc3	$31,-1(ra)
69c078d4:	ffffffff 	sdc3	$31,-1(ra)
69c078d8:	ffffffff 	sdc3	$31,-1(ra)
69c078dc:	ffffffff 	sdc3	$31,-1(ra)
69c078e0:	ffffffff 	sdc3	$31,-1(ra)
69c078e4:	ffffffff 	sdc3	$31,-1(ra)
69c078e8:	ffffffff 	sdc3	$31,-1(ra)
69c078ec:	00ffffff 	0xffffff
69c078f0:	aa552c1f 	swl	s5,11295(s2)
Disassembly of section .bss:

69c078f4 <plist_flag>:
69c078f4:	00000000 	nop

69c078f8 <upgrade_flag>:
69c078f8:	00000000 	nop

69c078fc <invoke_stage>:
69c078fc:	00000000 	nop

69c07900 <poweron_enable>:
69c07900:	00000000 	nop

69c07904 <apconfig_handle>:
69c07904:	00000000 	nop

69c07908 <poweroff_enable>:
69c07908:	00000000 	nop

69c0790c <already_mounted.3>:
69c0790c:	00000000 	nop

69c07910 <app_var>:
69c07910:	00000000 	nop

69c07914 <pthread_mutex_type_t>:
69c07914:	00000000 	nop

69c07918 <pthread_share_type_t>:
69c07918:	00000000 	nop
Disassembly of section .reginfo:

00000000 <.reginfo>:
   0:	e3fffffc 	sc	ra,-4(ra)
	...
Disassembly of section .pdr:

00000000 <.pdr>:
   0:	69c00020 	0x69c00020
	...
  18:	0000001d 	0x1d
  1c:	0000001f 	0x1f
  20:	69c00028 	0x69c00028
	...
  38:	0000001d 	0x1d
  3c:	0000001f 	0x1f
  40:	69c00030 	0x69c00030
  44:	c0ff0000 	ll	ra,0(a3)
  48:	fffffffc 	sdc3	$31,-4(ra)
	...
  54:	00000870 	tge	zero,zero,0x21
  58:	0000001d 	0x1d
  5c:	0000001f 	0x1f
  60:	69c0084c 	0x69c0084c
  64:	803f0000 	lb	ra,0(at)
  68:	fffffff8 	sdc3	$31,-8(ra)
	...
  74:	00000240 	sll	zero,zero,0x9
  78:	0000001d 	0x1d
  7c:	0000001f 	0x1f
  80:	69c00b34 	0x69c00b34
  84:	c0ff0000 	ll	ra,0(a3)
  88:	fffffffc 	sdc3	$31,-4(ra)
	...
  94:	00001090 	0x1090
  98:	0000001d 	0x1d
  9c:	0000001f 	0x1f
  a0:	69c018ec 	0x69c018ec
	...
  b8:	0000001d 	0x1d
  bc:	0000001f 	0x1f
  c0:	69c018f8 	0x69c018f8
	...
  d8:	0000001d 	0x1d
  dc:	0000001f 	0x1f
  e0:	69c01904 	0x69c01904
	...
  f8:	0000001d 	0x1d
  fc:	0000001f 	0x1f
 100:	69c01910 	0x69c01910
	...
 118:	0000001d 	0x1d
 11c:	0000001f 	0x1f
 120:	69c0191c 	0x69c0191c
	...
 138:	0000001d 	0x1d
 13c:	0000001f 	0x1f
 140:	69c01928 	0x69c01928
	...
 158:	0000001d 	0x1d
 15c:	0000001f 	0x1f
 160:	69c01934 	0x69c01934
	...
 178:	0000001d 	0x1d
 17c:	0000001f 	0x1f
 180:	69c01940 	0x69c01940
	...
 198:	0000001d 	0x1d
 19c:	0000001f 	0x1f
 1a0:	69c0194c 	0x69c0194c
	...
 1b8:	0000001d 	0x1d
 1bc:	0000001f 	0x1f
 1c0:	69c01958 	0x69c01958
	...
 1d8:	0000001d 	0x1d
 1dc:	0000001f 	0x1f
 1e0:	69c01964 	0x69c01964
	...
 1f8:	0000001d 	0x1d
 1fc:	0000001f 	0x1f
 200:	69c01970 	0x69c01970
	...
 218:	0000001d 	0x1d
 21c:	0000001f 	0x1f
 220:	69c0197c 	0x69c0197c
	...
 238:	0000001d 	0x1d
 23c:	0000001f 	0x1f
 240:	69c01988 	0x69c01988
	...
 258:	0000001d 	0x1d
 25c:	0000001f 	0x1f
 260:	69c01994 	0x69c01994
	...
 278:	0000001d 	0x1d
 27c:	0000001f 	0x1f
 280:	69c019a0 	0x69c019a0
	...
 298:	0000001d 	0x1d
 29c:	0000001f 	0x1f
 2a0:	69c019ac 	0x69c019ac
	...
 2b8:	0000001d 	0x1d
 2bc:	0000001f 	0x1f
 2c0:	69c019b8 	0x69c019b8
	...
 2d8:	0000001d 	0x1d
 2dc:	0000001f 	0x1f
 2e0:	69c019c4 	0x69c019c4
	...
 2f8:	0000001d 	0x1d
 2fc:	0000001f 	0x1f
 300:	69c019d0 	0x69c019d0
 304:	40000000 	mfc0	zero,c0_index
 308:	fffffff8 	sdc3	$31,-8(ra)
	...
 314:	00000018 	mult	zero,zero
 318:	0000001e 	0x1e
 31c:	0000001f 	0x1f
 320:	69c01a44 	0x69c01a44
 324:	c0000000 	ll	zero,0(zero)
 328:	fffffffc 	sdc3	$31,-4(ra)
	...
 334:	000000c0 	ehb
 338:	0000001e 	0x1e
 33c:	0000001f 	0x1f
 340:	69c0259c 	0x69c0259c
 344:	c0000000 	ll	zero,0(zero)
 348:	fffffffc 	sdc3	$31,-4(ra)
	...
 354:	000000a8 	0xa8
 358:	0000001e 	0x1e
 35c:	0000001f 	0x1f
 360:	69c02fc4 	0x69c02fc4
 364:	c0000000 	ll	zero,0(zero)
 368:	fffffffc 	sdc3	$31,-4(ra)
	...
 374:	000000b0 	tge	zero,zero,0x2
 378:	0000001e 	0x1e
 37c:	0000001f 	0x1f
 380:	69c03b5c 	0x69c03b5c
 384:	c0000000 	ll	zero,0(zero)
 388:	fffffffc 	sdc3	$31,-4(ra)
	...
 394:	00000028 	0x28
 398:	0000001e 	0x1e
 39c:	0000001f 	0x1f
 3a0:	69c03ce4 	0x69c03ce4
 3a4:	c0000000 	ll	zero,0(zero)
 3a8:	fffffffc 	sdc3	$31,-4(ra)
	...
 3b4:	00000228 	0x228
 3b8:	0000001e 	0x1e
 3bc:	0000001f 	0x1f
 3c0:	69c03dd8 	0x69c03dd8
 3c4:	c0000000 	ll	zero,0(zero)
 3c8:	fffffffc 	sdc3	$31,-4(ra)
	...
 3d4:	00000020 	add	zero,zero,zero
 3d8:	0000001e 	0x1e
 3dc:	0000001f 	0x1f
 3e0:	69c03e40 	0x69c03e40
	...
 3f8:	0000001d 	0x1d
 3fc:	0000001f 	0x1f
 400:	69c03e48 	0x69c03e48
	...
 418:	0000001d 	0x1d
 41c:	0000001f 	0x1f
 420:	69c03ea4 	0x69c03ea4
 424:	80070000 	lb	a3,0(zero)
 428:	fffffffc 	sdc3	$31,-4(ra)
	...
 434:	00000020 	add	zero,zero,zero
 438:	0000001d 	0x1d
 43c:	0000001f 	0x1f
 440:	69c03fbc 	0x69c03fbc
 444:	80070000 	lb	a3,0(zero)
 448:	fffffffc 	sdc3	$31,-4(ra)
	...
 454:	00000050 	0x50
 458:	0000001d 	0x1d
 45c:	0000001f 	0x1f
 460:	69c041cc 	0x69c041cc
 464:	c0000000 	ll	zero,0(zero)
 468:	fffffffc 	sdc3	$31,-4(ra)
	...
 474:	00000020 	add	zero,zero,zero
 478:	0000001e 	0x1e
 47c:	0000001f 	0x1f
 480:	69c04234 	0x69c04234
	...
 498:	0000001d 	0x1d
 49c:	0000001f 	0x1f
 4a0:	69c04240 	0x69c04240
	...
 4b8:	0000001d 	0x1d
 4bc:	0000001f 	0x1f
 4c0:	69c0424c 	0x69c0424c
	...
 4d8:	0000001d 	0x1d
 4dc:	0000001f 	0x1f
 4e0:	69c04258 	0x69c04258
	...
 4f8:	0000001d 	0x1d
 4fc:	0000001f 	0x1f
 500:	69c04264 	0x69c04264
	...
 518:	0000001d 	0x1d
 51c:	0000001f 	0x1f
 520:	69c04270 	0x69c04270
	...
 538:	0000001d 	0x1d
 53c:	0000001f 	0x1f
 540:	69c0427c 	0x69c0427c
	...
 558:	0000001d 	0x1d
 55c:	0000001f 	0x1f
 560:	69c04288 	0x69c04288
	...
 578:	0000001d 	0x1d
 57c:	0000001f 	0x1f
 580:	69c04294 	0x69c04294
	...
 598:	0000001d 	0x1d
 59c:	0000001f 	0x1f
 5a0:	69c042a0 	0x69c042a0
	...
 5b8:	0000001d 	0x1d
 5bc:	0000001f 	0x1f
 5c0:	69c042ac 	0x69c042ac
	...
 5d8:	0000001d 	0x1d
 5dc:	0000001f 	0x1f
 5e0:	69c042b8 	0x69c042b8
	...
 5f8:	0000001d 	0x1d
 5fc:	0000001f 	0x1f
 600:	69c042c4 	0x69c042c4
	...
 618:	0000001d 	0x1d
 61c:	0000001f 	0x1f
 620:	69c042d0 	0x69c042d0
	...
 638:	0000001d 	0x1d
 63c:	0000001f 	0x1f
 640:	69c042dc 	0x69c042dc
	...
 658:	0000001d 	0x1d
 65c:	0000001f 	0x1f
 660:	69c042e8 	0x69c042e8
	...
 678:	0000001d 	0x1d
 67c:	0000001f 	0x1f
 680:	69c042f4 	0x69c042f4
	...
 698:	0000001d 	0x1d
 69c:	0000001f 	0x1f
 6a0:	69c04300 	0x69c04300
	...
 6b8:	0000001d 	0x1d
 6bc:	0000001f 	0x1f
 6c0:	69c0430c 	0x69c0430c
	...
 6d8:	0000001d 	0x1d
 6dc:	0000001f 	0x1f
 6e0:	69c04318 	0x69c04318
	...
 6f8:	0000001d 	0x1d
 6fc:	0000001f 	0x1f
 700:	69c04324 	0x69c04324
	...
 718:	0000001d 	0x1d
 71c:	0000001f 	0x1f
 720:	69c04330 	0x69c04330
	...
 738:	0000001d 	0x1d
 73c:	0000001f 	0x1f
 740:	69c0433c 	0x69c0433c
	...
 758:	0000001d 	0x1d
 75c:	0000001f 	0x1f
 760:	69c04348 	0x69c04348
	...
 778:	0000001d 	0x1d
 77c:	0000001f 	0x1f
 780:	69c04354 	0x69c04354
	...
 798:	0000001d 	0x1d
 79c:	0000001f 	0x1f
 7a0:	69c04360 	0x69c04360
	...
 7b8:	0000001d 	0x1d
 7bc:	0000001f 	0x1f
 7c0:	69c04368 	0x69c04368
	...
 7d8:	0000001d 	0x1d
 7dc:	0000001f 	0x1f
 7e0:	69c04390 	0x69c04390
	...
 7f8:	0000001d 	0x1d
 7fc:	0000001f 	0x1f
 800:	69c043b8 	0x69c043b8
	...
 818:	0000001d 	0x1d
 81c:	0000001f 	0x1f
 820:	69c043dc 	0x69c043dc
	...
 838:	0000001d 	0x1d
 83c:	0000001f 	0x1f
 840:	69c043fc 	0x69c043fc
	...
 858:	0000001d 	0x1d
 85c:	0000001f 	0x1f
 860:	69c04468 	0x69c04468
	...
 878:	0000001d 	0x1d
 87c:	0000001f 	0x1f
 880:	69c044f8 	0x69c044f8
	...
 898:	0000001d 	0x1d
 89c:	0000001f 	0x1f
 8a0:	69c04544 	0x69c04544
	...
 8b8:	0000001d 	0x1d
 8bc:	0000001f 	0x1f
 8c0:	69c045a4 	0x69c045a4
	...
 8d8:	0000001d 	0x1d
 8dc:	0000001f 	0x1f
 8e0:	69c045d0 	0x69c045d0
	...
 8f8:	0000001d 	0x1d
 8fc:	0000001f 	0x1f
 900:	69c04624 	0x69c04624
	...
 918:	0000001d 	0x1d
 91c:	0000001f 	0x1f
 920:	69c04634 	0x69c04634
	...
 938:	0000001d 	0x1d
 93c:	0000001f 	0x1f
 940:	69c04640 	0x69c04640
	...
 958:	0000001d 	0x1d
 95c:	0000001f 	0x1f
 960:	69c04650 	0x69c04650
	...
 978:	0000001d 	0x1d
 97c:	0000001f 	0x1f
 980:	69c04660 	0x69c04660
	...
 998:	0000001d 	0x1d
 99c:	0000001f 	0x1f
 9a0:	69c0466c 	0x69c0466c
	...
 9b8:	0000001d 	0x1d
 9bc:	0000001f 	0x1f
 9c0:	69c04678 	0x69c04678
	...
 9d8:	0000001d 	0x1d
 9dc:	0000001f 	0x1f
 9e0:	69c04684 	0x69c04684
	...
 9f8:	0000001d 	0x1d
 9fc:	0000001f 	0x1f
 a00:	69c04690 	0x69c04690
	...
 a18:	0000001d 	0x1d
 a1c:	0000001f 	0x1f
 a20:	69c0469c 	0x69c0469c
	...
 a38:	0000001d 	0x1d
 a3c:	0000001f 	0x1f
 a40:	69c046a8 	0x69c046a8
	...
 a58:	0000001d 	0x1d
 a5c:	0000001f 	0x1f
 a60:	69c046b4 	0x69c046b4
	...
 a78:	0000001d 	0x1d
 a7c:	0000001f 	0x1f
 a80:	69c046c0 	0x69c046c0
	...
 a98:	0000001d 	0x1d
 a9c:	0000001f 	0x1f
 aa0:	69c046cc 	0x69c046cc
	...
 ab8:	0000001d 	0x1d
 abc:	0000001f 	0x1f
 ac0:	69c046d8 	0x69c046d8
	...
 ad8:	0000001d 	0x1d
 adc:	0000001f 	0x1f
 ae0:	69c046e4 	0x69c046e4
	...
 af8:	0000001d 	0x1d
 afc:	0000001f 	0x1f
 b00:	69c046f0 	0x69c046f0
	...
 b18:	0000001d 	0x1d
 b1c:	0000001f 	0x1f
 b20:	69c046fc 	0x69c046fc
	...
 b38:	0000001d 	0x1d
 b3c:	0000001f 	0x1f
 b40:	69c04708 	0x69c04708
	...
 b58:	0000001d 	0x1d
 b5c:	0000001f 	0x1f
 b60:	69c04714 	0x69c04714
	...
 b78:	0000001d 	0x1d
 b7c:	0000001f 	0x1f
 b80:	69c04720 	0x69c04720
	...
 b98:	0000001d 	0x1d
 b9c:	0000001f 	0x1f
 ba0:	69c0472c 	0x69c0472c
	...
 bb8:	0000001d 	0x1d
 bbc:	0000001f 	0x1f
 bc0:	69c04738 	0x69c04738
	...
 bd8:	0000001d 	0x1d
 bdc:	0000001f 	0x1f
 be0:	69c04744 	0x69c04744
	...
 bf8:	0000001d 	0x1d
 bfc:	0000001f 	0x1f
 c00:	69c04750 	0x69c04750
	...
 c18:	0000001d 	0x1d
 c1c:	0000001f 	0x1f
Disassembly of section .debug_abbrev:

00000000 <.debug_abbrev>:
   0:	10011101 	beq	zero,at,4408 <_init-0x69bfbbf8>
   4:	11011206 	beq	t0,at,4820 <_init-0x69bfb7e0>
   8:	130e2501 	beq	t8,t6,9410 <_init-0x69bf6bf0>
   c:	1b0e030b 	0x1b0e030b
  10:	0200000e 	0x200000e
  14:	0e030024 	jal	80c0090 <_init-0x61b3ff70>
  18:	0b3e0b0b 	j	cf82c2c <_init-0x5cc7d3d4>
  1c:	0f030000 	jal	c0c0000 <_init-0x5db40000>
  20:	000b0b00 	sll	at,t3,0xc
  24:	01040400 	0x1040400
  28:	0b0b1301 	j	c2c4c04 <_init-0x5d93b3fc>
  2c:	0b3b0b3a 	j	cec2ce8 <_init-0x5cd3d318>
  30:	28050000 	slti	a1,zero,0
  34:	1c0e0300 	0x1c0e0300
  38:	0600000d 	bltz	s0,70 <_init-0x69bfff90>
  3c:	0e030016 	jal	80c0058 <_init-0x61b3ffa8>
  40:	0b3b0b3a 	j	cec2ce8 <_init-0x5cd3d318>
  44:	00001349 	0x1349
  48:	03002407 	0x3002407
  4c:	3e0b0b08 	0x3e0b0b08
  50:	0800000b 	j	2c <_init-0x69bfffd4>
  54:	13010113 	beq	t8,at,4a4 <_init-0x69bffb5c>
  58:	0b3a0b0b 	j	ce82c2c <_init-0x5cd7d3d4>
  5c:	0000053b 	0x53b
  60:	03000d09 	0x3000d09
  64:	3b0b3a08 	xori	t3,t8,0x3a08
  68:	38134905 	xori	s3,zero,0x4905
  6c:	0a00000a 	j	8000028 <_init-0x61bfffd8>
  70:	0e030016 	jal	80c0058 <_init-0x61b3ffa8>
  74:	053b0b3a 	0x53b0b3a
  78:	00001349 	0x1349
  7c:	0b000f0b 	j	c003c2c <_init-0x5dbfc3d4>
  80:	0013490b 	0x13490b
  84:	00260c00 	0x260c00
  88:	00001349 	0x1349
  8c:	0101130d 	break	0x101,0x4c
  90:	0b0e0313 	j	c380c4c <_init-0x5d87f3b4>
  94:	3b0b3a0b 	xori	t3,t8,0x3a0b
  98:	0e00000b 	jal	800002c <_init-0x61bfffd4>
  9c:	0e03000d 	jal	80c0034 <_init-0x61b3ffcc>
  a0:	0b3b0b3a 	j	cec2ce8 <_init-0x5cd3d318>
  a4:	0a381349 	j	8e04d24 <_init-0x60dfb2dc>
  a8:	010f0000 	0x10f0000
  ac:	49130101 	bc2tl	$cc4,4b4 <_init-0x69bffb4c>
  b0:	10000013 	b	100 <_init-0x69bfff00>
  b4:	13490021 	beq	k0,t1,13c <_init-0x69bffec4>
  b8:	0000052f 	0x52f
  bc:	01011311 	0x1011311
  c0:	3a0b0b13 	xori	t3,s0,0xb13
  c4:	000b3b0b 	0xb3b0b
  c8:	000d1200 	sll	v0,t5,0x8
  cc:	0b3a0e03 	j	ce8380c <_init-0x5cd7c7f4>
  d0:	13490b3b 	beq	k0,t1,2dc0 <_init-0x69bfd240>
  d4:	0b0d0b0b 	j	c342c2c <_init-0x5d8bd3d4>
  d8:	0a380b0c 	j	8e02c30 <_init-0x60dfd3d0>
  dc:	13130000 	beq	t8,s3,e0 <_init-0x69bfff20>
  e0:	0b130101 	j	c4c0404 <_init-0x5d73fbfc>
  e4:	3b0b3a05 	xori	t3,t8,0x3a05
  e8:	1400000b 	bnez	zero,118 <_init-0x69bffee8>
  ec:	13010104 	beq	t8,at,500 <_init-0x69bffb00>
  f0:	0b0b0e03 	j	c2c380c <_init-0x5d93c7f4>
  f4:	0b3b0b3a 	j	cec2ce8 <_init-0x5cd3d318>
  f8:	2e150000 	sltiu	s5,s0,0
  fc:	3a0e0300 	xori	t6,s0,0x300
 100:	27053b0b 	addiu	a1,t8,15115
 104:	1113490c 	beq	t0,s3,12538 <_init-0x69bedac8>
 108:	40011201 	0x40011201
 10c:	1600000a 	bnez	s0,138 <_init-0x69bffec8>
 110:	0e03002e 	jal	80c00b8 <_init-0x61b3ff48>
 114:	053b0b3a 	0x53b0b3a
 118:	01110c27 	0x1110c27
 11c:	0a400112 	j	9000448 <_init-0x60bffbb8>
 120:	2e170000 	sltiu	s7,s0,0
 124:	03130101 	0x3130101
 128:	3b0b3a0e 	xori	t3,t8,0x3a0e
 12c:	490c2705 	bc2f	$cc3,9d44 <_init-0x69bf62bc>
 130:	12011113 	beq	s0,at,4580 <_init-0x69bfba80>
 134:	000a4001 	0xa4001
 138:	00051800 	sll	v1,a1,0x0
 13c:	0b3a0803 	j	ce8200c <_init-0x5cd7dff4>
 140:	1349053b 	beq	k0,t1,1630 <_init-0x69bfe9d0>
 144:	00000a02 	srl	at,zero,0x8
 148:	03003419 	0x3003419
 14c:	3b0b3a08 	xori	t3,t8,0x3a08
 150:	02134905 	0x2134905
 154:	1a00000a 	blez	s0,180 <_init-0x69bffe80>
 158:	0e030034 	jal	80c00d0 <_init-0x61b3ff30>
 15c:	053b0b3a 	0x53b0b3a
 160:	0a021349 	j	8084d24 <_init-0x61b7b2dc>
 164:	341b0000 	li	k1,0x0
 168:	3a0e0300 	xori	t6,s0,0x300
 16c:	49053b0b 	bc2t	$cc1,ed9c <_init-0x69bf1264>
 170:	1c000013 	bgtz	zero,1c0 <_init-0x69bffe40>
 174:	0e030034 	jal	80c00d0 <_init-0x61b3ff30>
 178:	0c341349 	jal	d04d24 <_init-0x68efb2dc>
 17c:	00000a02 	srl	at,zero,0x8
 180:	01011d1d 	0x1011d1d
 184:	11133113 	beq	t0,s3,c5d4 <_init-0x69bf3a2c>
 188:	00011201 	0x11201
 18c:	00341e00 	0x341e00
 190:	0a021331 	j	8084cc4 <_init-0x61b7b33c>
 194:	0b1f0000 	j	c7c0000 <_init-0x5d440000>
 198:	12011101 	beq	s0,at,45a0 <_init-0x69bfba60>
 19c:	20000001 	addi	zero,zero,1
 1a0:	1331011d 	beq	t9,s1,618 <_init-0x69bff9e8>
 1a4:	01120111 	0x1120111
 1a8:	34210000 	ori	at,at,0x0
 1ac:	00133100 	sll	a2,s3,0x4
 1b0:	010b2200 	0x10b2200
 1b4:	00000655 	0x655
 1b8:	49002123 	bc2f	8648 <_init-0x69bf79b8>
 1bc:	000b2f13 	0xb2f13
 1c0:	012e2400 	0x12e2400
 1c4:	0e031301 	jal	80c4c04 <_init-0x61b3b3fc>
 1c8:	0b3b0b3a 	j	cec2ce8 <_init-0x5cd3d318>
 1cc:	0b200c27 	j	c80309c <_init-0x5d3fcf64>
 1d0:	34250000 	ori	a1,at,0x0
 1d4:	3a080300 	xori	t0,s0,0x300
 1d8:	490b3b0b 	bc2tl	$cc2,ee08 <_init-0x69bf11f8>
 1dc:	26000013 	addiu	zero,s0,19
 1e0:	1301012e 	beq	t8,at,69c <_init-0x69bff964>
 1e4:	0b3a0e03 	j	ce8380c <_init-0x5cd7c7f4>
 1e8:	0c270b3b 	jal	9c2cec <_init-0x6923d314>
 1ec:	0b201349 	j	c804d24 <_init-0x5d3fb2dc>
 1f0:	0b270000 	j	c9c0000 <_init-0x5d240000>
 1f4:	28000001 	slti	zero,zero,1
 1f8:	1301012e 	beq	t8,at,6b4 <_init-0x69bff94c>
 1fc:	0b3a0e03 	j	ce8380c <_init-0x5cd7c7f4>
 200:	0c27053b 	jal	9c14ec <_init-0x6923eb14>
 204:	01120111 	0x1120111
 208:	00000a40 	sll	at,zero,0x9
 20c:	31001d29 	andi	zero,t0,0x1d29
 210:	12011113 	beq	s0,at,4660 <_init-0x69bfb9a0>
 214:	2a000001 	slti	zero,s0,1
 218:	13310005 	beq	t9,s1,230 <_init-0x69bffdd0>
 21c:	0b2b0000 	j	cac0000 <_init-0x5d140000>
 220:	55130101 	bnel	t0,s3,628 <_init-0x69bff9d8>
 224:	2c000006 	sltiu	zero,zero,6
 228:	0c3f012e 	jal	fc04b8 <_init-0x68c3fb48>
 22c:	0b3a0e03 	j	ce8380c <_init-0x5cd7c7f4>
 230:	1349053b 	beq	k0,t1,1720 <_init-0x69bfe8e0>
 234:	00000c3c 	0xc3c
 238:	0000182d 	0x182d
 23c:	002e2e00 	0x2e2e00
 240:	0b3a0e03 	j	ce8380c <_init-0x5cd7c7f4>
 244:	0c27053b 	jal	9c14ec <_init-0x6923eb14>
 248:	00000b20 	0xb20
 24c:	01012e2f 	0x1012e2f
 250:	3a0e0313 	xori	t6,s0,0x313
 254:	27053b0b 	addiu	a1,t8,15115
 258:	2013490c 	addi	s3,zero,18700
 25c:	3000000b 	andi	zero,zero,0xb
 260:	08030005 	j	c0014 <_init-0x69b3ffec>
 264:	053b0b3a 	0x53b0b3a
 268:	00001349 	0x1349
 26c:	03003431 	tgeu	t8,zero,0xd0
 270:	3b0b3a08 	xori	t3,t8,0x3a08
 274:	00134905 	0x134905
 278:	00343200 	0x343200
 27c:	13490e03 	beq	k0,t1,3a8c <_init-0x69bfc574>
 280:	00000c34 	teq	zero,zero,0x30
 284:	01012e33 	tltu	t0,at,0xb8
 288:	030c3f13 	0x30c3f13
 28c:	3b0b3a0e 	xori	t3,t8,0x3a0e
 290:	490c2705 	bc2f	$cc3,9ea8 <_init-0x69bf6158>
 294:	12011113 	beq	s0,at,46e4 <_init-0x69bfb91c>
 298:	000a4001 	0xa4001
 29c:	00053400 	sll	a2,a1,0x10
 2a0:	0b3a0e03 	j	ce8380c <_init-0x5cd7c7f4>
 2a4:	1349053b 	beq	k0,t1,1794 <_init-0x69bfe86c>
 2a8:	00000a02 	srl	at,zero,0x8
 2ac:	01010b35 	0x1010b35
 2b0:	12011113 	beq	s0,at,4700 <_init-0x69bfb900>
 2b4:	36000001 	ori	zero,s0,0x1
 2b8:	13310005 	beq	t9,s1,2d0 <_init-0x69bffd30>
 2bc:	00000a02 	srl	at,zero,0x8
 2c0:	03002e37 	0x3002e37
 2c4:	3b0b3a0e 	xori	t3,t8,0x3a0e
 2c8:	490c270b 	bc2f	$cc3,9ef8 <_init-0x69bf6108>
 2cc:	000b2013 	0xb2013
 2d0:	002e3800 	0x2e3800
 2d4:	0b3a0e03 	j	ce8380c <_init-0x5cd7c7f4>
 2d8:	0c270b3b 	jal	9c2cec <_init-0x6923d314>
 2dc:	00000b20 	0xb20
 2e0:	01012e39 	0x1012e39
 2e4:	3a0e0313 	xori	t6,s0,0x313
 2e8:	27053b0b 	addiu	a1,t8,15115
 2ec:	000b200c 	syscall	0x2c80
 2f0:	00053a00 	sll	a3,a1,0x8
 2f4:	0b3a0803 	j	ce8200c <_init-0x5cd7dff4>
 2f8:	13490b3b 	beq	k0,t1,2fe8 <_init-0x69bfd018>
 2fc:	053b0000 	0x53b0000
 300:	3a0e0300 	xori	t6,s0,0x300
 304:	490b3b0b 	bc2tl	$cc2,ef34 <_init-0x69bf10cc>
 308:	3c000013 	lui	zero,0x13
 30c:	0e030034 	jal	80c00d0 <_init-0x61b3ff30>
 310:	0b3b0b3a 	j	cec2ce8 <_init-0x5cd3d318>
 314:	0c3f1349 	jal	fc4d24 <_init-0x68c3b2dc>
 318:	00000a02 	srl	at,zero,0x8
 31c:	0300343d 	0x300343d
 320:	3b0b3a0e 	xori	t3,t8,0x3a0e
 324:	0213490b 	0x213490b
 328:	0000000a 	movz	zero,zero,zero
 32c:	10011101 	beq	zero,at,4734 <_init-0x69bfb8cc>
 330:	11011206 	beq	t0,at,4b4c <_init-0x69bfb4b4>
 334:	130e2501 	beq	t8,t6,973c <_init-0x69bf68c4>
 338:	1b0e030b 	0x1b0e030b
 33c:	0200000e 	0x200000e
 340:	0e030024 	jal	80c0090 <_init-0x61b3ff70>
 344:	0b3e0b0b 	j	cf82c2c <_init-0x5cc7d3d4>
 348:	0f030000 	jal	c0c0000 <_init-0x5db40000>
 34c:	000b0b00 	sll	at,t3,0xc
 350:	00240400 	0x240400
 354:	0b0b0803 	j	c2c200c <_init-0x5d93dff4>
 358:	00000b3e 	0xb3e
 35c:	01010405 	0x1010405
 360:	3a0b0b13 	xori	t3,s0,0xb13
 364:	000b3b0b 	0xb3b0b
 368:	00280600 	0x280600
 36c:	0d1c0e03 	jal	470380c <_init-0x654fc7f4>
 370:	2e070000 	sltiu	a3,s0,0
 374:	3f130101 	0x3f130101
 378:	3a0e030c 	xori	t6,s0,0x30c
 37c:	270b3b0b 	addiu	t3,t8,15115
 380:	1113490c 	beq	t0,s3,127b4 <_init-0x69bed84c>
 384:	40011201 	0x40011201
 388:	0800000a 	j	28 <_init-0x69bfffd8>
 38c:	0e030005 	jal	80c0014 <_init-0x61b3ffec>
 390:	0b3b0b3a 	j	cec2ce8 <_init-0x5cd3d318>
 394:	0a021349 	j	8084d24 <_init-0x61b7b2dc>
 398:	34090000 	li	t1,0x0
 39c:	3a0e0300 	xori	t6,s0,0x300
 3a0:	490b3b0b 	bc2tl	$cc2,efd0 <_init-0x69bf1030>
 3a4:	020c3f13 	0x20c3f13
 3a8:	0000000a 	movz	zero,zero,zero
 3ac:	10011101 	beq	zero,at,47b4 <_init-0x69bfb84c>
 3b0:	11011206 	beq	t0,at,4bcc <_init-0x69bfb434>
 3b4:	130e2501 	beq	t8,t6,97bc <_init-0x69bf6844>
 3b8:	1b0e030b 	0x1b0e030b
 3bc:	0200000e 	0x200000e
 3c0:	0e030024 	jal	80c0090 <_init-0x61b3ff70>
 3c4:	0b3e0b0b 	j	cf82c2c <_init-0x5cc7d3d4>
 3c8:	0f030000 	jal	c0c0000 <_init-0x5db40000>
 3cc:	000b0b00 	sll	at,t3,0xc
 3d0:	00240400 	0x240400
 3d4:	0b0b0803 	j	c2c200c <_init-0x5d93dff4>
 3d8:	00000b3e 	0xb3e
 3dc:	03001605 	0x3001605
 3e0:	3b0b3a0e 	xori	t3,t8,0x3a0e
 3e4:	0013490b 	0x13490b
 3e8:	000f0600 	sll	zero,t7,0x18
 3ec:	13490b0b 	beq	k0,t1,301c <_init-0x69bfcfe4>
 3f0:	15070000 	bne	t0,a3,3f4 <_init-0x69bffc0c>
 3f4:	000c2700 	sll	a0,t4,0x1c
 3f8:	00260800 	0x260800
 3fc:	00001349 	0x1349
 400:	01010109 	0x1010109
 404:	00134913 	0x134913
 408:	00210a00 	0x210a00
 40c:	0b2f1349 	j	cbc4d24 <_init-0x5d03b2dc>
 410:	130b0000 	beq	t8,t3,414 <_init-0x69bffbec>
 414:	03130101 	0x3130101
 418:	3a0b0b0e 	xori	t3,s0,0xb0e
 41c:	000b3b0b 	0xb3b0b
 420:	000d0c00 	sll	at,t5,0x10
 424:	0b3a0e03 	j	ce8380c <_init-0x5cd7c7f4>
 428:	13490b3b 	beq	k0,t1,3118 <_init-0x69bfcee8>
 42c:	00000a38 	0xa38
 430:	0101040d 	break	0x101,0x10
 434:	3a0b0b13 	xori	t3,s0,0xb13
 438:	000b3b0b 	0xb3b0b
 43c:	00280e00 	0x280e00
 440:	0d1c0e03 	jal	470380c <_init-0x654fc7f4>
 444:	130f0000 	beq	t8,t7,448 <_init-0x69bffbb8>
 448:	0b130101 	j	c4c0404 <_init-0x5d73fbfc>
 44c:	3b0b3a0b 	xori	t3,t8,0x3a0b
 450:	1000000b 	b	480 <_init-0x69bffb80>
 454:	13010113 	beq	t8,at,8a4 <_init-0x69bff75c>
 458:	0b3a0b0b 	j	ce82c2c <_init-0x5cd7d3d4>
 45c:	0000053b 	0x53b
 460:	03000d11 	0x3000d11
 464:	3b0b3a08 	xori	t3,t8,0x3a08
 468:	38134905 	xori	s3,zero,0x4905
 46c:	1200000a 	beqz	s0,498 <_init-0x69bffb68>
 470:	13010117 	beq	t8,at,8d0 <_init-0x69bff730>
 474:	0b3a0b0b 	j	ce82c2c <_init-0x5cd7d3d4>
 478:	0000053b 	0x53b
 47c:	03000d13 	0x3000d13
 480:	3b0b3a0e 	xori	t3,t8,0x3a0e
 484:	00134905 	0x134905
 488:	00161400 	sll	v0,s6,0x10
 48c:	0b3a0e03 	j	ce8380c <_init-0x5cd7c7f4>
 490:	1349053b 	beq	k0,t1,1980 <_init-0x69bfe680>
 494:	13150000 	beq	t8,s5,498 <_init-0x69bffb68>
 498:	03130101 	0x3130101
 49c:	3a0b0b0e 	xori	t3,s0,0xb0e
 4a0:	00053b0b 	0x53b0b
 4a4:	01151600 	0x1151600
 4a8:	0c271301 	jal	9c4c04 <_init-0x6923b3fc>
 4ac:	05170000 	0x5170000
 4b0:	00134900 	sll	t1,s3,0x4
 4b4:	000d1800 	sll	v1,t5,0x0
 4b8:	0b3a0803 	j	ce8200c <_init-0x5cd7dff4>
 4bc:	13490b3b 	beq	k0,t1,31ac <_init-0x69bfce54>
 4c0:	00000a38 	0xa38
 4c4:	01011519 	0x1011519
 4c8:	490c2713 	bc2f	$cc3,a118 <_init-0x69bf5ee8>
 4cc:	1a000013 	blez	s0,51c <_init-0x69bffae4>
 4d0:	1301012e 	beq	t8,at,98c <_init-0x69bff674>
 4d4:	0e030c3f 	jal	80c30fc <_init-0x61b3cf04>
 4d8:	0b3b0b3a 	j	cec2ce8 <_init-0x5cd3d318>
 4dc:	01110c27 	0x1110c27
 4e0:	0a400112 	j	9000448 <_init-0x60bffbb8>
 4e4:	051b0000 	0x51b0000
 4e8:	3a0e0300 	xori	t6,s0,0x300
 4ec:	490b3b0b 	bc2tl	$cc2,f11c <_init-0x69bf0ee4>
 4f0:	000a0213 	0xa0213
 4f4:	00341c00 	0x341c00
 4f8:	0b3a0e03 	j	ce8380c <_init-0x5cd7c7f4>
 4fc:	13490b3b 	beq	k0,t1,31ec <_init-0x69bfce14>
 500:	00000a02 	srl	at,zero,0x8
 504:	0300341d 	0x300341d
 508:	3b0b3a08 	xori	t3,t8,0x3a08
 50c:	0213490b 	0x213490b
 510:	1e00000a 	bgtz	s0,53c <_init-0x69bffac4>
 514:	1301012e 	beq	t8,at,9d0 <_init-0x69bff630>
 518:	0e030c3f 	jal	80c30fc <_init-0x61b3cf04>
 51c:	0b3b0b3a 	j	cec2ce8 <_init-0x5cd3d318>
 520:	13490c27 	beq	k0,t1,35c0 <_init-0x69bfca40>
 524:	01120111 	0x1120111
 528:	00000a40 	sll	at,zero,0x9
 52c:	0300341f 	0x300341f
 530:	3b0b3a08 	xori	t3,t8,0x3a08
 534:	0013490b 	0x13490b
 538:	00342000 	0x342000
 53c:	13490e03 	beq	k0,t1,3d4c <_init-0x69bfc2b4>
 540:	0a020c34 	j	80830d0 <_init-0x61b7cf30>
 544:	0b210000 	j	c840000 <_init-0x5d3c0000>
 548:	11130101 	beq	t0,s3,950 <_init-0x69bff6b0>
 54c:	00011201 	0x11201
 550:	010b2200 	0x10b2200
 554:	01120111 	0x1120111
 558:	34230000 	ori	v1,at,0x0
 55c:	3a0e0300 	xori	t6,s0,0x300
 560:	490b3b0b 	bc2tl	$cc2,f190 <_init-0x69bf0e70>
 564:	24000013 	li	zero,19
 568:	1301010b 	beq	t8,at,998 <_init-0x69bff668>
 56c:	00000655 	0x655
 570:	03003425 	0x3003425
 574:	3b0b3a0e 	xori	t3,t8,0x3a0e
 578:	3f13490b 	0x3f13490b
 57c:	000a020c 	syscall	0x2808
	...
Disassembly of section .debug_info:

00000000 <.debug_info>:
       0:	0000102f 	0x102f
       4:	00000002 	srl	zero,zero,0x0
       8:	01040000 	0x1040000
       c:	00000000 	nop
      10:	69c018ec 	0x69c018ec
      14:	69c00020 	0x69c00020
      18:	00000819 	multu	$ac1,zero,zero
      1c:	000b6f01 	0xb6f01
      20:	0011af00 	sll	s5,s1,0x1c
      24:	00000200 	sll	zero,zero,0x8
      28:	08010000 	j	40000 <_init-0x69bc0000>
      2c:	0f020403 	jal	c08100c <_init-0x5db7eff4>
      30:	0200000a 	movz	zero,s0,zero
      34:	11380207 	beq	t1,t8,854 <_init-0x69bff7ac>
      38:	07040000 	0x7040000
      3c:	00113d02 	srl	a3,s1,0x14
      40:	04070400 	0x4070400
      44:	00000058 	0x58
      48:	05260304 	0x5260304
      4c:	00000143 	sra	zero,zero,0x5
      50:	0f5d0500 	jal	d741400 <_init-0x5c4bec00>
      54:	00010000 	sll	zero,at,0x0
      58:	0002ab06 	0x2ab06
      5c:	43290300 	c0	0x1290300
      60:	07000000 	bltz	t8,64 <_init-0x69bfff9c>
      64:	00746e69 	0x746e69
      68:	4e020504 	c3	0x20504
      6c:	08000013 	j	4c <_init-0x69bfffb4>
      70:	11380205 	beq	t1,t8,888 <_init-0x69bff778>
      74:	07040000 	0x7040000
      78:	00112d06 	0x112d06
      7c:	633b0300 	0x633b0300
      80:	02000000 	0x2000000
      84:	00001353 	0x1353
      88:	09020504 	j	4081410 <_init-0x65b7ebf0>
      8c:	01000000 	0x1000000
      90:	0e450206 	jal	9140818 <_init-0x60abf7e8>
      94:	05020000 	bltzl	t0,98 <_init-0x69bfff68>
      98:	00113302 	srl	a2,s1,0xc
      9c:	08070800 	j	1c2000 <_init-0x69a3e000>
      a0:	000000c7 	0xc7
      a4:	012c0908 	0x12c0908
      a8:	6e696d09 	0x6e696d09
      ac:	01290900 	0x1290900
      b0:	0000003c 	0x3c
      b4:	09002302 	j	4008c08 <_init-0x65bf73f8>
      b8:	0078616d 	0x78616d
      bc:	3c012b09 	lui	at,0x2b09
      c0:	02000000 	0x2000000
      c4:	0a000423 	j	800108c <_init-0x61bfef74>
      c8:	000002e0 	0x2e0
      cc:	9f012c09 	0x9f012c09
      d0:	0b000000 	j	c000000 <_init-0x5dc00000>
      d4:	0000d904 	0xd904
      d8:	008a0c00 	0x8a0c00
      dc:	040b0000 	tltiu	zero,0
      e0:	0000008a 	0x8a
      e4:	0000ff0d 	break	0x0,0x3fc
      e8:	0004d000 	sll	k0,a0,0x0
      ec:	2b060400 	slti	a2,t8,1024
      f0:	0004c10e 	0x4c10e
      f4:	632d0600 	0x632d0600
      f8:	02000000 	0x2000000
      fc:	04000023 	bltz	zero,18c <_init-0x69bffe74>
     100:	00000126 	0x126
     104:	05a30804 	bgezl	t5,2118 <_init-0x69bfdee8>
     108:	00000ef4 	teq	zero,zero,0x3b
     10c:	0df90500 	jal	7e41400 <_init-0x61dbec00>
     110:	05010000 	bgez	t0,114 <_init-0x69bffeec>
     114:	00000624 	0x624
     118:	02b00502 	0x2b00502
     11c:	05030000 	bgezl	t0,120 <_init-0x69bffee0>
     120:	000005fc 	0x5fc
     124:	3b040000 	xori	a0,t8,0x0
     128:	04000001 	bltz	zero,130 <_init-0x69bffed0>
     12c:	9c05b008 	0x9c05b008
     130:	00000013 	mtlo	zero
     134:	0011fa05 	0x11fa05
     138:	0f000100 	jal	c000400 <_init-0x5dbffc00>
     13c:	0000014c 	syscall	0x5
     140:	0000008a 	0x8a
     144:	00003510 	0x3510
     148:	0003ff00 	sll	ra,v1,0x1c
     14c:	00016d04 	0x16d04
     150:	65070400 	0x65070400
     154:	0008ee05 	0x8ee05
     158:	e6050100 	swc1	$f5,256(s0)
     15c:	02000008 	jr	s0
     160:	0008cb05 	0x8cb05
     164:	78050300 	0x78050300
     168:	04000008 	bltz	zero,18c <_init-0x69bffe74>
     16c:	117f0600 	beq	t3,ra,1970 <_init-0x69bfe690>
     170:	6e070000 	0x6e070000
     174:	0000014c 	syscall	0x5
     178:	0001f511 	0x1f511
     17c:	8a070c00 	lwl	a3,3072(s0)
     180:	0000850e 	0x850e
     184:	6d7d0700 	0x6d7d0700
     188:	02000001 	movf	zero,s0,$fcc0
     18c:	6b120023 	0x6b120023
     190:	0700000e 	bltz	t8,1cc <_init-0x69bffe34>
     194:	00003c7f 	0x3c7f
     198:	10100400 	beq	zero,s0,119c <_init-0x69bfee64>
     19c:	12042302 	beq	s0,a0,8da8 <_init-0x69bf7258>
     1a0:	00000bee 	0xbee
     1a4:	003c8107 	0x3c8107
     1a8:	10040000 	beq	zero,a0,1ac <_init-0x69bffe54>
     1ac:	04230200 	bgezl	at,9b0 <_init-0x69bff650>
     1b0:	0010eb12 	0x10eb12
     1b4:	3c830700 	0x3c830700
     1b8:	04000000 	bltz	zero,1bc <_init-0x69bffe44>
     1bc:	23021f01 	addi	v0,t8,7937
     1c0:	06d31208 	bgezall	s6,49e4 <_init-0x69bfb61c>
     1c4:	85070000 	lh	a3,0(t0)
     1c8:	0000003c 	0x3c
     1cc:	021e0104 	0x21e0104
     1d0:	e8120823 	swc2	$18,2083(zero)
     1d4:	07000000 	bltz	t8,1d8 <_init-0x69bffe28>
     1d8:	00003c87 	0x3c87
     1dc:	1d010400 	0x1d010400
     1e0:	12082302 	beq	s0,t0,8dec <_init-0x69bf7214>
     1e4:	00001386 	0x1386
     1e8:	003c8907 	0x3c8907
     1ec:	01040000 	0x1040000
     1f0:	0823021c 	j	8c0870 <_init-0x6933f790>
     1f4:	00d20600 	0xd20600
     1f8:	8a070000 	lwl	a3,0(s0)
     1fc:	00000178 	0x178
     200:	0005d704 	0x5d704
     204:	19040400 	0x19040400
     208:	00141705 	0x141705
     20c:	6c050000 	0x6c050000
     210:	e400000c 	swc1	$f0,12(zero)
     214:	0c7a0500 	jal	1e81400 <_init-0x67d7ec00>
     218:	00e50000 	0xe50000
     21c:	00053b05 	0x53b05
     220:	0500e600 	bltz	t0,ffff9a24 <pthread_share_type_t+0x963f210c>
     224:	00000149 	0x149
     228:	100500e7 	beq	zero,a1,5c8 <_init-0x69bffa38>
     22c:	e8000010 	swc2	$0,16(zero)
     230:	05830500 	bgezl	t4,1634 <_init-0x69bfe9cc>
     234:	00e90000 	0xe90000
     238:	00012705 	0x12705
     23c:	0507e800 	0x507e800
     240:	0000021a 	0x21a
     244:	970507e9 	lhu	a1,2025(t8)
     248:	ea00000e 	swc2	$0,14(s0)
     24c:	09e40507 	j	790141c <_init-0x622febe4>
     250:	07eb0000 	tltiu	ra,0
     254:	0006c505 	0x6c505
     258:	0507ec00 	0x507ec00
     25c:	000011a3 	0x11a3
     260:	a90507ed 	swl	a1,2029(t0)
     264:	ee000001 	swc3	$0,1(s0)
     268:	07770507 	0x7770507
     26c:	07ef0000 	0x7ef0000
     270:	000ba005 	0xba005
     274:	0507f000 	0x507f000
     278:	0000045b 	0x45b
     27c:	450507f1 	bc1t	$fcc1,2244 <_init-0x69bfddbc>
     280:	f2000004 	0xf2000004
     284:	029e0507 	0x29e0507
     288:	07f30000 	bgezall	ra,28c <_init-0x69bffd74>
     28c:	00065205 	0x65205
     290:	0507f400 	0x507f400
     294:	00000207 	0x207
     298:	870507f5 	lh	a1,2037(t8)
     29c:	f6000012 	sdc1	$f0,18(s0)
     2a0:	06f90507 	0x6f90507
     2a4:	07f70000 	0x7f70000
     2a8:	00129b05 	0x129b05
     2ac:	0507f800 	0x507f800
     2b0:	000004f9 	0x4f9
     2b4:	4f0507f9 	nmsub.d	$f31,$f24,$f0,$f5
     2b8:	fa000005 	sdc2	$0,5(s0)
     2bc:	12230507 	beq	s1,v1,16dc <_init-0x69bfe924>
     2c0:	07fb0000 	0x7fb0000
     2c4:	000e7405 	0xe7405
     2c8:	0507fc00 	0x507fc00
     2cc:	00000958 	0x958
     2d0:	170507fd 	bne	t8,a1,22c8 <_init-0x69bfdd38>
     2d4:	fe000011 	sdc3	$0,17(s0)
     2d8:	13ca0507 	beq	s8,t2,16f8 <_init-0x69bfe908>
     2dc:	07ff0000 	synci	0(ra)
     2e0:	00068205 	0x68205
     2e4:	05088000 	tgei	t0,-32768
     2e8:	00000dad 	0xdad
     2ec:	9b050fd0 	lwr	a1,4048(t8)
     2f0:	d1000001 	0xd1000001
     2f4:	05e9050f 	tgeiu	t7,1295
     2f8:	0fd20000 	jal	f480000 <_init-0x5a780000>
     2fc:	00033d05 	0x33d05
     300:	050fd300 	0x50fd300
     304:	00000a3d 	0xa3d
     308:	11050fd4 	beq	t0,a1,425c <_init-0x69bfbda4>
     30c:	d5000012 	ldc1	$f0,18(t0)
     310:	08d3050f 	j	34c143c <_init-0x6673ebc4>
     314:	0fd60000 	jal	f580000 <_init-0x5a680000>
     318:	0001ef05 	0x1ef05
     31c:	050fd700 	0x50fd700
     320:	00000255 	0x255
     324:	bc050fd8 	cache	0x5,4056(zero)
     328:	d9000007 	ldc2	$0,7(t0)
     32c:	0133050f 	0x133050f
     330:	0fda0000 	jal	f680000 <_init-0x5a580000>
     334:	00015f05 	0x15f05
     338:	050fdb00 	0x50fdb00
     33c:	00001270 	tge	zero,zero,0x49
     340:	4f050fdc 	c3	0x1050fdc
     344:	dd00000e 	ldc3	$0,14(t0)
     348:	091d050f 	j	474143c <_init-0x654bebc4>
     34c:	0fde0000 	jal	f780000 <_init-0x5a480000>
     350:	000f4105 	0xf4105
     354:	050fdf00 	0x50fdf00
     358:	00000b4c 	syscall	0x2d
     35c:	80050fe0 	lb	a1,4064(zero)
     360:	e1000008 	sc	zero,8(t0)
     364:	0493050f 	bgezall	a0,17a4 <_init-0x69bfe85c>
     368:	0fe20000 	jal	f880000 <_init-0x5a380000>
     36c:	000f7205 	0xf7205
     370:	050fe300 	0x50fe300
     374:	000003d1 	0x3d1
     378:	c5050fe4 	lwc1	$f5,4068(t0)
     37c:	b8000003 	swr	zero,3(zero)
     380:	12ca0517 	beq	s6,t2,17e0 <_init-0x69bfe820>
     384:	1fa00000 	bgtz	sp,388 <_init-0x69bffc78>
     388:	0001be05 	0x1be05
     38c:	051fa100 	synci	-24320(t0)
     390:	00000025 	move	zero,zero
     394:	6f051fa2 	0x6f051fa2
     398:	a300000a 	sb	zero,10(t8)
     39c:	0b82051f 	j	e08147c <_init-0x5bb7eb84>
     3a0:	1fa40000 	0x1fa40000
     3a4:	000ec605 	0xec605
     3a8:	051fa500 	synci	-23296(t0)
     3ac:	00000f09 	0xf09
     3b0:	0c051fa6 	jal	147e98 <_init-0x69ab8168>
     3b4:	a7000001 	sh	zero,1(t8)
     3b8:	10f4051f 	beq	a3,s4,1838 <_init-0x69bfe7c8>
     3bc:	1fa80000 	0x1fa80000
     3c0:	000ad505 	0xad505
     3c4:	051fa900 	synci	-22272(t0)
     3c8:	00000cf3 	tltu	zero,zero,0x33
     3cc:	a1051faa 	sb	a1,8106(t0)
     3d0:	ab000010 	swl	zero,16(t8)
     3d4:	039b051f 	0x39b051f
     3d8:	1fac0000 	0x1fac0000
     3dc:	00043105 	0x43105
     3e0:	051fad00 	synci	-21248(t0)
     3e4:	000008aa 	0x8aa
     3e8:	5c051fae 	0x5c051fae
     3ec:	af00000a 	sw	zero,10(t8)
     3f0:	0dc1051f 	jal	704147c <_init-0x62bbeb84>
     3f4:	1fb00000 	0x1fb00000
     3f8:	0009a905 	0x9a905
     3fc:	051fb100 	synci	-20224(t0)
     400:	0000085a 	0x85a
     404:	da051fb2 	ldc2	$5,8114(s0)
     408:	b3000012 	0xb3000012
     40c:	0309051f 	0x309051f
     410:	1fb40000 	0x1fb40000
     414:	000d8e05 	0xd8e05
     418:	051fb500 	synci	-19200(t0)
     41c:	00000660 	0x660
     420:	ca051fb6 	lwc2	$5,8118(s0)
     424:	b7000010 	0xb7000010
     428:	0bd3051f 	j	f4c147c <_init-0x5a73eb84>
     42c:	1fb80000 	0x1fb80000
     430:	00047905 	0x47905
     434:	051fb900 	synci	-18176(t0)
     438:	00000aa8 	0xaa8
     43c:	2c051fba 	sltiu	a1,zero,8122
     440:	bb000014 	swr	zero,20(t8)
     444:	09c6051f 	j	718147c <_init-0x62a7eb84>
     448:	1fbc0000 	0x1fbc0000
     44c:	000ac805 	0xac805
     450:	05278800 	0x5278800
     454:	00000d6d 	0xd6d
     458:	2d052789 	sltiu	a1,t0,10121
     45c:	8a00000d 	lwl	zero,13(s0)
     460:	05ad0527 	0x5ad0527
     464:	278b0000 	addiu	t3,gp,0
     468:	00098b05 	0x98b05
     46c:	05278c00 	0x5278c00
     470:	00001235 	0x1235
     474:	c605278d 	lwc1	$f5,10125(s0)
     478:	8e000002 	lw	zero,2(s0)
     47c:	0d0e0527 	jal	438149c <_init-0x6587eb64>
     480:	278f0000 	addiu	t7,gp,0
     484:	00125305 	0x125305
     488:	05279000 	0x5279000
     48c:	00000bb5 	0xbb5
     490:	d2052791 	0xd2052791
     494:	92000001 	lbu	zero,1(s0)
     498:	00940527 	0x940527
     49c:	27930000 	addiu	s3,gp,0
     4a0:	000a8e05 	0xa8e05
     4a4:	05279400 	0x5279400
     4a8:	00000ca5 	0xca5
     4ac:	dc052795 	ldc3	$5,10133(zero)
     4b0:	96000004 	lhu	zero,4(s0)
     4b4:	03af0527 	0x3af0527
     4b8:	27970000 	addiu	s7,gp,0
     4bc:	000cdd05 	0xcdd05
     4c0:	05279800 	0x5279800
     4c4:	0000000e 	0xe
     4c8:	f2052799 	0xf2052799
     4cc:	9a000012 	lwr	zero,18(s0)
     4d0:	13b40527 	beq	sp,s4,1970 <_init-0x69bfe690>
     4d4:	279b0000 	addiu	k1,gp,0
     4d8:	000ff205 	0xff205
     4dc:	05279c00 	0x5279c00
     4e0:	0000132f 	0x132f
     4e4:	3a05279d 	xori	a1,s0,0x279d
     4e8:	9e000002 	0x9e000002
     4ec:	0afc0527 	j	bf0149c <_init-0x5dcfeb64>
     4f0:	279f0000 	addiu	ra,gp,0
     4f4:	00078405 	0x78405
     4f8:	0527a000 	0x527a000
     4fc:	0000006f 	0x6f
     500:	190527a1 	0x190527a1
     504:	a2000013 	sb	zero,19(s0)
     508:	00530527 	0x530527
     50c:	27a30000 	addiu	v1,sp,0
     510:	0000ef05 	0xef05
     514:	0527a400 	0x527a400
     518:	000006dc 	0x6dc
     51c:	f00527a5 	0xf00527a5
     520:	a6000009 	sh	zero,9(s0)
     524:	07e40527 	0x7e40527
     528:	27a70000 	addiu	a3,sp,0
     52c:	000ac705 	0xac705
     530:	0536d800 	0x536d800
     534:	00000ddc 	0xddc
     538:	720536d9 	udi9	s0,a1,a2,0x1b
     53c:	da000003 	ldc2	$0,3(s0)
     540:	0a220536 	j	88814d8 <_init-0x6137eb28>
     544:	36db0000 	ori	k1,s6,0x0
     548:	00135c05 	0x135c05
     54c:	0536dc00 	0x536dc00
     550:	000003f4 	teq	zero,zero,0xf
     554:	d90536dd 	ldc2	$5,14045(t0)
     558:	de00000f 	ldc3	$0,15(s0)
     55c:	0b2f0536 	j	cbc14d8 <_init-0x5d03eb28>
     560:	36df0000 	ori	ra,s6,0x0
     564:	00097005 	0x97005
     568:	0536e000 	0x536e000
     56c:	00000bf7 	0xbf7
     570:	030536e1 	0x30536e1
     574:	e2000008 	sc	zero,8(s0)
     578:	003d0536 	tne	at,sp,0x14
     57c:	36e30000 	ori	v1,s7,0x0
     580:	000ea705 	0xea705
     584:	0536e400 	0x536e400
     588:	0000093d 	0x93d
     58c:	1c0536e5 	0x1c0536e5
     590:	e6000003 	swc1	$f0,3(s0)
     594:	016e0536 	tne	t3,t6,0x14
     598:	36e70000 	ori	a3,s7,0x0
     59c:	000c1205 	0xc1205
     5a0:	0536e800 	0x536e800
     5a4:	00000fbe 	0xfbe
     5a8:	c20536e9 	ll	a1,14057(s0)
     5ac:	ea00000c 	swc2	$0,12(s0)
     5b0:	04260536 	0x4260536
     5b4:	3ec00000 	0x3ec00000
     5b8:	000b5e05 	0xb5e05
     5bc:	053ec100 	0x53ec100
     5c0:	0000130a 	0x130a
     5c4:	a2053ec2 	sb	a1,16066(s0)
     5c8:	a800000f 	swl	zero,15(zero)
     5cc:	ed0500c6 	swc3	$5,198(t0)
     5d0:	a9000002 	swl	zero,2(t0)
     5d4:	060000c6 	bltz	s0,8f0 <_init-0x69bff710>
     5d8:	000007ac 	0x7ac
     5dc:	0200ce04 	0x200ce04
     5e0:	17130000 	bne	t8,s3,5e4 <_init-0x69bffa1c>
     5e4:	08000006 	j	18 <_init-0x69bfffe8>
     5e8:	0edd0404 	jal	b741010 <_init-0x5e4beff0>
     5ec:	00000b7d 	0xb7d
     5f0:	05d7d804 	0x5d7d804
     5f4:	23020000 	addi	v0,t8,0
     5f8:	17050e00 	bne	t8,a1,3dfc <_init-0x69bfc204>
     5fc:	da040000 	ldc2	$4,0(s0)
     600:	0000013b 	0x13b
     604:	0e042302 	jal	8108c08 <_init-0x61af73f8>
     608:	0000115b 	0x115b
     60c:	0078dc04 	0x78dc04
     610:	23030000 	addi	v1,t8,0
     614:	06000884 	bltz	s0,2828 <_init-0x69bfd7d8>
     618:	000007a1 	0x7a1
     61c:	05e2dd04 	bltzl	t7,ffff7a30 <pthread_share_type_t+0x963f0118>
     620:	4f040000 	lwxc1	$f0,a0(t8)
     624:	04000006 	bltz	zero,640 <_init-0x69bff9c0>
     628:	2705e204 	addiu	a1,t8,-7676
     62c:	00000002 	srl	zero,zero,0x0
     630:	00140505 	0x140505
     634:	c5050100 	lwc1	$f5,256(t0)
     638:	02000005 	0x2000005
     63c:	00075305 	0x75305
     640:	22050300 	addi	a1,s0,768
     644:	0400000e 	bltz	zero,680 <_init-0x69bff980>
     648:	00056005 	0x56005
     64c:	06000500 	bltz	s0,1a50 <_init-0x69bfe5b0>
     650:	00000fad 	0xfad
     654:	0622ed04 	bltzl	s1,ffffba68 <pthread_share_type_t+0x963f4150>
     658:	80130000 	lb	s3,0(zero)
     65c:	04000006 	bltz	zero,678 <_init-0x69bff988>
     660:	0efb0404 	jal	bec1010 <_init-0x5dd3eff0>
     664:	00000b7d 	0xb7d
     668:	064ff804 	0x64ff804
     66c:	23020000 	addi	v0,t8,0
     670:	17050e00 	bne	t8,a1,3e74 <_init-0x69bfc18c>
     674:	fa040000 	sdc2	$4,0(s0)
     678:	0000013b 	0x13b
     67c:	00042302 	srl	a0,a0,0xc
     680:	00142006 	srlv	a0,s4,zero
     684:	5afb0400 	0x5afb0400
     688:	0b000006 	j	c000018 <_init-0x5dbfffe8>
     68c:	00061704 	0x61704
     690:	06b20400 	bltzall	s5,1694 <_init-0x69bfe96c>
     694:	05040000 	0x5040000
     698:	13ed0524 	beq	ra,t5,1b2c <_init-0x69bfe4d4>
     69c:	05000000 	bltz	t0,6a0 <_init-0x69bff960>
     6a0:	00001166 	0x1166
     6a4:	0b170501 	j	c5c1404 <_init-0x5d63ebfc>
     6a8:	05020000 	bltzl	t0,6ac <_init-0x69bff954>
     6ac:	000012b1 	tgeu	zero,zero,0x4a
     6b0:	4b060003 	c2	0x1060003
     6b4:	0500000d 	bltz	t0,6ec <_init-0x69bff914>
     6b8:	00069129 	0x69129
     6bc:	06d80d00 	0x6d80d00
     6c0:	073f0000 	synci	0(t9)
     6c4:	01040000 	0x1040000
     6c8:	0c9a0e15 	jal	2683854 <_init-0x6757c7ac>
     6cc:	16010000 	bne	s0,at,6d0 <_init-0x69bff930>
     6d0:	0000002c 	0x2c
     6d4:	00002302 	srl	a0,zero,0xc
     6d8:	00074906 	0x74906
     6dc:	bd170100 	cache	0x17,256(t0)
     6e0:	14000006 	bnez	zero,6fc <_init-0x69bff904>
     6e4:	00000720 	0x720
     6e8:	0000138d 	break	0x0,0x4e
     6ec:	051f0104 	synci	260(t0)
     6f0:	00000390 	0x390
     6f4:	00ae0500 	0xae0500
     6f8:	05010000 	bgez	t0,6fc <_init-0x69bff904>
     6fc:	00000c8d 	break	0x0,0x32
     700:	06980502 	0x6980502
     704:	05030000 	bgezl	t0,708 <_init-0x69bff8f8>
     708:	00000280 	sll	zero,zero,0xa
     70c:	10ba0504 	beq	a1,k0,1b20 <_init-0x69bfe4e0>
     710:	05050000 	0x5050000
     714:	00000272 	tlt	zero,zero,0x9
     718:	08440506 	j	1101418 <_init-0x68afebe8>
     71c:	00070000 	sll	zero,a3,0x0
     720:	00137706 	0x137706
     724:	e3280100 	sc	t0,256(t9)
     728:	15000006 	bnez	t0,744 <_init-0x69bff8bc>
     72c:	000004af 	0x4af
     730:	01035501 	0x1035501
     734:	00000058 	0x58
     738:	69c00020 	0x69c00020
     73c:	69c00028 	0x69c00028
     740:	55166d01 	bnel	t0,s6,1bb48 <_init-0x69be44b8>
     744:	01000010 	0x1000010
     748:	280101ac 	slti	at,zero,428
     74c:	3069c000 	andi	t1,v1,0xc000
     750:	0169c000 	0x169c000
     754:	0873176d 	j	1cc5db4 <_init-0x67f3a24c>
     758:	028f0000 	0x28f0000
     75c:	f1010000 	0xf1010000
     760:	00630101 	0x630101
     764:	00300000 	0x300000
     768:	084c69c0 	j	131a700 <_init-0x688e5900>
     76c:	6d0169c0 	0x6d0169c0
     770:	67736d18 	0x67736d18
     774:	01f00100 	0x1f00100
     778:	0000068b 	0x68b
     77c:	6d196001 	0x6d196001
     780:	01f20100 	0x1f20100
     784:	00000617 	0x617
     788:	1a189102 	0x1a189102
     78c:	0000083e 	0x83e
     790:	8001f301 	lb	at,-3327(zero)
     794:	03000006 	srlv	zero,zero,t8
     798:	1a08a091 	0x1a08a091
     79c:	000000e1 	0xe1
     7a0:	5801f401 	0x5801f401
     7a4:	01000000 	0x1000000
     7a8:	0f8d1b53 	jal	e346d4c <_init-0x5b8b92b4>
     7ac:	f5010000 	sdc1	$f1,0(t0)
     7b0:	0006b201 	0x6b201
     7b4:	04d61a00 	0x4d61a00
     7b8:	f6010000 	sdc1	$f1,0(s0)
     7bc:	0000e401 	0xe401
     7c0:	b8910300 	swr	s1,768(a0)
     7c4:	17f31a10 	bne	ra,s3,7008 <_init-0x69bf8ff8>
     7c8:	f7010000 	sdc1	$f1,0(t8)
     7cc:	00006301 	0x6301
     7d0:	b4910300 	0xb4910300
     7d4:	08f61c10 	j	3d87040 <_init-0x65e78fc0>
     7d8:	08830000 	j	20c0000 <_init-0x67b40000>
     7dc:	05010000 	bgez	t0,7e0 <_init-0x69bff820>
     7e0:	c0476803 	ll	a3,26627(v0)
     7e4:	08511d69 	j	14475a4 <_init-0x687b8a5c>
     7e8:	08880000 	j	2200000 <_init-0x67a00000>
     7ec:	02340000 	0x2340000
     7f0:	029869c0 	0x29869c0
     7f4:	951e69c0 	lhu	s8,27072(t0)
     7f8:	03000008 	jr	t8
     7fc:	1f10c091 	0x1f10c091
     800:	69c00234 	0x69c00234
     804:	69c00298 	0x69c00298
     808:	0008951e 	0x8951e
     80c:	c0910300 	ll	s1,768(a0)
     810:	08a12010 	j	2848040 <_init-0x673b7fc0>
     814:	02340000 	0x2340000
     818:	027c69c0 	0x27c69c0
     81c:	b21e69c0 	0xb21e69c0
     820:	03000008 	jr	t8
     824:	1e10bc91 	0x1e10bc91
     828:	000008bd 	0x8bd
     82c:	c7216001 	lwc1	$f1,24577(t9)
     830:	22000008 	addi	zero,s0,8
     834:	00000000 	nop
     838:	0008b21e 	0x8b21e
     83c:	bc910300 	cache	0x11,768(a0)
     840:	08bd1e10 	j	2f47840 <_init-0x66cb87c0>
     844:	60010000 	0x60010000
     848:	0008c721 	0x8c721
     84c:	00000000 	nop
     850:	08d32000 	j	34c8000 <_init-0x66738000>
     854:	08100000 	j	400000 <_init-0x69800000>
     858:	082c69c0 	j	b1a700 <_init-0x690e5900>
     85c:	101f69c0 	beq	zero,ra,1af60 <_init-0x69be50a0>
     860:	2c69c008 	sltiu	t1,v1,-16376
     864:	1e69c008 	0x1e69c008
     868:	000008e1 	0x8e1
     86c:	10b09103 	beq	a1,s0,fffe4c7c <pthread_share_type_t+0x963dd364>
     870:	0f000000 	jal	c000000 <_init-0x5dc00000>
     874:	00000883 	sra	at,zero,0x2
     878:	000000d9 	0xd9
     87c:	00003523 	0x3523
     880:	0c000e00 	jal	3800 <_init-0x69bfc800>
     884:	00000873 	tltu	zero,zero,0x21
     888:	0008a124 	0x8a124
     88c:	000c3900 	sll	a3,t4,0x4
     890:	01d10100 	0x1d10100
     894:	6f762501 	0x6f762501
     898:	d201006c 	0xd201006c
     89c:	00000063 	0x63
     8a0:	08d32600 	j	34c9800 <_init-0x66736800>
     8a4:	09340000 	j	4d00000 <_init-0x64f00000>
     8a8:	d8010000 	ldc2	$1,0(zero)
     8ac:	00006301 	0x6301
     8b0:	76250100 	jalx	8940400 <_init-0x612bfc00>
     8b4:	01006c6f 	0x1006c6f
     8b8:	000063d9 	0x63d9
     8bc:	64662500 	0x64662500
     8c0:	63da0100 	0x63da0100
     8c4:	25000000 	addiu	zero,t0,0
     8c8:	00746572 	tlt	v1,s4,0x195
     8cc:	0063db01 	0x63db01
     8d0:	24000000 	li	zero,0
     8d4:	000008ec 	0x8ec
     8d8:	00000612 	0x612
     8dc:	0101b901 	0x101b901
     8e0:	00762527 	0x762527
     8e4:	0063bc01 	0x63bc01
     8e8:	00000000 	nop
     8ec:	0009b128 	0x9b128
     8f0:	000a4a00 	sll	t1,t2,0x8
     8f4:	01880100 	0x1880100
     8f8:	c0084c01 	ll	t0,19457(zero)
     8fc:	c00b3469 	ll	t3,13417(zero)
     900:	1a6d0169 	0x1a6d0169
     904:	0000089a 	0x89a
     908:	58018901 	0x58018901
     90c:	05000000 	bltz	t0,910 <_init-0x69bff6f0>
     910:	c0790c03 	ll	t9,3075(v1)
     914:	00e11b69 	0xe11b69
     918:	8a010000 	lwl	at,0(s0)
     91c:	00006301 	0x6301
     920:	0f8d1b00 	jal	e346c00 <_init-0x5b8b9400>
     924:	8b010000 	lwl	at,0(t8)
     928:	0006b201 	0x6b201
     92c:	08f61c00 	j	3d87000 <_init-0x65e79000>
     930:	09c10000 	j	7040000 <_init-0x62bc0000>
     934:	05010000 	bgez	t0,938 <_init-0x69bff6c8>
     938:	c0479403 	ll	a3,-27645(v0)
     93c:	09c62969 	j	718a5a4 <_init-0x62a75a5c>
     940:	089c0000 	j	2700000 <_init-0x67500000>
     944:	08ec69c0 	j	3b1a700 <_init-0x660e5900>
     948:	801d69c0 	lb	sp,27072(zero)
     94c:	d0000009 	0xd0000009
     950:	2c000009 	sltiu	zero,zero,9
     954:	c069c009 	ll	t1,-16375(v1)
     958:	2a69c009 	slti	t1,s3,-16375
     95c:	000009e2 	0x9e2
     960:	00001822 	neg	v1,zero
     964:	09ee1e00 	j	7b87800 <_init-0x62078800>
     968:	91020000 	lbu	v0,0(t0)
     96c:	09fa1e20 	j	7e87880 <_init-0x61d78780>
     970:	61010000 	0x61010000
     974:	000a0521 	0xa0521
     978:	0a112100 	j	8448400 <_init-0x617b7c00>
     97c:	00000000 	nop
     980:	00099a2b 	0x99a2b
     984:	00003000 	sll	a2,zero,0x0
     988:	11012c00 	beq	t0,at,b98c <_init-0x69bf4674>
     98c:	0100000e 	0x100000e
     990:	00630195 	0x630195
     994:	2d010000 	sltiu	at,t0,0
     998:	48220000 	0x48220000
     99c:	2c000000 	sltiu	zero,zero,0
     9a0:	000e1101 	0xe1101
     9a4:	01950100 	0x1950100
     9a8:	00000063 	0x63
     9ac:	00002d01 	0x2d01
     9b0:	09c10f00 	j	7043c00 <_init-0x62bbc400>
     9b4:	00d90000 	0xd90000
     9b8:	35230000 	ori	v1,t1,0x0
     9bc:	11000000 	beqz	t0,9c0 <_init-0x69bff640>
     9c0:	09b10c00 	j	6c43000 <_init-0x62fbd000>
     9c4:	aa2e0000 	swl	t6,0(s1)
     9c8:	01000006 	srlv	zero,zero,t0
     9cc:	01010176 	tne	t0,at,0x5
     9d0:	000a282f 	0xa282f
     9d4:	000f2a00 	sll	a1,t7,0x8
     9d8:	03110100 	0x3110100
     9dc:	00005801 	movf	t3,zero,$fcc0
     9e0:	64300100 	0x64300100
     9e4:	01007665 	0x1007665
     9e8:	00de0310 	0xde0310
     9ec:	62310000 	0x62310000
     9f0:	01006675 	0x1006675
     9f4:	0a280312 	j	8a00c48 <_init-0x611ff3b8>
     9f8:	66310000 	0x66310000
     9fc:	13010064 	beq	t8,at,b90 <_init-0x69bff470>
     a00:	00006303 	sra	t4,zero,0xc
     a04:	16771b00 	bne	s3,s7,7608 <_init-0x69bf89f8>
     a08:	14010000 	bne	zero,at,a0c <_init-0x69bff5f4>
     a0c:	00006303 	sra	t4,zero,0xc
     a10:	0f381b00 	jal	ce06c00 <_init-0x5cdf9400>
     a14:	16010000 	bne	s0,at,a18 <_init-0x69bff5e8>
     a18:	00005803 	sra	t3,zero,0x0
     a1c:	08f63200 	j	3d8c800 <_init-0x65e73800>
     a20:	0a490000 	j	9240000 <_init-0x609c0000>
     a24:	00010000 	sll	zero,at,0x0
     a28:	000a390f 	0xa390f
     a2c:	00002500 	sll	a0,zero,0x14
     a30:	00351000 	0x351000
     a34:	01ff0000 	0x1ff0000
     a38:	0a490f00 	j	9243c00 <_init-0x609bc400>
     a3c:	00d90000 	0xd90000
     a40:	35230000 	ori	v1,t1,0x0
     a44:	16000000 	bnez	s0,a48 <_init-0x69bff5b8>
     a48:	0a390c00 	j	8e43000 <_init-0x60dbd000>
     a4c:	f4330000 	sdc1	$f19,0(at)
     a50:	0100000c 	syscall	0x40000
     a54:	00000d60 	0xd60
     a58:	0103c101 	0x103c101
     a5c:	00000063 	0x63
     a60:	69c00b34 	0x69c00b34
     a64:	69c018ec 	0x69c018ec
     a68:	97346d01 	lhu	s4,27905(t9)
     a6c:	0100000f 	0x100000f
     a70:	006303c0 	0x6303c0
     a74:	61010000 	0x61010000
     a78:	0016f534 	teq	zero,s6,0x3d4
     a7c:	03c00100 	0x3c00100
     a80:	00000cf4 	teq	zero,zero,0x33
     a84:	6d196001 	0x6d196001
     a88:	01006773 	tltu	t0,zero,0x19d
     a8c:	061703c2 	0x61703c2
     a90:	91020000 	lbu	v0,0(t0)
     a94:	006d1920 	0x6d1920
     a98:	1703c301 	bne	t8,v1,ffff16a0 <pthread_share_type_t+0x963e9d88>
     a9c:	03000006 	srlv	zero,zero,t8
     aa0:	3108a891 	andi	t0,t0,0xa891
     aa4:	00706d74 	teq	v1,s0,0x1b5
     aa8:	6303c401 	0x6303c401
     aac:	1a000000 	blez	s0,ab0 <_init-0x69bff550>
     ab0:	0000083e 	0x83e
     ab4:	8003c501 	lb	v1,-15103(zero)
     ab8:	03000006 	srlv	zero,zero,t8
     abc:	1a10b091 	0x1a10b091
     ac0:	00000e8a 	0xe8a
     ac4:	3b03c601 	xori	v1,t8,0xc601
     ac8:	03000001 	movf	zero,t8,$fcc0
     acc:	1918b891 	0x1918b891
     ad0:	01006466 	0x1006466
     ad4:	006303c7 	0x6303c7
     ad8:	60010000 	0x60010000
     adc:	0004d61a 	0x4d61a
     ae0:	03c90100 	0x3c90100
     ae4:	000000e4 	0xe4
     ae8:	20d49103 	addi	s4,a2,-28413
     aec:	0017f31a 	0x17f31a
     af0:	03ca0100 	0x3ca0100
     af4:	00000063 	0x63
     af8:	20d09103 	addi	s0,a2,-28413
     afc:	0008f61c 	0x8f61c
     b00:	000d0a00 	sll	at,t5,0x8
     b04:	03050100 	0x3050100
     b08:	69c047c0 	0x69c047c0
     b0c:	000d0f29 	0xd0f29
     b10:	c00ba800 	ll	t3,-22528(zero)
     b14:	c00bac69 	ll	t3,-21399(zero)
     b18:	0d3c2969 	jal	4f0a5a4 <_init-0x64cf5a5c>
     b1c:	0bac0000 	j	eb00000 <_init-0x5b100000>
     b20:	0bb869c0 	j	ee1a700 <_init-0x5ade5900>
     b24:	5a1d69c0 	0x5a1d69c0
     b28:	4900000b 	bc2f	b58 <_init-0x69bff4a8>
     b2c:	dc00000d 	ldc3	$0,13(zero)
     b30:	c469c00c 	lwc1	$f9,-16372(v1)
     b34:	2169c00d 	addi	t1,t3,-16371
     b38:	00000d56 	0xd56
     b3c:	000d611e 	0xd611e
     b40:	d8910300 	ldc2	$17,768(a0)
     b44:	00602220 	0x602220
     b48:	56210000 	bnel	s1,at,b4c <_init-0x69bff4b4>
     b4c:	1e00000d 	bgtz	s0,b84 <_init-0x69bff47c>
     b50:	00000d61 	0xd61
     b54:	20d89103 	addi	t8,a2,-28413
     b58:	6b290000 	0x6b290000
     b5c:	c400000d 	lwc1	$f0,13(zero)
     b60:	e469c00d 	swc1	$f9,-16371(v1)
     b64:	1d69c00d 	0x1d69c00d
     b68:	00000b95 	0xb95
     b6c:	00000d74 	teq	zero,zero,0x35
     b70:	69c00e24 	0x69c00e24
     b74:	69c010bc 	0x69c010bc
     b78:	000d821e 	0xd821e
     b7c:	c0910300 	ll	s1,768(a0)
     b80:	0e241f20 	jal	8907c80 <_init-0x612f8380>
     b84:	10bc69c0 	beq	a1,gp,1b288 <_init-0x69be4d78>
     b88:	821e69c0 	lb	s8,27072(s0)
     b8c:	0300000d 	break	0x300
     b90:	0020c091 	0x20c091
     b94:	0d8f2900 	jal	63ca400 <_init-0x63835c00>
     b98:	11140000 	beq	t0,s4,b9c <_init-0x69bff464>
     b9c:	113469c0 	beq	t1,s4,1b2a0 <_init-0x69be4d60>
     ba0:	b91d69c0 	swr	sp,27072(t0)
     ba4:	c100000b 	ll	zero,11(t0)
     ba8:	3400000d 	li	zero,0xd
     bac:	8c69c011 	lw	t1,-16367(v1)
     bb0:	2a69c011 	slti	t1,s3,-16367
     bb4:	00000dd3 	0xdd3
     bb8:	0dff2900 	jal	7fca400 <_init-0x61c35c00>
     bbc:	118c0000 	beq	t4,t4,bc0 <_init-0x69bff440>
     bc0:	11ac69c0 	beq	t5,t4,1b2c4 <_init-0x69be4d3c>
     bc4:	212969c0 	addi	t1,t1,27072
     bc8:	ac00000e 	sw	zero,14(zero)
     bcc:	c869c011 	lwc2	$9,-16367(v1)
     bd0:	2969c011 	slti	t1,t3,-16367
     bd4:	00000e53 	0xe53
     bd8:	69c011e8 	0x69c011e8
     bdc:	69c011f4 	0x69c011f4
     be0:	000e5d29 	0xe5d29
     be4:	c011f400 	ll	s1,-3072(zero)
     be8:	c0120469 	ll	s2,1129(zero)
     bec:	0c4f1d69 	jal	13c75a4 <_init-0x68838a5c>
     bf0:	0e670000 	jal	99c0000 <_init-0x60240000>
     bf4:	12040000 	beq	s0,a0,bf8 <_init-0x69bff408>
     bf8:	129c69c0 	beq	s4,gp,1b2fc <_init-0x69be4d04>
     bfc:	751e69c0 	jalx	479a700 <_init-0x65465900>
     c00:	0100000e 	0x100000e
     c04:	0e801e62 	jal	a007988 <_init-0x5fbf8678>
     c08:	91030000 	lbu	v1,0(t0)
     c0c:	8c1e20dc 	lw	s8,8412(zero)
     c10:	0100000e 	0x100000e
     c14:	0e981e60 	jal	a607980 <_init-0x5f5f8680>
     c18:	61010000 	0x61010000
     c1c:	000ea21e 	0xea21e
     c20:	22650100 	addi	a1,s3,256
     c24:	00000078 	0x78
     c28:	000e751e 	0xe751e
     c2c:	1e620100 	0x1e620100
     c30:	00000e80 	sll	at,zero,0x1a
     c34:	20dc9103 	addi	gp,a2,-28413
     c38:	000e8c1e 	0xe8c1e
     c3c:	1e600100 	bgtz	s3,1040 <_init-0x69bfefc0>
     c40:	00000e98 	0xe98
     c44:	a21e6101 	sb	s8,24833(s0)
     c48:	0100000e 	0x100000e
     c4c:	29000065 	slti	zero,t0,101
     c50:	00000ece 	0xece
     c54:	69c012a8 	0x69c012a8
     c58:	69c013f0 	0x69c013f0
     c5c:	000ed829 	0xed829
     c60:	c0140000 	ll	s4,0(zero)
     c64:	c0140c69 	ll	s4,3177(zero)
     c68:	0c833569 	jal	20cd5a4 <_init-0x67b32a5c>
     c6c:	140c0000 	bne	zero,t4,c70 <_init-0x69bff390>
     c70:	141469c0 	bne	zero,s4,1b374 <_init-0x69be4c8c>
     c74:	451b69c0 	bc1tl	$fcc6,1b378 <_init-0x69be4c88>
     c78:	0100000b 	movn	zero,t0,zero
     c7c:	003c0442 	ror	zero,gp,0x11
     c80:	20000000 	addi	zero,zero,0
     c84:	00000ee1 	0xee1
     c88:	69c01414 	0x69c01414
     c8c:	69c01448 	0x69c01448
     c90:	000cc31d 	0xcc31d
     c94:	000eeb00 	sll	sp,t6,0xc
     c98:	c0141400 	ll	s4,5120(zero)
     c9c:	c0143069 	ll	s4,12393(zero)
     ca0:	0ef83669 	jal	be0d9a4 <_init-0x5ddf265c>
     ca4:	53010000 	beql	t8,at,ca8 <_init-0x69bff358>
     ca8:	000f032a 	0xf032a
     cac:	0f0f2000 	jal	c3c8000 <_init-0x5d838000>
     cb0:	14140000 	bne	zero,s4,cb4 <_init-0x69bff34c>
     cb4:	142069c0 	bnez	at,1b3b8 <_init-0x69be4c48>
     cb8:	203669c0 	addi	s6,at,27072
     cbc:	0100000f 	0x100000f
     cc0:	20000054 	addi	zero,zero,84
     cc4:	00000eeb 	0xeeb
     cc8:	69c01430 	0x69c01430
     ccc:	69c01448 	0x69c01448
     cd0:	000ef836 	tne	zero,t6,0x3e0
     cd4:	2a530100 	slti	s3,s2,256
     cd8:	00000f03 	sra	at,zero,0x1c
     cdc:	000f0f20 	0xf0f20
     ce0:	c0143000 	ll	s4,12288(zero)
     ce4:	c0143869 	ll	s4,14441(zero)
     ce8:	0f203669 	jal	c80d9a4 <_init-0x5d3f265c>
     cec:	60010000 	0x60010000
     cf0:	00000000 	nop
     cf4:	00d3040b 	0xd3040b
     cf8:	0a0f0000 	j	83c0000 <_init-0x61840000>
     cfc:	d900000d 	ldc2	$0,13(t0)
     d00:	23000000 	addi	zero,t8,0
     d04:	00000035 	0x35
     d08:	fa0c0004 	sdc2	$12,4(s0)
     d0c:	2400000c 	li	zero,12
     d10:	00000d27 	0xd27
     d14:	00001033 	tltu	zero,zero,0x40
     d18:	0101f301 	0x101f301
     d1c:	0008f632 	tlt	zero,t0,0x3d8
     d20:	000d3700 	sll	a2,t5,0x1c
     d24:	0f000100 	jal	c000400 <_init-0x5dbffc00>
     d28:	00000d37 	0xd37
     d2c:	000000d9 	0xd9
     d30:	00003523 	0x3523
     d34:	0c002100 	jal	8400 <_init-0x69bf7c00>
     d38:	00000d27 	0xd27
     d3c:	000f9c37 	0xf9c37
     d40:	01800100 	0x1800100
     d44:	00000058 	0x58
     d48:	0d6b2401 	jal	5ac9004 <_init-0x64136ffc>
     d4c:	114a0000 	beq	t2,t2,d50 <_init-0x69bff2b0>
     d50:	95010000 	lhu	at,0(t0)
     d54:	72250101 	0x72250101
     d58:	01007465 	0x1007465
     d5c:	00006396 	0x6396
     d60:	00762500 	0x762500
     d64:	00639701 	0x639701
     d68:	38000000 	xori	zero,zero,0x0
     d6c:	0000050e 	0x50e
     d70:	0101c201 	0x101c201
     d74:	000d8f39 	0xd8f39
     d78:	00035200 	sll	t2,v1,0x8
     d7c:	010d0100 	0x10d0100
     d80:	941b0101 	lhu	k1,257(zero)
     d84:	01000010 	0x1000010
     d88:	01f5010e 	0x1f5010e
     d8c:	2f000000 	sltiu	zero,t8,0
     d90:	00000dac 	0xdac
     d94:	0000118e 	0x118e
     d98:	0102f001 	0x102f001
     d9c:	00000058 	0x58
     da0:	08f63201 	j	3d8c804 <_init-0x65e737fc>
     da4:	0dbc0000 	jal	6f00000 <_init-0x62d00000>
     da8:	00010000 	sll	zero,at,0x0
     dac:	000dbc0f 	0xdbc0f
     db0:	0000d900 	sll	k1,zero,0x4
     db4:	00352300 	0x352300
     db8:	00140000 	sll	zero,s4,0x0
     dbc:	000dac0c 	syscall	0x36b0
     dc0:	0dea2f00 	jal	7a8bc00 <_init-0x62174400>
     dc4:	07250000 	0x7250000
     dc8:	fe010000 	sdc3	$1,0(s0)
     dcc:	00580102 	0x580102
     dd0:	30010000 	andi	at,zero,0x0
     dd4:	006c6176 	tne	v1,t4,0x185
     dd8:	3c02fd01 	lui	v0,0xfd01
     ddc:	32000000 	andi	zero,s0,0x0
     de0:	000008f6 	tne	zero,zero,0x23
     de4:	00000dfa 	0xdfa
     de8:	fa0f0001 	sdc2	$15,1(s0)
     dec:	d900000d 	ldc2	$0,13(t0)
     df0:	23000000 	addi	zero,t8,0
     df4:	00000035 	0x35
     df8:	ea0c0019 	swc2	$12,25(s0)
     dfc:	2f00000d 	sltiu	zero,t8,13
     e00:	00000e1c 	0xe1c
     e04:	0000070b 	0x70b
     e08:	01033101 	0x1033101
     e0c:	00000058 	0x58
     e10:	08f63201 	j	3d8c804 <_init-0x65e737fc>
     e14:	0e1c0000 	jal	8700000 <_init-0x61500000>
     e18:	00010000 	sll	zero,at,0x0
     e1c:	000dea0c 	syscall	0x37a8
     e20:	0e3e2f00 	jal	8f8bc00 <_init-0x60c74400>
     e24:	05970000 	0x5970000
     e28:	42010000 	c0	0x10000
     e2c:	00580103 	0x580103
     e30:	32010000 	andi	at,s0,0x0
     e34:	000008f6 	tne	zero,zero,0x23
     e38:	00000e4e 	0xe4e
     e3c:	4e0f0001 	ldxc1	$f0,t7(s0)
     e40:	d900000e 	ldc2	$0,14(t0)
     e44:	23000000 	addi	zero,t8,0
     e48:	00000035 	0x35
     e4c:	3e0c0015 	0x3e0c0015
     e50:	2e00000e 	sltiu	zero,s0,14
     e54:	000008ff 	0x8ff
     e58:	0101d501 	0x101d501
     e5c:	07c72e01 	0x7c72e01
     e60:	83010000 	lb	at,0(t8)
     e64:	39010101 	xori	at,t0,0x101
     e68:	00000eb9 	0xeb9
     e6c:	000005d6 	0x5d6
     e70:	01038a01 	0x1038a01
     e74:	64663101 	0x64663101
     e78:	038b0100 	0x38b0100
     e7c:	00000063 	0x63
     e80:	000d651b 	0xd651b
     e84:	038c0100 	0x38c0100
     e88:	00000063 	0x63
     e8c:	74657231 	jalx	195c8c4 <_init-0x682a373c>
     e90:	038d0100 	0x38d0100
     e94:	00000063 	0x63
     e98:	01006e31 	tgeu	t0,zero,0x1b8
     e9c:	0063038e 	0x63038e
     ea0:	bb1b0000 	swr	k1,0(t8)
     ea4:	01000000 	0x1000000
     ea8:	003c0390 	0x3c0390
     eac:	f6320000 	sdc1	$f18,0(s1)
     eb0:	c9000008 	lwc2	$0,8(t0)
     eb4:	0100000e 	0x100000e
     eb8:	0ec90f00 	jal	b243c00 <_init-0x5e9bc400>
     ebc:	00d90000 	0xd90000
     ec0:	35230000 	ori	v1,t1,0x0
     ec4:	12000000 	beqz	s0,ec8 <_init-0x69bff138>
     ec8:	0eb90c00 	jal	ae43000 <_init-0x5edbd000>
     ecc:	0a2e0000 	j	8b80000 <_init-0x61080000>
     ed0:	01000004 	sllv	zero,zero,t0
     ed4:	0101015b 	0x101015b
     ed8:	00038838 	0x38838
     edc:	018b0100 	0x18b0100
     ee0:	10242e01 	beq	at,a0,c6e8 <_init-0x69bf3918>
     ee4:	ea010000 	swc2	$1,0(s0)
     ee8:	24010102 	li	at,258
     eec:	00000f0f 	0xf0f
     ef0:	00000c2e 	0xc2e
     ef4:	03012102 	0x3012102
     ef8:	6c61763a 	0x6c61763a
     efc:	3c200200 	0x3c200200
     f00:	3a000000 	xori	zero,s0,0x0
     f04:	00676572 	tlt	v1,a3,0x195
     f08:	003c2002 	ror	a0,gp,0x0
     f0c:	26000000 	addiu	zero,s0,0
     f10:	00000f2c 	0xf2c
     f14:	000008c1 	0x8c1
     f18:	3c013002 	lui	at,0x3002
     f1c:	03000000 	0x3000000
     f20:	0003ef3b 	0x3ef3b
     f24:	712f0200 	0x712f0200
     f28:	00000000 	nop
     f2c:	0005263c 	0x5263c
     f30:	ffa90800 	sdc3	$9,2048(sp)
     f34:	01000000 	0x1000000
     f38:	79140305 	0x79140305
     f3c:	3d3c69c0 	0x3d3c69c0
     f40:	08000006 	j	18 <_init-0x69bfffe8>
     f44:	000126b5 	0x126b5
     f48:	03050100 	0x3050100
     f4c:	69c07918 	0x69c07918
     f50:	000c4f3d 	0xc4f3d
     f54:	d85f0100 	ldc2	$31,256(v0)
     f58:	05000006 	bltz	t0,f74 <_init-0x69bff08c>
     f5c:	c0791003 	ll	t9,4099(v1)
     f60:	110e3d69 	beq	t0,t6,10508 <_init-0x69befaf8>
     f64:	61010000 	0x61010000
     f68:	00000063 	0x63
     f6c:	601c0305 	0x601c0305
     f70:	8f3d69c0 	lw	sp,27072(t9)
     f74:	01000001 	movf	zero,t0,$fcc0
     f78:	00006363 	0x6363
     f7c:	14030500 	bne	zero,v1,2380 <_init-0x69bfdc80>
     f80:	3d69c060 	0x3d69c060
     f84:	00001082 	srl	v0,zero,0x2
     f88:	0f946501 	jal	e519404 <_init-0x5b6e6bfc>
     f8c:	03050000 	0x3050000
     f90:	69c04760 	0x69c04760
     f94:	0000c70c 	syscall	0x31c
     f98:	0c573d00 	jal	15cf400 <_init-0x68630c00>
     f9c:	67010000 	0x67010000
     fa0:	00000f94 	0xf94
     fa4:	47580305 	c1	0x1580305
     fa8:	ef3d69c0 	swc3	$29,27072(t9)
     fac:	0100000a 	movz	zero,t0,zero
     fb0:	00072069 	0x72069
     fb4:	fc030500 	sdc3	$3,1280(zero)
     fb8:	3d69c078 	0x3d69c078
     fbc:	00000617 	0x617
     fc0:	00586b01 	0x586b01
     fc4:	03050000 	0x3050000
     fc8:	69c078f8 	0x69c078f8
     fcc:	0000c73d 	0xc73d
     fd0:	586d0100 	0x586d0100
     fd4:	05000000 	bltz	t0,fd8 <_init-0x69bff028>
     fd8:	c078f403 	ll	t8,-3069(v1)
     fdc:	0ee53d69 	jal	b94f5a4 <_init-0x5e2b0a5c>
     fe0:	6f010000 	0x6f010000
     fe4:	00000058 	0x58
     fe8:	79000305 	0x79000305
     fec:	623d69c0 	0x623d69c0
     ff0:	0100000f 	0x100000f
     ff4:	00005871 	tgeu	zero,zero,0x161
     ff8:	08030500 	j	c1400 <_init-0x69b3ec00>
     ffc:	3d69c079 	0x3d69c079
    1000:	000013dd 	0x13dd
    1004:	002c7401 	0x2c7401
    1008:	03050000 	0x3050000
    100c:	69c07904 	0x69c07904
    1010:	000e183d 	0xe183d
    1014:	63790100 	0x63790100
    1018:	05000000 	bltz	t0,101c <_init-0x69bfefe4>
    101c:	c0601803 	ll	zero,6147(v1)
    1020:	10713d69 	beq	v1,s1,105c8 <_init-0x69befa38>
    1024:	7c010000 	ext	at,zero,0x0,0x1
    1028:	00000063 	0x63
    102c:	60200305 	0x60200305
    1030:	fa0069c0 	sdc2	$0,27072(s0)
    1034:	02000000 	0x2000000
    1038:	00032c00 	sll	a1,v1,0x10
    103c:	1d010400 	0x1d010400
    1040:	48000005 	mfc2	zero,$0,5
    1044:	4069c03e 	0x4069c03e
    1048:	1969c03e 	0x1969c03e
    104c:	01000008 	jr	t0
    1050:	0000149e 	0x149e
    1054:	00001444 	0x1444
    1058:	00000002 	srl	zero,zero,0x0
    105c:	03080100 	0x3080100
    1060:	0a0f0204 	j	83c0810 <_init-0x6183f7f0>
    1064:	07020000 	bltzl	t8,1068 <_init-0x69bfef98>
    1068:	00113802 	srl	a3,s1,0x0
    106c:	02070400 	0x2070400
    1070:	0000113d 	0x113d
    1074:	69040704 	0x69040704
    1078:	0400746e 	bltz	zero,1e234 <_init-0x69be1dcc>
    107c:	134e0205 	beq	k0,t6,1894 <_init-0x69bfe76c>
    1080:	05080000 	tgei	t0,0
    1084:	00113802 	srl	a3,s1,0x0
    1088:	02070400 	0x2070400
    108c:	00001353 	0x1353
    1090:	09020504 	j	4081410 <_init-0x65b7ebf0>
    1094:	01000000 	0x1000000
    1098:	0e450206 	jal	9140818 <_init-0x60abf7e8>
    109c:	05020000 	bltzl	t0,10a0 <_init-0x69bfef60>
    10a0:	00113302 	srl	a2,s1,0xc
    10a4:	05070800 	0x5070800
    10a8:	0000009b 	0x9b
    10ac:	06a30204 	bgezl	s5,18c0 <_init-0x69bfe740>
    10b0:	00000ef4 	teq	zero,zero,0x3b
    10b4:	0df90600 	jal	7e41800 <_init-0x61dbe800>
    10b8:	06010000 	bgez	s0,10bc <_init-0x69bfef44>
    10bc:	00000624 	0x624
    10c0:	02b00602 	0x2b00602
    10c4:	06030000 	bgezl	s0,10c8 <_init-0x69bfef38>
    10c8:	000005fc 	0x5fc
    10cc:	b0050000 	0xb0050000
    10d0:	04000000 	bltz	zero,10d4 <_init-0x69bfef2c>
    10d4:	9c06b002 	0x9c06b002
    10d8:	00000013 	mtlo	zero
    10dc:	0011fa06 	0x11fa06
    10e0:	07000100 	bltz	t8,14e4 <_init-0x69bfeb1c>
    10e4:	000000d9 	0xd9
    10e8:	00149101 	0x149101
    10ec:	011c0100 	0x11c0100
    10f0:	00000043 	sra	zero,zero,0x1
    10f4:	69c03e40 	0x69c03e40
    10f8:	69c03e48 	0x69c03e48
    10fc:	aa086d01 	swl	t0,27905(s0)
    1100:	01000014 	0x1000014
    1104:	00002c1b 	0x2c1b
    1108:	00540100 	0x540100
    110c:	00052609 	0x52609
    1110:	74a90200 	jalx	2a40800 <_init-0x671bf800>
    1114:	01000000 	0x1000000
    1118:	79140305 	0x79140305
    111c:	3d0969c0 	0x3d0969c0
    1120:	02000006 	srlv	zero,zero,s0
    1124:	00009bb5 	0x9bb5
    1128:	03050100 	0x3050100
    112c:	69c07918 	0x69c07918
    1130:	0007ce00 	sll	t9,a3,0x18
    1134:	ac000200 	sw	zero,512(zero)
    1138:	04000003 	bltz	zero,1148 <_init-0x69bfeeb8>
    113c:	00057f01 	0x57f01
    1140:	c041cc00 	ll	at,-13312(v0)
    1144:	c03e4869 	ll	s8,18537(at)
    1148:	00081969 	0x81969
    114c:	178b0100 	bne	gp,t3,1550 <_init-0x69bfeab0>
    1150:	14440000 	bne	v0,a0,1154 <_init-0x69bfeeac>
    1154:	00020000 	sll	zero,v0,0x0
    1158:	01000000 	0x1000000
    115c:	02040308 	0x2040308
    1160:	00000a0f 	0xa0f
    1164:	38020702 	xori	v0,zero,0x702
    1168:	04000011 	bltz	zero,11b0 <_init-0x69bfee50>
    116c:	113d0207 	beq	t1,sp,198c <_init-0x69bfe674>
    1170:	07040000 	0x7040000
    1174:	746e6904 	jalx	1b9a410 <_init-0x68065bf0>
    1178:	02050400 	0x2050400
    117c:	0000134e 	0x134e
    1180:	38020508 	xori	v0,zero,0x508
    1184:	04000011 	bltz	zero,11cc <_init-0x69bfee34>
    1188:	112d0507 	beq	t1,t5,25a8 <_init-0x69bfda58>
    118c:	3b070000 	xori	a3,t8,0x0
    1190:	00000043 	sra	zero,zero,0x1
    1194:	00135302 	srl	t2,s3,0xc
    1198:	02050400 	0x2050400
    119c:	00000009 	jalr	zero,zero
    11a0:	45020601 	bc1fl	29a8 <_init-0x69bfd658>
    11a4:	0200000e 	0x200000e
    11a8:	11330205 	beq	t1,s3,19c0 <_init-0x69bfe640>
    11ac:	07080000 	tgei	t8,0
    11b0:	00850406 	0x850406
    11b4:	01070000 	0x1070000
    11b8:	00006a08 	0x6a08
    11bc:	6a040600 	0x6a040600
    11c0:	09000000 	j	4000000 <_init-0x65c00000>
    11c4:	000000a2 	0xa2
    11c8:	0000006a 	0x6a
    11cc:	0000350a 	0x350a
    11d0:	0b000300 	j	c000c00 <_init-0x5dbff400>
    11d4:	000000bd 	0xbd
    11d8:	000004d0 	0x4d0
    11dc:	0c2b0604 	jal	ac1810 <_init-0x6913e7f0>
    11e0:	000004c1 	0x4c1
    11e4:	00432d06 	0x432d06
    11e8:	23020000 	addi	v0,t8,0
    11ec:	d80b0000 	ldc2	$11,0(zero)
    11f0:	2e000000 	sltiu	zero,s0,0
    11f4:	04000015 	bltz	zero,124c <_init-0x69bfedb4>
    11f8:	fc0c1e05 	sdc3	$12,7685(zero)
    11fc:	05000015 	bltz	t0,1254 <_init-0x69bfedac>
    1200:	00004320 	0x4320
    1204:	00230200 	0x230200
    1208:	00ed0d00 	0xed0d00
    120c:	03040000 	0x3040000
    1210:	162e0e7e 	bne	s1,t6,4c0c <_init-0x69bfb3f4>
    1214:	0e000000 	jal	8000000 <_init-0x61c00000>
    1218:	000015a8 	0x15a8
    121c:	41050001 	mftc0	zero,c0_pagegrain
    1220:	03000017 	0x3000017
    1224:	0000d883 	sra	k1,zero,0x2
    1228:	011f0d00 	0x11f0d00
    122c:	03040000 	0x3040000
    1230:	0ef40ea3 	jal	bd03a8c <_init-0x5defc574>
    1234:	0e000000 	jal	8000000 <_init-0x61c00000>
    1238:	00000df9 	0xdf9
    123c:	06240e01 	0x6240e01
    1240:	0e020000 	jal	8080000 <_init-0x61b80000>
    1244:	000002b0 	tge	zero,zero,0xa
    1248:	05fc0e03 	0x5fc0e03
    124c:	00000000 	nop
    1250:	0001340d 	break	0x1,0xd0
    1254:	b0030400 	0xb0030400
    1258:	00139c0e 	0x139c0e
    125c:	fa0e0000 	sdc2	$14,0(s0)
    1260:	01000011 	mthi	t0
    1264:	16520500 	bne	s2,s2,2668 <_init-0x69bfd998>
    1268:	bb030000 	swr	v1,0(t8)
    126c:	00000043 	sra	zero,zero,0x1
    1270:	0001c60f 	0x1c60f
    1274:	d5032400 	ldc1	$f3,9216(t0)
    1278:	0017d90c 	syscall	0x5f64
    127c:	92c40300 	lbu	a0,768(s6)
    1280:	02000000 	0x2000000
    1284:	810c0023 	lb	t4,35(t0)
    1288:	03000017 	0x3000017
    128c:	00002cc6 	0x2cc6
    1290:	04230200 	bgezl	at,1a94 <_init-0x69bfe56c>
    1294:	0016b10c 	syscall	0x5ac4
    1298:	43c80300 	c0	0x1c80300
    129c:	02000000 	0x2000000
    12a0:	720c0823 	0x720c0823
    12a4:	03000016 	0x3000016
    12a8:	00003cca 	0x3cca
    12ac:	0c230200 	jal	8c0800 <_init-0x6933f800>
    12b0:	0015670c 	syscall	0x559c
    12b4:	43cc0300 	c0	0x1cc0300
    12b8:	02000000 	0x2000000
    12bc:	350c1023 	ori	t4,t0,0x1023
    12c0:	03000015 	0x3000015
    12c4:	000043ce 	0x43ce
    12c8:	14230200 	bne	at,v1,1acc <_init-0x69bfe534>
    12cc:	00154f0c 	syscall	0x553c
    12d0:	a2d00300 	sb	s0,768(s6)
    12d4:	02000000 	0x2000000
    12d8:	ee0c1823 	swc3	$12,6179(s0)
    12dc:	03000017 	0x3000017
    12e0:	000043d2 	0x43d2
    12e4:	1c230200 	0x1c230200
    12e8:	0016220c 	syscall	0x5888
    12ec:	edd40300 	swc3	$20,768(t6)
    12f0:	02000000 	0x2000000
    12f4:	05002023 	bltz	t0,9384 <_init-0x69bf6c7c>
    12f8:	00001698 	0x1698
    12fc:	013fd503 	0x13fd503
    1300:	f9100000 	sdc2	$16,0(t0)
    1304:	04000001 	bltz	zero,130c <_init-0x69bfecf4>
    1308:	11013903 	beq	t0,at,f718 <_init-0x69bf08e8>
    130c:	00646970 	tge	v1,a0,0x1a5
    1310:	2e013703 	sltiu	at,s0,14083
    1314:	02000000 	0x2000000
    1318:	74110023 	jalx	44008c <_init-0x697bff74>
    131c:	03006469 	0x3006469
    1320:	002e0138 	0x2e0138
    1324:	23020000 	addi	v0,t8,0
    1328:	1b120002 	0x1b120002
    132c:	04000002 	bltz	zero,1338 <_init-0x69bfecc8>
    1330:	13013b03 	beq	t8,at,ff40 <_init-0x69bf00c0>
    1334:	000017e4 	0x17e4
    1338:	d1013903 	0xd1013903
    133c:	13000001 	beqz	t8,1344 <_init-0x69bfecbc>
    1340:	00001526 	0x1526
    1344:	3c013a03 	lui	at,0x3a03
    1348:	00000000 	nop
    134c:	00160b14 	0x160b14
    1350:	013b0300 	0x13b0300
    1354:	000001f9 	0x1f9
    1358:	0014e514 	0x14e514
    135c:	01410300 	0x1410300
    1360:	0000021b 	0x21b
    1364:	0014b014 	0x14b014
    1368:	01470300 	0x1470300
    136c:	0000023f 	0x23f
    1370:	02450406 	0x2450406
    1374:	17150000 	bne	t8,s5,1378 <_init-0x69bfec88>
    1378:	db000003 	ldc2	$0,3(t8)
    137c:	80000016 	lb	zero,22(zero)
    1380:	0c014703 	jal	51c0c <_init-0x69bae3f4>
    1384:	000017df 	0x17df
    1388:	023f5c04 	0x23f5c04
    138c:	23020000 	addi	v0,t8,0
    1390:	15e20c00 	bne	t7,v0,4394 <_init-0x69bfbc6c>
    1394:	5e040000 	0x5e040000
    1398:	00000233 	tltu	zero,zero,0x8
    139c:	0c042302 	jal	108c08 <_init-0x69af73f8>
    13a0:	000014cc 	syscall	0x53
    13a4:	02276004 	sllv	t4,a3,s1
    13a8:	23020000 	addi	v0,t8,0
    13ac:	17cc0c08 	bne	s8,t4,43d0 <_init-0x69bfbc30>
    13b0:	62040000 	0x62040000
    13b4:	0000006a 	0x6a
    13b8:	0c0c2302 	jal	308c08 <_init-0x698f73f8>
    13bc:	0000168f 	0x168f
    13c0:	006a6404 	0x6a6404
    13c4:	23020000 	addi	v0,t8,0
    13c8:	16bb0c0d 	bne	s5,k1,4400 <_init-0x69bfbc00>
    13cc:	66040000 	0x66040000
    13d0:	000003a5 	0x3a5
    13d4:	0c102302 	jal	408c08 <_init-0x697f73f8>
    13d8:	00001618 	0x1618
    13dc:	02336804 	sllv	t5,s3,s1
    13e0:	23020000 	addi	v0,t8,0
    13e4:	15450c14 	bne	t2,a1,4438 <_init-0x69bfbbc8>
    13e8:	6a040000 	0x6a040000
    13ec:	0000034e 	0x34e
    13f0:	0c182302 	jal	608c08 <_init-0x695f73f8>
    13f4:	000016fa 	0x16fa
    13f8:	03ab6c04 	0x3ab6c04
    13fc:	23020000 	addi	v0,t8,0
    1400:	152d0c1c 	bne	t1,t5,4474 <_init-0x69bfbb8c>
    1404:	6e040000 	0x6e040000
    1408:	000000bd 	0xbd
    140c:	0c442302 	jal	1108c08 <_init-0x68af73f8>
    1410:	00001734 	teq	zero,zero,0x5c
    1414:	01c67004 	sllv	t6,a2,t6
    1418:	23020000 	addi	v0,t8,0
    141c:	17950c48 	bne	gp,s5,4540 <_init-0x69bfbac0>
    1420:	72040000 	madd	s0,a0
    1424:	00000366 	0x366
    1428:	0c6c2302 	jal	1b08c08 <_init-0x680f73f8>
    142c:	00001661 	0x1661
    1430:	00437404 	0x437404
    1434:	23020000 	addi	v0,t8,0
    1438:	16030c74 	bne	s0,v1,460c <_init-0x69bfb9f4>
    143c:	76040000 	jalx	8100000 <_init-0x61b00000>
    1440:	0000002c 	0x2c
    1444:	00782302 	0x782302
    1448:	00034e0b 	0x34e0b
    144c:	00171c00 	sll	v1,s7,0x10
    1450:	41040c00 	0x41040c00
    1454:	0017df0c 	syscall	0x5f7c
    1458:	4e430400 	lwxc1	$f16,v1(s2)
    145c:	02000003 	0x2000003
    1460:	a70c0023 	sh	t4,35(t8)
    1464:	04000016 	bltz	zero,14c0 <_init-0x69bfeb40>
    1468:	00036045 	0x36045
    146c:	04230200 	bgezl	at,1c70 <_init-0x69bfe390>
    1470:	0015200c 	syscall	0x5480
    1474:	2c470400 	sltiu	a3,v0,1024
    1478:	02000000 	0x2000000
    147c:	06000823 	bltz	s0,350c <_init-0x69bfcaf4>
    1480:	00031704 	0x31704
    1484:	03601600 	0x3601600
    1488:	17010000 	bne	t8,at,148c <_init-0x69bfeb74>
    148c:	0000002c 	0x2c
    1490:	54040600 	bnel	zero,a0,2c94 <_init-0x69bfd36c>
    1494:	0b000003 	j	c00000c <_init-0x5dbffff4>
    1498:	0000038f 	0x38f
    149c:	0000167c 	0x167c
    14a0:	0c4f0408 	jal	13c1020 <_init-0x6883efe0>
    14a4:	000017be 	0x17be
    14a8:	039f5104 	0x39f5104
    14ac:	23020000 	addi	v0,t8,0
    14b0:	72611800 	madd	$ac3,s3,at
    14b4:	53040067 	beql	t8,a0,1654 <_init-0x69bfe9ac>
    14b8:	0000002c 	0x2c
    14bc:	00042302 	srl	a0,a0,0xc
    14c0:	00039f19 	0x39f19
    14c4:	002c0100 	0x2c0100
    14c8:	2c170000 	sltiu	s7,zero,0
    14cc:	00000000 	nop
    14d0:	038f0406 	0x38f0406
    14d4:	04060000 	0x4060000
    14d8:	0000002c 	0x2c
    14dc:	0003bb09 	0x3bb09
    14e0:	00002c00 	sll	a1,zero,0x10
    14e4:	00350a00 	0x350a00
    14e8:	00090000 	sll	zero,t1,0x0
    14ec:	0003e00f 	0x3e00f
    14f0:	33020800 	andi	v0,t8,0x800
    14f4:	64697418 	0x64697418
    14f8:	27310200 	addiu	s1,t9,512
    14fc:	02000002 	0x2000002
    1500:	810c0023 	lb	t4,35(t0)
    1504:	02000017 	0x2000017
    1508:	00002c32 	tlt	zero,zero,0xb0
    150c:	04230200 	bgezl	at,1d10 <_init-0x69bfe2f0>
    1510:	15cb0500 	bne	t6,t3,2914 <_init-0x69bfd6ec>
    1514:	33020000 	andi	v0,t8,0x0
    1518:	000003bb 	0x3bb
    151c:	0004100f 	0x4100f
    1520:	3a020800 	xori	v0,s0,0x800
    1524:	0016c40c 	syscall	0x5b10
    1528:	43380200 	c0	0x1380200
    152c:	02000000 	0x2000000
    1530:	b30c0023 	0xb30c0023
    1534:	02000017 	0x2000017
    1538:	00036039 	0x36039
    153c:	04230200 	bgezl	at,1d40 <_init-0x69bfe2c0>
    1540:	14ef0500 	bne	a3,t7,2944 <_init-0x69bfd6bc>
    1544:	3a020000 	xori	v0,s0,0x0
    1548:	000003eb 	0x3eb
    154c:	0004520b 	0x4520b
    1550:	00176100 	sll	t4,s7,0x4
    1554:	40020c00 	0x40020c00
    1558:	0017df0c 	syscall	0x5f7c
    155c:	52420200 	beql	s2,v0,1d60 <_init-0x69bfe2a0>
    1560:	02000004 	sllv	zero,zero,s0
    1564:	a70c0023 	sh	t4,35(t8)
    1568:	02000016 	0x2000016
    156c:	00046844 	0x46844
    1570:	04230200 	bgezl	at,1d74 <_init-0x69bfe28c>
    1574:	0015200c 	syscall	0x5480
    1578:	2c460200 	sltiu	a2,v0,512
    157c:	02000000 	0x2000000
    1580:	06000823 	bltz	s0,3610 <_init-0x69bfc9f0>
    1584:	00041b04 	0x41b04
    1588:	04681900 	tgei	v1,6400
    158c:	43010000 	c0	0x1010000
    1590:	17000000 	bnez	t8,1594 <_init-0x69bfea6c>
    1594:	0000002c 	0x2c
    1598:	58040600 	0x58040600
    159c:	0f000004 	jal	c000010 <_init-0x5dbffff0>
    15a0:	0000055a 	0x55a
    15a4:	0c5c02ec 	jal	1700bb0 <_init-0x684ff450>
    15a8:	00001502 	srl	v0,zero,0x14
    15ac:	02334c02 	0x2334c02
    15b0:	23020000 	addi	v0,t8,0
    15b4:	15740c00 	bne	t3,s4,45b8 <_init-0x69bfba48>
    15b8:	4d020000 	lwxc1	$f0,v0(t0)
    15bc:	00000134 	teq	zero,zero,0x4
    15c0:	0c042302 	jal	108c08 <_init-0x69af73f8>
    15c4:	00001491 	0x1491
    15c8:	04684e02 	tgei	v1,19970
    15cc:	23020000 	addi	v0,t8,0
    15d0:	174f0c08 	bne	k0,t7,45f4 <_init-0x69bfba0c>
    15d4:	4f020000 	lwxc1	$f0,v0(t8)
    15d8:	0000055a 	0x55a
    15dc:	0c0c2302 	jal	308c08 <_init-0x698f73f8>
    15e0:	000015e7 	0x15e7
    15e4:	00435002 	0x435002
    15e8:	23020000 	addi	v0,t8,0
    15ec:	14d20c10 	bne	a2,s2,4630 <_init-0x69bfb9d0>
    15f0:	51020000 	beql	t0,v0,15f4 <_init-0x69bfea0c>
    15f4:	00000043 	sra	zero,zero,0x1
    15f8:	0c142302 	jal	508c08 <_init-0x696f73f8>
    15fc:	00001512 	0x1512
    1600:	05605202 	bltz	t3,15e0c <_init-0x69bea1f4>
    1604:	23020000 	addi	v0,t8,0
    1608:	16460c18 	bne	s2,a2,466c <_init-0x69bfb994>
    160c:	53020000 	beql	t8,v0,1610 <_init-0x69bfe9f0>
    1610:	00000043 	sra	zero,zero,0x1
    1614:	0c582302 	jal	1608c08 <_init-0x685f73f8>
    1618:	0000150d 	break	0x0,0x54
    161c:	05705402 	bltzal	t3,16628 <_init-0x69be99d8>
    1620:	23020000 	addi	v0,t8,0
    1624:	16f50c5c 	bne	s7,s5,4798 <_init-0x69bfb868>
    1628:	55020000 	bnel	t0,v0,162c <_init-0x69bfe9d4>
    162c:	00000570 	tge	zero,zero,0x15
    1630:	0c602302 	jal	1808c08 <_init-0x683f73f8>
    1634:	00001597 	0x1597
    1638:	008c5602 	0x8c5602
    163c:	23020000 	addi	v0,t8,0
    1640:	15d90c64 	bne	t6,t9,47d4 <_init-0x69bfb82c>
    1644:	57020000 	bnel	t8,v0,1648 <_init-0x69bfe9b8>
    1648:	00000043 	sra	zero,zero,0x1
    164c:	0c682302 	jal	1a08c08 <_init-0x681f73f8>
    1650:	0000158c 	syscall	0x56
    1654:	05765802 	0x5765802
    1658:	23020000 	addi	v0,t8,0
    165c:	15450c6c 	bne	t2,a1,4810 <_init-0x69bfb7f0>
    1660:	59020000 	0x59020000
    1664:	00000452 	0x452
    1668:	01bc2303 	0x1bc2303
    166c:	00159c0c 	syscall	0x5670
    1670:	865a0200 	lh	k0,512(s2)
    1674:	03000005 	0x3000005
    1678:	0c01c023 	jal	7008c <_init-0x69b8ff74>
    167c:	000016cc 	syscall	0x5b
    1680:	00435b02 	0x435b02
    1684:	23030000 	addi	v1,t8,0
    1688:	060001e8 	bltz	s0,1e2c <_init-0x69bfe1d4>
    168c:	0003e004 	sllv	gp,v1,zero
    1690:	05700900 	bltzal	t3,3a94 <_init-0x69bfc56c>
    1694:	00580000 	0x580000
    1698:	350a0000 	ori	t2,t0,0x0
    169c:	0f000000 	jal	c000000 <_init-0x5dc00000>
    16a0:	8c040600 	lw	a0,1536(zero)
    16a4:	09000000 	j	4000000 <_init-0x65c00000>
    16a8:	00000586 	0x586
    16ac:	00000410 	0x410
    16b0:	0000350a 	0x350a
    16b4:	09000900 	j	4002400 <_init-0x65bfdc00>
    16b8:	00000596 	0x596
    16bc:	0000007f 	0x7f
    16c0:	0000350a 	0x350a
    16c4:	05000900 	bltz	t0,3ac8 <_init-0x69bfc538>
    16c8:	000017a2 	0x17a2
    16cc:	046e5c02 	tnei	v1,23554
    16d0:	eb1a0000 	swc2	$26,0(t8)
    16d4:	01000005 	0x1000005
    16d8:	000016f1 	tgeu	zero,zero,0x5b
    16dc:	48012701 	0x48012701
    16e0:	a469c03e 	sh	t1,-16322(v1)
    16e4:	0169c03e 	0x169c03e
    16e8:	16f51b6d 	bne	s7,s5,84a0 <_init-0x69bf7b60>
    16ec:	26010000 	addiu	at,s0,0
    16f0:	00000570 	tge	zero,zero,0x15
    16f4:	f71b5401 	sdc1	$f27,21505(t8)
    16f8:	01000015 	0x1000015
    16fc:	00004326 	0x4326
    1700:	1c550100 	0x1c550100
    1704:	00000f97 	0xf97
    1708:	00432801 	0x432801
    170c:	53010000 	beql	t8,at,1710 <_init-0x69bfe8f0>
    1710:	0100691d 	0x100691d
    1714:	00004329 	0x4329
    1718:	00520100 	0x520100
    171c:	0006881e 	0x6881e
    1720:	157e0100 	bne	t3,s8,1b24 <_init-0x69bfe4dc>
    1724:	3f010000 	0x3f010000
    1728:	00002c01 	0x2c01
    172c:	c03ea400 	ll	s8,-23552(at)
    1730:	c03fbc69 	ll	ra,-17303(at)
    1734:	1b6d0169 	0x1b6d0169
    1738:	000014ab 	0x14ab
    173c:	002c3e01 	0x2c3e01
    1740:	54010000 	bnel	zero,at,1744 <_init-0x69bfe8bc>
    1744:	7465721f 	jalx	195c87c <_init-0x682a3784>
    1748:	43400100 	c0	0x1400100
    174c:	1c000000 	bgtz	zero,1750 <_init-0x69bfe8b0>
    1750:	00000f97 	0xf97
    1754:	00434101 	0x434101
    1758:	61010000 	0x61010000
    175c:	00170d1c 	0x170d1c
    1760:	88420100 	lwl	v0,256(v0)
    1764:	01000006 	srlv	zero,zero,t0
    1768:	16f51c52 	bne	s7,s5,88b4 <_init-0x69bf774c>
    176c:	43010000 	c0	0x1010000
    1770:	00000570 	tge	zero,zero,0x15
    1774:	5a206201 	blezl	s1,19f7c <_init-0x69be6084>
    1778:	9e000015 	0x9e000015
    177c:	01000006 	srlv	zero,zero,t0
    1780:	48cc0305 	0x48cc0305
    1784:	702169c0 	0x702169c0
    1788:	58000006 	blezl	zero,17a4 <_init-0x69bfe85c>
    178c:	8069c03f 	lb	t1,-16321(v1)
    1790:	1c69c03f 	0x1c69c03f
    1794:	00000b45 	0xb45
    1798:	003c5a01 	0x3c5a01
    179c:	60010000 	0x60010000
    17a0:	3f802200 	0x3f802200
    17a4:	3fbc69c0 	0x3fbc69c0
    17a8:	451c69c0 	bc1f	$fcc7,1beac <_init-0x69be4154>
    17ac:	0100000b 	movn	zero,t0,zero
    17b0:	00003c48 	0x3c48
    17b4:	00600100 	0x600100
    17b8:	96040600 	lhu	a0,1536(s0)
    17bc:	09000005 	j	4000014 <_init-0x65bfffec>
    17c0:	0000069e 	0x69e
    17c4:	00000087 	0x87
    17c8:	0000350a 	0x350a
    17cc:	08000d00 	j	3400 <_init-0x69bfcc00>
    17d0:	0000068e 	0x68e
    17d4:	0007981e 	0x7981e
    17d8:	17790100 	bne	k1,t9,1bdc <_init-0x69bfe424>
    17dc:	66010000 	0x66010000
    17e0:	00004301 	0x4301
    17e4:	c03fbc00 	ll	ra,-17408(at)
    17e8:	c041cc69 	ll	at,-13207(v0)
    17ec:	1b6d0169 	0x1b6d0169
    17f0:	000014be 	0x14be
    17f4:	008c6501 	0x8c6501
    17f8:	61010000 	0x61010000
    17fc:	0016f51b 	0x16f51b
    1800:	70650100 	0x70650100
    1804:	01000005 	0x1000005
    1808:	150d1b62 	bne	t0,t5,8594 <_init-0x69bf7a6c>
    180c:	65010000 	0x65010000
    1810:	00000570 	tge	zero,zero,0x15
    1814:	341c6001 	li	gp,0x6001
    1818:	01000017 	0x1000017
    181c:	0001c667 	0x1c667
    1820:	10910200 	beq	a0,s1,2024 <_init-0x69bfdfdc>
    1824:	6469741d 	0x6469741d
    1828:	27680100 	addiu	t0,k1,256
    182c:	02000002 	0x2000002
    1830:	c31c3c91 	ll	gp,15505(t8)
    1834:	01000014 	0x1000014
    1838:	00004369 	0x4369
    183c:	23600100 	addi	zero,k1,256
    1840:	000000e1 	0xe1
    1844:	00436a01 	0x436a01
    1848:	c01c0000 	ll	gp,0(zero)
    184c:	01000015 	0x1000015
    1850:	0000436b 	0x436b
    1854:	38910200 	xori	s1,a0,0x200
    1858:	00155a20 	0x155a20
    185c:	0007a800 	sll	s5,a3,0x0
    1860:	03050100 	0x3050100
    1864:	69c048dc 	0x69c048dc
    1868:	00074e24 	0x74e24
    186c:	00009800 	sll	s3,zero,0x0
    1870:	170d1c00 	bne	t8,t5,8874 <_init-0x69bf778c>
    1874:	88010000 	lwl	at,0(zero)
    1878:	00000688 	0x688
    187c:	24005301 	li	zero,21249
    1880:	00000765 	0x765
    1884:	000000b0 	tge	zero,zero,0x2
    1888:	000b451c 	0xb451c
    188c:	3cad0100 	0x3cad0100
    1890:	01000000 	0x1000000
    1894:	80210060 	lb	at,96(at)
    1898:	58000007 	blezl	zero,18b8 <_init-0x69bfe748>
    189c:	7c69c041 	0x7c69c041
    18a0:	1c69c041 	0x1c69c041
    18a4:	00000b45 	0xb45
    18a8:	003c7401 	0x3c7401
    18ac:	60010000 	0x60010000
    18b0:	41942200 	0x41942200
    18b4:	41cc69c0 	0x41cc69c0
    18b8:	451c69c0 	bc1f	$fcc7,1bfbc <_init-0x69be4044>
    18bc:	0100000b 	movn	zero,t0,zero
    18c0:	00003c8d 	break	0x0,0xf2
    18c4:	00600100 	0x600100
    18c8:	07a80900 	tgei	sp,2304
    18cc:	00870000 	0x870000
    18d0:	350a0000 	ori	t2,t0,0x0
    18d4:	07000000 	bltz	t8,18d8 <_init-0x69bfe728>
    18d8:	07980800 	0x7980800
    18dc:	26250000 	addiu	a1,s1,0
    18e0:	03000005 	0x3000005
    18e4:	0000f8a9 	0xf8a9
    18e8:	03050100 	0x3050100
    18ec:	69c07914 	0x69c07914
    18f0:	00063d25 	0x63d25
    18f4:	1fb50300 	0x1fb50300
    18f8:	01000001 	movf	zero,t0,$fcc0
    18fc:	79180305 	0x79180305
    1900:	Address 0x1900 is out of bounds.

Disassembly of section .debug_line:

00000000 <.debug_line>:
   0:	00000519 	0x519
   4:	01760002 	0x1760002
   8:	01010000 	0x1010000
   c:	000a0efb 	0xa0efb
  10:	01010101 	0x1010101
  14:	01000000 	0x1000000
  18:	2e2e2f2e 	sltiu	t6,s1,12078
  1c:	2f2e2e2f 	sltiu	t6,t9,11823
  20:	702f2e2e 	0x702f2e2e
  24:	725f7073 	0x725f7073
  28:	692f6c65 	0x692f6c65
  2c:	756c636e 	jalx	5b18db8 <_init-0x640e7248>
  30:	612f6564 	0x612f6564
  34:	6d2d6d73 	0x6d2d6d73
  38:	2f737069 	sltiu	s3,k1,28777
  3c:	6863616d 	0x6863616d
  40:	6a74612d 	0x6a74612d
  44:	78333132 	0x78333132
  48:	2e2f2e00 	sltiu	t7,s1,11776
  4c:	2e2e2f2e 	sltiu	t6,s1,12078
  50:	2f2e2e2f 	sltiu	t6,t9,11823
  54:	5f707370 	0x5f707370
  58:	2f6c6572 	sltiu	t4,k1,25970
  5c:	6c636e69 	0x6c636e69
  60:	2f656475 	sltiu	a1,k1,25717
  64:	736f6375 	0x736f6375
  68:	2f2e2e2f 	sltiu	t6,t9,11823
  6c:	6362696c 	0x6362696c
  70:	2e2f2e00 	sltiu	t7,s1,11776
  74:	2e2e2f2e 	sltiu	t6,s1,12078
  78:	2f2e2e2f 	sltiu	t6,t9,11823
  7c:	65736163 	0x65736163
  80:	636e692f 	0x636e692f
  84:	6564756c 	0x6564756c
  88:	2e2f2e00 	sltiu	t7,s1,11776
  8c:	2e2e2f2e 	sltiu	t6,s1,12078
  90:	2f2e2e2f 	sltiu	t6,t9,11823
  94:	65736163 	0x65736163
  98:	636e692f 	0x636e692f
  9c:	6564756c 	0x6564756c
  a0:	7070612f 	0x7070612f
  a4:	0062696c 	0x62696c
  a8:	2e2e2f2e 	sltiu	t6,s1,12078
  ac:	2f2e2e2f 	sltiu	t6,t9,11823
  b0:	702f2e2e 	0x702f2e2e
  b4:	725f7073 	0x725f7073
  b8:	692f6c65 	0x692f6c65
  bc:	756c636e 	jalx	5b18db8 <_init-0x640e7248>
  c0:	6c2f6564 	0x6c2f6564
  c4:	2f636269 	sltiu	v1,k1,25193
  c8:	00737973 	tltu	v1,s3,0x1e5
  cc:	2e2e2f2e 	sltiu	t6,s1,12078
  d0:	2f2e2e2f 	sltiu	t6,t9,11823
  d4:	702f2e2e 	0x702f2e2e
  d8:	725f7073 	0x725f7073
  dc:	692f6c65 	0x692f6c65
  e0:	756c636e 	jalx	5b18db8 <_init-0x640e7248>
  e4:	2e2f6564 	sltiu	t7,s1,25956
  e8:	6273752f 	0x6273752f
  ec:	2e2f2e00 	sltiu	t7,s1,11776
  f0:	2e2e2f2e 	sltiu	t6,s1,12078
  f4:	2f2e2e2f 	sltiu	t6,t9,11823
  f8:	5f707370 	0x5f707370
  fc:	2f6c6572 	sltiu	t4,k1,25970
 100:	6c636e69 	0x6c636e69
 104:	00656475 	0x656475
 108:	6e6f6300 	0x6e6f6300
 10c:	5f676966 	0x5f676966
 110:	6e69616d 	0x6e69616d
 114:	0000632e 	0x632e
 118:	74610000 	jalx	1840000 <_init-0x683c0000>
 11c:	3331326a 	andi	s1,t9,0x326a
 120:	00682e78 	0x682e78
 124:	74000001 	jalx	4 <_init-0x69bffffc>
 128:	73657079 	0x73657079
 12c:	0200682e 	0x200682e
 130:	70610000 	madd	v1,at
 134:	736d5f70 	0x736d5f70
 138:	00682e67 	0x682e67
 13c:	73000003 	0x73000003
 140:	695f7379 	0x695f7379
 144:	2e6f666e 	sltiu	t7,s3,26222
 148:	00040068 	0x40068
 14c:	68637300 	0x68637300
 150:	682e6465 	0x682e6465
 154:	00000500 	sll	zero,zero,0x14
 158:	6d627375 	0x6d627375
 15c:	74696e6f 	jalx	1a5b9bc <_init-0x681a4644>
 160:	645f726f 	0x645f726f
 164:	682e7672 	0x682e7672
 168:	00000600 	sll	zero,zero,0x18
 16c:	65707974 	0x65707974
 170:	00682e73 	tltu	v1,t0,0xb9
 174:	70000005 	msubu	zero,zero
 178:	00682e6d 	0x682e6d
 17c:	00000007 	srav	zero,zero,zero
 180:	20020500 	addi	v0,zero,1280
 184:	0369c000 	0x369c000
 188:	030106f8 	0x30106f8
 18c:	037f7cb3 	tltu	k1,ra,0x1f2
 190:	027f00c5 	0x27f00c5
 194:	3c02172c 	lui	v0,0x172c
 198:	03487e10 	0x3487e10
 19c:	280201ed 	slti	v0,zero,493
 1a0:	7e930301 	0x7e930301
 1a4:	08013402 	j	4d008 <_init-0x69bb2ff8>
 1a8:	01c00339 	0x1c00339
 1ac:	4a857f7f 	c2	0x857f7f
 1b0:	03b72403 	0x3b72403
 1b4:	34027e93 	li	v0,0x7e93
 1b8:	7f0b0301 	0x7f0b0301
 1bc:	01be03b7 	0x1be03b7
 1c0:	03012402 	0x3012402
 1c4:	c2034779 	ll	v1,18297(s0)
 1c8:	03487f7e 	0x3487f7e
 1cc:	034701c4 	0x34701c4
 1d0:	61037f24 	0x61037f24
 1d4:	8280807f 	lb	zero,-32641(s4)
 1d8:	807f48b6 	lb	ra,18614(v1)
 1dc:	037fe208 	0x37fe208
 1e0:	7f7f7c8e 	0x7f7f7c8e
 1e4:	4781ef81 	c1	0x181ef81
 1e8:	034b8185 	0x34b8185
 1ec:	19037f67 	0x19037f67
 1f0:	47670347 	c1	0x1670347
 1f4:	048403b7 	0x48403b7
 1f8:	7f487e7f 	0x7f487e7f
 1fc:	033a0880 	0x33a0880
 200:	1603ef77 	bne	s0,v1,ffffbfe0 <pthread_share_type_t+0x963f46c8>
 204:	03013402 	0x3013402
 208:	f17f7fb6 	0xf17f7fb6
 20c:	4846f145 	0x4846f145
 210:	c0034846 	ll	v1,18502(zero)
 214:	03874700 	0x3874700
 218:	027f7fa2 	0x27f7fa2
 21c:	b7f01024 	0xb7f01024
 220:	807f0a03 	lb	ra,2563(v1)
 224:	08b76803 	j	2dda00c <_init-0x66e25ff4>
 228:	488045ab 	0x488045ab
 22c:	3a0880b7 	xori	t0,s0,0x80b7
 230:	470e03f0 	c1	0x10e03f0
 234:	087f5303 	j	1fd4c0c <_init-0x67c2b3f4>
 238:	80ef81e1 	lb	t7,-32287(a3)
 23c:	80b7e408 	lb	s7,-7160(a1)
 240:	b8b83d08 	swr	t8,15624(a1)
 244:	08817f48 	j	205fd20 <_init-0x67ba02e0>
 248:	7308b872 	0x7308b872
 24c:	03471903 	0x3471903
 250:	087f7ef8 	j	1fdfbe0 <_init-0x67c20420>
 254:	080903e2 	j	240f88 <_init-0x699bf078>
 258:	4e4284e1 	madd.d	$f19,$f18,$f16,$f2
 25c:	0a038082 	j	80e0208 <_init-0x61b1fdf8>
 260:	7f48467f 	0x7f48467f
 264:	eb03b980 	swc2	$3,-18048(t8)
 268:	cd034700 	pref	0x3,18176(t0)
 26c:	cc037f7c 	pref	0x3,32636(zero)
 270:	3c027f02 	lui	v0,0x7f02
 274:	08807f13 	j	201fc4c <_init-0x67be03b4>
 278:	7a03f33a 	0x7a03f33a
 27c:	e308877f 	sc	t0,-30849(t8)
 280:	02844781 	0x2844781
 284:	807f132c 	lb	ra,4908(v1)
 288:	03f33a08 	0x3f33a08
 28c:	08877f7a 	j	21dfde8 <_init-0x67a20218>
 290:	80834375 	lb	v1,17269(a0)
 294:	0881b7b9 	j	206dee4 <_init-0x67b9211c>
 298:	48464872 	0x48464872
 29c:	b9b71b03 	swr	s7,6915(t5)
 2a0:	487f1503 	mfhc2	ra,0x1503
 2a4:	b88048b6 	swr	zero,18614(a0)
 2a8:	7f8f03f0 	dpsu.h.qbr	$ac0,gp,t7
 2ac:	7eab08b7 	0x7eab08b7
 2b0:	80464848 	lb	a2,18504(v0)
 2b4:	92034108 	lbu	v1,16648(s0)
 2b8:	03b77f7d 	0x3b77f7d
 2bc:	037f02db 	0x37f02db
 2c0:	c7037f29 	lwc1	$f3,32553(t8)
 2c4:	08e1087e 	j	38421f8 <_init-0x663bde08>
 2c8:	1c037fe6 	0x1c037fe6
 2cc:	0851037f 	j	1440dfc <_init-0x687bf204>
 2d0:	f07308e1 	0xf07308e1
 2d4:	11033b08 	beq	t0,v1,eef8 <_init-0x69bf1108>
 2d8:	47803908 	c1	0x1803908
 2dc:	827f1503 	lb	ra,5379(s3)
 2e0:	0202ef03 	0x202ef03
 2e4:	85b80124 	lh	t8,292(t5)
 2e8:	3c02b9f0 	lui	v0,0xb9f0
 2ec:	ef7f8112 	swc3	$31,-32494(k1)
 2f0:	7f7cee03 	0x7f7cee03
 2f4:	3b0882b8 	xori	t0,t8,0x82b8
 2f8:	0281e108 	0x281e108
 2fc:	80f0104c 	lb	s0,4172(a3)
 300:	ae087208 	sw	t0,29192(s0)
 304:	b702f503 	0xb702f503
 308:	027cfe03 	0x27cfe03
 30c:	087c0144 	j	1f00510 <_init-0x67cffaf0>
 310:	03f0853c 	0x3f0853c
 314:	037f04a1 	0x37f04a1
 318:	7503b70b 	jalx	40edc2c <_init-0x65b123d4>
 31c:	020b0347 	0x20b0347
 320:	72080124 	0x72080124
 324:	08484648 	j	1211920 <_init-0x689ee6e0>
 328:	7aa80339 	0x7aa80339
 32c:	7f8b037f 	0x7f8b037f
 330:	00f50347 	0xf50347
 334:	05dc03b7 	0x5dc03b7
 338:	79af0347 	0x79af0347
 33c:	06d103b7 	bgezal	s6,121c <_init-0x69bfede4>
 340:	7aa40347 	0x7aa40347
 344:	f1807f7f 	0xf1807f7f
 348:	3b083a08 	xori	t0,t8,0x3a08
 34c:	73083a08 	0x73083a08
 350:	73083a08 	0x73083a08
 354:	3b083a08 	xori	t0,t8,0x3a08
 358:	cf03aa08 	pref	0x3,-22008(t8)
 35c:	817f7f05 	lb	ra,32517(t3)
 360:	79c20347 	0x79c20347
 364:	0880ef7f 	j	203bdfc <_init-0x67bc4204>
 368:	ef3a08ae 	swc3	$26,2222(t9)
 36c:	083a0884 	j	e82210 <_init-0x68d7ddf0>
 370:	ef3a08ae 	swc3	$26,2222(t9)
 374:	033a0884 	0x33a0884
 378:	08710814 	j	1c42050 <_init-0x67fbdfb0>
 37c:	06970378 	0x6970378
 380:	0b037f7f 	j	c0dfdfc <_init-0x5db20204>
 384:	4638087f 	c1	0x38087f
 388:	a0038049 	sb	v1,-32695(zero)
 38c:	3a08b77a 	xori	t0,s0,0xb77a
 390:	3a087308 	xori	t0,s0,0x7308
 394:	eff081ef 	swc3	$16,-32273(ra)
 398:	3b08f081 	xori	t0,t8,0xf081
 39c:	3b083a08 	xori	t0,t8,0x3a08
 3a0:	3b083a08 	xori	t0,t8,0x3a08
 3a4:	3b083a08 	xori	t0,t8,0x3a08
 3a8:	083b08f0 	j	ec23c0 <_init-0x68d3dc40>
 3ac:	080a033a 	j	280ce8 <_init-0x6997f318>
 3b0:	444c4239 	0x444c4239
 3b4:	42454948 	c0	0x454948
 3b8:	78034d48 	0x78034d48
 3bc:	4b484847 	c2	0x1484847
 3c0:	3c088049 	lui	t0,0x8049
 3c4:	3f083c08 	0x3f083c08
 3c8:	3a083c08 	xori	t0,s0,0x3c08
 3cc:	3c083c08 	lui	t0,0x3c08
 3d0:	3a083c08 	xori	t0,s0,0x3c08
 3d4:	3b083b08 	xori	t0,t8,0x3b08
 3d8:	0805a203 	j	16880c <_init-0x69a977f4>
 3dc:	03478639 	0x3478639
 3e0:	03ef7f0d 	break	0x3ef,0x1fc
 3e4:	3d087f0e 	0x3d087f0e
 3e8:	087dd703 	j	1f75c0c <_init-0x67c8a3f4>
 3ec:	03730871 	tgeu	k1,s3,0x21
 3f0:	85477f0c 	lh	a3,32524(t2)
 3f4:	03113002 	0x3113002
 3f8:	47a9082b 	c1	0x1a9082b
 3fc:	080b0385 	j	2c0e14 <_init-0x6993f1ec>
 400:	e103b939 	sc	v1,-18119(t0)
 404:	03f4ef01 	0x3f4ef01
 408:	03ef7bb0 	tge	ra,t7,0x1ee
 40c:	03b77fa9 	0x3b77fa9
 410:	08ef048e 	j	3bc1238 <_init-0x6603edc8>
 414:	4b7708aa 	c2	0x17708aa
 418:	af08f081 	sw	t0,-3967(t8)
 41c:	f3477a03 	0xf3477a03
 420:	7f140382 	0x7f140382
 424:	7f00fc03 	0x7f00fc03
 428:	b77aa503 	0xb77aa503
 42c:	0881817f 	j	20605fc <_init-0x67b9fa04>
 430:	b83a083a 	swr	k0,2106(at)
 434:	b8804746 	swr	zero,18246(a0)
 438:	08f080ef 	j	3c203bc <_init-0x65fdfc44>
 43c:	4746b83a 	c1	0x146b83a
 440:	3a08b880 	xori	t0,s0,0xb880
 444:	3a083a08 	xori	t0,s0,0x3a08
 448:	824780ef 	lb	a3,-32529(s2)
 44c:	05c80381 	tgei	t6,897
 450:	03813908 	0x3813908
 454:	037f78d0 	0x37f78d0
 458:	04b707b7 	0x4b707b7
 45c:	77ed0302 	jalx	fb40c08 <_init-0x5a0bf3f8>
 460:	0346807f 	0x346807f
 464:	0e03b772 	jal	80eddc8 <_init-0x61b12238>
 468:	04464847 	0x4464847
 46c:	08980301 	j	2600c04 <_init-0x675ff3fc>
 470:	030204ef 	0x30204ef
 474:	047f77da 	synci	30682(v1)
 478:	08a60301 	j	2980c04 <_init-0x6727f3fc>
 47c:	f0f18047 	0xf0f18047
 480:	7ee403f2 	0x7ee403f2
 484:	03013402 	0x3013402
 488:	03ef7caa 	0x3ef7caa
 48c:	037f7fa7 	0x37f7fa7
 490:	08ef048e 	j	3bc1238 <_init-0x6603edc8>
 494:	a20381aa 	sb	v1,-32342(s0)
 498:	01380201 	0x1380201
 49c:	7f7fa203 	0x7f7fa203
 4a0:	bd0381b8 	cache	0x3,-32328(t0)
 4a4:	013c0279 	0x13c0279
 4a8:	7f06cf03 	0x7f06cf03
 4ac:	444948ed 	0x444948ed
 4b0:	a7038049 	sh	v1,-32695(t8)
 4b4:	0339087a 	0x339087a
 4b8:	037f7f9e 	0x37f7f9e
 4bc:	98037f74 	lwr	v1,32628(zero)
 4c0:	4f037f05 	c3	0x1037f05
 4c4:	03014002 	0x3014002
 4c8:	3c020282 	lui	v0,0x282
 4cc:	47487e01 	c1	0x1487e01
 4d0:	083a0880 	j	e82200 <_init-0x68d7de00>
 4d4:	b880b7e4 	swr	zero,-18460(a0)
 4d8:	f8033d08 	sdc2	$3,15624(zero)
 4dc:	03807f78 	0x3807f78
 4e0:	037f05b8 	0x37f05b8
 4e4:	3c0201df 	lui	v0,0x1df
 4e8:	3c02f101 	lui	v0,0xf101
 4ec:	03817f12 	0x3817f12
 4f0:	3c027bae 	lui	v0,0x7bae
 4f4:	04a20301 	bltzl	a1,10fc <_init-0x69bfef04>
 4f8:	8139087f 	lb	t9,2175(t1)
 4fc:	f0813a08 	0xf0813a08
 500:	ef79b103 	swc3	$25,-20221(k1)
 504:	037f1203 	0x37f1203
 508:	807f04af 	lb	ra,1199(v1)
 50c:	027c9203 	0x27c9203
 510:	cd03014c 	pref	0x3,332(t0)
 514:	01400205 	0x1400205
 518:	01000802 	0x1000802
 51c:	00005e01 	0x5e01
 520:	49000200 	bc2f	d24 <_init-0x69bff2dc>
 524:	01000000 	0x1000000
 528:	0a0efb01 	j	83bec04 <_init-0x618413fc>
 52c:	01010100 	0x1010100
 530:	00000001 	movf	zero,zero,$fcc0
 534:	2e2f2e01 	sltiu	t7,s1,11777
 538:	2e2e2f2e 	sltiu	t6,s1,12078
 53c:	2f2e2e2f 	sltiu	t6,t9,11823
 540:	692f2e2e 	0x692f2e2e
 544:	756c636e 	jalx	5b18db8 <_init-0x640e7248>
 548:	6c2f6564 	0x6c2f6564
 54c:	2f636269 	sltiu	v1,k1,25193
 550:	00737973 	tltu	v1,s3,0x1e5
 554:	74726300 	jalx	1c98c00 <_init-0x67f67400>
 558:	69676562 	0x69676562
 55c:	632e316e 	0x632e316e
 560:	00000000 	nop
 564:	65707974 	0x65707974
 568:	00682e73 	tltu	v1,t0,0xb9
 56c:	00000001 	movf	zero,zero,$fcc0
 570:	40020500 	0x40020500
 574:	0369c03e 	0x369c03e
 578:	0802011d 	j	80474 <_init-0x69b7fb8c>
 57c:	54010100 	bnel	zero,at,980 <_init-0x69bff680>
 580:	02000001 	movf	zero,s0,$fcc0
 584:	0000d600 	sll	k0,zero,0x18
 588:	fb010100 	sdc2	$1,256(t8)
 58c:	01000a0e 	0x1000a0e
 590:	00010101 	0x10101
 594:	2e010000 	sltiu	at,s0,0
 598:	2f2e2e2f 	sltiu	t6,t9,11823
 59c:	2e2f2e2e 	sltiu	t7,s1,11822
 5a0:	2e2e2f2e 	sltiu	t6,s1,12078
 5a4:	62696c2f 	0x62696c2f
 5a8:	2f637273 	sltiu	v1,k1,29299
 5ac:	6362696c 	0x6362696c
 5b0:	6e65672f 	0x6e65672f
 5b4:	6c617265 	0x6c617265
 5b8:	6e692f2f 	0x6e692f2f
 5bc:	64756c63 	0x64756c63
 5c0:	2f2e0065 	sltiu	t6,t9,101
 5c4:	2e2f2e2e 	sltiu	t7,s1,11822
 5c8:	2e2e2f2e 	sltiu	t6,s1,12078
 5cc:	2f2e2e2f 	sltiu	t6,t9,11823
 5d0:	6c636e69 	0x6c636e69
 5d4:	2f656475 	sltiu	a1,k1,25717
 5d8:	6362696c 	0x6362696c
 5dc:	7379732f 	0x7379732f
 5e0:	2e2f2e00 	sltiu	t7,s1,11776
 5e4:	2e2e2f2e 	sltiu	t6,s1,12078
 5e8:	2f2e2e2f 	sltiu	t6,t9,11823
 5ec:	692f2e2e 	0x692f2e2e
 5f0:	756c636e 	jalx	5b18db8 <_init-0x640e7248>
 5f4:	752f6564 	jalx	4bd9590 <_init-0x65026a70>
 5f8:	2f736f63 	sltiu	s3,k1,28515
 5fc:	6c2f2e2e 	0x6c2f2e2e
 600:	00636269 	0x636269
 604:	74726300 	jalx	1c98c00 <_init-0x67f67400>
 608:	31646e65 	andi	a0,t3,0x6e65
 60c:	0000632e 	0x632e
 610:	72700000 	madd	s3,s0
 614:	7365636f 	0x7365636f
 618:	64695f73 	0x64695f73
 61c:	0100682e 	0x100682e
 620:	79740000 	0x79740000
 624:	2e736570 	sltiu	s3,s3,25968
 628:	00020068 	0x20068
 62c:	62696c00 	0x62696c00
 630:	79745f63 	0x79745f63
 634:	2e736570 	sltiu	s3,s3,25968
 638:	00010068 	0x10068
 63c:	65657200 	0x65657200
 640:	682e746e 	0x682e746e
 644:	00000200 	sll	zero,zero,0x8
 648:	65686373 	0x65686373
 64c:	00682e64 	0x682e64
 650:	74000002 	jalx	8 <_init-0x69bffff8>
 654:	73657079 	0x73657079
 658:	0300682e 	0x300682e
 65c:	00000000 	nop
 660:	3e480205 	0x3e480205
 664:	290369c0 	slti	v1,t0,27072
 668:	76088101 	jalx	8220404 <_init-0x619dfbfc>
 66c:	0a03ad08 	j	80eb420 <_init-0x61b14be0>
 670:	f0f5e108 	0xf0f5e108
 674:	81b84b84 	lb	t8,19332(t5)
 678:	3908ad08 	xori	t0,t0,0xad08
 67c:	0380ba87 	0x380ba87
 680:	7f710876 	0x7f710876
 684:	03e50881 	0x3e50881
 688:	34027f6a 	li	v0,0x7f6a
 68c:	7f1d0310 	addu_s.ph	zero,t8,sp
 690:	82be3908 	lb	s8,14600(s5)
 694:	09038080 	j	40e0200 <_init-0x65b1fe00>
 698:	853c087f 	lh	gp,2175(t1)
 69c:	80833b08 	lb	v1,15112(a0)
 6a0:	b8808186 	swr	zero,-32378(a0)
 6a4:	4680b9ba 	c1	0x80b9ba
 6a8:	473a0848 	c1	0x13a0848
 6ac:	08828180 	j	20a0600 <_init-0x67b5fa00>
 6b0:	0280873a 	0x280873a
 6b4:	03861034 	teq	gp,a2,0x40
 6b8:	7d4def7a 	0x7d4def7a
 6bc:	0348ee81 	0x348ee81
 6c0:	037f7fbf 	0x37f7fbf
 6c4:	01240239 	0x1240239
 6c8:	58038680 	0x58038680
 6cc:	0228037f 	0x228037f
 6d0:	08020130 	j	804c0 <_init-0x69b7fb40>
 6d4:	Address 0x6d4 is out of bounds.

Disassembly of section .debug_frame:

00000000 <.debug_frame>:
   0:	0000000c 	syscall
   4:	ffffffff 	sdc3	$31,-1(ra)
   8:	04010001 	b	10 <_init-0x69bffff0>
   c:	001d0c1f 	0x1d0c1f
  10:	0000000c 	syscall
  14:	00000000 	nop
  18:	69c00020 	0x69c00020
  1c:	00000008 	jr	zero
  20:	0000000c 	syscall
  24:	00000000 	nop
  28:	69c00028 	0x69c00028
  2c:	00000008 	jr	zero
  30:	00000030 	tge	zero,zero
  34:	00000000 	nop
  38:	69c00030 	0x69c00030
  3c:	0000081c 	0x81c
  40:	10f00e44 	beq	a3,s0,3954 <_init-0x69bfc6ac>
  44:	7e1e115c 	0x7e1e115c
  48:	11761011 	beq	t3,s6,4090 <_init-0x69bfbf70>
  4c:	12117711 	beq	s0,s1,1dc94 <_init-0x69be236c>
  50:	79131178 	0x79131178
  54:	117a1411 	beq	t3,k0,509c <_init-0x69bfaf64>
  58:	114c7f1f 	beq	t2,t4,1fcd8 <_init-0x69be0328>
  5c:	16117b15 	bne	s0,s1,1ecb4 <_init-0x69be134c>
  60:	7d17117c 	0x7d17117c
  64:	00000028 	0x28
  68:	00000000 	nop
  6c:	69c0084c 	0x69c0084c
  70:	000002e8 	0x2e8
  74:	04c00e44 	bltz	a2,3988 <_init-0x69bfc678>
  78:	7810115c 	0x7810115c
  7c:	11791111 	beq	t3,t9,44c4 <_init-0x69bfbb3c>
  80:	14117b13 	bne	zero,s1,1ecd0 <_init-0x69be1330>
  84:	7d15117c 	0x7d15117c
  88:	117e1f11 	beq	t3,s8,7cd0 <_init-0x69bf8330>
  8c:	00007a12 	0x7a12
  90:	00000034 	teq	zero,zero
  94:	00000000 	nop
  98:	69c00b34 	0x69c00b34
  9c:	00000db8 	0xdb8
  a0:	21900e44 	addi	s0,t4,3652
  a4:	7a141144 	0x7a141144
  a8:	78121164 	0x78121164
  ac:	11791311 	beq	t3,t9,4cf4 <_init-0x69bfb30c>
  b0:	16117b15 	bne	s0,s1,1ed08 <_init-0x69be12f8>
  b4:	7d17117c 	0x7d17117c
  b8:	117e1e11 	beq	t3,s8,7900 <_init-0x69bf8700>
  bc:	11487f1f 	beq	t2,t0,1fd3c <_init-0x69be02c4>
  c0:	11117610 	beq	t0,s1,1d904 <_init-0x69be26fc>
  c4:	00000077 	0x77
  c8:	0000000c 	syscall
  cc:	ffffffff 	sdc3	$31,-1(ra)
  d0:	04010001 	b	d8 <_init-0x69bfff28>
  d4:	001d0c1f 	0x1d0c1f
  d8:	0000000c 	syscall
  dc:	000000c8 	0xc8
  e0:	69c03e40 	0x69c03e40
  e4:	00000008 	jr	zero
  e8:	0000000c 	syscall
  ec:	ffffffff 	sdc3	$31,-1(ra)
  f0:	04010001 	b	f8 <_init-0x69bfff08>
  f4:	001d0c1f 	0x1d0c1f
  f8:	0000000c 	syscall
  fc:	000000e8 	0xe8
 100:	69c03e48 	0x69c03e48
 104:	0000005c 	0x5c
 108:	0000001c 	0x1c
 10c:	000000e8 	0xe8
 110:	69c03ea4 	0x69c03ea4
 114:	00000118 	0x118
 118:	4c200e44 	0x4c200e44
 11c:	117c1011 	beq	t3,gp,4164 <_init-0x69bfbe9c>
 120:	11117e12 	beq	t0,s1,1f96c <_init-0x69be0694>
 124:	7f1f117d 	0x7f1f117d
 128:	0000001c 	0x1c
 12c:	000000e8 	0xe8
 130:	69c03fbc 	0x69c03fbc
 134:	00000210 	0x210
 138:	50500e44 	beql	v0,s0,3a4c <_init-0x69bfc5b4>
 13c:	117c1011 	beq	t3,gp,4184 <_init-0x69bfbe7c>
 140:	12117d11 	beq	s0,s1,1f588 <_init-0x69be0a78>
 144:	7f1f117e 	0x7f1f117e
Disassembly of section .debug_pubnames:

00000000 <.debug_pubnames>:
   0:	00000049 	0x49
   4:	00000002 	srl	zero,zero,0x0
   8:	10330000 	beq	at,s3,c <_init-0x69bffff4>
   c:	0a4e0000 	j	9380000 <_init-0x60880000>
  10:	616d0000 	0x616d0000
  14:	2c006e69 	sltiu	zero,zero,28265
  18:	7000000f 	0x7000000f
  1c:	65726874 	0x65726874
  20:	6d5f6461 	0x6d5f6461
  24:	78657475 	0x78657475
  28:	7079745f 	udi15	v1,t9,t6,0x11
  2c:	00745f65 	0x745f65
  30:	00000f3e 	0xf3e
  34:	72687470 	0x72687470
  38:	5f646165 	0x5f646165
  3c:	72616873 	0x72616873
  40:	79745f65 	0x79745f65
  44:	745f6570 	jalx	17d95c0 <_init-0x68426a40>
  48:	00000000 	nop
  4c:	00005100 	sll	t2,zero,0x4
  50:	33000200 	andi	zero,t8,0x200
  54:	fe000010 	sdc3	$0,16(s0)
  58:	b0000000 	0xb0000000
  5c:	65000000 	0x65000000
  60:	5f636578 	0x5f636578
  64:	656c6572 	0x656c6572
  68:	00657361 	0x657361
  6c:	000000d9 	0xd9
  70:	72687470 	0x72687470
  74:	5f646165 	0x5f646165
  78:	6574756d 	0x6574756d
  7c:	79745f78 	0x79745f78
  80:	745f6570 	jalx	17d95c0 <_init-0x68426a40>
  84:	0000eb00 	sll	sp,zero,0xc
  88:	68747000 	0x68747000
  8c:	64616572 	0x64616572
  90:	6168735f 	0x6168735f
  94:	745f6572 	jalx	17d95c8 <_init-0x68426a38>
  98:	5f657079 	0x5f657079
  9c:	00000074 	teq	zero,zero,0x1
  a0:	006b0000 	0x6b0000
  a4:	00020000 	sll	zero,v0,0x0
  a8:	00001131 	tgeu	zero,zero,0x44
  ac:	000007d2 	0x7d2
  b0:	000005a1 	0x5a1
  b4:	706d7564 	0x706d7564
  b8:	76677261 	jalx	99dc984 <_init-0x6022367c>
  bc:	0005eb00 	sll	sp,a1,0xc
  c0:	6f727000 	0x6f727000
  c4:	73736563 	0x73736563
  c8:	6174735f 	0x6174735f
  cc:	a3007472 	sb	zero,29810(t8)
  d0:	5f000006 	bgtzl	t8,ec <_init-0x69bfff14>
  d4:	6174735f 	0x6174735f
  d8:	ad007472 	sw	zero,29810(t0)
  dc:	70000007 	0x70000007
  e0:	65726874 	0x65726874
  e4:	6d5f6461 	0x6d5f6461
  e8:	78657475 	0x78657475
  ec:	7079745f 	udi15	v1,t9,t6,0x11
  f0:	00745f65 	0x745f65
  f4:	000007bf 	0x7bf
  f8:	72687470 	0x72687470
  fc:	5f646165 	0x5f646165
 100:	72616873 	0x72616873
 104:	79745f65 	0x79745f65
 108:	745f6570 	jalx	17d95c0 <_init-0x68426a40>
 10c:	00000000 	nop
	...
Disassembly of section .debug_aranges:

00000000 <.debug_aranges>:
   0:	0000001c 	0x1c
   4:	00000002 	srl	zero,zero,0x0
   8:	00040000 	sll	zero,a0,0x0
   c:	00000000 	nop
  10:	69c00020 	0x69c00020
  14:	000018cc 	syscall	0x63
	...
  20:	0000001c 	0x1c
  24:	10330002 	beq	at,s3,30 <_init-0x69bfffd0>
  28:	00040000 	sll	zero,a0,0x0
  2c:	00000000 	nop
  30:	69c03e40 	0x69c03e40
  34:	00000008 	jr	zero
  38:	00000000 	nop
  3c:	00000000 	nop
  40:	0000001c 	0x1c
  44:	11310002 	beq	t1,s1,50 <_init-0x69bfffb0>
  48:	00040000 	sll	zero,a0,0x0
  4c:	00000000 	nop
  50:	69c03e48 	0x69c03e48
  54:	00000384 	0x384
	...
Disassembly of section .debug_ranges:

00000000 <.debug_ranges>:
   0:	00000214 	0x214
   4:	0000025c 	0x25c
   8:	00000260 	0x260
   c:	00000264 	0x264
	...
  18:	0000090c 	syscall	0x24
  1c:	000009a0 	0x9a0
  20:	00000a94 	0xa94
  24:	00000ae0 	0xae0
	...
  30:	000009a0 	0x9a0
  34:	000009b4 	teq	zero,zero,0x26
  38:	00000ae0 	0xae0
  3c:	00000afc 	0xafc
	...
  48:	000009f0 	tge	zero,zero,0x27
  4c:	00000a88 	0xa88
  50:	00000afc 	0xafc
  54:	00000b14 	0xb14
	...
  60:	00000cbc 	0xcbc
  64:	00000da4 	0xda4
  68:	00001820 	add	v1,zero,zero
  6c:	00001830 	tge	zero,zero,0x60
	...
  78:	000011e4 	0x11e4
  7c:	0000127c 	0x127c
  80:	000014c8 	0x14c8
  84:	0000152c 	0x152c
  88:	000014a0 	0x14a0
  8c:	000014b0 	tge	zero,zero,0x52
	...
  98:	000001ec 	0x1ec
  9c:	0000028c 	syscall	0xa
  a0:	0000034c 	syscall	0xd
  a4:	00000384 	0x384
	...
  b0:	00000294 	0x294
  b4:	000002c8 	0x2c8
  b8:	00000334 	teq	zero,zero,0xc
  bc:	0000033c 	0x33c
	...
Disassembly of section .debug_str:

00000000 <.debug_str>:
       0:	69736e75 	0x69736e75
       4:	64656e67 	0x64656e67
       8:	61686320 	0x61686320
       c:	534d0072 	beql	k0,t5,1d8 <_init-0x69bffe28>
      10:	454d5f47 	0x454d5f47
      14:	4e49474e 	c3	0x49474e
      18:	41505f45 	0x41505f45
      1c:	5f455355 	0x5f455355
      20:	434e5953 	c0	0x14e5953
      24:	47534d00 	c1	0x1534d00
      28:	5445535f 	bnel	v0,a1,14da8 <_init-0x69beb258>
      2c:	59454b5f 	0x59454b5f
      30:	4e4f545f 	c3	0x4f545f
      34:	4e455f45 	c3	0x455f45
      38:	454c4241 	0x454c4241
      3c:	47534d00 	c1	0x1534d00
      40:	454d465f 	0x454d465f
      44:	4e49474e 	c3	0x49474e
      48:	45535f45 	0x45535f45
      4c:	54535f54 	bnel	v0,s3,17da0 <_init-0x69be8260>
      50:	4d00504f 	bc3f	14190 <_init-0x69bebe70>
      54:	4d5f4753 	0x4d5f4753
      58:	49474e45 	0x49474e45
      5c:	435f454e 	c0	0x15f454e
      60:	45434e41 	0x45434e41
      64:	46465f4c 	c1	0x465f4c
      68:	59535f42 	0x59535f42
      6c:	4d00434e 	bc3f	10da8 <_init-0x69bef258>
      70:	4d5f4753 	0x4d5f4753
      74:	49474e45 	0x49474e45
      78:	465f454e 	c1	0x5f454e
      7c:	5f445746 	0x5f445746
      80:	434e5953 	c0	0x14e5953
      84:	75627600 	jalx	589d800 <_init-0x64362800>
      88:	68745f73 	0x68745f73
      8c:	68736572 	0x68736572
      90:	00646c6f 	0x646c6f
      94:	5f47534d 	0x5f47534d
      98:	474e454d 	c1	0x14e454d
      9c:	5f454e49 	0x5f454e49
      a0:	52415453 	beql	s2,at,151f0 <_init-0x69beae10>
      a4:	42415f54 	c0	0x415f54
      a8:	4e59535f 	c3	0x59535f
      ac:	54530043 	bnel	v0,s3,1bc <_init-0x69bffe44>
      b0:	5f454741 	0x5f454741
      b4:	4d494e41 	0x4d494e41
      b8:	6b004e4f 	0x6b004e4f
      bc:	765f7965 	jalx	97de594 <_init-0x60421a6c>
      c0:	6c5f6c61 	0x6c5f6c61
      c4:	70006e65 	0x70006e65
      c8:	7473696c 	jalx	1cda5b0 <_init-0x67f25a50>
      cc:	616c665f 	0x616c665f
      d0:	6d750067 	0x6d750067
      d4:	74696e6f 	jalx	1a5b9bc <_init-0x681a4644>
      d8:	615f726f 	0x615f726f
      dc:	745f6772 	jalx	17d9dc8 <_init-0x68426238>
      e0:	73657200 	0x73657200
      e4:	00746c75 	0x746c75
      e8:	5f657375 	0x5f657375
      ec:	4d006469 	msub.d	$f17,$f8,$f12,$f0
      f0:	4d5f4753 	0x4d5f4753
      f4:	49474e45 	0x49474e45
      f8:	535f454e 	beql	k0,ra,11634 <_init-0x69bee9cc>
      fc:	465f5445 	c1	0x5f5445
     100:	54534246 	bnel	v0,s3,10a1c <_init-0x69bef5e4>
     104:	535f5045 	beql	k0,ra,1421c <_init-0x69bebde4>
     108:	00434e59 	0x434e59
     10c:	5f47534d 	0x5f47534d
     110:	5f544553 	0x5f544553
     114:	5f44434c 	0x5f44434c
     118:	4b434142 	c2	0x1434142
     11c:	4847494c 	0x4847494c
     120:	59535f54 	0x59535f54
     124:	5300434e 	beqzl	t8,10e60 <_init-0x69bef1a0>
     128:	45545359 	0x45545359
     12c:	41425f4d 	0x41425f4d
     130:	4d004553 	bc3f	11680 <_init-0x69bee980>
     134:	415f4753 	0x415f4753
     138:	56495443 	bnel	s2,t1,15248 <_init-0x69beadb8>
     13c:	59535f45 	0x59535f45
     140:	6600434e 	0x6600434e
     144:	65736c61 	0x65736c61
     148:	47534d00 	c1	0x1534d00
     14c:	4f48535f 	c3	0x148535f
     150:	55435452 	bnel	t2,v1,1529c <_init-0x69bead64>
     154:	4c505f54 	0x4c505f54
     158:	41425941 	0x41425941
     15c:	4d004b43 	bc3f	12e6c <_init-0x69bed194>
     160:	415f4753 	0x415f4753
     164:	455f5050 	0x455f5050
     168:	45544958 	0x45544958
     16c:	534d0044 	beql	k0,t5,280 <_init-0x69bffd80>
     170:	4d465f47 	0x4d465f47
     174:	49474e45 	0x49474e45
     178:	455f454e 	0x455f454e
     17c:	48505241 	0x48505241
     180:	5f454e4f 	0x5f454e4f
     184:	5f544f4e 	0x5f544f4e
     188:	45534e49 	0x45534e49
     18c:	73005452 	udi2	t8,zero,t2,0x11
     190:	5f62665f 	0x5f62665f
     194:	5f766564 	0x5f766564
     198:	4d006466 	madd.ps	$f17,$f8,$f12,$f0
     19c:	435f4753 	c0	0x15f4753
     1a0:	54414552 	bnel	v0,at,116ec <_init-0x69bee914>
     1a4:	5050415f 	beql	v0,s0,10724 <_init-0x69bef8dc>
     1a8:	47534d00 	c1	0x1534d00
     1ac:	5241435f 	beql	s2,at,10f2c <_init-0x69bef0d4>
     1b0:	4e495f44 	c3	0x495f44
     1b4:	465f5449 	c1	0x5f5449
     1b8:	454c4941 	0x454c4941
     1bc:	534d0044 	beql	k0,t5,2d0 <_init-0x69bffd30>
     1c0:	45535f47 	0x45535f47
     1c4:	454b5f54 	0x454b5f54
     1c8:	4f545f59 	c3	0x1545f59
     1cc:	4f5f454e 	c3	0x15f454e
     1d0:	534d004e 	beql	k0,t5,30c <_init-0x69bffcf4>
     1d4:	454d5f47 	0x454d5f47
     1d8:	4e49474e 	c3	0x49474e
     1dc:	45535f45 	0x45535f45
     1e0:	42415f54 	c0	0x415f54
     1e4:	4d49545f 	0x4d49545f
     1e8:	59535f45 	0x59535f45
     1ec:	4d00434e 	bc3f	10f28 <_init-0x69bef0d8>
     1f0:	4b5f4753 	c2	0x15f4753
     1f4:	5f4c4c49 	0x5f4c4c49
     1f8:	52455355 	beql	s2,a1,14f50 <_init-0x69beb0b0>
     1fc:	5050415f 	beql	v0,s0,1077c <_init-0x69bef884>
     200:	59535f53 	0x59535f53
     204:	4d00434e 	bc3f	10f40 <_init-0x69bef0c0>
     208:	555f4753 	bnel	t2,ra,11f58 <_init-0x69bee0a8>
     20c:	415f4253 	0x415f4253
     210:	54504144 	bnel	v0,s0,10724 <_init-0x69bef8dc>
     214:	495f524f 	0x495f524f
     218:	534d004e 	beql	k0,t5,354 <_init-0x69bffcac>
     21c:	50415f47 	beql	v0,at,17f3c <_init-0x69be80c4>
     220:	55515f50 	bnel	t2,s1,17f64 <_init-0x69be809c>
     224:	4d005449 	bc3f	1534c <_init-0x69beacb4>
     228:	525f4753 	beql	s2,ra,11f78 <_init-0x69bee088>
     22c:	594c5045 	0x594c5045
     230:	5f4f4e5f 	0x5f4f4e5f
     234:	4c504552 	0x4c504552
     238:	534d0059 	beql	k0,t5,3a0 <_init-0x69bffc60>
     23c:	454d5f47 	0x454d5f47
     240:	4e49474e 	c3	0x49474e
     244:	4c505f45 	0x4c505f45
     248:	4e5f5941 	c3	0x5f5941
     24c:	5f545845 	0x5f545845
     250:	434e5953 	c0	0x14e5953
     254:	47534d00 	c1	0x1534d00
     258:	4c494b5f 	0x4c494b5f
     25c:	53555f4c 	beql	k0,s5,17f90 <_init-0x69be8070>
     260:	415f5245 	0x415f5245
     264:	5f535050 	0x5f535050
     268:	41455243 	0x41455243
     26c:	50415f54 	beql	v0,at,17fc0 <_init-0x69be8040>
     270:	54530050 	bnel	v0,s3,3b4 <_init-0x69bffc4c>
     274:	5f454741 	0x5f454741
     278:	4d494e41 	0x4d494e41
     27c:	0046464f 	0x46464f
     280:	47415453 	c1	0x1415453
     284:	414c5f45 	0x414c5f45
     288:	48434e55 	0x48434e55
     28c:	5f005245 	bgtzl	t8,14ba4 <_init-0x69beb45c>
     290:	666e6f63 	0x666e6f63
     294:	6d5f6769 	0x6d5f6769
     298:	635f6773 	0x635f6773
     29c:	534d0062 	beql	k0,t5,428 <_init-0x69bffbd8>
     2a0:	53555f47 	beql	k0,s5,17fc0 <_init-0x69be8040>
     2a4:	5f425f42 	0x5f425f42
     2a8:	62004e49 	0x62004e49
     2ac:	006c6f6f 	0x6c6f6f
     2b0:	52485450 	beql	s2,t0,153f4 <_init-0x69beac0c>
     2b4:	5f444145 	0x5f444145
     2b8:	4554554d 	0x4554554d
     2bc:	4e495f58 	c3	0x495f58
     2c0:	494c4156 	0x494c4156
     2c4:	534d0044 	beql	k0,t5,3d8 <_init-0x69bffc28>
     2c8:	454d5f47 	0x454d5f47
     2cc:	4e49474e 	c3	0x49474e
     2d0:	45535f45 	0x45535f45
     2d4:	41465f54 	0x41465f54
     2d8:	535f4544 	beql	k0,ra,117ec <_init-0x69bee814>
     2dc:	00434e59 	0x434e59
     2e0:	5f6b6c63 	0x5f6b6c63
     2e4:	616d6f64 	0x616d6f64
     2e8:	745f6e69 	jalx	17db9a4 <_init-0x6842465c>
     2ec:	47534d00 	c1	0x1534d00
     2f0:	4f42455f 	c3	0x142455f
     2f4:	555f4b4f 	bnel	t2,ra,13034 <_init-0x69becfcc>
     2f8:	54414450 	bnel	v0,at,1143c <_init-0x69beebc4>
     2fc:	4f545f45 	c3	0x1545f45
     300:	5f4c4154 	0x5f4c4154
     304:	45474150 	0x45474150
     308:	47534d00 	c1	0x1534d00
     30c:	4553475f 	0x4553475f
     310:	524f534e 	beql	s2,t7,1504c <_init-0x69beafb4>
     314:	4148535f 	0x4148535f
     318:	0044454b 	0x44454b
     31c:	5f47534d 	0x5f47534d
     320:	4e454d46 	c3	0x454d46
     324:	454e4947 	0x454e4947
     328:	5445535f 	bnel	v0,a1,150a8 <_init-0x69beaf58>
     32c:	5455415f 	bnel	v0,s5,108ac <_init-0x69bef754>
     330:	45535f4f 	0x45535f4f
     334:	425f4b45 	c0	0x5f4b45
     338:	4b414552 	c2	0x1414552
     33c:	47534d00 	c1	0x1534d00
     340:	4552435f 	0x4552435f
     344:	415f5441 	0x415f5441
     348:	525f5050 	beql	s2,ra,1448c <_init-0x69bebb74>
     34c:	4d555345 	0x4d555345
     350:	695f0045 	0x695f0045
     354:	6174736e 	0x6174736e
     358:	6f5f6c6c 	0x6f5f6c6c
     35c:	72656874 	0x72656874
     360:	6168635f 	0x6168635f
     364:	65645f72 	0x65645f72
     368:	6d6b5f76 	0x6d6b5f76
     36c:	6c75646f 	0x6c75646f
     370:	534d0065 	beql	k0,t5,508 <_init-0x69bffaf8>
     374:	4d465f47 	0x4d465f47
     378:	49474e45 	0x49474e45
     37c:	475f454e 	c1	0x15f454e
     380:	495f5445 	0x495f5445
     384:	004f464e 	0x4f464e
     388:	6965645f 	0x6965645f
     38c:	0074696e 	0x74696e
     390:	47415453 	c1	0x1415453
     394:	4e495f45 	c3	0x495f45
     398:	4d005449 	bc3f	154c0 <_init-0x69beab40>
     39c:	535f4753 	beql	k0,ra,120ec <_init-0x69bedf14>
     3a0:	565f5445 	bnel	s2,ra,154b8 <_init-0x69beab48>
     3a4:	4d554c4f 	0x4d554c4f
     3a8:	59535f45 	0x59535f45
     3ac:	4d00434e 	bc3f	110e8 <_init-0x69beef18>
     3b0:	4d5f4753 	0x4d5f4753
     3b4:	49474e45 	0x49474e45
     3b8:	505f454e 	beql	v0,ra,118f4 <_init-0x69bee70c>
     3bc:	5f59414c 	0x5f59414c
     3c0:	434e5953 	c0	0x14e5953
     3c4:	4e4f4300 	c3	0x4f4300
     3c8:	5f474946 	0x5f474946
     3cc:	45534142 	0x45534142
     3d0:	47534d00 	c1	0x1534d00
     3d4:	5345525f 	beql	k0,a1,14d54 <_init-0x69beb2ac>
     3d8:	54524154 	bnel	v0,s2,1092c <_init-0x69bef6d4>
     3dc:	5241485f 	beql	s2,at,1255c <_init-0x69bedaa4>
     3e0:	41575f44 	0x41575f44
     3e4:	44484354 	0x44484354
     3e8:	59535f47 	0x59535f47
     3ec:	7000434e 	0x7000434e
     3f0:	0074726f 	0x74726f
     3f4:	5f47534d 	0x5f47534d
     3f8:	4e454d46 	c3	0x454d46
     3fc:	454e4947 	0x454e4947
     400:	5445475f 	bnel	v0,a1,12180 <_init-0x69bede80>
     404:	4552465f 	0x4552465f
     408:	755f0051 	jalx	57c0144 <_init-0x6443febc>
     40c:	736e696e 	0x736e696e
     410:	6c6c6174 	0x6c6c6174
     414:	6168635f 	0x6168635f
     418:	65645f72 	0x65645f72
     41c:	6d6b5f76 	0x6d6b5f76
     420:	6c75646f 	0x6c75646f
     424:	48500065 	0x48500065
     428:	5f4f544f 	0x5f4f544f
     42c:	45534142 	0x45534142
     430:	47534d00 	c1	0x1534d00
     434:	5445475f 	bnel	v0,a1,121b4 <_init-0x69bede4c>
     438:	4c4f565f 	0x4c4f565f
     43c:	5f454d55 	0x5f454d55
     440:	434e5953 	c0	0x14e5953
     444:	47534d00 	c1	0x1534d00
     448:	4253555f 	c0	0x53555f
     44c:	534f485f 	beql	k0,t7,125cc <_init-0x69beda34>
     450:	49445f54 	0x49445f54
     454:	4f5f4b53 	c3	0x15f4b53
     458:	4d005455 	bc3f	155b0 <_init-0x69beaa50>
     45c:	555f4753 	bnel	t2,ra,121ac <_init-0x69bede54>
     460:	485f4253 	0x485f4253
     464:	5f54534f 	0x5f54534f
     468:	4b534944 	c2	0x1534944
     46c:	494e495f 	0x494e495f
     470:	41465f54 	0x41465f54
     474:	44454c49 	0x44454c49
     478:	47534d00 	c1	0x1534d00
     47c:	4958455f 	0x4958455f
     480:	43535f54 	c0	0x1535f54
     484:	4e454552 	c3	0x454552
     488:	45564153 	0x45564153
     48c:	59535f52 	0x59535f52
     490:	4d00434e 	bc3f	111cc <_init-0x69beee34>
     494:	4b5f4753 	c2	0x15f4753
     498:	5f4c4c49 	0x5f4c4c49
     49c:	5f4c4c41 	0x5f4c4c41
     4a0:	52455355 	beql	s2,a1,151f8 <_init-0x69beae08>
     4a4:	5050415f 	beql	v0,s0,10a24 <_init-0x69bef5dc>
     4a8:	59535f53 	0x59535f53
     4ac:	5f00434e 	bgtzl	t8,111e8 <_init-0x69beee18>
     4b0:	5f746573 	0x5f746573
     4b4:	61666564 	0x61666564
     4b8:	5f746c75 	0x5f746c75
     4bc:	746e6f66 	jalx	1b9bd98 <_init-0x68064268>
     4c0:	68637300 	0x68637300
     4c4:	705f6465 	0x705f6465
     4c8:	726f6972 	0x726f6972
     4cc:	00797469 	0x797469
     4d0:	65686373 	0x65686373
     4d4:	61705f64 	0x61705f64
     4d8:	006d6172 	tlt	v1,t5,0x185
     4dc:	5f47534d 	0x5f47534d
     4e0:	474e454d 	c1	0x14e454d
     4e4:	5f454e49 	0x5f454e49
     4e8:	5f544553 	0x5f544553
     4ec:	505f4241 	beql	v0,ra,10df4 <_init-0x69bef20c>
     4f0:	5f564552 	0x5f564552
     4f4:	434e5953 	c0	0x14e5953
     4f8:	47534d00 	c1	0x1534d00
     4fc:	4e414c5f 	c3	0x414c5f
     500:	47415547 	c1	0x1415547
     504:	48435f45 	0x48435f45
     508:	45474e41 	0x45474e41
     50c:	725f0044 	0x725f0044
     510:	6f747365 	0x6f747365
     514:	735f6572 	0x735f6572
     518:	65747379 	0x65747379
     51c:	65735f6d 	0x65735f6d
     520:	6e697474 	0x6e697474
     524:	74700067 	jalx	1c0019c <_init-0x67fffe64>
     528:	61657268 	0x61657268
     52c:	756d5f64 	jalx	5b57d90 <_init-0x640a8270>
     530:	5f786574 	0x5f786574
     534:	65707974 	0x65707974
     538:	4d00745f 	bc3f	1d6b8 <_init-0x69be2948>
     53c:	535f4753 	beql	k0,ra,1228c <_init-0x69bedd74>
     540:	54524f48 	bnel	v0,s2,14264 <_init-0x69bebd9c>
     544:	5f545543 	0x5f545543
     548:	454d4143 	0x454d4143
     54c:	4d004152 	bc3f	10a98 <_init-0x69bef568>
     550:	465f4753 	c1	0x5f4753
     554:	5f544e4f 	0x5f544e4f
     558:	4e414843 	c3	0x414843
     55c:	00444547 	0x444547
     560:	5f47534d 	0x5f47534d
     564:	4c504552 	0x4c504552
     568:	454d5f59 	0x454d5f59
     56c:	4e49474e 	c3	0x49474e
     570:	45475f45 	0x45475f45
     574:	54535f54 	bnel	v0,s3,182c8 <_init-0x69be7d38>
     578:	5f455441 	0x5f455441
     57c:	504f5453 	beql	v0,t7,156cc <_init-0x69bea934>
     580:	4d004445 	bc3f	11698 <_init-0x69bee968>
     584:	535f4753 	beql	k0,ra,122d4 <_init-0x69bedd2c>
     588:	54524f48 	bnel	v0,s2,142ac <_init-0x69bebd54>
     58c:	5f545543 	0x5f545543
     590:	55544552 	bnel	t2,s4,11adc <_init-0x69bee524>
     594:	5f004e52 	bgtzl	t8,13ee0 <_init-0x69bec120>
     598:	5f767264 	0x5f767264
     59c:	6c5f706f 	0x6c5f706f
     5a0:	635f6463 	0x635f6463
     5a4:	65736f6c 	0x65736f6c
     5a8:	7665645f 	jalx	995917c <_init-0x602a6e84>
     5ac:	47534d00 	c1	0x1534d00
     5b0:	4e454d5f 	c3	0x454d5f
     5b4:	454e4947 	0x454e4947
     5b8:	5445535f 	bnel	v0,a1,15338 <_init-0x69beacc8>
     5bc:	5f51455f 	0x5f51455f
     5c0:	434e5953 	c0	0x14e5953
     5c4:	47534d00 	c1	0x1534d00
     5c8:	5045525f 	beql	v0,a1,14f48 <_init-0x69beb0b8>
     5cc:	465f594c 	c1	0x5f594c
     5d0:	454c4941 	0x454c4941
     5d4:	775f0044 	jalx	d7c0110 <_init-0x5c43fef0>
     5d8:	5f746961 	0x5f746961
     5dc:	6b5f6f6e 	0x6b5f6f6e
     5e0:	705f7965 	0x705f7965
     5e4:	73736572 	0x73736572
     5e8:	47534d00 	c1	0x1534d00
     5ec:	4552435f 	0x4552435f
     5f0:	415f5441 	0x415f5441
     5f4:	535f5050 	beql	k0,ra,14738 <_init-0x69beb8c8>
     5f8:	00434e59 	0x434e59
     5fc:	52485450 	beql	s2,t0,15740 <_init-0x69bea8c0>
     600:	5f444145 	0x5f444145
     604:	4554554d 	0x4554554d
     608:	45445f58 	0x45445f58
     60c:	4c554146 	0x4c554146
     610:	735f0054 	udi4	k0,ra,zero,0x1
     614:	755f7465 	jalx	57dd194 <_init-0x64422e6c>
     618:	61726770 	0x61726770
     61c:	665f6564 	0x665f6564
     620:	0067616c 	0x67616c
     624:	52485450 	beql	s2,t0,15768 <_init-0x69bea898>
     628:	5f444145 	0x5f444145
     62c:	4554554d 	0x4554554d
     630:	52455f58 	beql	s2,a1,18394 <_init-0x69be7c6c>
     634:	43524f52 	c0	0x1524f52
     638:	4b434548 	c2	0x1434548
     63c:	68747000 	0x68747000
     640:	64616572 	0x64616572
     644:	6168735f 	0x6168735f
     648:	745f6572 	jalx	17d95c8 <_init-0x68426a38>
     64c:	5f657079 	0x5f657079
     650:	534d0074 	beql	k0,t5,824 <_init-0x69bff7dc>
     654:	53555f47 	beql	k0,s5,18374 <_init-0x69be7c8c>
     658:	5f425f42 	0x5f425f42
     65c:	0054554f 	0x54554f
     660:	5f47534d 	0x5f47534d
     664:	45534552 	0x45534552
     668:	55415f54 	bnel	t2,at,183bc <_init-0x69be7c44>
     66c:	535f4f54 	beql	k0,ra,143c0 <_init-0x69bebc40>
     670:	444e4154 	0x444e4154
     674:	545f5942 	bnel	v0,ra,16b80 <_init-0x69be9480>
     678:	52454d49 	beql	s2,a1,13ba0 <_init-0x69bec460>
     67c:	4e59535f 	c3	0x59535f
     680:	534d0043 	beql	k0,t5,790 <_init-0x69bff870>
     684:	41435f47 	0x41435f47
     688:	4d5f4452 	0x4d5f4452
     68c:	544e554f 	bnel	v0,t6,15bcc <_init-0x69bea434>
     690:	4941465f 	0x4941465f
     694:	0044454c 	syscall	0x11115
     698:	47415453 	c1	0x1415453
     69c:	4f425f45 	c3	0x1425f45
     6a0:	465f544f 	c1	0x5f544f
     6a4:	53494e49 	beql	k0,t1,13fcc <_init-0x69bec034>
     6a8:	695f0048 	0x695f0048
     6ac:	6174736e 	0x6174736e
     6b0:	625f6c6c 	0x625f6c6c
     6b4:	6b636f6c 	0x6b636f6c
     6b8:	7665645f 	jalx	995917c <_init-0x602a6e84>
     6bc:	6f6d6b5f 	0x6f6d6b5f
     6c0:	656c7564 	0x656c7564
     6c4:	47534d00 	c1	0x1534d00
     6c8:	59454b5f 	0x59454b5f
     6cc:	4f4c4e55 	c3	0x14c4e55
     6d0:	75004b43 	jalx	4012d0c <_init-0x65bed2f4>
     6d4:	625f6573 	0x625f6573
     6d8:	00646c76 	tne	v1,a0,0x1b1
     6dc:	5f47534d 	0x5f47534d
     6e0:	474e454d 	c1	0x14e454d
     6e4:	5f454e49 	0x5f454e49
     6e8:	5f544553 	0x5f544553
     6ec:	54424646 	bnel	v0,v0,12008 <_init-0x69bedff8>
     6f0:	5f454d49 	0x5f454d49
     6f4:	434e5953 	c0	0x14e5953
     6f8:	47534d00 	c1	0x1534d00
     6fc:	4956545f 	0x4956545f
     700:	4c415f4e 	0x4c415f4e
     704:	5f4d5241 	0x5f4d5241
     708:	5f004e49 	bgtzl	t8,14030 <_init-0x69bebfd0>
     70c:	5f767264 	0x5f767264
     710:	6c5f706f 	0x6c5f706f
     714:	655f6463 	0x655f6463
     718:	7265746e 	0x7265746e
     71c:	6174735f 	0x6174735f
     720:	7962646e 	0x7962646e
     724:	72645f00 	0x72645f00
     728:	706f5f76 	0x706f5f76
     72c:	64636c5f 	0x64636c5f
     730:	7465735f 	jalx	195cd7c <_init-0x682a3284>
     734:	6361625f 	0x6361625f
     738:	67696c6b 	0x67696c6b
     73c:	61007468 	0x61007468
     740:	765f7070 	jalx	97dc1c0 <_init-0x60423e40>
     744:	735f7261 	0x735f7261
     748:	70706100 	0x70706100
     74c:	7261765f 	udi15	s3,at,t6,0x19
     750:	4d00745f 	bc3f	1d8d0 <_init-0x69be2730>
     754:	525f4753 	beql	s2,ra,124a4 <_init-0x69bedb5c>
     758:	594c5045 	0x594c5045
     75c:	4e454d5f 	c3	0x454d5f
     760:	454e4947 	0x454e4947
     764:	5445475f 	bnel	v0,a1,124e4 <_init-0x69bedb1c>
     768:	4154535f 	0x4154535f
     76c:	505f4554 	beql	v0,ra,11cc0 <_init-0x69bee340>
     770:	4959414c 	0x4959414c
     774:	4d00474e 	bc3f	124b0 <_init-0x69bedb50>
     778:	435f4753 	c0	0x15f4753
     77c:	5f445241 	0x5f445241
     780:	0054554f 	0x54554f
     784:	5f47534d 	0x5f47534d
     788:	474e454d 	c1	0x14e454d
     78c:	5f454e49 	0x5f454e49
     790:	454c4544 	0x454c4544
     794:	465f4554 	c1	0x5f4554
     798:	5f454c49 	0x5f454c49
     79c:	434e5953 	c0	0x14e5953
     7a0:	67736d00 	0x67736d00
     7a4:	7070615f 	udi15	v1,s0,t4,0x5
     7a8:	00745f73 	tltu	v1,s4,0x17d
     7ac:	5f67736d 	0x5f67736d
     7b0:	73707061 	0x73707061
     7b4:	7079745f 	udi15	v1,t9,t6,0x11
     7b8:	00655f65 	0x655f65
     7bc:	5f47534d 	0x5f47534d
     7c0:	49544341 	0x49544341
     7c4:	5f004556 	bgtzl	t8,11d20 <_init-0x69bee2e0>
     7c8:	6e696e75 	0x6e696e75
     7cc:	6c617473 	0x6c617473
     7d0:	6c625f6c 	0x6c625f6c
     7d4:	5f6b636f 	0x5f6b636f
     7d8:	5f766564 	0x5f766564
     7dc:	646f6d6b 	0x646f6d6b
     7e0:	00656c75 	0x656c75
     7e4:	5f47534d 	0x5f47534d
     7e8:	474e454d 	c1	0x14e454d
     7ec:	5f454e49 	0x5f454e49
     7f0:	5f544553 	0x5f544553
     7f4:	5453414c 	bnel	v0,s3,10d28 <_init-0x69bef2d8>
     7f8:	4c49465f 	0x4c49465f
     7fc:	59535f45 	0x59535f45
     800:	4d00434e 	bc3f	1153c <_init-0x69beeac4>
     804:	465f4753 	c1	0x5f4753
     808:	474e454d 	c1	0x14e454d
     80c:	5f454e49 	0x5f454e49
     810:	5f544553 	0x5f544553
     814:	59414c50 	0x59414c50
     818:	554e4700 	bnel	t2,t6,1241c <_init-0x69bedbe4>
     81c:	33204320 	andi	zero,t9,0x4320
     820:	342e342e 	ori	t6,at,0x342e
     824:	70696d20 	0x70696d20
     828:	65647373 	0x65647373
     82c:	302e362d 	andi	t6,at,0x362d
     830:	31302e36 	andi	s0,t1,0x2e36
     834:	3030322d 	andi	s0,at,0x322d
     838:	32343037 	andi	s4,s1,0x3037
     83c:	65720030 	0x65720030
     840:	00796c70 	tge	v1,t9,0x1b1
     844:	47415453 	c1	0x1415453
     848:	48535f45 	0x48535f45
     84c:	4f445455 	c3	0x1445455
     850:	465f4e57 	c1	0x5f4e57
     854:	53494e49 	beql	k0,t1,1417c <_init-0x69bebe84>
     858:	534d0048 	beql	k0,t5,97c <_init-0x69bff684>
     85c:	45475f47 	0x45475f47
     860:	53475f54 	beql	k0,a3,185b4 <_init-0x69be7a4c>
     864:	4f534e45 	c3	0x1534e45
     868:	4f525f52 	c3	0x1525f52
     86c:	49544154 	0x49544154
     870:	535f4e4f 	beql	k0,ra,141b0 <_init-0x69bebe50>
     874:	00434e59 	0x434e59
     878:	53554256 	beql	k0,s5,111d4 <_init-0x69beee2c>
     87c:	0035335f 	0x35335f
     880:	5f47534d 	0x5f47534d
     884:	4b434142 	c2	0x1434142
     888:	554f5247 	bnel	t2,t7,151a8 <_init-0x69beae58>
     88c:	505f444e 	beql	v0,ra,119c8 <_init-0x69bee638>
     890:	435f4349 	c0	0x15f4349
     894:	474e4148 	c1	0x14e4148
     898:	6c610045 	0x6c610045
     89c:	64616572 	0x64616572
     8a0:	6f6d5f79 	0x6f6d5f79
     8a4:	65746e75 	0x65746e75
     8a8:	534d0064 	beql	k0,t5,a3c <_init-0x69bff5c4>
     8ac:	45475f47 	0x45475f47
     8b0:	57485f54 	bnel	k0,t0,18604 <_init-0x69be79fc>
     8b4:	4154535f 	0x4154535f
     8b8:	5f535554 	0x5f535554
     8bc:	434e5953 	c0	0x14e5953
     8c0:	74636100 	jalx	18d8400 <_init-0x68327c00>
     8c4:	6165725f 	0x6165725f
     8c8:	56006c64 	bnezl	s0,1ba5c <_init-0x69be45a4>
     8cc:	5f535542 	0x5f535542
     8d0:	4d003034 	bc3f	c9a4 <_init-0x69bf365c>
     8d4:	4b5f4753 	c2	0x15f4753
     8d8:	5f4c4c49 	0x5f4c4c49
     8dc:	52455355 	beql	s2,a1,15634 <_init-0x69bea9cc>
     8e0:	5050415f 	beql	v0,s0,10e60 <_init-0x69bef1a0>
     8e4:	42560053 	c0	0x560053
     8e8:	345f5355 	ori	ra,v0,0x5355
     8ec:	42560034 	c0	0x560034
     8f0:	345f5355 	ori	ra,v0,0x5355
     8f4:	5f5f0037 	0x5f5f0037
     8f8:	636e7566 	0x636e7566
     8fc:	5f005f5f 	bgtzl	t8,1867c <_init-0x69be7984>
     900:	6e696e75 	0x6e696e75
     904:	6c617473 	0x6c617473
     908:	70615f6c 	0x70615f6c
     90c:	63696c70 	0x63696c70
     910:	6f697461 	0x6f697461
     914:	6f6d5f6e 	0x6f6d5f6e
     918:	656c7564 	0x656c7564
     91c:	47534d00 	c1	0x1534d00
     920:	5445535f 	bnel	v0,a1,156a0 <_init-0x69bea960>
     924:	5050415f 	beql	v0,s0,10ea4 <_init-0x69bef15c>
     928:	4341425f 	c0	0x141425f
     92c:	4f52474b 	c3	0x152474b
     930:	00444e55 	0x444e55
     934:	7465675f 	jalx	1959d7c <_init-0x682a6284>
     938:	6c6f765f 	0x6c6f765f
     93c:	47534d00 	c1	0x1534d00
     940:	454d465f 	0x454d465f
     944:	4e49474e 	c3	0x49474e
     948:	45535f45 	0x45535f45
     94c:	55415f54 	bnel	t2,at,186a0 <_init-0x69be7960>
     950:	535f4f54 	beql	k0,ra,146a4 <_init-0x69beb95c>
     954:	004b4545 	0x4b4545
     958:	5f47534d 	0x5f47534d
     95c:	45534e55 	0x45534e55
     960:	45445f54 	0x45445f54
     964:	4f465f46 	c3	0x1465f46
     968:	535f544e 	beql	k0,ra,15aa4 <_init-0x69bea55c>
     96c:	00434e59 	0x434e59
     970:	5f47534d 	0x5f47534d
     974:	4e454d46 	c3	0x454d46
     978:	454e4947 	0x454e4947
     97c:	5445535f 	bnel	v0,a1,156fc <_init-0x69bea904>
     980:	5248545f 	beql	s2,t0,15b00 <_init-0x69bea500>
     984:	4f485345 	c3	0x1485345
     988:	4d00444c 	bc3f	11abc <_init-0x69bee544>
     98c:	4d5f4753 	0x4d5f4753
     990:	49474e45 	0x49474e45
     994:	535f454e 	beql	k0,ra,11ed0 <_init-0x69bee130>
     998:	505f5445 	beql	v0,ra,15ab0 <_init-0x69bea550>
     99c:	4d59414c 	0x4d59414c
     9a0:	5f45444f 	0x5f45444f
     9a4:	434e5953 	c0	0x14e5953
     9a8:	47534d00 	c1	0x1534d00
     9ac:	4553475f 	0x4553475f
     9b0:	524f534e 	beql	s2,t7,156ec <_init-0x69bea914>
     9b4:	544f525f 	bnel	v0,t7,15334 <_init-0x69beaccc>
     9b8:	4f495441 	c3	0x1495441
     9bc:	48435f4e 	0x48435f4e
     9c0:	45474e41 	0x45474e41
     9c4:	534d0044 	beql	k0,t5,ad8 <_init-0x69bff528>
     9c8:	45525f47 	0x45525f47
     9cc:	5f544553 	0x5f544553
     9d0:	454d4954 	0x454d4954
     9d4:	48535f44 	0x48535f44
     9d8:	4f445455 	c3	0x1445455
     9dc:	535f4e57 	beql	k0,ra,1433c <_init-0x69bebcc4>
     9e0:	00434e59 	0x434e59
     9e4:	5f47534d 	0x5f47534d
     9e8:	4c59454b 	0x4c59454b
     9ec:	004b434f 	0x4b434f
     9f0:	5f47534d 	0x5f47534d
     9f4:	474e454d 	c1	0x14e454d
     9f8:	5f454e49 	0x5f454e49
     9fc:	454b414d 	0x454b414d
     a00:	4f4f425f 	c3	0x14f425f
     a04:	52414d4b 	beql	s2,at,13f34 <_init-0x69bec0cc>
     a08:	59535f4b 	0x59535f4b
     a0c:	7300434e 	0x7300434e
     a10:	74726f68 	jalx	1c9bda0 <_init-0x67f64260>
     a14:	736e7520 	0x736e7520
     a18:	656e6769 	0x656e6769
     a1c:	6e692064 	0x6e692064
     a20:	534d0074 	beql	k0,t5,bf4 <_init-0x69bff40c>
     a24:	4d465f47 	0x4d465f47
     a28:	49474e45 	0x49474e45
     a2c:	475f454e 	c1	0x15f454e
     a30:	495f5445 	0x495f5445
     a34:	4e45544e 	c3	0x45544e
     a38:	59544953 	0x59544953
     a3c:	47534d00 	c1	0x1534d00
     a40:	4c494b5f 	0x4c494b5f
     a44:	50415f4c 	beql	v0,at,18778 <_init-0x69be7888>
     a48:	6d5f0050 	0x6d5f0050
     a4c:	746e756f 	jalx	1b9d5bc <_init-0x68062a44>
     a50:	616c665f 	0x616c665f
     a54:	645f6873 	0x645f6873
     a58:	006b7369 	0x6b7369
     a5c:	5f47534d 	0x5f47534d
     a60:	5f544553 	0x5f544553
     a64:	4e455347 	c3	0x455347
     a68:	5f524f53 	0x5f524f53
     a6c:	4d004e4f 	bc3f	143ac <_init-0x69bebc54>
     a70:	535f4753 	beql	k0,ra,127c0 <_init-0x69bed840>
     a74:	535f5445 	beql	k0,ra,15b8c <_init-0x69bea474>
     a78:	455f5359 	0x455f5359
     a7c:	445f5456 	0x445f5456
     a80:	43455445 	c0	0x1455445
     a84:	4e4f5f54 	c3	0x4f5f54
     a88:	4e59535f 	c3	0x59535f
     a8c:	534d0043 	beql	k0,t5,b9c <_init-0x69bff464>
     a90:	454d5f47 	0x454d5f47
     a94:	4e49474e 	c3	0x49474e
     a98:	4c435f45 	0x4c435f45
     a9c:	5f524145 	0x5f524145
     aa0:	535f4241 	beql	k0,ra,113a8 <_init-0x69beec58>
     aa4:	00434e59 	0x434e59
     aa8:	5f47534d 	0x5f47534d
     aac:	5f544553 	0x5f544553
     ab0:	5f59454b 	0x5f59454b
     ab4:	56524553 	bnel	s2,s2,12004 <_init-0x69bedffc>
     ab8:	455f5245 	0x455f5245
     abc:	4c42414e 	0x4c42414e
     ac0:	59535f45 	0x59535f45
     ac4:	4600434e 	ceil.w.s	$f13,$f8
     ac8:	474e454d 	c1	0x14e454d
     acc:	5f454e49 	0x5f454e49
     ad0:	45534142 	0x45534142
     ad4:	47534d00 	c1	0x1534d00
     ad8:	5445535f 	bnel	v0,a1,15858 <_init-0x69bea7a8>
     adc:	4148435f 	0x4148435f
     ae0:	5f454752 	0x5f454752
     ae4:	52415453 	beql	s2,at,15c34 <_init-0x69bea3cc>
     ae8:	59535f54 	0x59535f54
     aec:	6900434e 	0x6900434e
     af0:	6b6f766e 	0x6b6f766e
     af4:	74735f65 	jalx	1cd7d94 <_init-0x67f2826c>
     af8:	00656761 	0x656761
     afc:	5f47534d 	0x5f47534d
     b00:	474e454d 	c1	0x14e454d
     b04:	5f454e49 	0x5f454e49
     b08:	59414c50 	0x59414c50
     b0c:	4552505f 	0x4552505f
     b10:	59535f56 	0x59535f56
     b14:	4800434e 	0x4800434e
     b18:	4c50544f 	0x4c50544f
     b1c:	4e494755 	c3	0x494755
     b20:	5645445f 	bnel	s2,a1,11ca0 <_init-0x69bee360>
     b24:	5059545f 	beql	v0,t9,15ca4 <_init-0x69bea35c>
     b28:	41435f45 	0x41435f45
     b2c:	4d004452 	bc3f	11c78 <_init-0x69bee388>
     b30:	465f4753 	c1	0x5f4753
     b34:	474e454d 	c1	0x14e454d
     b38:	5f454e49 	0x5f454e49
     b3c:	5f544553 	0x5f544553
     b40:	51455246 	beql	t2,a1,1545c <_init-0x69beaba4>
     b44:	75706300 	jalx	5c18c00 <_init-0x63fe7400>
     b48:	0072735f 	0x72735f
     b4c:	5f47534d 	0x5f47534d
     b50:	544f4f42 	bnel	v0,t7,1485c <_init-0x69beb7a4>
     b54:	465f5055 	c1	0x5f5055
     b58:	53494e49 	beql	k0,t1,14480 <_init-0x69bebb80>
     b5c:	534d0048 	beql	k0,t5,c80 <_init-0x69bff380>
     b60:	48505f47 	0x48505f47
     b64:	5f4f544f 	0x5f4f544f
     b68:	4f434544 	c3	0x1434544
     b6c:	63004544 	0x63004544
     b70:	69666e6f 	0x69666e6f
     b74:	616d5f67 	0x616d5f67
     b78:	632e6e69 	0x632e6e69
     b7c:	70797400 	0x70797400
     b80:	534d0065 	beql	k0,t5,d18 <_init-0x69bff2e8>
     b84:	45535f47 	0x45535f47
     b88:	43535f54 	c0	0x1535f54
     b8c:	4e454552 	c3	0x454552
     b90:	45564153 	0x45564153
     b94:	49545f52 	0x49545f52
     b98:	535f454d 	beql	k0,ra,120d0 <_init-0x69bedf30>
     b9c:	00434e59 	0x434e59
     ba0:	5f47534d 	0x5f47534d
     ba4:	5f425355 	0x5f425355
     ba8:	54534f48 	bnel	v0,s3,148cc <_init-0x69beb734>
     bac:	5349445f 	beql	k0,t1,11d2c <_init-0x69bee2d4>
     bb0:	4e495f4b 	c3	0x495f4b
     bb4:	47534d00 	c1	0x1534d00
     bb8:	4e454d5f 	c3	0x454d5f
     bbc:	454e4947 	0x454e4947
     bc0:	5445535f 	bnel	v0,a1,15940 <_init-0x69bea6c0>
     bc4:	5f42415f 	0x5f42415f
     bc8:	4e554f43 	c3	0x554f43
     bcc:	59535f54 	0x59535f54
     bd0:	4d00434e 	bc3f	1190c <_init-0x69bee6f4>
     bd4:	455f4753 	0x455f4753
     bd8:	5245544e 	beql	s2,a1,15d14 <_init-0x69bea2ec>
     bdc:	5243535f 	beql	s2,v1,1595c <_init-0x69bea6a4>
     be0:	534e4545 	beql	k0,t6,120f8 <_init-0x69bedf08>
     be4:	52455641 	beql	s2,a1,164ec <_init-0x69be9b14>
     be8:	4e59535f 	c3	0x59535f
     bec:	68630043 	0x68630043
     bf0:	6d69746b 	0x6d69746b
     bf4:	4d007265 	bc3f	1d58c <_init-0x69be2a74>
     bf8:	465f4753 	c1	0x5f4753
     bfc:	474e454d 	c1	0x14e454d
     c00:	5f454e49 	0x5f454e49
     c04:	5f544553 	0x5f544553
     c08:	444e4142 	0x444e4142
     c0c:	444f4d5f 	0x444f4d5f
     c10:	534d0045 	beql	k0,t5,d28 <_init-0x69bff2d8>
     c14:	4d465f47 	0x4d465f47
     c18:	49474e45 	0x49474e45
     c1c:	415f454e 	0x415f454e
     c20:	5f4f5455 	0x5f4f5455
     c24:	4b454553 	c2	0x1454553
     c28:	45564f5f 	0x45564f5f
     c2c:	63610052 	0x63610052
     c30:	72775f74 	0x72775f74
     c34:	6c657469 	0x6c657469
     c38:	74735f00 	jalx	1cd7c00 <_init-0x67f28400>
     c3c:	5f65726f 	0x5f65726f
     c40:	74737973 	jalx	1cde5cc <_init-0x67f21a34>
     c44:	735f6d65 	0x735f6d65
     c48:	69747465 	0x69747465
     c4c:	6100676e 	0x6100676e
     c50:	765f7070 	jalx	97dc1c0 <_init-0x60423e40>
     c54:	73007261 	0x73007261
     c58:	6b6c635f 	0x6b6c635f
     c5c:	6d6f645f 	0x6d6f645f
     c60:	5f6e6961 	0x5f6e6961
     c64:	6e6e7572 	0x6e6e7572
     c68:	00676e69 	0x676e69
     c6c:	5f47534d 	0x5f47534d
     c70:	45574f50 	0x45574f50
     c74:	464f5f52 	c1	0x4f5f52
     c78:	534d0046 	beql	k0,t5,d94 <_init-0x69bff26c>
     c7c:	48535f47 	0x48535f47
     c80:	4354524f 	c0	0x154524f
     c84:	545f5455 	bnel	v0,ra,15ddc <_init-0x69bea224>
     c88:	54554f56 	bnel	v0,s5,149e4 <_init-0x69beb61c>
     c8c:	41545300 	0x41545300
     c90:	505f4547 	beql	v0,ra,121b0 <_init-0x69bede50>
     c94:	4e45474c 	c3	0x45474c
     c98:	70610052 	udi2	v1,at,zero,0x1
     c9c:	62696c70 	0x62696c70
     ca0:	62696c5f 	0x62696c5f
     ca4:	47534d00 	c1	0x1534d00
     ca8:	4e454d5f 	c3	0x454d5f
     cac:	454e4947 	0x454e4947
     cb0:	5445535f 	bnel	v0,a1,15a30 <_init-0x69bea5d0>
     cb4:	5f42415f 	0x5f42415f
     cb8:	5458454e 	bnel	v0,t8,121f4 <_init-0x69bede0c>
     cbc:	4e59535f 	c3	0x59535f
     cc0:	534d0043 	beql	k0,t5,dd0 <_init-0x69bff230>
     cc4:	4d465f47 	0x4d465f47
     cc8:	49474e45 	0x49474e45
     ccc:	4c5f454e 	0x4c5f454e
     cd0:	49454e49 	0x49454e49
     cd4:	4e495f4e 	c3	0x495f4e
     cd8:	54524553 	bnel	v0,s2,12228 <_init-0x69beddd8>
     cdc:	47534d00 	c1	0x1534d00
     ce0:	4e454d5f 	c3	0x454d5f
     ce4:	454e4947 	0x454e4947
     ce8:	4f54535f 	c3	0x154535f
     cec:	59535f50 	0x59535f50
     cf0:	4d00434e 	bc3f	11a2c <_init-0x69bee5d4>
     cf4:	475f4753 	c1	0x15f4753
     cf8:	435f5445 	c0	0x15f5445
     cfc:	47524148 	c1	0x1524148
     d00:	54535f45 	bnel	v0,s3,18a18 <_init-0x69be75e8>
     d04:	53555441 	beql	k0,s5,15e0c <_init-0x69bea1f4>
     d08:	4e59535f 	c3	0x59535f
     d0c:	534d0043 	beql	k0,t5,e1c <_init-0x69bff1e4>
     d10:	454d5f47 	0x454d5f47
     d14:	4e49474e 	c3	0x49474e
     d18:	45535f45 	0x45535f45
     d1c:	4c505f54 	0x4c505f54
     d20:	50535941 	beql	v0,s3,17228 <_init-0x69be8dd8>
     d24:	5f444545 	0x5f444545
     d28:	434e5953 	c0	0x14e5953
     d2c:	47534d00 	c1	0x1534d00
     d30:	4e454d5f 	c3	0x454d5f
     d34:	454e4947 	0x454e4947
     d38:	5445475f 	bnel	v0,a1,12ab8 <_init-0x69bed548>
     d3c:	4c49465f 	0x4c49465f
     d40:	54415045 	bnel	v0,at,14e58 <_init-0x69beb1a8>
     d44:	59535f48 	0x59535f48
     d48:	6800434e 	0x6800434e
     d4c:	6c70746f 	0x6c70746f
     d50:	6e696775 	0x6e696775
     d54:	7665645f 	jalx	995917c <_init-0x602a6e84>
     d58:	7079745f 	udi15	v1,t9,t6,0x11
     d5c:	00655f65 	0x655f65
     d60:	6e69616d 	0x6e69616d
     d64:	79656b00 	0x79656b00
     d68:	6c61765f 	0x6c61765f
     d6c:	47534d00 	c1	0x1534d00
     d70:	4e454d5f 	c3	0x454d5f
     d74:	454e4947 	0x454e4947
     d78:	5445475f 	bnel	v0,a1,12af8 <_init-0x69bed508>
     d7c:	474e455f 	c1	0x14e455f
     d80:	5f454e49 	0x5f454e49
     d84:	4f464e49 	c3	0x1464e49
     d88:	4e59535f 	c3	0x59535f
     d8c:	534d0043 	beql	k0,t5,e9c <_init-0x69bff164>
     d90:	45525f47 	0x45525f47
     d94:	5f544553 	0x5f544553
     d98:	5f535953 	0x5f535953
     d9c:	454c4449 	0x454c4449
     da0:	4d49545f 	0x4d49545f
     da4:	5f535245 	0x5f535245
     da8:	434e5953 	c0	0x14e5953
     dac:	4f525000 	c3	0x1525000
     db0:	53534543 	beql	k0,s3,122c0 <_init-0x69bedd40>
     db4:	414e414d 	0x414e414d
     db8:	5f524547 	0x5f524547
     dbc:	45534142 	0x45534142
     dc0:	47534d00 	c1	0x1534d00
     dc4:	5345525f 	beql	k0,a1,15744 <_init-0x69bea8bc>
     dc8:	475f5445 	c1	0x15f5445
     dcc:	534e4553 	beql	k0,t6,1231c <_init-0x69bedce4>
     dd0:	525f524f 	beql	s2,ra,15710 <_init-0x69bea8f0>
     dd4:	5441544f 	bnel	v0,at,15f14 <_init-0x69bea0ec>
     dd8:	004e4f49 	0x4e4f49
     ddc:	5f47534d 	0x5f47534d
     de0:	4e454d46 	c3	0x454d46
     de4:	454e4947 	0x454e4947
     de8:	5445475f 	bnel	v0,a1,12b68 <_init-0x69bed498>
     dec:	4554535f 	0x4554535f
     df0:	5f4f4552 	0x5f4f4552
     df4:	45444f4d 	0x45444f4d
     df8:	48545000 	cfc2	s4,$10
     dfc:	44414552 	0x44414552
     e00:	54554d5f 	bnel	v0,s5,14380 <_init-0x69bebc80>
     e04:	525f5845 	beql	s2,ra,16f1c <_init-0x69be90e4>
     e08:	52554345 	beql	s2,s5,11b20 <_init-0x69bee4e0>
     e0c:	45564953 	0x45564953
     e10:	726f6600 	0x726f6600
     e14:	0074616d 	0x74616d
     e18:	6f665f73 	0x6f665f73
     e1c:	6564746e 	0x6564746e
     e20:	534d0073 	beql	k0,t5,ff0 <_init-0x69bff010>
     e24:	45525f47 	0x45525f47
     e28:	5f594c50 	0x5f594c50
     e2c:	474e454d 	c1	0x14e454d
     e30:	5f454e49 	0x5f454e49
     e34:	5f544547 	0x5f544547
     e38:	54415453 	bnel	v0,at,15f88 <_init-0x69bea078>
     e3c:	41505f45 	0x41505f45
     e40:	44455355 	0x44455355
     e44:	6f687300 	0x6f687300
     e48:	69207472 	0x69207472
     e4c:	4d00746e 	msub.ps	$f17,$f8,$f14,$f0
     e50:	535f4753 	beql	k0,ra,12ba0 <_init-0x69bed460>
     e54:	415f5445 	0x415f5445
     e58:	465f5050 	c1	0x5f5050
     e5c:	4745524f 	c1	0x145524f
     e60:	4e554f52 	c3	0x554f52
     e64:	59535f44 	0x59535f44
     e68:	7500434e 	jalx	4010d38 <_init-0x65bef2c8>
     e6c:	69746273 	0x69746273
     e70:	0072656d 	0x72656d
     e74:	5f47534d 	0x5f47534d
     e78:	5f544553 	0x5f544553
     e7c:	5f464544 	0x5f464544
     e80:	544e4f46 	bnel	v0,t6,14b9c <_init-0x69beb464>
     e84:	4e59535f 	c3	0x59535f
     e88:	64750043 	0x64750043
     e8c:	5f6b7369 	0x5f6b7369
     e90:	756c6f76 	jalx	5b1bdd8 <_init-0x640e4228>
     e94:	4d00656d 	bc3f	1a44c <_init-0x69be5bb4>
     e98:	4c5f4753 	0x4c5f4753
     e9c:	565f574f 	bnel	s2,ra,16bdc <_init-0x69be9424>
     ea0:	41544c4f 	0x41544c4f
     ea4:	4d004547 	bc3f	123c4 <_init-0x69bedc3c>
     ea8:	465f4753 	c1	0x5f4753
     eac:	474e454d 	c1	0x14e454d
     eb0:	5f454e49 	0x5f454e49
     eb4:	5f544553 	0x5f544553
     eb8:	45544e45 	0x45544e45
     ebc:	54535f52 	bnel	v0,s3,18c08 <_init-0x69be73f8>
     ec0:	42444e41 	c0	0x444e41
     ec4:	534d0059 	beql	k0,t5,102c <_init-0x69bfefd4>
     ec8:	45535f47 	0x45535f47
     ecc:	55415f54 	bnel	t2,at,18c20 <_init-0x69be73e0>
     ed0:	535f4f54 	beql	k0,ra,14c24 <_init-0x69beb3dc>
     ed4:	444e4154 	0x444e4154
     ed8:	545f5942 	bnel	v0,ra,173e4 <_init-0x69be8c1c>
     edc:	5f454d49 	0x5f454d49
     ee0:	434e5953 	c0	0x14e5953
     ee4:	776f7000 	jalx	dbdc000 <_init-0x5c024000>
     ee8:	6e6f7265 	0x6e6f7265
     eec:	616e655f 	0x616e655f
     ef0:	00656c62 	0x656c62
     ef4:	52485450 	beql	s2,t0,16038 <_init-0x69be9fc8>
     ef8:	5f444145 	0x5f444145
     efc:	4554554d 	0x4554554d
     f00:	4f4e5f58 	c3	0x14e5f58
     f04:	4c414d52 	0x4c414d52
     f08:	47534d00 	c1	0x1534d00
     f0c:	5445535f 	bnel	v0,a1,15c8c <_init-0x69bea374>
     f10:	4d49545f 	0x4d49545f
     f14:	535f4445 	beql	k0,ra,1202c <_init-0x69bedfd4>
     f18:	44545554 	0x44545554
     f1c:	5f4e574f 	0x5f4e574f
     f20:	454d4954 	0x454d4954
     f24:	4e59535f 	c3	0x59535f
     f28:	695f0043 	0x695f0043
     f2c:	6c625f73 	0x6c625f73
     f30:	5f6b636f 	0x5f6b636f
     f34:	5f766564 	0x5f766564
     f38:	6d726f66 	0x6d726f66
     f3c:	64657461 	0x64657461
     f40:	47534d00 	c1	0x1534d00
     f44:	5445535f 	bnel	v0,a1,15cc4 <_init-0x69bea33c>
     f48:	5050415f 	beql	v0,s0,114c8 <_init-0x69beeb38>
     f4c:	4341425f 	c0	0x141425f
     f50:	4f52474b 	c3	0x152474b
     f54:	5f444e55 	0x5f444e55
     f58:	434e5953 	c0	0x14e5953
     f5c:	75727400 	jalx	5c9d000 <_init-0x63f63000>
     f60:	6f700065 	0x6f700065
     f64:	6f726577 	0x6f726577
     f68:	655f6666 	0x655f6666
     f6c:	6c62616e 	0x6c62616e
     f70:	534d0065 	beql	k0,t5,1108 <_init-0x69bfeef8>
     f74:	54535f47 	bnel	v0,s3,18c94 <_init-0x69be736c>
     f78:	485f504f 	0x485f504f
     f7c:	5f445241 	0x5f445241
     f80:	43544157 	c0	0x1544157
     f84:	5f474448 	0x5f474448
     f88:	434e5953 	c0	0x14e5953
     f8c:	69616d00 	0x69616d00
     f90:	69645f6e 	0x69645f6e
     f94:	61006b73 	0x61006b73
     f98:	00636772 	tlt	v1,v1,0x19d
     f9c:	696e695f 	0x696e695f
     fa0:	42450074 	c0	0x450074
     fa4:	5f4b4f4f 	0x5f4b4f4f
     fa8:	45534142 	0x45534142
     fac:	67736d00 	0x67736d00
     fb0:	7065725f 	udi15	v1,a1,t6,0x9
     fb4:	745f796c 	jalx	17de5b0 <_init-0x68421a50>
     fb8:	5f657079 	0x5f657079
     fbc:	534d0065 	beql	k0,t5,1154 <_init-0x69bfeeac>
     fc0:	4d465f47 	0x4d465f47
     fc4:	49474e45 	0x49474e45
     fc8:	475f454e 	c1	0x15f454e
     fcc:	415f5445 	0x415f5445
     fd0:	5f4f5455 	0x5f4f5455
     fd4:	4b454553 	c2	0x1454553
     fd8:	47534d00 	c1	0x1534d00
     fdc:	454d465f 	0x454d465f
     fe0:	4e49474e 	c3	0x49474e
     fe4:	45475f45 	0x45475f45
     fe8:	4e415f54 	c3	0x415f54
     fec:	4e4e4554 	c3	0x4e4554
     ff0:	534d0041 	beql	k0,t5,10f8 <_init-0x69bfef08>
     ff4:	454d5f47 	0x454d5f47
     ff8:	4e49474e 	c3	0x49474e
     ffc:	45535f45 	0x45535f45
    1000:	49465f54 	0x49465f54
    1004:	4150454c 	0x4150454c
    1008:	535f4854 	beql	k0,ra,1315c <_init-0x69becea4>
    100c:	00434e59 	0x434e59
    1010:	5f47534d 	0x5f47534d
    1014:	524f4853 	beql	s2,t7,13164 <_init-0x69bece9c>
    1018:	54554354 	bnel	v0,s5,11d6c <_init-0x69bee294>
    101c:	4c45445f 	0x4c45445f
    1020:	00455445 	0x455445
    1024:	6e6f635f 	0x6e6f635f
    1028:	5f676966 	0x5f676966
    102c:	6d617273 	0x6d617273
    1030:	5f00636f 	bgtzl	t8,19df0 <_init-0x69be6210>
    1034:	74736e69 	jalx	1cdb9a4 <_init-0x67f2465c>
    1038:	5f6c6c61 	0x5f6c6c61
    103c:	6c657270 	0x6c657270
    1040:	5f64616f 	0x5f64616f
    1044:	72616863 	0x72616863
    1048:	7665645f 	jalx	995917c <_init-0x602a6e84>
    104c:	6f6d6b5f 	0x6f6d6b5f
    1050:	656c7564 	0x656c7564
    1054:	6e695f00 	0x6e695f00
    1058:	6c617473 	0x6c617473
    105c:	70615f6c 	0x70615f6c
    1060:	63696c70 	0x63696c70
    1064:	6f697461 	0x6f697461
    1068:	6f6d5f6e 	0x6f6d5f6e
    106c:	656c7564 	0x656c7564
    1070:	615f7300 	0x615f7300
    1074:	735f6164 	0x735f6164
    1078:	7065656c 	0x7065656c
    107c:	6d69745f 	0x6d69745f
    1080:	5f730065 	0x5f730065
    1084:	5f6b6c63 	0x5f6b6c63
    1088:	616d6f64 	0x616d6f64
    108c:	625f6e69 	0x625f6e69
    1090:	00746f6f 	0x746f6f
    1094:	6e6f6d75 	0x6e6f6d75
    1098:	726f7469 	0x726f7469
    109c:	6772615f 	0x6772615f
    10a0:	47534d00 	c1	0x1534d00
    10a4:	5445535f 	bnel	v0,a1,15e24 <_init-0x69bea1dc>
    10a8:	59454b5f 	0x59454b5f
    10ac:	50414d5f 	beql	v0,at,1462c <_init-0x69beb9d4>
    10b0:	474e4950 	c1	0x14e4950
    10b4:	4e59535f 	c3	0x59535f
    10b8:	54530043 	bnel	v0,s3,11c8 <_init-0x69bfee38>
    10bc:	5f454741 	0x5f454741
    10c0:	5347534d 	beql	k0,a3,15df8 <_init-0x69bea208>
    10c4:	45565245 	0x45565245
    10c8:	534d0052 	beql	k0,t5,1214 <_init-0x69bfedec>
    10cc:	45525f47 	0x45525f47
    10d0:	5f544553 	0x5f544553
    10d4:	45524353 	0x45524353
    10d8:	41534e45 	0x41534e45
    10dc:	5f524556 	0x5f524556
    10e0:	454d4954 	0x454d4954
    10e4:	59535f52 	0x59535f52
    10e8:	7500434e 	jalx	4010d38 <_init-0x65bef2c8>
    10ec:	765f6573 	jalx	97d95cc <_init-0x60426a34>
    10f0:	00737562 	0x737562
    10f4:	5f47534d 	0x5f47534d
    10f8:	5f544553 	0x5f544553
    10fc:	52414843 	beql	s2,at,1320c <_init-0x69becdf4>
    1100:	505f4547 	beql	v0,ra,12620 <_init-0x69bed9e0>
    1104:	4d415241 	0x4d415241
    1108:	4e59535f 	c3	0x59535f
    110c:	5f730043 	0x5f730043
    1110:	5f766564 	0x5f766564
    1114:	4d006466 	madd.ps	$f17,$f8,$f12,$f0
    1118:	4d5f4753 	0x4d5f4753
    111c:	5f4e4941 	0x5f4e4941
    1120:	4b534944 	c2	0x1534944
    1124:	4148435f 	0x4148435f
    1128:	4445474e 	0x4445474e
    112c:	64697000 	0x64697000
    1130:	6c00745f 	0x6c00745f
    1134:	20676e6f 	addi	a3,v1,28271
    1138:	676e6f6c 	0x676e6f6c
    113c:	736e7520 	0x736e7520
    1140:	656e6769 	0x656e6769
    1144:	6e692064 	0x6e692064
    1148:	675f0074 	0x675f0074
    114c:	735f7465 	0x735f7465
    1150:	635f7379 	0x635f7379
    1154:	69666e6f 	0x69666e6f
    1158:	73007367 	0x73007367
    115c:	65646e65 	0x65646e65
    1160:	69705f72 	0x69705f72
    1164:	4f480064 	c3	0x1480064
    1168:	554c5054 	bnel	t2,t4,152bc <_init-0x69bead44>
    116c:	5f4e4947 	0x5f4e4947
    1170:	5f564544 	0x5f564544
    1174:	45505954 	0x45505954
    1178:	434f4c5f 	c0	0x14f4c5f
    117c:	56004c41 	bnezl	s0,14284 <_init-0x69bebd7c>
    1180:	5f535542 	0x5f535542
    1184:	544c4f56 	bnel	v0,t4,14ee0 <_init-0x69beb120>
    1188:	5f454741 	0x5f454741
    118c:	645f0054 	0x645f0054
    1190:	6f5f7672 	0x6f5f7672
    1194:	636c5f70 	0x636c5f70
    1198:	706f5f64 	0x706f5f64
    119c:	645f6e65 	0x645f6e65
    11a0:	4d007665 	bc3f	1eb38 <_init-0x69be14c8>
    11a4:	435f4753 	c0	0x15f4753
    11a8:	5f445241 	0x5f445241
    11ac:	2f004e49 	sltiu	zero,t8,20041
    11b0:	64677963 	0x64677963
    11b4:	65766972 	0x65766972
    11b8:	622f632f 	0x622f632f
    11bc:	6e616e69 	0x6e616e69
    11c0:	2f6e616e 	sltiu	t6,k1,24942
    11c4:	31327375 	andi	s2,t1,0x7375
    11c8:	622f4633 	0x622f4633
    11cc:	6e616e69 	0x6e616e69
    11d0:	5f6e616e 	0x5f6e616e
    11d4:	31327375 	andi	s2,t1,0x7375
    11d8:	752f6633 	jalx	4bd98cc <_init-0x65026734>
    11dc:	2f626f76 	sltiu	v0,k1,28534
    11e0:	6b647375 	0x6b647375
    11e4:	66333132 	0x66333132
    11e8:	7361632f 	0x7361632f
    11ec:	70612f65 	0x70612f65
    11f0:	632f7370 	0x632f7370
    11f4:	69666e6f 	0x69666e6f
    11f8:	54500067 	bnel	v0,s0,1398 <_init-0x69bfec68>
    11fc:	41455248 	0x41455248
    1200:	52505f44 	beql	s2,s0,18f14 <_init-0x69be70ec>
    1204:	5345434f 	beql	k0,a1,11f44 <_init-0x69bee0bc>
    1208:	48535f53 	0x48535f53
    120c:	44455241 	0x44455241
    1210:	47534d00 	c1	0x1534d00
    1214:	4c494b5f 	0x4c494b5f
    1218:	50415f4c 	beql	v0,at,18f4c <_init-0x69be70b4>
    121c:	59535f50 	0x59535f50
    1220:	4d00434e 	bc3f	11f5c <_init-0x69bee0a4>
    1224:	545f4753 	bnel	v0,ra,12f74 <_init-0x69bed08c>
    1228:	454d4548 	0x454d4548
    122c:	4148435f 	0x4148435f
    1230:	4445474e 	0x4445474e
    1234:	47534d00 	c1	0x1534d00
    1238:	4e454d5f 	c3	0x454d5f
    123c:	454e4947 	0x454e4947
    1240:	5445535f 	bnel	v0,a1,15fc0 <_init-0x69bea040>
    1244:	5349445f 	beql	k0,t1,123c4 <_init-0x69bedc3c>
    1248:	444f4d50 	0x444f4d50
    124c:	59535f45 	0x59535f45
    1250:	4d00434e 	bc3f	11f8c <_init-0x69bee074>
    1254:	4d5f4753 	0x4d5f4753
    1258:	49474e45 	0x49474e45
    125c:	535f454e 	beql	k0,ra,12798 <_init-0x69bed868>
    1260:	415f5445 	0x415f5445
    1264:	55415f42 	bnel	t2,at,18f70 <_init-0x69be7090>
    1268:	535f4f54 	beql	k0,ra,14fbc <_init-0x69beb044>
    126c:	00434e59 	0x434e59
    1270:	5f47534d 	0x5f47534d
    1274:	5f544553 	0x5f544553
    1278:	5f505041 	0x5f505041
    127c:	45524f46 	0x45524f46
    1280:	554f5247 	bnel	t2,t7,15ba0 <_init-0x69bea460>
    1284:	4d00444e 	bc3f	123c0 <_init-0x69bedc40>
    1288:	555f4753 	bnel	t2,ra,12fd8 <_init-0x69bed028>
    128c:	415f4253 	0x415f4253
    1290:	54504144 	bnel	v0,s0,117a4 <_init-0x69bee85c>
    1294:	4f5f524f 	c3	0x15f524f
    1298:	4d005455 	bc3f	163f0 <_init-0x69be9c10>
    129c:	525f4753 	beql	s2,ra,12fec <_init-0x69bed014>
    12a0:	54455345 	bnel	v0,a1,15fb8 <_init-0x69bea048>
    12a4:	4645445f 	c1	0x45445f
    12a8:	544c5541 	bnel	v0,t4,167b0 <_init-0x69be9850>
    12ac:	4746435f 	c1	0x146435f
    12b0:	544f4800 	bnel	v0,t7,132b4 <_init-0x69becd4c>
    12b4:	47554c50 	c1	0x1554c50
    12b8:	445f4e49 	0x445f4e49
    12bc:	545f5645 	bnel	v0,ra,16bd4 <_init-0x69be942c>
    12c0:	5f455059 	0x5f455059
    12c4:	534f4855 	beql	k0,t7,1341c <_init-0x69becbe4>
    12c8:	534d0054 	beql	k0,t5,141c <_init-0x69bfebe4>
    12cc:	45535f47 	0x45535f47
    12d0:	52455652 	beql	s2,a1,16c1c <_init-0x69be93e4>
    12d4:	5341425f 	beql	k0,at,11c54 <_init-0x69bee3ac>
    12d8:	534d0045 	beql	k0,t5,13f0 <_init-0x69bfec10>
    12dc:	45525f47 	0x45525f47
    12e0:	5f544553 	0x5f544553
    12e4:	4e455347 	c3	0x455347
    12e8:	5f524f53 	0x5f524f53
    12ec:	4b414853 	c2	0x1414853
    12f0:	534d0045 	beql	k0,t5,1408 <_init-0x69bfebf8>
    12f4:	454d5f47 	0x454d5f47
    12f8:	4e49474e 	c3	0x49474e
    12fc:	45525f45 	0x45525f45
    1300:	454d5553 	0x454d5553
    1304:	4e59535f 	c3	0x59535f
    1308:	534d0043 	beql	k0,t5,1418 <_init-0x69bfebe8>
    130c:	49475f47 	0x49475f47
    1310:	45445f46 	0x45445f46
    1314:	45444f43 	0x45444f43
    1318:	47534d00 	c1	0x1534d00
    131c:	4e454d5f 	c3	0x454d5f
    1320:	454e4947 	0x454e4947
    1324:	5742465f 	bnel	k0,v0,12ca4 <_init-0x69bed35c>
    1328:	59535f44 	0x59535f44
    132c:	4d00434e 	bc3f	12068 <_init-0x69bedf98>
    1330:	4d5f4753 	0x4d5f4753
    1334:	49474e45 	0x49474e45
    1338:	535f454e 	beql	k0,ra,12874 <_init-0x69bed78c>
    133c:	465f5445 	c1	0x5f5445
    1340:	49454c49 	0x49454c49
    1344:	5845444e 	0x5845444e
    1348:	4e59535f 	c3	0x59535f
    134c:	6f6c0043 	0x6f6c0043
    1350:	6c20676e 	0x6c20676e
    1354:	20676e6f 	addi	a3,v1,28271
    1358:	00746e69 	0x746e69
    135c:	5f47534d 	0x5f47534d
    1360:	4e454d46 	c3	0x454d46
    1364:	454e4947 	0x454e4947
    1368:	5445475f 	bnel	v0,a1,130e8 <_init-0x69becf18>
    136c:	4e41425f 	c3	0x41425f
    1370:	4f4d5f44 	c3	0x14d5f44
    1374:	69004544 	0x69004544
    1378:	6b6f766e 	0x6b6f766e
    137c:	74735f65 	jalx	1cd7d94 <_init-0x67f2826c>
    1380:	5f656761 	0x5f656761
    1384:	73750065 	0x73750065
    1388:	70645f65 	0x70645f65
    138c:	766e6900 	jalx	9b9a400 <_init-0x60065c00>
    1390:	5f656b6f 	0x5f656b6f
    1394:	67617473 	0x67617473
    1398:	00735f65 	0x735f65
    139c:	52485450 	beql	s2,t0,164e0 <_init-0x69be9b20>
    13a0:	5f444145 	0x5f444145
    13a4:	434f5250 	c0	0x14f5250
    13a8:	5f535345 	0x5f535345
    13ac:	56495250 	bnel	s2,t1,15cf0 <_init-0x69bea310>
    13b0:	00455441 	0x455441
    13b4:	5f47534d 	0x5f47534d
    13b8:	474e454d 	c1	0x14e454d
    13bc:	5f454e49 	0x5f454e49
    13c0:	4b454553 	c2	0x1454553
    13c4:	4e59535f 	c3	0x59535f
    13c8:	534d0043 	beql	k0,t5,14d8 <_init-0x69bfeb28>
    13cc:	454e5f47 	0x454e5f47
    13d0:	475f4445 	c1	0x15f4445
    13d4:	505f4e45 	beql	v0,ra,14cec <_init-0x69beb314>
    13d8:	5453494c 	bnel	v0,s3,1390c <_init-0x69bec6f4>
    13dc:	63706100 	0x63706100
    13e0:	69666e6f 	0x69666e6f
    13e4:	61685f67 	0x61685f67
    13e8:	656c646e 	0x656c646e
    13ec:	544f4800 	bnel	v0,t7,133f0 <_init-0x69becc10>
    13f0:	47554c50 	c1	0x1554c50
    13f4:	445f4e49 	0x445f4e49
    13f8:	545f5645 	bnel	v0,ra,16d10 <_init-0x69be92f0>
    13fc:	5f455059 	0x5f455059
    1400:	454e4f4e 	0x454e4f4e
    1404:	47534d00 	c1	0x1534d00
    1408:	5045525f 	beql	v0,a1,15d88 <_init-0x69bea278>
    140c:	535f594c 	beql	k0,ra,17940 <_init-0x69be86c0>
    1410:	45434355 	0x45434355
    1414:	4d005353 	bc3f	16164 <_init-0x69be9e9c>
    1418:	4e5f4753 	c3	0x5f4753
    141c:	004c4c55 	0x4c4c55
    1420:	5f67736d 	0x5f67736d
    1424:	6c706572 	0x6c706572
    1428:	00745f79 	0x745f79
    142c:	5f47534d 	0x5f47534d
    1430:	5f544547 	0x5f544547
    1434:	5f505041 	0x5f505041
    1438:	54415453 	bnel	v0,at,16588 <_init-0x69be9a78>
    143c:	535f5355 	beql	k0,ra,16194 <_init-0x69be9e6c>
    1440:	00434e59 	0x434e59
    1444:	6779632f 	0x6779632f
    1448:	76697264 	jalx	9a5c990 <_init-0x601a3670>
    144c:	2f652f65 	sltiu	a1,k1,12133
    1450:	565f4343 	bnel	s2,ra,12160 <_init-0x69bedea0>
    1454:	5f574549 	0x5f574549
    1458:	544f4f52 	bnel	v0,t7,151a4 <_init-0x69beae5c>
    145c:	776d682f 	jalx	db5a0bc <_init-0x5c0a5f44>
    1460:	755f6965 	jalx	57da594 <_init-0x64425a6c>
    1464:	33313273 	andi	s1,t9,0x3273
    1468:	6e695f66 	0x6e695f66
    146c:	76752f74 	jalx	9d4bdd0 <_init-0x5feb4230>
    1470:	662f626f 	0x662f626f
    1474:	2f707377 	sltiu	s0,k1,29559
    1478:	7362696c 	0x7362696c
    147c:	6c2f6372 	0x6c2f6372
    1480:	2f636269 	sltiu	v1,k1,25193
    1484:	656e6567 	0x656e6567
    1488:	2f6c6172 	sltiu	t4,k1,24946
    148c:	726f7463 	0x726f7463
    1490:	65786500 	0x65786500
    1494:	65725f63 	0x65725f63
    1498:	7361656c 	0x7361656c
    149c:	72630065 	0x72630065
    14a0:	67656274 	0x67656274
    14a4:	2e316e69 	sltiu	s1,s1,28265
    14a8:	64700063 	0x64700063
    14ac:	00617461 	0x617461
    14b0:	72687470 	0x72687470
    14b4:	5f646165 	0x5f646165
    14b8:	63736564 	0x63736564
    14bc:	61700072 	0x61700072
    14c0:	70006874 	0x70006874
    14c4:	735f6469 	0x735f6469
    14c8:	00657661 	0x657661
    14cc:	69745f70 	0x69745f70
    14d0:	69760064 	0x69760064
    14d4:	6c626973 	0x6c626973
    14d8:	68745f65 	0x68745f65
    14dc:	64616572 	0x64616572
    14e0:	6d756e5f 	0x6d756e5f
    14e4:	68747000 	0x68747000
    14e8:	64616572 	0x64616572
    14ec:	7000745f 	udi15	zero,zero,t6,0x11
    14f0:	65726874 	0x65726874
    14f4:	6b5f6461 	0x6b5f6461
    14f8:	735f7965 	0x735f7965
    14fc:	63757274 	0x63757274
    1500:	65640074 	0x65640074
    1504:	5f726373 	0x5f726373
    1508:	64616568 	0x64616568
    150c:	766e6500 	jalx	9b99400 <_init-0x60066c00>
    1510:	75730070 	jalx	5cc01c0 <_init-0x63f3fe40>
    1514:	69705f62 	0x69705f62
    1518:	72615f64 	0x72615f64
    151c:	00796172 	tlt	v1,t9,0x185
    1520:	72615f5f 	udi15	s3,at,t3,0x1d
    1524:	6e690067 	0x6e690067
    1528:	64695f74 	0x64695f74
    152c:	725f7000 	0x725f7000
    1530:	746e6565 	jalx	1b99594 <_init-0x68066a6c>
    1534:	6e6f6300 	0x6e6f6300
    1538:	746e6574 	jalx	1b995d0 <_init-0x68066a30>
    153c:	736e6f69 	0x736e6f69
    1540:	65706f63 	0x65706f63
    1544:	635f7000 	0x635f7000
    1548:	6e61656c 	0x6e61656c
    154c:	73007075 	0x73007075
    1550:	64656863 	0x64656863
    1554:	61726170 	0x61726170
    1558:	5f5f006d 	0x5f5f006d
    155c:	434e5546 	c0	0x14e5546
    1560:	4e4f4954 	c3	0x4f4954
    1564:	69005f5f 	0x69005f5f
    1568:	7265686e 	0x7265686e
    156c:	63737469 	0x63737469
    1570:	00646568 	0x646568
    1574:	74697865 	jalx	1a5e194 <_init-0x681a1e6c>
    1578:	636e6f5f 	0x636e6f5f
    157c:	72700065 	0x72700065
    1580:	7365636f 	0x7365636f
    1584:	74735f73 	jalx	1cd7dcc <_init-0x67f28234>
    1588:	00747261 	0x747261
    158c:	70735f70 	0x70735f70
    1590:	66696365 	0x66696365
    1594:	66006369 	0x66006369
    1598:	00656c69 	0x656c69
    159c:	78657461 	0x78657461
    15a0:	665f7469 	0x665f7469
    15a4:	00636e75 	0x636e75
    15a8:	52485450 	beql	s2,t0,166ec <_init-0x69be9914>
    15ac:	5f444145 	0x5f444145
    15b0:	41455243 	0x41455243
    15b4:	4a5f4554 	c2	0x5f4554
    15b8:	414e494f 	0x414e494f
    15bc:	00454c42 	0x454c42
    15c0:	636f7270 	0x636f7270
    15c4:	5f737365 	0x5f737365
    15c8:	65006469 	0x65006469
    15cc:	5f746978 	0x5f746978
    15d0:	65726874 	0x65726874
    15d4:	745f6461 	jalx	17d9184 <_init-0x68426e7c>
    15d8:	69786500 	0x69786500
    15dc:	61765f74 	0x61765f74
    15e0:	6573006c 	0x6573006c
    15e4:	6500666c 	0x6500666c
    15e8:	5f746978 	0x5f746978
    15ec:	65726874 	0x65726874
    15f0:	6e5f6461 	0x6e5f6461
    15f4:	6c006d75 	0x6c006d75
    15f8:	00656e69 	0x656e69
    15fc:	7272655f 	udi15	s3,s2,t4,0x15
    1600:	70006f6e 	0x70006f6e
    1604:	6174735f 	0x6174735f
    1608:	5f006b63 	bgtzl	t8,1c398 <_init-0x69be3c68>
    160c:	65726874 	0x65726874
    1610:	695f6461 	0x695f6461
    1614:	00745f64 	0x745f64
    1618:	6f6a5f70 	0x6f6a5f70
    161c:	6e696e69 	0x6e696e69
    1620:	65640067 	0x65640067
    1624:	68636174 	0x68636174
    1628:	74617473 	jalx	185d1cc <_init-0x683a2e34>
    162c:	54500065 	bnel	v0,s0,17c4 <_init-0x69bfe83c>
    1630:	41455248 	0x41455248
    1634:	52435f44 	beql	s2,v1,19348 <_init-0x69be6cb8>
    1638:	45544145 	0x45544145
    163c:	5445445f 	bnel	v0,a1,127bc <_init-0x69bed844>
    1640:	45484341 	0x45484341
    1644:	75730044 	jalx	5cc0110 <_init-0x63f3fef0>
    1648:	69705f62 	0x69705f62
    164c:	756e5f64 	jalx	5b97d90 <_init-0x64068270>
    1650:	7470006d 	jalx	1c001b4 <_init-0x67fffe4c>
    1654:	61657268 	0x61657268
    1658:	6e6f5f64 	0x6e6f5f64
    165c:	745f6563 	jalx	17d958c <_init-0x68426a74>
    1660:	6e6f6300 	0x6e6f6300
    1664:	72727563 	0x72727563
    1668:	79636e65 	0x79636e65
    166c:	6576656c 	0x6576656c
    1670:	7567006c 	jalx	59c01b0 <_init-0x6423fe50>
    1674:	73647261 	0x73647261
    1678:	00657a69 	0x657a69
    167c:	72687470 	0x72687470
    1680:	5f646165 	0x5f646165
    1684:	72617473 	0x72617473
    1688:	72615f74 	0x72615f74
    168c:	70007367 	0x70007367
    1690:	6978655f 	0x6978655f
    1694:	00646574 	teq	v1,a0,0x195
    1698:	72687470 	0x72687470
    169c:	5f646165 	0x5f646165
    16a0:	72747461 	0x72747461
    16a4:	5f00745f 	bgtzl	t8,1e824 <_init-0x69be17dc>
    16a8:	756f725f 	jalx	5bdc97c <_init-0x64023684>
    16ac:	656e6974 	0x656e6974
    16b0:	61747300 	0x61747300
    16b4:	69736b63 	0x69736b63
    16b8:	7000657a 	0x7000657a
    16bc:	7465725f 	jalx	195c97c <_init-0x682a3684>
    16c0:	006c6176 	tne	v1,t4,0x185
    16c4:	755f7369 	jalx	57dcda4 <_init-0x6442325c>
    16c8:	00646573 	tltu	v1,a0,0x195
    16cc:	78657461 	0x78657461
    16d0:	665f7469 	0x665f7469
    16d4:	6e636e75 	0x6e636e75
    16d8:	5f006d75 	bgtzl	t8,1ccb0 <_init-0x69be3350>
    16dc:	72687470 	0x72687470
    16e0:	5f646165 	0x5f646165
    16e4:	63736564 	0x63736564
    16e8:	74735f72 	jalx	1cd7dc8 <_init-0x67f28238>
    16ec:	74637572 	jalx	18dd5c8 <_init-0x68322a38>
    16f0:	6d756400 	0x6d756400
    16f4:	67726170 	0x67726170
    16f8:	5f700076 	0x5f700076
    16fc:	63657073 	0x63657073
    1700:	63696669 	0x63696669
    1704:	6e6f635f 	0x6e6f635f
    1708:	746e6574 	jalx	1b995d0 <_init-0x68066a30>
    170c:	6f727000 	0x6f727000
    1710:	73736563 	0x73736563
    1714:	7274735f 	udi15	s3,s4,t6,0xd
    1718:	00746375 	0x746375
    171c:	6874705f 	0x6874705f
    1720:	64616572 	0x64616572
    1724:	656c635f 	0x656c635f
    1728:	70756e61 	0x70756e61
    172c:	6675625f 	0x6675625f
    1730:	00726566 	0x726566
    1734:	72687470 	0x72687470
    1738:	5f646165 	0x5f646165
    173c:	72747461 	0x72747461
    1740:	74656400 	jalx	1959000 <_init-0x682a7000>
    1744:	5f686361 	0x5f686361
    1748:	72747461 	0x72747461
    174c:	6500745f 	0x6500745f
    1750:	5f746978 	0x5f746978
    1754:	65726874 	0x65726874
    1758:	615f6461 	0x615f6461
    175c:	79617272 	0x79617272
    1760:	72705f00 	0x72705f00
    1764:	7365636f 	0x7365636f
    1768:	6c635f73 	0x6c635f73
    176c:	756e6165 	jalx	5b98594 <_init-0x64067a6c>
    1770:	75625f70 	jalx	5897dc0 <_init-0x64368240>
    1774:	72656666 	0x72656666
    1778:	735f5f00 	0x735f5f00
    177c:	74726174 	jalx	1c985d0 <_init-0x67f67a30>
    1780:	61747300 	0x61747300
    1784:	64616b63 	0x64616b63
    1788:	63007264 	0x63007264
    178c:	6e657472 	0x6e657472
    1790:	632e3164 	0x632e3164
    1794:	735f7000 	0x735f7000
    1798:	74726174 	jalx	1c985d0 <_init-0x67f67a30>
    179c:	6772615f 	0x6772615f
    17a0:	72700073 	0x72700073
    17a4:	7365636f 	0x7365636f
    17a8:	74735f73 	jalx	1cd7dcc <_init-0x67f28234>
    17ac:	74637572 	jalx	18dd5c8 <_init-0x68322a38>
    17b0:	6400745f 	0x6400745f
    17b4:	72747365 	0x72747365
    17b8:	6f746375 	0x6f746375
    17bc:	74730072 	jalx	1cc01c8 <_init-0x67f3fe38>
    17c0:	5f747261 	0x5f747261
    17c4:	74756f72 	jalx	1d5bdc8 <_init-0x67ea4238>
    17c8:	00656e69 	0x656e69
    17cc:	65745f70 	0x65745f70
    17d0:	6e696d72 	0x6e696d72
    17d4:	64657461 	0x64657461
    17d8:	67616d00 	0x67616d00
    17dc:	6e006369 	0x6e006369
    17e0:	00747865 	0x747865
    17e4:	75727473 	jalx	5c9d1cc <_init-0x63f62e34>
    17e8:	695f7463 	0x695f7463
    17ec:	63730064 	0x63730064
    17f0:	70646568 	0x70646568
    17f4:	63696c6f 	0x63696c6f
    17f8:	Address 0x17f8 is out of bounds.

Disassembly of section .comment:

00000000 <.comment>:
   0:	43434700 	c0	0x1434700
   4:	4728203a 	c1	0x128203a
   8:	2029554e 	addi	t1,at,21838
   c:	2e342e33 	sltiu	s4,s1,11827
  10:	696d2034 	0x696d2034
  14:	64737370 	0x64737370
  18:	2e362d65 	sltiu	s6,s1,11621
  1c:	302e3630 	andi	t6,at,0x3630
  20:	30322d31 	andi	s2,at,0x2d31
  24:	34303730 	ori	s0,at,0x3730
  28:	00003032 	tlt	zero,zero,0xc0
  2c:	3a434347 	xori	v1,s2,0x4347
  30:	4e472820 	madd.s	$f0,$f18,$f5,$f7
  34:	33202955 	andi	zero,t9,0x2955
  38:	342e342e 	ori	t6,at,0x342e
  3c:	70696d20 	0x70696d20
  40:	65647373 	0x65647373
  44:	302e362d 	andi	t6,at,0x362d
  48:	31302e36 	andi	s0,t1,0x2e36
  4c:	3030322d 	andi	s0,at,0x322d
  50:	32343037 	andi	s4,s1,0x3037
  54:	47000030 	c1	0x1000030
  58:	203a4343 	addi	k0,at,17219
  5c:	554e4728 	bnel	t2,t6,11d00 <_init-0x69bee300>
  60:	2e332029 	sltiu	s3,s1,8233
  64:	20342e34 	addi	s4,at,11828
  68:	7370696d 	0x7370696d
  6c:	2d656473 	sltiu	a1,t3,25715
  70:	36302e36 	ori	s0,s1,0x2e36
  74:	2d31302e 	sltiu	s1,t1,12334
  78:	37303032 	ori	s0,t9,0x3032
  7c:	30323430 	andi	s2,at,0x3430
  80:	43470000 	c0	0x1470000
  84:	28203a43 	slti	zero,at,14915
  88:	29554e47 	slti	s5,t2,20039
  8c:	342e3320 	ori	t6,at,0x3320
  90:	6d20342e 	0x6d20342e
  94:	73737069 	0x73737069
  98:	362d6564 	ori	t5,s1,0x6564
  9c:	2e36302e 	sltiu	s6,s1,12334
  a0:	322d3130 	andi	t5,s1,0x3130
  a4:	30373030 	andi	s7,at,0x3030
  a8:	00303234 	teq	at,s0,0xc8
  ac:	43434700 	c0	0x1434700
  b0:	4728203a 	c1	0x128203a
  b4:	2029554e 	addi	t1,at,21838
  b8:	2e342e33 	sltiu	s4,s1,11827
  bc:	696d2034 	0x696d2034
  c0:	64737370 	0x64737370
  c4:	2e362d65 	sltiu	s6,s1,11621
  c8:	302e3630 	andi	t6,at,0x3630
  cc:	30322d31 	andi	s2,at,0x2d31
  d0:	34303730 	ori	s0,at,0x3730
  d4:	00003032 	tlt	zero,zero,0xc0
  d8:	3a434347 	xori	v1,s2,0x4347
  dc:	4e472820 	madd.s	$f0,$f18,$f5,$f7
  e0:	33202955 	andi	zero,t9,0x2955
  e4:	342e342e 	ori	t6,at,0x342e
  e8:	70696d20 	0x70696d20
  ec:	65647373 	0x65647373
  f0:	302e362d 	andi	t6,at,0x362d
  f4:	31302e36 	andi	s0,t1,0x2e36
  f8:	3030322d 	andi	s0,at,0x322d
  fc:	32343037 	andi	s4,s1,0x3037
 100:	47000030 	c1	0x1000030
 104:	203a4343 	addi	k0,at,17219
 108:	554e4728 	bnel	t2,t6,11dac <_init-0x69bee254>
 10c:	2e332029 	sltiu	s3,s1,8233
 110:	20342e34 	addi	s4,at,11828
 114:	7370696d 	0x7370696d
 118:	2d656473 	sltiu	a1,t3,25715
 11c:	36302e36 	ori	s0,s1,0x2e36
 120:	2d31302e 	sltiu	s1,t1,12334
 124:	37303032 	ori	s0,t9,0x3032
 128:	30323430 	andi	s2,at,0x3430
 12c:	43470000 	c0	0x1470000
 130:	28203a43 	slti	zero,at,14915
 134:	29554e47 	slti	s5,t2,20039
 138:	342e3320 	ori	t6,at,0x3320
 13c:	6d20342e 	0x6d20342e
 140:	73737069 	0x73737069
 144:	362d6564 	ori	t5,s1,0x6564
 148:	2e36302e 	sltiu	s6,s1,12334
 14c:	322d3130 	andi	t5,s1,0x3130
 150:	30373030 	andi	s7,at,0x3030
 154:	00303234 	teq	at,s0,0xc8
 158:	43434700 	c0	0x1434700
 15c:	4728203a 	c1	0x128203a
 160:	2029554e 	addi	t1,at,21838
 164:	2e342e33 	sltiu	s4,s1,11827
 168:	696d2034 	0x696d2034
 16c:	64737370 	0x64737370
 170:	2e362d65 	sltiu	s6,s1,11621
 174:	302e3630 	andi	t6,at,0x3630
 178:	30322d31 	andi	s2,at,0x2d31
 17c:	34303730 	ori	s0,at,0x3730
 180:	00003032 	tlt	zero,zero,0xc0
 184:	3a434347 	xori	v1,s2,0x4347
 188:	4e472820 	madd.s	$f0,$f18,$f5,$f7
 18c:	33202955 	andi	zero,t9,0x2955
 190:	342e342e 	ori	t6,at,0x342e
 194:	70696d20 	0x70696d20
 198:	65647373 	0x65647373
 19c:	302e362d 	andi	t6,at,0x362d
 1a0:	31302e36 	andi	s0,t1,0x2e36
 1a4:	3030322d 	andi	s0,at,0x322d
 1a8:	32343037 	andi	s4,s1,0x3037
 1ac:	47000030 	c1	0x1000030
 1b0:	203a4343 	addi	k0,at,17219
 1b4:	554e4728 	bnel	t2,t6,11e58 <_init-0x69bee1a8>
 1b8:	2e332029 	sltiu	s3,s1,8233
 1bc:	20342e34 	addi	s4,at,11828
 1c0:	7370696d 	0x7370696d
 1c4:	2d656473 	sltiu	a1,t3,25715
 1c8:	36302e36 	ori	s0,s1,0x2e36
 1cc:	2d31302e 	sltiu	s1,t1,12334
 1d0:	37303032 	ori	s0,t9,0x3032
 1d4:	30323430 	andi	s2,at,0x3430
	...
