
./../../../case/images/apps/manager.app:     file format elf32-tradlittlemips

Disassembly of section .init:

60000000 <_init>:
60000000:	27bdffe0 	addiu	sp,sp,-32
60000004:	afbf0014 	sw	ra,20(sp)
60000008:	0c000bc5 	jal	60002f14 <__do_global_ctors_aux>
6000000c:	00000000 	nop
60000010:	8fbf0014 	lw	ra,20(sp)
60000014:	27bd0020 	addiu	sp,sp,32
60000018:	03e00008 	jr	ra
6000001c:	00000000 	nop
Disassembly of section .text:

60000020 <_init>:
60000020:	27bdffd8 	addiu	sp,sp,-40
60000024:	afbf0020 	sw	ra,32(sp)
60000028:	afbe001c 	sw	s8,28(sp)
6000002c:	afb00018 	sw	s0,24(sp)
60000030:	03a0f021 	move	s8,sp
60000034:	3c106000 	lui	s0,0x6000
60000038:	3c026000 	lui	v0,0x6000
6000003c:	24443560 	addiu	a0,v0,13664
60000040:	24050002 	li	a1,2
60000044:	0c000d2b 	jal	600034ac <dlopen>
60000048:	00000000 	nop
6000004c:	ae024064 	sw	v0,16484(s0)
60000050:	3c026000 	lui	v0,0x6000
60000054:	8c424064 	lw	v0,16484(v0)
60000058:	14400004 	bnez	v0,6000006c <_init+0x4c>
6000005c:	00000000 	nop
60000060:	afc00010 	sw	zero,16(s8)
60000064:	10000003 	b	60000074 <_init+0x54>
60000068:	00000000 	nop
6000006c:	24020001 	li	v0,1
60000070:	afc20010 	sw	v0,16(s8)
60000074:	8fc20010 	lw	v0,16(s8)
60000078:	03c0e821 	move	sp,s8
6000007c:	8fbf0020 	lw	ra,32(sp)
60000080:	8fbe001c 	lw	s8,28(sp)
60000084:	8fb00018 	lw	s0,24(sp)
60000088:	27bd0028 	addiu	sp,sp,40
6000008c:	03e00008 	jr	ra
60000090:	00000000 	nop

60000094 <_deinit>:
60000094:	27bdffe8 	addiu	sp,sp,-24
60000098:	afbf0014 	sw	ra,20(sp)
6000009c:	afbe0010 	sw	s8,16(sp)
600000a0:	03a0f021 	move	s8,sp
600000a4:	3c026000 	lui	v0,0x6000
600000a8:	8c424064 	lw	v0,16484(v0)
600000ac:	10400007 	beqz	v0,600000cc <_deinit+0x38>
600000b0:	00000000 	nop
600000b4:	3c026000 	lui	v0,0x6000
600000b8:	8c444064 	lw	a0,16484(v0)
600000bc:	0c000d2e 	jal	600034b8 <dlclose>
600000c0:	00000000 	nop
600000c4:	3c026000 	lui	v0,0x6000
600000c8:	ac404064 	sw	zero,16484(v0)
600000cc:	03c0e821 	move	sp,s8
600000d0:	8fbf0014 	lw	ra,20(sp)
600000d4:	8fbe0010 	lw	s8,16(sp)
600000d8:	27bd0018 	addiu	sp,sp,24
600000dc:	03e00008 	jr	ra
600000e0:	00000000 	nop

600000e4 <_scaleup_pm_freq>:
600000e4:	27bdffd0 	addiu	sp,sp,-48
600000e8:	afbf0028 	sw	ra,40(sp)
600000ec:	afbe0024 	sw	s8,36(sp)
600000f0:	afb00020 	sw	s0,32(sp)
600000f4:	03a0f021 	move	s8,sp
600000f8:	3c026000 	lui	v0,0x6000
600000fc:	8c434024 	lw	v1,16420(v0)
60000100:	2402ffff 	li	v0,-1
60000104:	14620038 	bne	v1,v0,600001e8 <_scaleup_pm_freq+0x104>
60000108:	00000000 	nop
6000010c:	3c026000 	lui	v0,0x6000
60000110:	24443558 	addiu	a0,v0,13656
60000114:	0c000a83 	jal	60002a0c <sys_pm_set_clk_domain>
60000118:	00000000 	nop
6000011c:	afc20018 	sw	v0,24(s8)
60000120:	8fc30018 	lw	v1,24(s8)
60000124:	24020001 	li	v0,1
60000128:	1462001a 	bne	v1,v0,60000194 <_scaleup_pm_freq+0xb0>
6000012c:	00000000 	nop
60000130:	0c000bee 	jal	60002fb8 <getpid>
60000134:	00000000 	nop
60000138:	00401821 	move	v1,v0
6000013c:	3c026000 	lui	v0,0x6000
60000140:	2442356c 	addiu	v0,v0,13676
60000144:	afa20010 	sw	v0,16(sp)
60000148:	3c026000 	lui	v0,0x6000
6000014c:	24443580 	addiu	a0,v0,13696
60000150:	00602821 	move	a1,v1
60000154:	3c026000 	lui	v0,0x6000
60000158:	244635c0 	addiu	a2,v0,13760
6000015c:	240700e1 	li	a3,225
60000160:	0c000d22 	jal	60003488 <printf>
60000164:	00000000 	nop
60000168:	240407d0 	li	a0,2000
6000016c:	3c026000 	lui	v0,0x6000
60000170:	24450218 	addiu	a1,v0,536
60000174:	00003021 	move	a2,zero
60000178:	0c000a8f 	jal	60002a3c <set_single_shot_timer>
6000017c:	00000000 	nop
60000180:	00401821 	move	v1,v0
60000184:	3c026000 	lui	v0,0x6000
60000188:	ac434024 	sw	v1,16420(v0)
6000018c:	1000001b 	b	600001fc <_scaleup_pm_freq+0x118>
60000190:	00000000 	nop
60000194:	0c000bfd 	jal	60002ff4 <__errno>
60000198:	00000000 	nop
6000019c:	00408021 	move	s0,v0
600001a0:	0c000bee 	jal	60002fb8 <getpid>
600001a4:	00000000 	nop
600001a8:	00401821 	move	v1,v0
600001ac:	240200e6 	li	v0,230
600001b0:	afa20010 	sw	v0,16(sp)
600001b4:	3c026000 	lui	v0,0x6000
600001b8:	2442356c 	addiu	v0,v0,13676
600001bc:	afa20014 	sw	v0,20(sp)
600001c0:	3c026000 	lui	v0,0x6000
600001c4:	244435d0 	addiu	a0,v0,13776
600001c8:	8e050000 	lw	a1,0(s0)
600001cc:	00603021 	move	a2,v1
600001d0:	3c026000 	lui	v0,0x6000
600001d4:	244735c0 	addiu	a3,v0,13760
600001d8:	0c000d22 	jal	60003488 <printf>
600001dc:	00000000 	nop
600001e0:	10000006 	b	600001fc <_scaleup_pm_freq+0x118>
600001e4:	00000000 	nop
600001e8:	3c026000 	lui	v0,0x6000
600001ec:	8c444024 	lw	a0,16420(v0)
600001f0:	240507d0 	li	a1,2000
600001f4:	0c000a92 	jal	60002a48 <modify_timer>
600001f8:	00000000 	nop
600001fc:	03c0e821 	move	sp,s8
60000200:	8fbf0028 	lw	ra,40(sp)
60000204:	8fbe0024 	lw	s8,36(sp)
60000208:	8fb00020 	lw	s0,32(sp)
6000020c:	27bd0030 	addiu	sp,sp,48
60000210:	03e00008 	jr	ra
60000214:	00000000 	nop

60000218 <_scaledown_pm_freq>:
60000218:	27bdffe8 	addiu	sp,sp,-24
6000021c:	afbf0014 	sw	ra,20(sp)
60000220:	afbe0010 	sw	s8,16(sp)
60000224:	03a0f021 	move	s8,sp
60000228:	3c026000 	lui	v0,0x6000
6000022c:	8c434024 	lw	v1,16420(v0)
60000230:	2402ffff 	li	v0,-1
60000234:	1062000c 	beq	v1,v0,60000268 <_scaledown_pm_freq+0x50>
60000238:	00000000 	nop
6000023c:	3c026000 	lui	v0,0x6000
60000240:	24443558 	addiu	a0,v0,13656
60000244:	0c000a86 	jal	60002a18 <sys_pm_clear_clk_domain>
60000248:	00000000 	nop
6000024c:	3c026000 	lui	v0,0x6000
60000250:	8c444024 	lw	a0,16420(v0)
60000254:	0c000a98 	jal	60002a60 <kill_timer>
60000258:	00000000 	nop
6000025c:	3c036000 	lui	v1,0x6000
60000260:	2402ffff 	li	v0,-1
60000264:	ac624024 	sw	v0,16420(v1)
60000268:	03c0e821 	move	sp,s8
6000026c:	8fbf0014 	lw	ra,20(sp)
60000270:	8fbe0010 	lw	s8,16(sp)
60000274:	27bd0018 	addiu	sp,sp,24
60000278:	03e00008 	jr	ra
6000027c:	00000000 	nop

60000280 <_start_watchdog>:
60000280:	27bdffd8 	addiu	sp,sp,-40
60000284:	afbf0020 	sw	ra,32(sp)
60000288:	afbe001c 	sw	s8,28(sp)
6000028c:	afb00018 	sw	s0,24(sp)
60000290:	03a0f021 	move	s8,sp
60000294:	3c026000 	lui	v0,0x6000
60000298:	8c42402c 	lw	v0,16428(v0)
6000029c:	10400036 	beqz	v0,60000378 <_start_watchdog+0xf8>
600002a0:	00000000 	nop
600002a4:	3c026000 	lui	v0,0x6000
600002a8:	24443628 	addiu	a0,v0,13864
600002ac:	24050002 	li	a1,2
600002b0:	00003021 	move	a2,zero
600002b4:	0c000c3c 	jal	600030f0 <open>
600002b8:	00000000 	nop
600002bc:	00401821 	move	v1,v0
600002c0:	3c026000 	lui	v0,0x6000
600002c4:	ac434030 	sw	v1,16432(v0)
600002c8:	3c026000 	lui	v0,0x6000
600002cc:	8c424030 	lw	v0,16432(v0)
600002d0:	04410016 	bgez	v0,6000032c <_start_watchdog+0xac>
600002d4:	00000000 	nop
600002d8:	0c000bfd 	jal	60002ff4 <__errno>
600002dc:	00000000 	nop
600002e0:	00408021 	move	s0,v0
600002e4:	0c000bee 	jal	60002fb8 <getpid>
600002e8:	00000000 	nop
600002ec:	00401821 	move	v1,v0
600002f0:	24020101 	li	v0,257
600002f4:	afa20010 	sw	v0,16(sp)
600002f8:	3c026000 	lui	v0,0x6000
600002fc:	24423618 	addiu	v0,v0,13848
60000300:	afa20014 	sw	v0,20(sp)
60000304:	3c026000 	lui	v0,0x6000
60000308:	24443630 	addiu	a0,v0,13872
6000030c:	8e050000 	lw	a1,0(s0)
60000310:	00603021 	move	a2,v1
60000314:	3c026000 	lui	v0,0x6000
60000318:	244735c0 	addiu	a3,v0,13760
6000031c:	0c000d22 	jal	60003488 <printf>
60000320:	00000000 	nop
60000324:	10000014 	b	60000378 <_start_watchdog+0xf8>
60000328:	00000000 	nop
6000032c:	3c026000 	lui	v0,0x6000
60000330:	8c42402c 	lw	v0,16428(v0)
60000334:	00021042 	srl	v0,v0,0x1
60000338:	00402021 	move	a0,v0
6000033c:	3c026000 	lui	v0,0x6000
60000340:	24450418 	addiu	a1,v0,1048
60000344:	00003021 	move	a2,zero
60000348:	0c000a8c 	jal	60002a30 <set_timer>
6000034c:	00000000 	nop
60000350:	00401821 	move	v1,v0
60000354:	3c026000 	lui	v0,0x6000
60000358:	ac434028 	sw	v1,16424(v0)
6000035c:	3c026000 	lui	v0,0x6000
60000360:	3c036000 	lui	v1,0x6000
60000364:	8c444030 	lw	a0,16432(v0)
60000368:	00002821 	move	a1,zero
6000036c:	8c66402c 	lw	a2,16428(v1)
60000370:	0c000c39 	jal	600030e4 <ioctl>
60000374:	00000000 	nop
60000378:	03c0e821 	move	sp,s8
6000037c:	8fbf0020 	lw	ra,32(sp)
60000380:	8fbe001c 	lw	s8,28(sp)
60000384:	8fb00018 	lw	s0,24(sp)
60000388:	27bd0028 	addiu	sp,sp,40
6000038c:	03e00008 	jr	ra
60000390:	00000000 	nop

60000394 <_stop_watchdog>:
60000394:	27bdffe8 	addiu	sp,sp,-24
60000398:	afbf0014 	sw	ra,20(sp)
6000039c:	afbe0010 	sw	s8,16(sp)
600003a0:	03a0f021 	move	s8,sp
600003a4:	3c026000 	lui	v0,0x6000
600003a8:	8c424030 	lw	v0,16432(v0)
600003ac:	18400014 	blez	v0,60000400 <_stop_watchdog+0x6c>
600003b0:	00000000 	nop
600003b4:	3c026000 	lui	v0,0x6000
600003b8:	8c444030 	lw	a0,16432(v0)
600003bc:	0c000c36 	jal	600030d8 <close>
600003c0:	00000000 	nop
600003c4:	3c036000 	lui	v1,0x6000
600003c8:	2402ffff 	li	v0,-1
600003cc:	ac624030 	sw	v0,16432(v1)
600003d0:	3c026000 	lui	v0,0x6000
600003d4:	8c434028 	lw	v1,16424(v0)
600003d8:	2402ffff 	li	v0,-1
600003dc:	10620008 	beq	v1,v0,60000400 <_stop_watchdog+0x6c>
600003e0:	00000000 	nop
600003e4:	3c026000 	lui	v0,0x6000
600003e8:	8c444028 	lw	a0,16424(v0)
600003ec:	0c000a95 	jal	60002a54 <stop_timer>
600003f0:	00000000 	nop
600003f4:	3c036000 	lui	v1,0x6000
600003f8:	2402ffff 	li	v0,-1
600003fc:	ac624028 	sw	v0,16424(v1)
60000400:	03c0e821 	move	sp,s8
60000404:	8fbf0014 	lw	ra,20(sp)
60000408:	8fbe0010 	lw	s8,16(sp)
6000040c:	27bd0018 	addiu	sp,sp,24
60000410:	03e00008 	jr	ra
60000414:	00000000 	nop

60000418 <_check_app_softwatchdogs>:
60000418:	27bdffe8 	addiu	sp,sp,-24
6000041c:	afbf0014 	sw	ra,20(sp)
60000420:	afbe0010 	sw	s8,16(sp)
60000424:	03a0f021 	move	s8,sp
60000428:	afc40018 	sw	a0,24(s8)
6000042c:	0c000abf 	jal	60002afc <check_soft_watchdogs>
60000430:	00000000 	nop
60000434:	3c026000 	lui	v0,0x6000
60000438:	3c036000 	lui	v1,0x6000
6000043c:	8c444030 	lw	a0,16432(v0)
60000440:	00002821 	move	a1,zero
60000444:	8c66402c 	lw	a2,16428(v1)
60000448:	0c000c39 	jal	600030e4 <ioctl>
6000044c:	00000000 	nop
60000450:	03c0e821 	move	sp,s8
60000454:	8fbf0014 	lw	ra,20(sp)
60000458:	8fbe0010 	lw	s8,16(sp)
6000045c:	27bd0018 	addiu	sp,sp,24
60000460:	03e00008 	jr	ra
60000464:	00000000 	nop

60000468 <_manager_creat_msg_thread>:
60000468:	27bdffa8 	addiu	sp,sp,-88
6000046c:	afbf0054 	sw	ra,84(sp)
60000470:	afbe0050 	sw	s8,80(sp)
60000474:	03a0f021 	move	s8,sp
60000478:	00002021 	move	a0,zero
6000047c:	0c000c33 	jal	600030cc <sched_get_priority_max>
60000480:	00000000 	nop
60000484:	2442fffe 	addiu	v0,v0,-2
60000488:	afc20048 	sw	v0,72(s8)
6000048c:	0c000bee 	jal	60002fb8 <getpid>
60000490:	00000000 	nop
60000494:	00401821 	move	v1,v0
60000498:	3c026000 	lui	v0,0x6000
6000049c:	24423674 	addiu	v0,v0,13940
600004a0:	afa20010 	sw	v0,16(sp)
600004a4:	8fc20048 	lw	v0,72(s8)
600004a8:	afa20014 	sw	v0,20(sp)
600004ac:	3c026000 	lui	v0,0x6000
600004b0:	24443690 	addiu	a0,v0,13968
600004b4:	00602821 	move	a1,v1
600004b8:	3c026000 	lui	v0,0x6000
600004bc:	244635c0 	addiu	a2,v0,13760
600004c0:	2407012d 	li	a3,301
600004c4:	0c000d22 	jal	60003488 <printf>
600004c8:	00000000 	nop
600004cc:	27c20020 	addiu	v0,s8,32
600004d0:	00402021 	move	a0,v0
600004d4:	0c000c18 	jal	60003060 <pthread_attr_init>
600004d8:	00000000 	nop
600004dc:	27c20020 	addiu	v0,s8,32
600004e0:	00402021 	move	a0,v0
600004e4:	24050002 	li	a1,2
600004e8:	0c000c1e 	jal	60003078 <pthread_attr_setinheritsched>
600004ec:	00000000 	nop
600004f0:	27c20020 	addiu	v0,s8,32
600004f4:	00402021 	move	a0,v0
600004f8:	00002821 	move	a1,zero
600004fc:	0c000c21 	jal	60003084 <pthread_attr_setdetachstate>
60000500:	00000000 	nop
60000504:	27c20020 	addiu	v0,s8,32
60000508:	00402021 	move	a0,v0
6000050c:	00002821 	move	a1,zero
60000510:	0c000c24 	jal	60003090 <pthread_attr_setscope>
60000514:	00000000 	nop
60000518:	27c20020 	addiu	v0,s8,32
6000051c:	27c30048 	addiu	v1,s8,72
60000520:	00402021 	move	a0,v0
60000524:	00602821 	move	a1,v1
60000528:	0c000c27 	jal	6000309c <pthread_attr_setschedparam>
6000052c:	00000000 	nop
60000530:	27c20020 	addiu	v0,s8,32
60000534:	27c40018 	addiu	a0,s8,24
60000538:	00402821 	move	a1,v0
6000053c:	3c026000 	lui	v0,0x6000
60000540:	24460578 	addiu	a2,v0,1400
60000544:	00003821 	move	a3,zero
60000548:	0c000c09 	jal	60003024 <pthread_create>
6000054c:	00000000 	nop
60000550:	27c20020 	addiu	v0,s8,32
60000554:	00402021 	move	a0,v0
60000558:	0c000c1b 	jal	6000306c <pthread_attr_destroy>
6000055c:	00000000 	nop
60000560:	03c0e821 	move	sp,s8
60000564:	8fbf0054 	lw	ra,84(sp)
60000568:	8fbe0050 	lw	s8,80(sp)
6000056c:	27bd0058 	addiu	sp,sp,88
60000570:	03e00008 	jr	ra
60000574:	00000000 	nop

60000578 <_manager_msg_loop>:
60000578:	27bdfbe0 	addiu	sp,sp,-1056
6000057c:	afbf041c 	sw	ra,1052(sp)
60000580:	afbe0418 	sw	s8,1048(sp)
60000584:	03a0f021 	move	s8,sp
60000588:	afc40420 	sw	a0,1056(s8)
6000058c:	3c036000 	lui	v1,0x6000
60000590:	3c026000 	lui	v0,0x6000
60000594:	24424068 	addiu	v0,v0,16488
60000598:	ac624068 	sw	v0,16488(v1)
6000059c:	3c026000 	lui	v0,0x6000
600005a0:	24434068 	addiu	v1,v0,16488
600005a4:	3c026000 	lui	v0,0x6000
600005a8:	24424068 	addiu	v0,v0,16488
600005ac:	ac620004 	sw	v0,4(v1)
600005b0:	3c036000 	lui	v1,0x6000
600005b4:	3c026000 	lui	v0,0x6000
600005b8:	244244a8 	addiu	v0,v0,17576
600005bc:	ac6244a8 	sw	v0,17576(v1)
600005c0:	3c026000 	lui	v0,0x6000
600005c4:	244344a8 	addiu	v1,v0,17576
600005c8:	3c026000 	lui	v0,0x6000
600005cc:	244244a8 	addiu	v0,v0,17576
600005d0:	ac620004 	sw	v0,4(v1)
600005d4:	3c036000 	lui	v1,0x6000
600005d8:	3c026000 	lui	v0,0x6000
600005dc:	24424498 	addiu	v0,v0,17560
600005e0:	ac624498 	sw	v0,17560(v1)
600005e4:	3c026000 	lui	v0,0x6000
600005e8:	24434498 	addiu	v1,v0,17560
600005ec:	3c026000 	lui	v0,0x6000
600005f0:	24424498 	addiu	v0,v0,17560
600005f4:	ac620004 	sw	v0,4(v1)
600005f8:	3c026000 	lui	v0,0x6000
600005fc:	24440fd0 	addiu	a0,v0,4048
60000600:	0c000ab6 	jal	60002ad8 <register_sys_dispatcher>
60000604:	00000000 	nop
60000608:	3c026000 	lui	v0,0x6000
6000060c:	244436d8 	addiu	a0,v0,14040
60000610:	0c000d22 	jal	60003488 <printf>
60000614:	00000000 	nop
60000618:	240207d1 	li	v0,2001
6000061c:	afc20010 	sw	v0,16(s8)
60000620:	27c20014 	addiu	v0,s8,20
60000624:	00402021 	move	a0,v0
60000628:	3c026000 	lui	v0,0x6000
6000062c:	24453514 	addiu	a1,v0,13588
60000630:	24060400 	li	a2,1024
60000634:	0c000ce3 	jal	6000338c <strncpy>
60000638:	00000000 	nop
6000063c:	3c026000 	lui	v0,0x6000
60000640:	244434d8 	addiu	a0,v0,13528
60000644:	27c50010 	addiu	a1,s8,16
60000648:	0c000ab0 	jal	60002ac0 <send_async_msg>
6000064c:	00000000 	nop
60000650:	27c40010 	addiu	a0,s8,16
60000654:	0c000aa7 	jal	60002a9c <get_msg>
60000658:	00000000 	nop
6000065c:	00401821 	move	v1,v0
60000660:	24020001 	li	v0,1
60000664:	14620006 	bne	v1,v0,60000680 <_manager_msg_loop+0x108>
60000668:	00000000 	nop
6000066c:	27c40010 	addiu	a0,s8,16
60000670:	0c000ab3 	jal	60002acc <dispatch_msg>
60000674:	00000000 	nop
60000678:	1000fff5 	b	60000650 <_manager_msg_loop+0xd8>
6000067c:	00000000 	nop
60000680:	0c000ab9 	jal	60002ae4 <unregister_sys_dispatcher>
60000684:	00000000 	nop
60000688:	03c0e821 	move	sp,s8
6000068c:	8fbf041c 	lw	ra,1052(sp)
60000690:	8fbe0418 	lw	s8,1048(sp)
60000694:	27bd0420 	addiu	sp,sp,1056
60000698:	03e00008 	jr	ra
6000069c:	00000000 	nop

600006a0 <_manager_creat_wait_thread>:
600006a0:	27bdffa8 	addiu	sp,sp,-88
600006a4:	afbf0054 	sw	ra,84(sp)
600006a8:	afbe0050 	sw	s8,80(sp)
600006ac:	03a0f021 	move	s8,sp
600006b0:	00002021 	move	a0,zero
600006b4:	0c000c33 	jal	600030cc <sched_get_priority_max>
600006b8:	00000000 	nop
600006bc:	afc20048 	sw	v0,72(s8)
600006c0:	0c000bee 	jal	60002fb8 <getpid>
600006c4:	00000000 	nop
600006c8:	00401821 	move	v1,v0
600006cc:	3c026000 	lui	v0,0x6000
600006d0:	2442370c 	addiu	v0,v0,14092
600006d4:	afa20010 	sw	v0,16(sp)
600006d8:	8fc20048 	lw	v0,72(s8)
600006dc:	afa20014 	sw	v0,20(sp)
600006e0:	3c026000 	lui	v0,0x6000
600006e4:	24443728 	addiu	a0,v0,14120
600006e8:	00602821 	move	a1,v1
600006ec:	3c026000 	lui	v0,0x6000
600006f0:	244635c0 	addiu	a2,v0,13760
600006f4:	2407015f 	li	a3,351
600006f8:	0c000d22 	jal	60003488 <printf>
600006fc:	00000000 	nop
60000700:	27c20020 	addiu	v0,s8,32
60000704:	00402021 	move	a0,v0
60000708:	0c000c18 	jal	60003060 <pthread_attr_init>
6000070c:	00000000 	nop
60000710:	27c20020 	addiu	v0,s8,32
60000714:	00402021 	move	a0,v0
60000718:	24050002 	li	a1,2
6000071c:	0c000c1e 	jal	60003078 <pthread_attr_setinheritsched>
60000720:	00000000 	nop
60000724:	27c20020 	addiu	v0,s8,32
60000728:	00402021 	move	a0,v0
6000072c:	00002821 	move	a1,zero
60000730:	0c000c21 	jal	60003084 <pthread_attr_setdetachstate>
60000734:	00000000 	nop
60000738:	27c20020 	addiu	v0,s8,32
6000073c:	00402021 	move	a0,v0
60000740:	00002821 	move	a1,zero
60000744:	0c000c24 	jal	60003090 <pthread_attr_setscope>
60000748:	00000000 	nop
6000074c:	27c20020 	addiu	v0,s8,32
60000750:	27c30048 	addiu	v1,s8,72
60000754:	00402021 	move	a0,v0
60000758:	00602821 	move	a1,v1
6000075c:	0c000c27 	jal	6000309c <pthread_attr_setschedparam>
60000760:	00000000 	nop
60000764:	27c20020 	addiu	v0,s8,32
60000768:	27c40018 	addiu	a0,s8,24
6000076c:	00402821 	move	a1,v0
60000770:	3c026000 	lui	v0,0x6000
60000774:	244607ac 	addiu	a2,v0,1964
60000778:	00003821 	move	a3,zero
6000077c:	0c000c09 	jal	60003024 <pthread_create>
60000780:	00000000 	nop
60000784:	27c20020 	addiu	v0,s8,32
60000788:	00402021 	move	a0,v0
6000078c:	0c000c1b 	jal	6000306c <pthread_attr_destroy>
60000790:	00000000 	nop
60000794:	03c0e821 	move	sp,s8
60000798:	8fbf0054 	lw	ra,84(sp)
6000079c:	8fbe0050 	lw	s8,80(sp)
600007a0:	27bd0058 	addiu	sp,sp,88
600007a4:	03e00008 	jr	ra
600007a8:	00000000 	nop

600007ac <_manager_wait_loop>:
600007ac:	27bdffd0 	addiu	sp,sp,-48
600007b0:	afbf002c 	sw	ra,44(sp)
600007b4:	afbe0028 	sw	s8,40(sp)
600007b8:	03a0f021 	move	s8,sp
600007bc:	afc40030 	sw	a0,48(s8)
600007c0:	3c026000 	lui	v0,0x6000
600007c4:	8c423784 	lw	v0,14212(v0)
600007c8:	afc20018 	sw	v0,24(s8)
600007cc:	3c026000 	lui	v0,0x6000
600007d0:	24423788 	addiu	v0,v0,14216
600007d4:	afc2001c 	sw	v0,28(s8)
600007d8:	8fc4001c 	lw	a0,28(s8)
600007dc:	0c000bf4 	jal	60002fd0 <putenv>
600007e0:	00000000 	nop
600007e4:	0c000008 	jal	60000020 <_init>
600007e8:	00000000 	nop
600007ec:	24040001 	li	a0,1
600007f0:	27c50018 	addiu	a1,s8,24
600007f4:	24060001 	li	a2,1
600007f8:	0c000aa4 	jal	60002a90 <applib_init>
600007fc:	00000000 	nop
60000800:	3c026000 	lui	v0,0x6000
60000804:	24444080 	addiu	a0,v0,16512
60000808:	00002821 	move	a1,zero
6000080c:	00003021 	move	a2,zero
60000810:	0c000bdf 	jal	60002f7c <sem_init>
60000814:	00000000 	nop
60000818:	2402ffff 	li	v0,-1
6000081c:	afc20020 	sw	v0,32(s8)
60000820:	2404ffff 	li	a0,-1
60000824:	00002821 	move	a1,zero
60000828:	00003021 	move	a2,zero
6000082c:	0c000bf1 	jal	60002fc4 <waitpid>
60000830:	00000000 	nop
60000834:	afc20020 	sw	v0,32(s8)
60000838:	8fc30020 	lw	v1,32(s8)
6000083c:	2402ffff 	li	v0,-1
60000840:	1062001f 	beq	v1,v0,600008c0 <_manager_wait_loop+0x114>
60000844:	00000000 	nop
60000848:	8fc40020 	lw	a0,32(s8)
6000084c:	0c000aaa 	jal	60002aa8 <get_app_name>
60000850:	00000000 	nop
60000854:	afc20024 	sw	v0,36(s8)
60000858:	8fc20024 	lw	v0,36(s8)
6000085c:	10400006 	beqz	v0,60000878 <_manager_wait_loop+0xcc>
60000860:	00000000 	nop
60000864:	8fc40024 	lw	a0,36(s8)
60000868:	0c000249 	jal	60000924 <_manager_child_exit_cb>
6000086c:	00000000 	nop
60000870:	1000ffe9 	b	60000818 <_manager_wait_loop+0x6c>
60000874:	00000000 	nop
60000878:	0c000bee 	jal	60002fb8 <getpid>
6000087c:	00000000 	nop
60000880:	00401821 	move	v1,v0
60000884:	3c026000 	lui	v0,0x6000
60000888:	24423770 	addiu	v0,v0,14192
6000088c:	afa20010 	sw	v0,16(sp)
60000890:	8fc20020 	lw	v0,32(s8)
60000894:	afa20014 	sw	v0,20(sp)
60000898:	3c026000 	lui	v0,0x6000
6000089c:	244437bc 	addiu	a0,v0,14268
600008a0:	00602821 	move	a1,v1
600008a4:	3c026000 	lui	v0,0x6000
600008a8:	244635c0 	addiu	a2,v0,13760
600008ac:	24070186 	li	a3,390
600008b0:	0c000d22 	jal	60003488 <printf>
600008b4:	00000000 	nop
600008b8:	1000ffd7 	b	60000818 <_manager_wait_loop+0x6c>
600008bc:	00000000 	nop
600008c0:	0c000bfd 	jal	60002ff4 <__errno>
600008c4:	00000000 	nop
600008c8:	8c430000 	lw	v1,0(v0)
600008cc:	2402000a 	li	v0,10
600008d0:	1462000f 	bne	v1,v0,60000910 <_manager_wait_loop+0x164>
600008d4:	00000000 	nop
600008d8:	0c000bee 	jal	60002fb8 <getpid>
600008dc:	00000000 	nop
600008e0:	00401821 	move	v1,v0
600008e4:	3c026000 	lui	v0,0x6000
600008e8:	24423770 	addiu	v0,v0,14192
600008ec:	afa20010 	sw	v0,16(sp)
600008f0:	3c026000 	lui	v0,0x6000
600008f4:	24443808 	addiu	a0,v0,14344
600008f8:	00602821 	move	a1,v1
600008fc:	3c026000 	lui	v0,0x6000
60000900:	244635c0 	addiu	a2,v0,13760
60000904:	2407018d 	li	a3,397
60000908:	0c000d22 	jal	60003488 <printf>
6000090c:	00000000 	nop
60000910:	24040001 	li	a0,1
60000914:	0c000c30 	jal	600030c0 <sleep>
60000918:	00000000 	nop
6000091c:	1000ffbe 	b	60000818 <_manager_wait_loop+0x6c>
60000920:	00000000 	nop

60000924 <_manager_child_exit_cb>:
60000924:	27bdffb0 	addiu	sp,sp,-80
60000928:	afbf0048 	sw	ra,72(sp)
6000092c:	afbe0044 	sw	s8,68(sp)
60000930:	afb00040 	sw	s0,64(sp)
60000934:	03a0f021 	move	s8,sp
60000938:	afc40050 	sw	a0,80(s8)
6000093c:	24020001 	li	v0,1
60000940:	afc2002c 	sw	v0,44(s8)
60000944:	afc00030 	sw	zero,48(s8)
60000948:	8fc40050 	lw	a0,80(s8)
6000094c:	3c026000 	lui	v0,0x6000
60000950:	24454084 	addiu	a1,v0,16516
60000954:	24060400 	li	a2,1024
60000958:	0c000cc7 	jal	6000331c <strncmp>
6000095c:	00000000 	nop
60000960:	afc20034 	sw	v0,52(s8)
60000964:	8fc20034 	lw	v0,52(s8)
60000968:	14400016 	bnez	v0,600009c4 <_manager_child_exit_cb+0xa0>
6000096c:	00000000 	nop
60000970:	3c026000 	lui	v0,0x6000
60000974:	24424080 	addiu	v0,v0,16512
60000978:	8c420404 	lw	v0,1028(v0)
6000097c:	14400006 	bnez	v0,60000998 <_manager_child_exit_cb+0x74>
60000980:	00000000 	nop
60000984:	afc0002c 	sw	zero,44(s8)
60000988:	3c026000 	lui	v0,0x6000
6000098c:	24434080 	addiu	v1,v0,16512
60000990:	24020001 	li	v0,1
60000994:	ac620404 	sw	v0,1028(v1)
60000998:	3c026000 	lui	v0,0x6000
6000099c:	24444080 	addiu	a0,v0,16512
600009a0:	0c000be5 	jal	60002f94 <sem_post>
600009a4:	00000000 	nop
600009a8:	3c026000 	lui	v0,0x6000
600009ac:	24444084 	addiu	a0,v0,16516
600009b0:	3c026000 	lui	v0,0x6000
600009b4:	24453878 	addiu	a1,v0,14456
600009b8:	24060400 	li	a2,1024
600009bc:	0c000ce3 	jal	6000338c <strncpy>
600009c0:	00000000 	nop
600009c4:	8fc40050 	lw	a0,80(s8)
600009c8:	0c000aa1 	jal	60002a84 <applib_unregister_app>
600009cc:	00000000 	nop
600009d0:	0c000bee 	jal	60002fb8 <getpid>
600009d4:	00000000 	nop
600009d8:	00401821 	move	v1,v0
600009dc:	3c026000 	lui	v0,0x6000
600009e0:	24423860 	addiu	v0,v0,14432
600009e4:	afa20010 	sw	v0,16(sp)
600009e8:	8fc20050 	lw	v0,80(s8)
600009ec:	afa20014 	sw	v0,20(sp)
600009f0:	3c026000 	lui	v0,0x6000
600009f4:	24443888 	addiu	a0,v0,14472
600009f8:	00602821 	move	a1,v1
600009fc:	3c026000 	lui	v0,0x6000
60000a00:	244635c0 	addiu	a2,v0,13760
60000a04:	240701ac 	li	a3,428
60000a08:	0c000d22 	jal	60003488 <printf>
60000a0c:	00000000 	nop
60000a10:	3c026000 	lui	v0,0x6000
60000a14:	8c424068 	lw	v0,16488(v0)
60000a18:	afc20024 	sw	v0,36(s8)
60000a1c:	8fc20024 	lw	v0,36(s8)
60000a20:	8c420000 	lw	v0,0(v0)
60000a24:	afc20028 	sw	v0,40(s8)
60000a28:	8fc20024 	lw	v0,36(s8)
60000a2c:	3c036000 	lui	v1,0x6000
60000a30:	24634068 	addiu	v1,v1,16488
60000a34:	1043004e 	beq	v0,v1,60000b70 <_manager_child_exit_cb+0x24c>
60000a38:	00000000 	nop
60000a3c:	8fc20024 	lw	v0,36(s8)
60000a40:	afc20038 	sw	v0,56(s8)
60000a44:	8fc20038 	lw	v0,56(s8)
60000a48:	afc20020 	sw	v0,32(s8)
60000a4c:	0c000bee 	jal	60002fb8 <getpid>
60000a50:	00000000 	nop
60000a54:	00401821 	move	v1,v0
60000a58:	3c026000 	lui	v0,0x6000
60000a5c:	24423860 	addiu	v0,v0,14432
60000a60:	afa20010 	sw	v0,16(sp)
60000a64:	8fc20020 	lw	v0,32(s8)
60000a68:	8c420008 	lw	v0,8(v0)
60000a6c:	afa20014 	sw	v0,20(sp)
60000a70:	8fc20020 	lw	v0,32(s8)
60000a74:	8c42000c 	lw	v0,12(v0)
60000a78:	afa20018 	sw	v0,24(sp)
60000a7c:	3c026000 	lui	v0,0x6000
60000a80:	244438d4 	addiu	a0,v0,14548
60000a84:	00602821 	move	a1,v1
60000a88:	3c026000 	lui	v0,0x6000
60000a8c:	244635c0 	addiu	a2,v0,13760
60000a90:	240701b6 	li	a3,438
60000a94:	0c000d22 	jal	60003488 <printf>
60000a98:	00000000 	nop
60000a9c:	8fc20020 	lw	v0,32(s8)
60000aa0:	8c44000c 	lw	a0,12(v0)
60000aa4:	8fc50050 	lw	a1,80(s8)
60000aa8:	0c000cba 	jal	600032e8 <strcmp>
60000aac:	00000000 	nop
60000ab0:	14400028 	bnez	v0,60000b54 <_manager_child_exit_cb+0x230>
60000ab4:	00000000 	nop
60000ab8:	0c000bee 	jal	60002fb8 <getpid>
60000abc:	00000000 	nop
60000ac0:	00401821 	move	v1,v0
60000ac4:	3c026000 	lui	v0,0x6000
60000ac8:	24423860 	addiu	v0,v0,14432
60000acc:	afa20010 	sw	v0,16(sp)
60000ad0:	3c026000 	lui	v0,0x6000
60000ad4:	24443910 	addiu	a0,v0,14608
60000ad8:	00602821 	move	a1,v1
60000adc:	3c026000 	lui	v0,0x6000
60000ae0:	244635c0 	addiu	a2,v0,13760
60000ae4:	240701ba 	li	a3,442
60000ae8:	0c000d22 	jal	60003488 <printf>
60000aec:	00000000 	nop
60000af0:	8fc3002c 	lw	v1,44(s8)
60000af4:	24020001 	li	v0,1
60000af8:	14620006 	bne	v1,v0,60000b14 <_manager_child_exit_cb+0x1f0>
60000afc:	00000000 	nop
60000b00:	8fc40020 	lw	a0,32(s8)
60000b04:	8fc50050 	lw	a1,80(s8)
60000b08:	0c000347 	jal	60000d1c <_notify_invoker>
60000b0c:	00000000 	nop
60000b10:	afc20030 	sw	v0,48(s8)
60000b14:	8fc40024 	lw	a0,36(s8)
60000b18:	0c00031e 	jal	60000c78 <list_del>
60000b1c:	00000000 	nop
60000b20:	8fc20020 	lw	v0,32(s8)
60000b24:	8c44000c 	lw	a0,12(v0)
60000b28:	0c000d28 	jal	600034a0 <free>
60000b2c:	00000000 	nop
60000b30:	8fc20020 	lw	v0,32(s8)
60000b34:	8c440008 	lw	a0,8(v0)
60000b38:	0c000d28 	jal	600034a0 <free>
60000b3c:	00000000 	nop
60000b40:	8fc40020 	lw	a0,32(s8)
60000b44:	0c000d28 	jal	600034a0 <free>
60000b48:	00000000 	nop
60000b4c:	10000008 	b	60000b70 <_manager_child_exit_cb+0x24c>
60000b50:	00000000 	nop
60000b54:	8fc20028 	lw	v0,40(s8)
60000b58:	afc20024 	sw	v0,36(s8)
60000b5c:	8fc20024 	lw	v0,36(s8)
60000b60:	8c420000 	lw	v0,0(v0)
60000b64:	afc20028 	sw	v0,40(s8)
60000b68:	1000ffaf 	b	60000a28 <_manager_child_exit_cb+0x104>
60000b6c:	00000000 	nop
60000b70:	8fc30030 	lw	v1,48(s8)
60000b74:	24020001 	li	v0,1
60000b78:	14620003 	bne	v1,v0,60000b88 <_manager_child_exit_cb+0x264>
60000b7c:	00000000 	nop
60000b80:	10000036 	b	60000c5c <_manager_child_exit_cb+0x338>
60000b84:	00000000 	nop
60000b88:	3c026000 	lui	v0,0x6000
60000b8c:	2444393c 	addiu	a0,v0,14652
60000b90:	0c000a89 	jal	60002a24 <basename>
60000b94:	00000000 	nop
60000b98:	8fc40050 	lw	a0,80(s8)
60000b9c:	00402821 	move	a1,v0
60000ba0:	0c000cba 	jal	600032e8 <strcmp>
60000ba4:	00000000 	nop
60000ba8:	1040002c 	beqz	v0,60000c5c <_manager_child_exit_cb+0x338>
60000bac:	00000000 	nop
60000bb0:	3c026000 	lui	v0,0x6000
60000bb4:	2444395c 	addiu	a0,v0,14684
60000bb8:	0c000a89 	jal	60002a24 <basename>
60000bbc:	00000000 	nop
60000bc0:	8fc40050 	lw	a0,80(s8)
60000bc4:	00402821 	move	a1,v0
60000bc8:	0c000cba 	jal	600032e8 <strcmp>
60000bcc:	00000000 	nop
60000bd0:	14400003 	bnez	v0,60000be0 <_manager_child_exit_cb+0x2bc>
60000bd4:	00000000 	nop
60000bd8:	10000020 	b	60000c5c <_manager_child_exit_cb+0x338>
60000bdc:	00000000 	nop
60000be0:	3c026000 	lui	v0,0x6000
60000be4:	8c434060 	lw	v1,16480(v0)
60000be8:	24020001 	li	v0,1
60000bec:	14620008 	bne	v1,v0,60000c10 <_manager_child_exit_cb+0x2ec>
60000bf0:	00000000 	nop
60000bf4:	8fc40050 	lw	a0,80(s8)
60000bf8:	0c0003b6 	jal	60000ed8 <_notify_launcher>
60000bfc:	00000000 	nop
60000c00:	3c026000 	lui	v0,0x6000
60000c04:	ac404060 	sw	zero,16480(v0)
60000c08:	10000014 	b	60000c5c <_manager_child_exit_cb+0x338>
60000c0c:	00000000 	nop
60000c10:	0c000bfd 	jal	60002ff4 <__errno>
60000c14:	00000000 	nop
60000c18:	00408021 	move	s0,v0
60000c1c:	0c000bee 	jal	60002fb8 <getpid>
60000c20:	00000000 	nop
60000c24:	00401821 	move	v1,v0
60000c28:	240201e1 	li	v0,481
60000c2c:	afa20010 	sw	v0,16(sp)
60000c30:	3c026000 	lui	v0,0x6000
60000c34:	24423860 	addiu	v0,v0,14432
60000c38:	afa20014 	sw	v0,20(sp)
60000c3c:	3c026000 	lui	v0,0x6000
60000c40:	2444397c 	addiu	a0,v0,14716
60000c44:	8e050000 	lw	a1,0(s0)
60000c48:	00603021 	move	a2,v1
60000c4c:	3c026000 	lui	v0,0x6000
60000c50:	244735c0 	addiu	a3,v0,13760
60000c54:	0c000d22 	jal	60003488 <printf>
60000c58:	00000000 	nop
60000c5c:	03c0e821 	move	sp,s8
60000c60:	8fbf0048 	lw	ra,72(sp)
60000c64:	8fbe0044 	lw	s8,68(sp)
60000c68:	8fb00040 	lw	s0,64(sp)
60000c6c:	27bd0050 	addiu	sp,sp,80
60000c70:	03e00008 	jr	ra
60000c74:	00000000 	nop

60000c78 <list_del>:
60000c78:	27bdffe8 	addiu	sp,sp,-24
60000c7c:	afbf0014 	sw	ra,20(sp)
60000c80:	afbe0010 	sw	s8,16(sp)
60000c84:	03a0f021 	move	s8,sp
60000c88:	afc40018 	sw	a0,24(s8)
60000c8c:	8fc20018 	lw	v0,24(s8)
60000c90:	8fc30018 	lw	v1,24(s8)
60000c94:	8c440004 	lw	a0,4(v0)
60000c98:	8c650000 	lw	a1,0(v1)
60000c9c:	0c000337 	jal	60000cdc <__list_del>
60000ca0:	00000000 	nop
60000ca4:	8fc30018 	lw	v1,24(s8)
60000ca8:	3c020010 	lui	v0,0x10
60000cac:	34420100 	ori	v0,v0,0x100
60000cb0:	ac620000 	sw	v0,0(v1)
60000cb4:	8fc30018 	lw	v1,24(s8)
60000cb8:	3c020020 	lui	v0,0x20
60000cbc:	34420200 	ori	v0,v0,0x200
60000cc0:	ac620004 	sw	v0,4(v1)
60000cc4:	03c0e821 	move	sp,s8
60000cc8:	8fbf0014 	lw	ra,20(sp)
60000ccc:	8fbe0010 	lw	s8,16(sp)
60000cd0:	27bd0018 	addiu	sp,sp,24
60000cd4:	03e00008 	jr	ra
60000cd8:	00000000 	nop

60000cdc <__list_del>:
60000cdc:	27bdfff8 	addiu	sp,sp,-8
60000ce0:	afbe0000 	sw	s8,0(sp)
60000ce4:	03a0f021 	move	s8,sp
60000ce8:	afc40008 	sw	a0,8(s8)
60000cec:	afc5000c 	sw	a1,12(s8)
60000cf0:	8fc3000c 	lw	v1,12(s8)
60000cf4:	8fc20008 	lw	v0,8(s8)
60000cf8:	ac620004 	sw	v0,4(v1)
60000cfc:	8fc30008 	lw	v1,8(s8)
60000d00:	8fc2000c 	lw	v0,12(s8)
60000d04:	ac620000 	sw	v0,0(v1)
60000d08:	03c0e821 	move	sp,s8
60000d0c:	8fbe0000 	lw	s8,0(sp)
60000d10:	27bd0008 	addiu	sp,sp,8
60000d14:	03e00008 	jr	ra
60000d18:	00000000 	nop

60000d1c <_notify_invoker>:
60000d1c:	27bdfbd0 	addiu	sp,sp,-1072
60000d20:	afbf042c 	sw	ra,1068(sp)
60000d24:	afbe0428 	sw	s8,1064(sp)
60000d28:	03a0f021 	move	s8,sp
60000d2c:	afc40430 	sw	a0,1072(s8)
60000d30:	afc50434 	sw	a1,1076(s8)
60000d34:	afc00418 	sw	zero,1048(s8)
60000d38:	8fc20430 	lw	v0,1072(s8)
60000d3c:	8c440008 	lw	a0,8(v0)
60000d40:	0c000a9b 	jal	60002a6c <is_app_exist>
60000d44:	00000000 	nop
60000d48:	afc2041c 	sw	v0,1052(s8)
60000d4c:	8fc3041c 	lw	v1,1052(s8)
60000d50:	24020001 	li	v0,1
60000d54:	1462002b 	bne	v1,v0,60000e04 <_notify_invoker+0xe8>
60000d58:	00000000 	nop
60000d5c:	240207dc 	li	v0,2012
60000d60:	afc20010 	sw	v0,16(s8)
60000d64:	27c20014 	addiu	v0,s8,20
60000d68:	00402021 	move	a0,v0
60000d6c:	00002821 	move	a1,zero
60000d70:	24060400 	li	a2,1024
60000d74:	0c000c52 	jal	60003148 <memset>
60000d78:	00000000 	nop
60000d7c:	27c20014 	addiu	v0,s8,20
60000d80:	00402021 	move	a0,v0
60000d84:	8fc50434 	lw	a1,1076(s8)
60000d88:	24060400 	li	a2,1024
60000d8c:	0c000ce3 	jal	6000338c <strncpy>
60000d90:	00000000 	nop
60000d94:	8fc20430 	lw	v0,1072(s8)
60000d98:	8c440008 	lw	a0,8(v0)
60000d9c:	27c50010 	addiu	a1,s8,16
60000da0:	0c000ab0 	jal	60002ac0 <send_async_msg>
60000da4:	00000000 	nop
60000da8:	3c026000 	lui	v0,0x6000
60000dac:	8c434060 	lw	v1,16480(v0)
60000db0:	24020001 	li	v0,1
60000db4:	1462000f 	bne	v1,v0,60000df4 <_notify_invoker+0xd8>
60000db8:	00000000 	nop
60000dbc:	3c026000 	lui	v0,0x6000
60000dc0:	24443530 	addiu	a0,v0,13616
60000dc4:	0c000a89 	jal	60002a24 <basename>
60000dc8:	00000000 	nop
60000dcc:	00401821 	move	v1,v0
60000dd0:	8fc20430 	lw	v0,1072(s8)
60000dd4:	8c440008 	lw	a0,8(v0)
60000dd8:	00602821 	move	a1,v1
60000ddc:	0c000cba 	jal	600032e8 <strcmp>
60000de0:	00000000 	nop
60000de4:	14400003 	bnez	v0,60000df4 <_notify_invoker+0xd8>
60000de8:	00000000 	nop
60000dec:	3c026000 	lui	v0,0x6000
60000df0:	ac404060 	sw	zero,16480(v0)
60000df4:	24020001 	li	v0,1
60000df8:	afc20418 	sw	v0,1048(s8)
60000dfc:	1000002f 	b	60000ebc <_notify_invoker+0x1a0>
60000e00:	00000000 	nop
60000e04:	8fc20430 	lw	v0,1072(s8)
60000e08:	8c430010 	lw	v1,16(v0)
60000e0c:	24020001 	li	v0,1
60000e10:	1462002a 	bne	v1,v0,60000ebc <_notify_invoker+0x1a0>
60000e14:	00000000 	nop
60000e18:	8fc20430 	lw	v0,1072(s8)
60000e1c:	8c440008 	lw	a0,8(v0)
60000e20:	0c0008ca 	jal	60002328 <_get_path_info>
60000e24:	00000000 	nop
60000e28:	afc20420 	sw	v0,1056(s8)
60000e2c:	8fc20420 	lw	v0,1056(s8)
60000e30:	1040001d 	beqz	v0,60000ea8 <_notify_invoker+0x18c>
60000e34:	00000000 	nop
60000e38:	27c20014 	addiu	v0,s8,20
60000e3c:	00402021 	move	a0,v0
60000e40:	00002821 	move	a1,zero
60000e44:	24060400 	li	a2,1024
60000e48:	0c000c52 	jal	60003148 <memset>
60000e4c:	00000000 	nop
60000e50:	27c20014 	addiu	v0,s8,20
60000e54:	00402021 	move	a0,v0
60000e58:	8fc50420 	lw	a1,1056(s8)
60000e5c:	0c000cd8 	jal	60003360 <strcpy>
60000e60:	00000000 	nop
60000e64:	27c20014 	addiu	v0,s8,20
60000e68:	00402021 	move	a0,v0
60000e6c:	3c026000 	lui	v0,0x6000
60000e70:	244539a4 	addiu	a1,v0,14756
60000e74:	0c000c63 	jal	6000318c <strcat>
60000e78:	00000000 	nop
60000e7c:	3c026000 	lui	v0,0x6000
60000e80:	24443530 	addiu	a0,v0,13616
60000e84:	0c000a89 	jal	60002a24 <basename>
60000e88:	00000000 	nop
60000e8c:	00401821 	move	v1,v0
60000e90:	27c20014 	addiu	v0,s8,20
60000e94:	00402021 	move	a0,v0
60000e98:	00602821 	move	a1,v1
60000e9c:	00003021 	move	a2,zero
60000ea0:	0c000559 	jal	60001564 <_exec_app>
60000ea4:	00000000 	nop
60000ea8:	3c026000 	lui	v0,0x6000
60000eac:	24030001 	li	v1,1
60000eb0:	ac434060 	sw	v1,16480(v0)
60000eb4:	24020001 	li	v0,1
60000eb8:	afc20418 	sw	v0,1048(s8)
60000ebc:	8fc20418 	lw	v0,1048(s8)
60000ec0:	03c0e821 	move	sp,s8
60000ec4:	8fbf042c 	lw	ra,1068(sp)
60000ec8:	8fbe0428 	lw	s8,1064(sp)
60000ecc:	27bd0430 	addiu	sp,sp,1072
60000ed0:	03e00008 	jr	ra
60000ed4:	00000000 	nop

60000ed8 <_notify_launcher>:
60000ed8:	27bdfbd0 	addiu	sp,sp,-1072
60000edc:	afbf042c 	sw	ra,1068(sp)
60000ee0:	afbe0428 	sw	s8,1064(sp)
60000ee4:	03a0f021 	move	s8,sp
60000ee8:	afc40430 	sw	a0,1072(s8)
60000eec:	3c026000 	lui	v0,0x6000
60000ef0:	24443530 	addiu	a0,v0,13616
60000ef4:	0c000a89 	jal	60002a24 <basename>
60000ef8:	00000000 	nop
60000efc:	00402021 	move	a0,v0
60000f00:	0c000a9b 	jal	60002a6c <is_app_exist>
60000f04:	00000000 	nop
60000f08:	afc20420 	sw	v0,1056(s8)
60000f0c:	8fc30420 	lw	v1,1056(s8)
60000f10:	24020001 	li	v0,1
60000f14:	14620026 	bne	v1,v0,60000fb0 <_notify_launcher+0xd8>
60000f18:	00000000 	nop
60000f1c:	0c000bee 	jal	60002fb8 <getpid>
60000f20:	00000000 	nop
60000f24:	00401821 	move	v1,v0
60000f28:	3c026000 	lui	v0,0x6000
60000f2c:	244239ac 	addiu	v0,v0,14764
60000f30:	afa20010 	sw	v0,16(sp)
60000f34:	3c026000 	lui	v0,0x6000
60000f38:	244439c0 	addiu	a0,v0,14784
60000f3c:	00602821 	move	a1,v1
60000f40:	3c026000 	lui	v0,0x6000
60000f44:	244635c0 	addiu	a2,v0,13760
60000f48:	24070215 	li	a3,533
60000f4c:	0c000d22 	jal	60003488 <printf>
60000f50:	00000000 	nop
60000f54:	240207dc 	li	v0,2012
60000f58:	afc20018 	sw	v0,24(s8)
60000f5c:	27c2001c 	addiu	v0,s8,28
60000f60:	00402021 	move	a0,v0
60000f64:	00002821 	move	a1,zero
60000f68:	24060400 	li	a2,1024
60000f6c:	0c000c52 	jal	60003148 <memset>
60000f70:	00000000 	nop
60000f74:	27c2001c 	addiu	v0,s8,28
60000f78:	00402021 	move	a0,v0
60000f7c:	8fc50430 	lw	a1,1072(s8)
60000f80:	24060400 	li	a2,1024
60000f84:	0c000ce3 	jal	6000338c <strncpy>
60000f88:	00000000 	nop
60000f8c:	3c026000 	lui	v0,0x6000
60000f90:	24443530 	addiu	a0,v0,13616
60000f94:	27c50018 	addiu	a1,s8,24
60000f98:	0c000ab0 	jal	60002ac0 <send_async_msg>
60000f9c:	00000000 	nop
60000fa0:	24020001 	li	v0,1
60000fa4:	afc20424 	sw	v0,1060(s8)
60000fa8:	10000002 	b	60000fb4 <_notify_launcher+0xdc>
60000fac:	00000000 	nop
60000fb0:	afc00424 	sw	zero,1060(s8)
60000fb4:	8fc20424 	lw	v0,1060(s8)
60000fb8:	03c0e821 	move	sp,s8
60000fbc:	8fbf042c 	lw	ra,1068(sp)
60000fc0:	8fbe0428 	lw	s8,1064(sp)
60000fc4:	27bd0430 	addiu	sp,sp,1072
60000fc8:	03e00008 	jr	ra
60000fcc:	00000000 	nop

60000fd0 <_msg_loop_cb>:
60000fd0:	27bde798 	addiu	sp,sp,-6248
60000fd4:	afbf1864 	sw	ra,6244(sp)
60000fd8:	afbe1860 	sw	s8,6240(sp)
60000fdc:	03a0f021 	move	s8,sp
60000fe0:	afc41868 	sw	a0,6248(s8)
60000fe4:	afc00018 	sw	zero,24(s8)
60000fe8:	0c000bee 	jal	60002fb8 <getpid>
60000fec:	00000000 	nop
60000ff0:	00401821 	move	v1,v0
60000ff4:	3c026000 	lui	v0,0x6000
60000ff8:	244239dc 	addiu	v0,v0,14812
60000ffc:	afa20010 	sw	v0,16(sp)
60001000:	3c026000 	lui	v0,0x6000
60001004:	244439ec 	addiu	a0,v0,14828
60001008:	00602821 	move	a1,v1
6000100c:	3c026000 	lui	v0,0x6000
60001010:	244635c0 	addiu	a2,v0,13760
60001014:	24070227 	li	a3,551
60001018:	0c000d22 	jal	60003488 <printf>
6000101c:	00000000 	nop
60001020:	0c000bee 	jal	60002fb8 <getpid>
60001024:	00000000 	nop
60001028:	00401821 	move	v1,v0
6000102c:	3c026000 	lui	v0,0x6000
60001030:	244239dc 	addiu	v0,v0,14812
60001034:	afa20010 	sw	v0,16(sp)
60001038:	8fc21868 	lw	v0,6248(s8)
6000103c:	8c420000 	lw	v0,0(v0)
60001040:	afa20014 	sw	v0,20(sp)
60001044:	3c026000 	lui	v0,0x6000
60001048:	24443a24 	addiu	a0,v0,14884
6000104c:	00602821 	move	a1,v1
60001050:	3c026000 	lui	v0,0x6000
60001054:	244635c0 	addiu	a2,v0,13760
60001058:	24070228 	li	a3,552
6000105c:	0c000d22 	jal	60003488 <printf>
60001060:	00000000 	nop
60001064:	8fc21868 	lw	v0,6248(s8)
60001068:	8c420000 	lw	v0,0(v0)
6000106c:	2442f82f 	addiu	v0,v0,-2001
60001070:	afc21858 	sw	v0,6232(s8)
60001074:	8fc31858 	lw	v1,6232(s8)
60001078:	2c620014 	sltiu	v0,v1,20
6000107c:	10400132 	beqz	v0,60001548 <_msg_loop_cb+0x578>
60001080:	00000000 	nop
60001084:	8fc21858 	lw	v0,6232(s8)
60001088:	00021880 	sll	v1,v0,0x2
6000108c:	3c026000 	lui	v0,0x6000
60001090:	24423a50 	addiu	v0,v0,14928
60001094:	00621021 	addu	v0,v1,v0
60001098:	8c420000 	lw	v0,0(v0)
6000109c:	00400008 	jr	v0
600010a0:	00000000 	nop
600010a4:	8fc21868 	lw	v0,6248(s8)
600010a8:	8c440404 	lw	a0,1028(v0)
600010ac:	0c000aaa 	jal	60002aa8 <get_app_name>
600010b0:	00000000 	nop
600010b4:	00401821 	move	v1,v0
600010b8:	8fc21868 	lw	v0,6248(s8)
600010bc:	24420004 	addiu	v0,v0,4
600010c0:	00402021 	move	a0,v0
600010c4:	00602821 	move	a1,v1
600010c8:	00003021 	move	a2,zero
600010cc:	0c000559 	jal	60001564 <_exec_app>
600010d0:	00000000 	nop
600010d4:	1000011c 	b	60001548 <_msg_loop_cb+0x578>
600010d8:	00000000 	nop
600010dc:	8fc21868 	lw	v0,6248(s8)
600010e0:	8c440404 	lw	a0,1028(v0)
600010e4:	0c000aaa 	jal	60002aa8 <get_app_name>
600010e8:	00000000 	nop
600010ec:	00401821 	move	v1,v0
600010f0:	8fc21868 	lw	v0,6248(s8)
600010f4:	24420004 	addiu	v0,v0,4
600010f8:	00402021 	move	a0,v0
600010fc:	00602821 	move	a1,v1
60001100:	00003021 	move	a2,zero
60001104:	0c000559 	jal	60001564 <_exec_app>
60001108:	00000000 	nop
6000110c:	afc20428 	sw	v0,1064(s8)
60001110:	8fc30428 	lw	v1,1064(s8)
60001114:	24020001 	li	v0,1
60001118:	14620005 	bne	v1,v0,60001130 <_msg_loop_cb+0x160>
6000111c:	00000000 	nop
60001120:	24020001 	li	v0,1
60001124:	afc20020 	sw	v0,32(s8)
60001128:	10000003 	b	60001138 <_msg_loop_cb+0x168>
6000112c:	00000000 	nop
60001130:	24020002 	li	v0,2
60001134:	afc20020 	sw	v0,32(s8)
60001138:	27c20020 	addiu	v0,s8,32
6000113c:	00402021 	move	a0,v0
60001140:	0c000aad 	jal	60002ab4 <reply_sync_msg>
60001144:	00000000 	nop
60001148:	100000ff 	b	60001548 <_msg_loop_cb+0x578>
6000114c:	00000000 	nop
60001150:	8fc21868 	lw	v0,6248(s8)
60001154:	24420004 	addiu	v0,v0,4
60001158:	00402021 	move	a0,v0
6000115c:	0c000a89 	jal	60002a24 <basename>
60001160:	00000000 	nop
60001164:	00402021 	move	a0,v0
60001168:	0c000a9b 	jal	60002a6c <is_app_exist>
6000116c:	00000000 	nop
60001170:	afc20018 	sw	v0,24(s8)
60001174:	8fc30018 	lw	v1,24(s8)
60001178:	24020001 	li	v0,1
6000117c:	1462002d 	bne	v1,v0,60001234 <_msg_loop_cb+0x264>
60001180:	00000000 	nop
60001184:	240203e9 	li	v0,1001
60001188:	afc20430 	sw	v0,1072(s8)
6000118c:	27c20430 	addiu	v0,s8,1072
60001190:	24420004 	addiu	v0,v0,4
60001194:	00402021 	move	a0,v0
60001198:	00002821 	move	a1,zero
6000119c:	24060400 	li	a2,1024
600011a0:	0c000c52 	jal	60003148 <memset>
600011a4:	00000000 	nop
600011a8:	8fc21868 	lw	v0,6248(s8)
600011ac:	24420004 	addiu	v0,v0,4
600011b0:	27c30430 	addiu	v1,s8,1072
600011b4:	00402021 	move	a0,v0
600011b8:	00602821 	move	a1,v1
600011bc:	0c000ab0 	jal	60002ac0 <send_async_msg>
600011c0:	00000000 	nop
600011c4:	8fc21868 	lw	v0,6248(s8)
600011c8:	24420004 	addiu	v0,v0,4
600011cc:	00402021 	move	a0,v0
600011d0:	0c000a89 	jal	60002a24 <basename>
600011d4:	00000000 	nop
600011d8:	00401821 	move	v1,v0
600011dc:	3c026000 	lui	v0,0x6000
600011e0:	24444084 	addiu	a0,v0,16516
600011e4:	00602821 	move	a1,v1
600011e8:	24060400 	li	a2,1024
600011ec:	0c000ce3 	jal	6000338c <strncpy>
600011f0:	00000000 	nop
600011f4:	3c026000 	lui	v0,0x6000
600011f8:	24434080 	addiu	v1,v0,16512
600011fc:	24020001 	li	v0,1
60001200:	ac620404 	sw	v0,1028(v1)
60001204:	3c026000 	lui	v0,0x6000
60001208:	24444080 	addiu	a0,v0,16512
6000120c:	0c000be2 	jal	60002f88 <sem_wait>
60001210:	00000000 	nop
60001214:	24020001 	li	v0,1
60001218:	afc20838 	sw	v0,2104(s8)
6000121c:	27c20838 	addiu	v0,s8,2104
60001220:	00402021 	move	a0,v0
60001224:	0c000aad 	jal	60002ab4 <reply_sync_msg>
60001228:	00000000 	nop
6000122c:	100000c6 	b	60001548 <_msg_loop_cb+0x578>
60001230:	00000000 	nop
60001234:	24020002 	li	v0,2
60001238:	afc20c40 	sw	v0,3136(s8)
6000123c:	27c20c40 	addiu	v0,s8,3136
60001240:	00402021 	move	a0,v0
60001244:	0c000aad 	jal	60002ab4 <reply_sync_msg>
60001248:	00000000 	nop
6000124c:	100000be 	b	60001548 <_msg_loop_cb+0x578>
60001250:	00000000 	nop
60001254:	8fc21868 	lw	v0,6248(s8)
60001258:	24420004 	addiu	v0,v0,4
6000125c:	00402021 	move	a0,v0
60001260:	0c000a89 	jal	60002a24 <basename>
60001264:	00000000 	nop
60001268:	00402021 	move	a0,v0
6000126c:	0c000a9b 	jal	60002a6c <is_app_exist>
60001270:	00000000 	nop
60001274:	afc20018 	sw	v0,24(s8)
60001278:	8fc30018 	lw	v1,24(s8)
6000127c:	24020001 	li	v0,1
60001280:	146200b1 	bne	v1,v0,60001548 <_msg_loop_cb+0x578>
60001284:	00000000 	nop
60001288:	240203e9 	li	v0,1001
6000128c:	afc20430 	sw	v0,1072(s8)
60001290:	27c20430 	addiu	v0,s8,1072
60001294:	24420004 	addiu	v0,v0,4
60001298:	00402021 	move	a0,v0
6000129c:	00002821 	move	a1,zero
600012a0:	24060400 	li	a2,1024
600012a4:	0c000c52 	jal	60003148 <memset>
600012a8:	00000000 	nop
600012ac:	8fc21868 	lw	v0,6248(s8)
600012b0:	24420004 	addiu	v0,v0,4
600012b4:	27c30430 	addiu	v1,s8,1072
600012b8:	00402021 	move	a0,v0
600012bc:	00602821 	move	a1,v1
600012c0:	0c000ab0 	jal	60002ac0 <send_async_msg>
600012c4:	00000000 	nop
600012c8:	1000009f 	b	60001548 <_msg_loop_cb+0x578>
600012cc:	00000000 	nop
600012d0:	3c036000 	lui	v1,0x6000
600012d4:	24020001 	li	v0,1
600012d8:	ac624060 	sw	v0,16480(v1)
600012dc:	00002021 	move	a0,zero
600012e0:	00002821 	move	a1,zero
600012e4:	0c000622 	jal	60001888 <_kill_user_apps>
600012e8:	00000000 	nop
600012ec:	10000096 	b	60001548 <_msg_loop_cb+0x578>
600012f0:	00000000 	nop
600012f4:	8fc21868 	lw	v0,6248(s8)
600012f8:	8c440404 	lw	a0,1028(v0)
600012fc:	0c000aaa 	jal	60002aa8 <get_app_name>
60001300:	00000000 	nop
60001304:	afc20428 	sw	v0,1064(s8)
60001308:	8fc40428 	lw	a0,1064(s8)
6000130c:	00002821 	move	a1,zero
60001310:	0c000622 	jal	60001888 <_kill_user_apps>
60001314:	00000000 	nop
60001318:	24020001 	li	v0,1
6000131c:	afc20430 	sw	v0,1072(s8)
60001320:	27c20430 	addiu	v0,s8,1072
60001324:	00402021 	move	a0,v0
60001328:	0c000aad 	jal	60002ab4 <reply_sync_msg>
6000132c:	00000000 	nop
60001330:	10000085 	b	60001548 <_msg_loop_cb+0x578>
60001334:	00000000 	nop
60001338:	3c026000 	lui	v0,0x6000
6000133c:	ac404060 	sw	zero,16480(v0)
60001340:	00002021 	move	a0,zero
60001344:	00002821 	move	a1,zero
60001348:	0c000622 	jal	60001888 <_kill_user_apps>
6000134c:	00000000 	nop
60001350:	8fc21868 	lw	v0,6248(s8)
60001354:	8c440404 	lw	a0,1028(v0)
60001358:	0c000aaa 	jal	60002aa8 <get_app_name>
6000135c:	00000000 	nop
60001360:	00401821 	move	v1,v0
60001364:	8fc21868 	lw	v0,6248(s8)
60001368:	24420004 	addiu	v0,v0,4
6000136c:	00402021 	move	a0,v0
60001370:	00602821 	move	a1,v1
60001374:	00003021 	move	a2,zero
60001378:	0c000559 	jal	60001564 <_exec_app>
6000137c:	00000000 	nop
60001380:	3c036000 	lui	v1,0x6000
60001384:	24020001 	li	v0,1
60001388:	ac624060 	sw	v0,16480(v1)
6000138c:	1000006e 	b	60001548 <_msg_loop_cb+0x578>
60001390:	00000000 	nop
60001394:	8fc21868 	lw	v0,6248(s8)
60001398:	8c440404 	lw	a0,1028(v0)
6000139c:	0c000aaa 	jal	60002aa8 <get_app_name>
600013a0:	00000000 	nop
600013a4:	afc20428 	sw	v0,1064(s8)
600013a8:	8fc40428 	lw	a0,1064(s8)
600013ac:	00002821 	move	a1,zero
600013b0:	0c000622 	jal	60001888 <_kill_user_apps>
600013b4:	00000000 	nop
600013b8:	8fc40428 	lw	a0,1064(s8)
600013bc:	24050001 	li	a1,1
600013c0:	0c000622 	jal	60001888 <_kill_user_apps>
600013c4:	00000000 	nop
600013c8:	24020001 	li	v0,1
600013cc:	afc20838 	sw	v0,2104(s8)
600013d0:	27c20838 	addiu	v0,s8,2104
600013d4:	00402021 	move	a0,v0
600013d8:	0c000aad 	jal	60002ab4 <reply_sync_msg>
600013dc:	00000000 	nop
600013e0:	10000059 	b	60001548 <_msg_loop_cb+0x578>
600013e4:	00000000 	nop
600013e8:	3c026000 	lui	v0,0x6000
600013ec:	ac404060 	sw	zero,16480(v0)
600013f0:	27c20c40 	addiu	v0,s8,3136
600013f4:	00402021 	move	a0,v0
600013f8:	00002821 	move	a1,zero
600013fc:	24060080 	li	a2,128
60001400:	0c000c52 	jal	60003148 <memset>
60001404:	00000000 	nop
60001408:	8fc21868 	lw	v0,6248(s8)
6000140c:	8c440404 	lw	a0,1028(v0)
60001410:	0c000aaa 	jal	60002aa8 <get_app_name>
60001414:	00000000 	nop
60001418:	afc20428 	sw	v0,1064(s8)
6000141c:	8fc20428 	lw	v0,1064(s8)
60001420:	10400049 	beqz	v0,60001548 <_msg_loop_cb+0x578>
60001424:	00000000 	nop
60001428:	27c20c40 	addiu	v0,s8,3136
6000142c:	00402021 	move	a0,v0
60001430:	8fc50428 	lw	a1,1064(s8)
60001434:	24060080 	li	a2,128
60001438:	0c000ce3 	jal	6000338c <strncpy>
6000143c:	00000000 	nop
60001440:	240203e9 	li	v0,1001
60001444:	afc21048 	sw	v0,4168(s8)
60001448:	27c21048 	addiu	v0,s8,4168
6000144c:	24420004 	addiu	v0,v0,4
60001450:	00402021 	move	a0,v0
60001454:	00002821 	move	a1,zero
60001458:	24060400 	li	a2,1024
6000145c:	0c000c52 	jal	60003148 <memset>
60001460:	00000000 	nop
60001464:	27c20c40 	addiu	v0,s8,3136
60001468:	27c31048 	addiu	v1,s8,4168
6000146c:	00402021 	move	a0,v0
60001470:	00602821 	move	a1,v1
60001474:	0c000ab0 	jal	60002ac0 <send_async_msg>
60001478:	00000000 	nop
6000147c:	27c30c40 	addiu	v1,s8,3136
60001480:	3c026000 	lui	v0,0x6000
60001484:	24444084 	addiu	a0,v0,16516
60001488:	00602821 	move	a1,v1
6000148c:	24060400 	li	a2,1024
60001490:	0c000ce3 	jal	6000338c <strncpy>
60001494:	00000000 	nop
60001498:	3c026000 	lui	v0,0x6000
6000149c:	24424080 	addiu	v0,v0,16512
600014a0:	ac400404 	sw	zero,1028(v0)
600014a4:	3c026000 	lui	v0,0x6000
600014a8:	24444080 	addiu	a0,v0,16512
600014ac:	0c000be2 	jal	60002f88 <sem_wait>
600014b0:	00000000 	nop
600014b4:	8fc21868 	lw	v0,6248(s8)
600014b8:	24420004 	addiu	v0,v0,4
600014bc:	27c30c40 	addiu	v1,s8,3136
600014c0:	00402021 	move	a0,v0
600014c4:	00602821 	move	a1,v1
600014c8:	24060001 	li	a2,1
600014cc:	0c000559 	jal	60001564 <_exec_app>
600014d0:	00000000 	nop
600014d4:	1000001c 	b	60001548 <_msg_loop_cb+0x578>
600014d8:	00000000 	nop
600014dc:	3c036000 	lui	v1,0x6000
600014e0:	24020001 	li	v0,1
600014e4:	ac62405c 	sw	v0,16476(v1)
600014e8:	0c0008f9 	jal	600023e4 <_get_sys_configs>
600014ec:	00000000 	nop
600014f0:	0c0000a0 	jal	60000280 <_start_watchdog>
600014f4:	00000000 	nop
600014f8:	10000013 	b	60001548 <_msg_loop_cb+0x578>
600014fc:	00000000 	nop
60001500:	0c0000e5 	jal	60000394 <_stop_watchdog>
60001504:	00000000 	nop
60001508:	24020001 	li	v0,1
6000150c:	afc20cc0 	sw	v0,3264(s8)
60001510:	27c20cc0 	addiu	v0,s8,3264
60001514:	00402021 	move	a0,v0
60001518:	0c000aad 	jal	60002ab4 <reply_sync_msg>
6000151c:	00000000 	nop
60001520:	10000009 	b	60001548 <_msg_loop_cb+0x578>
60001524:	00000000 	nop
60001528:	0c0000a0 	jal	60000280 <_start_watchdog>
6000152c:	00000000 	nop
60001530:	24020001 	li	v0,1
60001534:	afc21450 	sw	v0,5200(s8)
60001538:	27c21450 	addiu	v0,s8,5200
6000153c:	00402021 	move	a0,v0
60001540:	0c000aad 	jal	60002ab4 <reply_sync_msg>
60001544:	00000000 	nop
60001548:	00001021 	move	v0,zero
6000154c:	03c0e821 	move	sp,s8
60001550:	8fbf1864 	lw	ra,6244(sp)
60001554:	8fbe1860 	lw	s8,6240(sp)
60001558:	27bd1868 	addiu	sp,sp,6248
6000155c:	03e00008 	jr	ra
60001560:	00000000 	nop

60001564 <_exec_app>:
60001564:	27bdf528 	addiu	sp,sp,-2776
60001568:	afbf0ad0 	sw	ra,2768(sp)
6000156c:	afbe0acc 	sw	s8,2764(sp)
60001570:	afb00ac8 	sw	s0,2760(sp)
60001574:	03a0f021 	move	s8,sp
60001578:	afc40ad8 	sw	a0,2776(s8)
6000157c:	afc50adc 	sw	a1,2780(s8)
60001580:	afc60ae0 	sw	a2,2784(s8)
60001584:	afc00020 	sw	zero,32(s8)
60001588:	afc00024 	sw	zero,36(s8)
6000158c:	3c026000 	lui	v0,0x6000
60001590:	8c43405c 	lw	v1,16476(v0)
60001594:	24020001 	li	v0,1
60001598:	14620003 	bne	v1,v0,600015a8 <_exec_app+0x44>
6000159c:	00000000 	nop
600015a0:	0c000039 	jal	600000e4 <_scaleup_pm_freq>
600015a4:	00000000 	nop
600015a8:	0c000820 	jal	60002080 <_reset_argv>
600015ac:	00000000 	nop
600015b0:	8fc40ad8 	lw	a0,2776(s8)
600015b4:	0c000722 	jal	60001c88 <_parse_argv>
600015b8:	00000000 	nop
600015bc:	0c00084a 	jal	60002128 <_print_argv>
600015c0:	00000000 	nop
600015c4:	3c026000 	lui	v0,0x6000
600015c8:	8c444034 	lw	a0,16436(v0)
600015cc:	0c000a89 	jal	60002a24 <basename>
600015d0:	00000000 	nop
600015d4:	00402021 	move	a0,v0
600015d8:	0c0009b3 	jal	600026cc <_check_mutex>
600015dc:	00000000 	nop
600015e0:	3c026000 	lui	v0,0x6000
600015e4:	8c444034 	lw	a0,16436(v0)
600015e8:	0c000a89 	jal	60002a24 <basename>
600015ec:	00000000 	nop
600015f0:	00402021 	move	a0,v0
600015f4:	0c000a9e 	jal	60002a78 <applib_register_app>
600015f8:	00000000 	nop
600015fc:	afc20024 	sw	v0,36(s8)
60001600:	8fc30024 	lw	v1,36(s8)
60001604:	24020001 	li	v0,1
60001608:	1462006d 	bne	v1,v0,600017c0 <_exec_app+0x25c>
6000160c:	00000000 	nop
60001610:	3c026000 	lui	v0,0x6000
60001614:	8c444034 	lw	a0,16436(v0)
60001618:	3c026000 	lui	v0,0x6000
6000161c:	24454034 	addiu	a1,v0,16436
60001620:	0c000be8 	jal	60002fa0 <execvp>
60001624:	00000000 	nop
60001628:	afc20028 	sw	v0,40(s8)
6000162c:	8fc20028 	lw	v0,40(s8)
60001630:	1440005a 	bnez	v0,6000179c <_exec_app+0x238>
60001634:	00000000 	nop
60001638:	3c026000 	lui	v0,0x6000
6000163c:	8c444034 	lw	a0,16436(v0)
60001640:	0c000a89 	jal	60002a24 <basename>
60001644:	00000000 	nop
60001648:	00402021 	move	a0,v0
6000164c:	0c000abc 	jal	60002af0 <app_running_list_get_app_info>
60001650:	00000000 	nop
60001654:	27c30030 	addiu	v1,s8,48
60001658:	24060a8c 	li	a2,2700
6000165c:	00602021 	move	a0,v1
60001660:	00402821 	move	a1,v0
60001664:	0c000c3e 	jal	600030f8 <memcpy>
60001668:	00000000 	nop
6000166c:	24020001 	li	v0,1
60001670:	afc2009c 	sw	v0,156(s8)
60001674:	3c026000 	lui	v0,0x6000
60001678:	8c444034 	lw	a0,16436(v0)
6000167c:	0c000a89 	jal	60002a24 <basename>
60001680:	00000000 	nop
60001684:	27c30030 	addiu	v1,s8,48
60001688:	00402021 	move	a0,v0
6000168c:	00602821 	move	a1,v1
60001690:	0c000ac2 	jal	60002b08 <app_running_list_set_app_info>
60001694:	00000000 	nop
60001698:	8fc20adc 	lw	v0,2780(s8)
6000169c:	1040003b 	beqz	v0,6000178c <_exec_app+0x228>
600016a0:	00000000 	nop
600016a4:	24040014 	li	a0,20
600016a8:	0c000d25 	jal	60003494 <malloc>
600016ac:	00000000 	nop
600016b0:	afc20ac0 	sw	v0,2752(s8)
600016b4:	8fd00ac0 	lw	s0,2752(s8)
600016b8:	8fc40adc 	lw	a0,2780(s8)
600016bc:	0c000cf8 	jal	600033e0 <strdup>
600016c0:	00000000 	nop
600016c4:	ae020008 	sw	v0,8(s0)
600016c8:	8fd00ac0 	lw	s0,2752(s8)
600016cc:	3c026000 	lui	v0,0x6000
600016d0:	8c444034 	lw	a0,16436(v0)
600016d4:	0c000a89 	jal	60002a24 <basename>
600016d8:	00000000 	nop
600016dc:	00402021 	move	a0,v0
600016e0:	0c000cf8 	jal	600033e0 <strdup>
600016e4:	00000000 	nop
600016e8:	ae02000c 	sw	v0,12(s0)
600016ec:	8fc30ae0 	lw	v1,2784(s8)
600016f0:	24020001 	li	v0,1
600016f4:	14620006 	bne	v1,v0,60001710 <_exec_app+0x1ac>
600016f8:	00000000 	nop
600016fc:	8fc30ac0 	lw	v1,2752(s8)
60001700:	24020001 	li	v0,1
60001704:	ac620010 	sw	v0,16(v1)
60001708:	10000003 	b	60001718 <_exec_app+0x1b4>
6000170c:	00000000 	nop
60001710:	8fc20ac0 	lw	v0,2752(s8)
60001714:	ac400010 	sw	zero,16(v0)
60001718:	8fc40ac0 	lw	a0,2752(s8)
6000171c:	3c026000 	lui	v0,0x6000
60001720:	24454068 	addiu	a1,v0,16488
60001724:	0c0005f9 	jal	600017e4 <list_add>
60001728:	00000000 	nop
6000172c:	0c000bee 	jal	60002fb8 <getpid>
60001730:	00000000 	nop
60001734:	00401821 	move	v1,v0
60001738:	3c026000 	lui	v0,0x6000
6000173c:	24423aa0 	addiu	v0,v0,15008
60001740:	afa20010 	sw	v0,16(sp)
60001744:	8fc20ac0 	lw	v0,2752(s8)
60001748:	8c420008 	lw	v0,8(v0)
6000174c:	afa20014 	sw	v0,20(sp)
60001750:	8fc20ac0 	lw	v0,2752(s8)
60001754:	8c42000c 	lw	v0,12(v0)
60001758:	afa20018 	sw	v0,24(sp)
6000175c:	3c026000 	lui	v0,0x6000
60001760:	24443aac 	addiu	a0,v0,15020
60001764:	00602821 	move	a1,v1
60001768:	3c026000 	lui	v0,0x6000
6000176c:	244635c0 	addiu	a2,v0,13760
60001770:	24070301 	li	a3,769
60001774:	0c000d22 	jal	60003488 <printf>
60001778:	00000000 	nop
6000177c:	3c026000 	lui	v0,0x6000
60001780:	8c444034 	lw	a0,16436(v0)
60001784:	0c000871 	jal	600021c4 <_add_path_info>
60001788:	00000000 	nop
6000178c:	24020001 	li	v0,1
60001790:	afc20020 	sw	v0,32(s8)
60001794:	1000000b 	b	600017c4 <_exec_app+0x260>
60001798:	00000000 	nop
6000179c:	3c026000 	lui	v0,0x6000
600017a0:	8c444034 	lw	a0,16436(v0)
600017a4:	0c000a89 	jal	60002a24 <basename>
600017a8:	00000000 	nop
600017ac:	00402021 	move	a0,v0
600017b0:	0c000aa1 	jal	60002a84 <applib_unregister_app>
600017b4:	00000000 	nop
600017b8:	10000002 	b	600017c4 <_exec_app+0x260>
600017bc:	00000000 	nop
600017c0:	afc00020 	sw	zero,32(s8)
600017c4:	8fc20020 	lw	v0,32(s8)
600017c8:	03c0e821 	move	sp,s8
600017cc:	8fbf0ad0 	lw	ra,2768(sp)
600017d0:	8fbe0acc 	lw	s8,2764(sp)
600017d4:	8fb00ac8 	lw	s0,2760(sp)
600017d8:	27bd0ad8 	addiu	sp,sp,2776
600017dc:	03e00008 	jr	ra
600017e0:	00000000 	nop

600017e4 <list_add>:
600017e4:	27bdffe8 	addiu	sp,sp,-24
600017e8:	afbf0014 	sw	ra,20(sp)
600017ec:	afbe0010 	sw	s8,16(sp)
600017f0:	03a0f021 	move	s8,sp
600017f4:	afc40018 	sw	a0,24(s8)
600017f8:	afc5001c 	sw	a1,28(s8)
600017fc:	8fc2001c 	lw	v0,28(s8)
60001800:	8fc40018 	lw	a0,24(s8)
60001804:	8fc5001c 	lw	a1,28(s8)
60001808:	8c460000 	lw	a2,0(v0)
6000180c:	0c00060b 	jal	6000182c <__list_add>
60001810:	00000000 	nop
60001814:	03c0e821 	move	sp,s8
60001818:	8fbf0014 	lw	ra,20(sp)
6000181c:	8fbe0010 	lw	s8,16(sp)
60001820:	27bd0018 	addiu	sp,sp,24
60001824:	03e00008 	jr	ra
60001828:	00000000 	nop

6000182c <__list_add>:
6000182c:	27bdfff8 	addiu	sp,sp,-8
60001830:	afbe0000 	sw	s8,0(sp)
60001834:	03a0f021 	move	s8,sp
60001838:	afc40008 	sw	a0,8(s8)
6000183c:	afc5000c 	sw	a1,12(s8)
60001840:	afc60010 	sw	a2,16(s8)
60001844:	8fc30010 	lw	v1,16(s8)
60001848:	8fc20008 	lw	v0,8(s8)
6000184c:	ac620004 	sw	v0,4(v1)
60001850:	8fc30008 	lw	v1,8(s8)
60001854:	8fc20010 	lw	v0,16(s8)
60001858:	ac620000 	sw	v0,0(v1)
6000185c:	8fc30008 	lw	v1,8(s8)
60001860:	8fc2000c 	lw	v0,12(s8)
60001864:	ac620004 	sw	v0,4(v1)
60001868:	8fc3000c 	lw	v1,12(s8)
6000186c:	8fc20008 	lw	v0,8(s8)
60001870:	ac620000 	sw	v0,0(v1)
60001874:	03c0e821 	move	sp,s8
60001878:	8fbe0000 	lw	s8,0(sp)
6000187c:	27bd0008 	addiu	sp,sp,8
60001880:	03e00008 	jr	ra
60001884:	00000000 	nop

60001888 <_kill_user_apps>:
60001888:	27bdfbb8 	addiu	sp,sp,-1096
6000188c:	afbf0440 	sw	ra,1088(sp)
60001890:	afbe043c 	sw	s8,1084(sp)
60001894:	afb00438 	sw	s0,1080(sp)
60001898:	03a0f021 	move	s8,sp
6000189c:	afc40448 	sw	a0,1096(s8)
600018a0:	afc5044c 	sw	a1,1100(s8)
600018a4:	afc00420 	sw	zero,1056(s8)
600018a8:	0c000ac5 	jal	60002b14 <app_running_list_get_list>
600018ac:	00000000 	nop
600018b0:	afc20420 	sw	v0,1056(s8)
600018b4:	8fc20420 	lw	v0,1056(s8)
600018b8:	10400077 	beqz	v0,60001a98 <_kill_user_apps+0x210>
600018bc:	00000000 	nop
600018c0:	8fc20448 	lw	v0,1096(s8)
600018c4:	1040000c 	beqz	v0,600018f8 <_kill_user_apps+0x70>
600018c8:	00000000 	nop
600018cc:	8fc20420 	lw	v0,1056(s8)
600018d0:	8c420000 	lw	v0,0(v0)
600018d4:	24420004 	addiu	v0,v0,4
600018d8:	00402021 	move	a0,v0
600018dc:	8fc50448 	lw	a1,1096(s8)
600018e0:	0c000cba 	jal	600032e8 <strcmp>
600018e4:	00000000 	nop
600018e8:	14400003 	bnez	v0,600018f8 <_kill_user_apps+0x70>
600018ec:	00000000 	nop
600018f0:	10000064 	b	60001a84 <_kill_user_apps+0x1fc>
600018f4:	00000000 	nop
600018f8:	8fc20420 	lw	v0,1056(s8)
600018fc:	8c420000 	lw	v0,0(v0)
60001900:	8c430068 	lw	v1,104(v0)
60001904:	8fc2044c 	lw	v0,1100(s8)
60001908:	10620003 	beq	v1,v0,60001918 <_kill_user_apps+0x90>
6000190c:	00000000 	nop
60001910:	1000005c 	b	60001a84 <_kill_user_apps+0x1fc>
60001914:	00000000 	nop
60001918:	8fc20420 	lw	v0,1056(s8)
6000191c:	8c420000 	lw	v0,0(v0)
60001920:	24420004 	addiu	v0,v0,4
60001924:	00402021 	move	a0,v0
60001928:	0c0006f9 	jal	60001be4 <_is_app_not_kill>
6000192c:	00000000 	nop
60001930:	14400054 	bnez	v0,60001a84 <_kill_user_apps+0x1fc>
60001934:	00000000 	nop
60001938:	2404000c 	li	a0,12
6000193c:	0c000d25 	jal	60003494 <malloc>
60001940:	00000000 	nop
60001944:	afc2042c 	sw	v0,1068(s8)
60001948:	8fc2042c 	lw	v0,1068(s8)
6000194c:	1040004d 	beqz	v0,60001a84 <_kill_user_apps+0x1fc>
60001950:	00000000 	nop
60001954:	8fd0042c 	lw	s0,1068(s8)
60001958:	8fc20420 	lw	v0,1056(s8)
6000195c:	8c420000 	lw	v0,0(v0)
60001960:	24420004 	addiu	v0,v0,4
60001964:	00402021 	move	a0,v0
60001968:	0c000cf8 	jal	600033e0 <strdup>
6000196c:	00000000 	nop
60001970:	ae020008 	sw	v0,8(s0)
60001974:	8fc4042c 	lw	a0,1068(s8)
60001978:	3c026000 	lui	v0,0x6000
6000197c:	244544a8 	addiu	a1,v0,17576
60001980:	0c0005f9 	jal	600017e4 <list_add>
60001984:	00000000 	nop
60001988:	3c026000 	lui	v0,0x6000
6000198c:	8c424068 	lw	v0,16488(v0)
60001990:	afc20424 	sw	v0,1060(s8)
60001994:	8fc20424 	lw	v0,1060(s8)
60001998:	8c420000 	lw	v0,0(v0)
6000199c:	afc20428 	sw	v0,1064(s8)
600019a0:	8fc20424 	lw	v0,1060(s8)
600019a4:	3c036000 	lui	v1,0x6000
600019a8:	24634068 	addiu	v1,v1,16488
600019ac:	10430035 	beq	v0,v1,60001a84 <_kill_user_apps+0x1fc>
600019b0:	00000000 	nop
600019b4:	8fc20424 	lw	v0,1060(s8)
600019b8:	afc20434 	sw	v0,1076(s8)
600019bc:	8fc20434 	lw	v0,1076(s8)
600019c0:	afc20430 	sw	v0,1072(s8)
600019c4:	8fc20430 	lw	v0,1072(s8)
600019c8:	8c430010 	lw	v1,16(v0)
600019cc:	24020001 	li	v0,1
600019d0:	14620003 	bne	v1,v0,600019e0 <_kill_user_apps+0x158>
600019d4:	00000000 	nop
600019d8:	8fc20430 	lw	v0,1072(s8)
600019dc:	ac400010 	sw	zero,16(v0)
600019e0:	8fc20420 	lw	v0,1056(s8)
600019e4:	8c420000 	lw	v0,0(v0)
600019e8:	24420004 	addiu	v0,v0,4
600019ec:	8fc30430 	lw	v1,1072(s8)
600019f0:	00402021 	move	a0,v0
600019f4:	8c65000c 	lw	a1,12(v1)
600019f8:	0c000cba 	jal	600032e8 <strcmp>
600019fc:	00000000 	nop
60001a00:	1040000b 	beqz	v0,60001a30 <_kill_user_apps+0x1a8>
60001a04:	00000000 	nop
60001a08:	8fc20420 	lw	v0,1056(s8)
60001a0c:	8c420000 	lw	v0,0(v0)
60001a10:	24420004 	addiu	v0,v0,4
60001a14:	8fc30430 	lw	v1,1072(s8)
60001a18:	00402021 	move	a0,v0
60001a1c:	8c650008 	lw	a1,8(v1)
60001a20:	0c000cba 	jal	600032e8 <strcmp>
60001a24:	00000000 	nop
60001a28:	1440000f 	bnez	v0,60001a68 <_kill_user_apps+0x1e0>
60001a2c:	00000000 	nop
60001a30:	8fc20430 	lw	v0,1072(s8)
60001a34:	8c44000c 	lw	a0,12(v0)
60001a38:	0c000d28 	jal	600034a0 <free>
60001a3c:	00000000 	nop
60001a40:	8fc20430 	lw	v0,1072(s8)
60001a44:	8c440008 	lw	a0,8(v0)
60001a48:	0c000d28 	jal	600034a0 <free>
60001a4c:	00000000 	nop
60001a50:	8fc40424 	lw	a0,1060(s8)
60001a54:	0c00031e 	jal	60000c78 <list_del>
60001a58:	00000000 	nop
60001a5c:	8fc40430 	lw	a0,1072(s8)
60001a60:	0c000d28 	jal	600034a0 <free>
60001a64:	00000000 	nop
60001a68:	8fc20428 	lw	v0,1064(s8)
60001a6c:	afc20424 	sw	v0,1060(s8)
60001a70:	8fc20424 	lw	v0,1060(s8)
60001a74:	8c420000 	lw	v0,0(v0)
60001a78:	afc20428 	sw	v0,1064(s8)
60001a7c:	1000ffc8 	b	600019a0 <_kill_user_apps+0x118>
60001a80:	00000000 	nop
60001a84:	8fc20420 	lw	v0,1056(s8)
60001a88:	8c420004 	lw	v0,4(v0)
60001a8c:	afc20420 	sw	v0,1056(s8)
60001a90:	1000ff88 	b	600018b4 <_kill_user_apps+0x2c>
60001a94:	00000000 	nop
60001a98:	3c026000 	lui	v0,0x6000
60001a9c:	8c4244a8 	lw	v0,17576(v0)
60001aa0:	afc20424 	sw	v0,1060(s8)
60001aa4:	8fc20424 	lw	v0,1060(s8)
60001aa8:	8c420000 	lw	v0,0(v0)
60001aac:	afc20428 	sw	v0,1064(s8)
60001ab0:	8fc20424 	lw	v0,1060(s8)
60001ab4:	3c036000 	lui	v1,0x6000
60001ab8:	246344a8 	addiu	v1,v1,17576
60001abc:	10430042 	beq	v0,v1,60001bc8 <_kill_user_apps+0x340>
60001ac0:	00000000 	nop
60001ac4:	8fc20424 	lw	v0,1060(s8)
60001ac8:	afc20430 	sw	v0,1072(s8)
60001acc:	8fc20430 	lw	v0,1072(s8)
60001ad0:	afc20434 	sw	v0,1076(s8)
60001ad4:	240203e9 	li	v0,1001
60001ad8:	afc20018 	sw	v0,24(s8)
60001adc:	27c2001c 	addiu	v0,s8,28
60001ae0:	00402021 	move	a0,v0
60001ae4:	00002821 	move	a1,zero
60001ae8:	24060400 	li	a2,1024
60001aec:	0c000c52 	jal	60003148 <memset>
60001af0:	00000000 	nop
60001af4:	8fc20434 	lw	v0,1076(s8)
60001af8:	8c440008 	lw	a0,8(v0)
60001afc:	27c50018 	addiu	a1,s8,24
60001b00:	0c000ab0 	jal	60002ac0 <send_async_msg>
60001b04:	00000000 	nop
60001b08:	8fc30434 	lw	v1,1076(s8)
60001b0c:	3c026000 	lui	v0,0x6000
60001b10:	24444084 	addiu	a0,v0,16516
60001b14:	8c650008 	lw	a1,8(v1)
60001b18:	24060400 	li	a2,1024
60001b1c:	0c000ce3 	jal	6000338c <strncpy>
60001b20:	00000000 	nop
60001b24:	3c026000 	lui	v0,0x6000
60001b28:	24424080 	addiu	v0,v0,16512
60001b2c:	ac400404 	sw	zero,1028(v0)
60001b30:	0c000bee 	jal	60002fb8 <getpid>
60001b34:	00000000 	nop
60001b38:	00401821 	move	v1,v0
60001b3c:	3c026000 	lui	v0,0x6000
60001b40:	24423af0 	addiu	v0,v0,15088
60001b44:	afa20010 	sw	v0,16(sp)
60001b48:	8fc20434 	lw	v0,1076(s8)
60001b4c:	8c420008 	lw	v0,8(v0)
60001b50:	afa20014 	sw	v0,20(sp)
60001b54:	3c026000 	lui	v0,0x6000
60001b58:	24443b00 	addiu	a0,v0,15104
60001b5c:	00602821 	move	a1,v1
60001b60:	3c026000 	lui	v0,0x6000
60001b64:	244635c0 	addiu	a2,v0,13760
60001b68:	2407034f 	li	a3,847
60001b6c:	0c000d22 	jal	60003488 <printf>
60001b70:	00000000 	nop
60001b74:	3c026000 	lui	v0,0x6000
60001b78:	24444080 	addiu	a0,v0,16512
60001b7c:	0c000be2 	jal	60002f88 <sem_wait>
60001b80:	00000000 	nop
60001b84:	8fc40424 	lw	a0,1060(s8)
60001b88:	0c00031e 	jal	60000c78 <list_del>
60001b8c:	00000000 	nop
60001b90:	8fc20434 	lw	v0,1076(s8)
60001b94:	8c440008 	lw	a0,8(v0)
60001b98:	0c000d28 	jal	600034a0 <free>
60001b9c:	00000000 	nop
60001ba0:	8fc40434 	lw	a0,1076(s8)
60001ba4:	0c000d28 	jal	600034a0 <free>
60001ba8:	00000000 	nop
60001bac:	8fc20428 	lw	v0,1064(s8)
60001bb0:	afc20424 	sw	v0,1060(s8)
60001bb4:	8fc20424 	lw	v0,1060(s8)
60001bb8:	8c420000 	lw	v0,0(v0)
60001bbc:	afc20428 	sw	v0,1064(s8)
60001bc0:	1000ffbb 	b	60001ab0 <_kill_user_apps+0x228>
60001bc4:	00000000 	nop
60001bc8:	03c0e821 	move	sp,s8
60001bcc:	8fbf0440 	lw	ra,1088(sp)
60001bd0:	8fbe043c 	lw	s8,1084(sp)
60001bd4:	8fb00438 	lw	s0,1080(sp)
60001bd8:	27bd0448 	addiu	sp,sp,1096
60001bdc:	03e00008 	jr	ra
60001be0:	00000000 	nop

60001be4 <_is_app_not_kill>:
60001be4:	27bdffe0 	addiu	sp,sp,-32
60001be8:	afbf001c 	sw	ra,28(sp)
60001bec:	afbe0018 	sw	s8,24(sp)
60001bf0:	03a0f021 	move	s8,sp
60001bf4:	afc40020 	sw	a0,32(s8)
60001bf8:	afc00010 	sw	zero,16(s8)
60001bfc:	8fc20010 	lw	v0,16(s8)
60001c00:	28420004 	slti	v0,v0,4
60001c04:	10400018 	beqz	v0,60001c68 <_is_app_not_kill+0x84>
60001c08:	00000000 	nop
60001c0c:	3c046000 	lui	a0,0x6000
60001c10:	8fc20010 	lw	v0,16(s8)
60001c14:	00021880 	sll	v1,v0,0x2
60001c18:	24824014 	addiu	v0,a0,16404
60001c1c:	00621021 	addu	v0,v1,v0
60001c20:	8c440000 	lw	a0,0(v0)
60001c24:	0c000a89 	jal	60002a24 <basename>
60001c28:	00000000 	nop
60001c2c:	8fc40020 	lw	a0,32(s8)
60001c30:	00402821 	move	a1,v0
60001c34:	0c000cba 	jal	600032e8 <strcmp>
60001c38:	00000000 	nop
60001c3c:	14400005 	bnez	v0,60001c54 <_is_app_not_kill+0x70>
60001c40:	00000000 	nop
60001c44:	24020001 	li	v0,1
60001c48:	afc20014 	sw	v0,20(s8)
60001c4c:	10000007 	b	60001c6c <_is_app_not_kill+0x88>
60001c50:	00000000 	nop
60001c54:	8fc20010 	lw	v0,16(s8)
60001c58:	24420001 	addiu	v0,v0,1
60001c5c:	afc20010 	sw	v0,16(s8)
60001c60:	1000ffe6 	b	60001bfc <_is_app_not_kill+0x18>
60001c64:	00000000 	nop
60001c68:	afc00014 	sw	zero,20(s8)
60001c6c:	8fc20014 	lw	v0,20(s8)
60001c70:	03c0e821 	move	sp,s8
60001c74:	8fbf001c 	lw	ra,28(sp)
60001c78:	8fbe0018 	lw	s8,24(sp)
60001c7c:	27bd0020 	addiu	sp,sp,32
60001c80:	03e00008 	jr	ra
60001c84:	00000000 	nop

60001c88 <_parse_argv>:
60001c88:	27bdffd0 	addiu	sp,sp,-48
60001c8c:	afbf0028 	sw	ra,40(sp)
60001c90:	afbe0024 	sw	s8,36(sp)
60001c94:	afb00020 	sw	s0,32(sp)
60001c98:	03a0f021 	move	s8,sp
60001c9c:	afc40030 	sw	a0,48(s8)
60001ca0:	afc00010 	sw	zero,16(s8)
60001ca4:	afc00014 	sw	zero,20(s8)
60001ca8:	8fc20030 	lw	v0,48(s8)
60001cac:	afc20018 	sw	v0,24(s8)
60001cb0:	afc0001c 	sw	zero,28(s8)
60001cb4:	8fc20018 	lw	v0,24(s8)
60001cb8:	80420000 	lb	v0,0(v0)
60001cbc:	10400013 	beqz	v0,60001d0c <_parse_argv+0x84>
60001cc0:	00000000 	nop
60001cc4:	8fc20018 	lw	v0,24(s8)
60001cc8:	80420000 	lb	v0,0(v0)
60001ccc:	2442fff7 	addiu	v0,v0,-9
60001cd0:	2c420005 	sltiu	v0,v0,5
60001cd4:	14400008 	bnez	v0,60001cf8 <_parse_argv+0x70>
60001cd8:	00000000 	nop
60001cdc:	8fc20018 	lw	v0,24(s8)
60001ce0:	80430000 	lb	v1,0(v0)
60001ce4:	24020020 	li	v0,32
60001ce8:	10620003 	beq	v1,v0,60001cf8 <_parse_argv+0x70>
60001cec:	00000000 	nop
60001cf0:	10000006 	b	60001d0c <_parse_argv+0x84>
60001cf4:	00000000 	nop
60001cf8:	8fc20018 	lw	v0,24(s8)
60001cfc:	24420001 	addiu	v0,v0,1
60001d00:	afc20018 	sw	v0,24(s8)
60001d04:	1000ffeb 	b	60001cb4 <_parse_argv+0x2c>
60001d08:	00000000 	nop
60001d0c:	8fc20018 	lw	v0,24(s8)
60001d10:	afc20014 	sw	v0,20(s8)
60001d14:	8fc20014 	lw	v0,20(s8)
60001d18:	104000aa 	beqz	v0,60001fc4 <_parse_argv+0x33c>
60001d1c:	00000000 	nop
60001d20:	8fc20018 	lw	v0,24(s8)
60001d24:	80430000 	lb	v1,0(v0)
60001d28:	24020022 	li	v0,34
60001d2c:	14620054 	bne	v1,v0,60001e80 <_parse_argv+0x1f8>
60001d30:	00000000 	nop
60001d34:	8fc20018 	lw	v0,24(s8)
60001d38:	24420001 	addiu	v0,v0,1
60001d3c:	afc20018 	sw	v0,24(s8)
60001d40:	8fc40018 	lw	a0,24(s8)
60001d44:	24050022 	li	a1,34
60001d48:	0c000c8e 	jal	60003238 <strchr>
60001d4c:	00000000 	nop
60001d50:	afc20014 	sw	v0,20(s8)
60001d54:	8fc20014 	lw	v0,20(s8)
60001d58:	10400049 	beqz	v0,60001e80 <_parse_argv+0x1f8>
60001d5c:	00000000 	nop
60001d60:	3c046000 	lui	a0,0x6000
60001d64:	8fc20010 	lw	v0,16(s8)
60001d68:	00021880 	sll	v1,v0,0x2
60001d6c:	24824034 	addiu	v0,a0,16436
60001d70:	00628021 	addu	s0,v1,v0
60001d74:	8fc30014 	lw	v1,20(s8)
60001d78:	8fc20018 	lw	v0,24(s8)
60001d7c:	00621023 	subu	v0,v1,v0
60001d80:	24420001 	addiu	v0,v0,1
60001d84:	00402021 	move	a0,v0
60001d88:	0c000d25 	jal	60003494 <malloc>
60001d8c:	00000000 	nop
60001d90:	ae020000 	sw	v0,0(s0)
60001d94:	3c046000 	lui	a0,0x6000
60001d98:	8fc20010 	lw	v0,16(s8)
60001d9c:	00021880 	sll	v1,v0,0x2
60001da0:	24824034 	addiu	v0,a0,16436
60001da4:	00622021 	addu	a0,v1,v0
60001da8:	8fc30014 	lw	v1,20(s8)
60001dac:	8fc20018 	lw	v0,24(s8)
60001db0:	00621023 	subu	v0,v1,v0
60001db4:	24420001 	addiu	v0,v0,1
60001db8:	8c840000 	lw	a0,0(a0)
60001dbc:	00002821 	move	a1,zero
60001dc0:	00403021 	move	a2,v0
60001dc4:	0c000c52 	jal	60003148 <memset>
60001dc8:	00000000 	nop
60001dcc:	3c046000 	lui	a0,0x6000
60001dd0:	8fc20010 	lw	v0,16(s8)
60001dd4:	00021880 	sll	v1,v0,0x2
60001dd8:	24824034 	addiu	v0,a0,16436
60001ddc:	00622021 	addu	a0,v1,v0
60001de0:	8fc30014 	lw	v1,20(s8)
60001de4:	8fc20018 	lw	v0,24(s8)
60001de8:	00621023 	subu	v0,v1,v0
60001dec:	8c840000 	lw	a0,0(a0)
60001df0:	8fc50018 	lw	a1,24(s8)
60001df4:	00403021 	move	a2,v0
60001df8:	0c000ce3 	jal	6000338c <strncpy>
60001dfc:	00000000 	nop
60001e00:	8fc20014 	lw	v0,20(s8)
60001e04:	24420001 	addiu	v0,v0,1
60001e08:	afc20014 	sw	v0,20(s8)
60001e0c:	8fc20014 	lw	v0,20(s8)
60001e10:	80420000 	lb	v0,0(v0)
60001e14:	10400013 	beqz	v0,60001e64 <_parse_argv+0x1dc>
60001e18:	00000000 	nop
60001e1c:	8fc20014 	lw	v0,20(s8)
60001e20:	80420000 	lb	v0,0(v0)
60001e24:	2442fff7 	addiu	v0,v0,-9
60001e28:	2c420005 	sltiu	v0,v0,5
60001e2c:	14400008 	bnez	v0,60001e50 <_parse_argv+0x1c8>
60001e30:	00000000 	nop
60001e34:	8fc20014 	lw	v0,20(s8)
60001e38:	80430000 	lb	v1,0(v0)
60001e3c:	24020020 	li	v0,32
60001e40:	10620003 	beq	v1,v0,60001e50 <_parse_argv+0x1c8>
60001e44:	00000000 	nop
60001e48:	10000006 	b	60001e64 <_parse_argv+0x1dc>
60001e4c:	00000000 	nop
60001e50:	8fc20014 	lw	v0,20(s8)
60001e54:	24420001 	addiu	v0,v0,1
60001e58:	afc20014 	sw	v0,20(s8)
60001e5c:	1000ffeb 	b	60001e0c <_parse_argv+0x184>
60001e60:	00000000 	nop
60001e64:	8fc20014 	lw	v0,20(s8)
60001e68:	afc20018 	sw	v0,24(s8)
60001e6c:	8fc20010 	lw	v0,16(s8)
60001e70:	24420001 	addiu	v0,v0,1
60001e74:	afc20010 	sw	v0,16(s8)
60001e78:	1000ffa6 	b	60001d14 <_parse_argv+0x8c>
60001e7c:	00000000 	nop
60001e80:	8fc40018 	lw	a0,24(s8)
60001e84:	24050020 	li	a1,32
60001e88:	0c000c8e 	jal	60003238 <strchr>
60001e8c:	00000000 	nop
60001e90:	afc20014 	sw	v0,20(s8)
60001e94:	8fc20014 	lw	v0,20(s8)
60001e98:	1040ff9e 	beqz	v0,60001d14 <_parse_argv+0x8c>
60001e9c:	00000000 	nop
60001ea0:	8fc20010 	lw	v0,16(s8)
60001ea4:	28420008 	slti	v0,v0,8
60001ea8:	1040ff9a 	beqz	v0,60001d14 <_parse_argv+0x8c>
60001eac:	00000000 	nop
60001eb0:	3c046000 	lui	a0,0x6000
60001eb4:	8fc20010 	lw	v0,16(s8)
60001eb8:	00021880 	sll	v1,v0,0x2
60001ebc:	24824034 	addiu	v0,a0,16436
60001ec0:	00628021 	addu	s0,v1,v0
60001ec4:	8fc30014 	lw	v1,20(s8)
60001ec8:	8fc20018 	lw	v0,24(s8)
60001ecc:	00621023 	subu	v0,v1,v0
60001ed0:	24420001 	addiu	v0,v0,1
60001ed4:	00402021 	move	a0,v0
60001ed8:	0c000d25 	jal	60003494 <malloc>
60001edc:	00000000 	nop
60001ee0:	ae020000 	sw	v0,0(s0)
60001ee4:	3c046000 	lui	a0,0x6000
60001ee8:	8fc20010 	lw	v0,16(s8)
60001eec:	00021880 	sll	v1,v0,0x2
60001ef0:	24824034 	addiu	v0,a0,16436
60001ef4:	00622021 	addu	a0,v1,v0
60001ef8:	8fc30014 	lw	v1,20(s8)
60001efc:	8fc20018 	lw	v0,24(s8)
60001f00:	00621023 	subu	v0,v1,v0
60001f04:	24420001 	addiu	v0,v0,1
60001f08:	8c840000 	lw	a0,0(a0)
60001f0c:	00002821 	move	a1,zero
60001f10:	00403021 	move	a2,v0
60001f14:	0c000c52 	jal	60003148 <memset>
60001f18:	00000000 	nop
60001f1c:	3c046000 	lui	a0,0x6000
60001f20:	8fc20010 	lw	v0,16(s8)
60001f24:	00021880 	sll	v1,v0,0x2
60001f28:	24824034 	addiu	v0,a0,16436
60001f2c:	00622021 	addu	a0,v1,v0
60001f30:	8fc30014 	lw	v1,20(s8)
60001f34:	8fc20018 	lw	v0,24(s8)
60001f38:	00621023 	subu	v0,v1,v0
60001f3c:	8c840000 	lw	a0,0(a0)
60001f40:	8fc50018 	lw	a1,24(s8)
60001f44:	00403021 	move	a2,v0
60001f48:	0c000ce3 	jal	6000338c <strncpy>
60001f4c:	00000000 	nop
60001f50:	8fc20014 	lw	v0,20(s8)
60001f54:	80420000 	lb	v0,0(v0)
60001f58:	10400013 	beqz	v0,60001fa8 <_parse_argv+0x320>
60001f5c:	00000000 	nop
60001f60:	8fc20014 	lw	v0,20(s8)
60001f64:	80420000 	lb	v0,0(v0)
60001f68:	2442fff7 	addiu	v0,v0,-9
60001f6c:	2c420005 	sltiu	v0,v0,5
60001f70:	14400008 	bnez	v0,60001f94 <_parse_argv+0x30c>
60001f74:	00000000 	nop
60001f78:	8fc20014 	lw	v0,20(s8)
60001f7c:	80430000 	lb	v1,0(v0)
60001f80:	24020020 	li	v0,32
60001f84:	10620003 	beq	v1,v0,60001f94 <_parse_argv+0x30c>
60001f88:	00000000 	nop
60001f8c:	10000006 	b	60001fa8 <_parse_argv+0x320>
60001f90:	00000000 	nop
60001f94:	8fc20014 	lw	v0,20(s8)
60001f98:	24420001 	addiu	v0,v0,1
60001f9c:	afc20014 	sw	v0,20(s8)
60001fa0:	1000ffeb 	b	60001f50 <_parse_argv+0x2c8>
60001fa4:	00000000 	nop
60001fa8:	8fc20014 	lw	v0,20(s8)
60001fac:	afc20018 	sw	v0,24(s8)
60001fb0:	8fc20010 	lw	v0,16(s8)
60001fb4:	24420001 	addiu	v0,v0,1
60001fb8:	afc20010 	sw	v0,16(s8)
60001fbc:	1000ff55 	b	60001d14 <_parse_argv+0x8c>
60001fc0:	00000000 	nop
60001fc4:	8fc40018 	lw	a0,24(s8)
60001fc8:	0c000d11 	jal	60003444 <strlen>
60001fcc:	00000000 	nop
60001fd0:	afc2001c 	sw	v0,28(s8)
60001fd4:	8fc2001c 	lw	v0,28(s8)
60001fd8:	10400022 	beqz	v0,60002064 <_parse_argv+0x3dc>
60001fdc:	00000000 	nop
60001fe0:	3c046000 	lui	a0,0x6000
60001fe4:	8fc20010 	lw	v0,16(s8)
60001fe8:	00021880 	sll	v1,v0,0x2
60001fec:	24824034 	addiu	v0,a0,16436
60001ff0:	00628021 	addu	s0,v1,v0
60001ff4:	8fc2001c 	lw	v0,28(s8)
60001ff8:	24420001 	addiu	v0,v0,1
60001ffc:	00402021 	move	a0,v0
60002000:	0c000d25 	jal	60003494 <malloc>
60002004:	00000000 	nop
60002008:	ae020000 	sw	v0,0(s0)
6000200c:	3c046000 	lui	a0,0x6000
60002010:	8fc20010 	lw	v0,16(s8)
60002014:	00021880 	sll	v1,v0,0x2
60002018:	24824034 	addiu	v0,a0,16436
6000201c:	00621821 	addu	v1,v1,v0
60002020:	8fc2001c 	lw	v0,28(s8)
60002024:	24420001 	addiu	v0,v0,1
60002028:	8c640000 	lw	a0,0(v1)
6000202c:	00002821 	move	a1,zero
60002030:	00403021 	move	a2,v0
60002034:	0c000c52 	jal	60003148 <memset>
60002038:	00000000 	nop
6000203c:	3c046000 	lui	a0,0x6000
60002040:	8fc20010 	lw	v0,16(s8)
60002044:	00021880 	sll	v1,v0,0x2
60002048:	24824034 	addiu	v0,a0,16436
6000204c:	00621021 	addu	v0,v1,v0
60002050:	8c440000 	lw	a0,0(v0)
60002054:	8fc50018 	lw	a1,24(s8)
60002058:	8fc6001c 	lw	a2,28(s8)
6000205c:	0c000ce3 	jal	6000338c <strncpy>
60002060:	00000000 	nop
60002064:	03c0e821 	move	sp,s8
60002068:	8fbf0028 	lw	ra,40(sp)
6000206c:	8fbe0024 	lw	s8,36(sp)
60002070:	8fb00020 	lw	s0,32(sp)
60002074:	27bd0030 	addiu	sp,sp,48
60002078:	03e00008 	jr	ra
6000207c:	00000000 	nop

60002080 <_reset_argv>:
60002080:	27bdffe0 	addiu	sp,sp,-32
60002084:	afbf001c 	sw	ra,28(sp)
60002088:	afbe0018 	sw	s8,24(sp)
6000208c:	03a0f021 	move	s8,sp
60002090:	afc00010 	sw	zero,16(s8)
60002094:	8fc20010 	lw	v0,16(s8)
60002098:	2842000a 	slti	v0,v0,10
6000209c:	1040001c 	beqz	v0,60002110 <_reset_argv+0x90>
600020a0:	00000000 	nop
600020a4:	3c046000 	lui	a0,0x6000
600020a8:	8fc20010 	lw	v0,16(s8)
600020ac:	00021880 	sll	v1,v0,0x2
600020b0:	24824034 	addiu	v0,a0,16436
600020b4:	00621021 	addu	v0,v1,v0
600020b8:	8c420000 	lw	v0,0(v0)
600020bc:	1040000f 	beqz	v0,600020fc <_reset_argv+0x7c>
600020c0:	00000000 	nop
600020c4:	3c046000 	lui	a0,0x6000
600020c8:	8fc20010 	lw	v0,16(s8)
600020cc:	00021880 	sll	v1,v0,0x2
600020d0:	24824034 	addiu	v0,a0,16436
600020d4:	00621021 	addu	v0,v1,v0
600020d8:	8c440000 	lw	a0,0(v0)
600020dc:	0c000d28 	jal	600034a0 <free>
600020e0:	00000000 	nop
600020e4:	3c046000 	lui	a0,0x6000
600020e8:	8fc20010 	lw	v0,16(s8)
600020ec:	00021880 	sll	v1,v0,0x2
600020f0:	24824034 	addiu	v0,a0,16436
600020f4:	00621021 	addu	v0,v1,v0
600020f8:	ac400000 	sw	zero,0(v0)
600020fc:	8fc20010 	lw	v0,16(s8)
60002100:	24420001 	addiu	v0,v0,1
60002104:	afc20010 	sw	v0,16(s8)
60002108:	1000ffe2 	b	60002094 <_reset_argv+0x14>
6000210c:	00000000 	nop
60002110:	03c0e821 	move	sp,s8
60002114:	8fbf001c 	lw	ra,28(sp)
60002118:	8fbe0018 	lw	s8,24(sp)
6000211c:	27bd0020 	addiu	sp,sp,32
60002120:	03e00008 	jr	ra
60002124:	00000000 	nop

60002128 <_print_argv>:
60002128:	27bdffe0 	addiu	sp,sp,-32
6000212c:	afbf001c 	sw	ra,28(sp)
60002130:	afbe0018 	sw	s8,24(sp)
60002134:	03a0f021 	move	s8,sp
60002138:	afc00010 	sw	zero,16(s8)
6000213c:	8fc20010 	lw	v0,16(s8)
60002140:	2842000a 	slti	v0,v0,10
60002144:	10400019 	beqz	v0,600021ac <_print_argv+0x84>
60002148:	00000000 	nop
6000214c:	3c046000 	lui	a0,0x6000
60002150:	8fc20010 	lw	v0,16(s8)
60002154:	00021880 	sll	v1,v0,0x2
60002158:	24824034 	addiu	v0,a0,16436
6000215c:	00621021 	addu	v0,v1,v0
60002160:	8c420000 	lw	v0,0(v0)
60002164:	1040000c 	beqz	v0,60002198 <_print_argv+0x70>
60002168:	00000000 	nop
6000216c:	3c046000 	lui	a0,0x6000
60002170:	8fc20010 	lw	v0,16(s8)
60002174:	00021880 	sll	v1,v0,0x2
60002178:	24824034 	addiu	v0,a0,16436
6000217c:	00621821 	addu	v1,v1,v0
60002180:	3c026000 	lui	v0,0x6000
60002184:	24443b50 	addiu	a0,v0,15184
60002188:	8fc50010 	lw	a1,16(s8)
6000218c:	8c660000 	lw	a2,0(v1)
60002190:	0c000d22 	jal	60003488 <printf>
60002194:	00000000 	nop
60002198:	8fc20010 	lw	v0,16(s8)
6000219c:	24420001 	addiu	v0,v0,1
600021a0:	afc20010 	sw	v0,16(s8)
600021a4:	1000ffe5 	b	6000213c <_print_argv+0x14>
600021a8:	00000000 	nop
600021ac:	03c0e821 	move	sp,s8
600021b0:	8fbf001c 	lw	ra,28(sp)
600021b4:	8fbe0018 	lw	s8,24(sp)
600021b8:	27bd0020 	addiu	sp,sp,32
600021bc:	03e00008 	jr	ra
600021c0:	00000000 	nop

600021c4 <_add_path_info>:
600021c4:	27bdffb8 	addiu	sp,sp,-72
600021c8:	afbf0040 	sw	ra,64(sp)
600021cc:	afbe003c 	sw	s8,60(sp)
600021d0:	afb00038 	sw	s0,56(sp)
600021d4:	03a0f021 	move	s8,sp
600021d8:	afc40048 	sw	a0,72(s8)
600021dc:	3c026000 	lui	v0,0x6000
600021e0:	8c424498 	lw	v0,17560(v0)
600021e4:	afc20024 	sw	v0,36(s8)
600021e8:	8fc20024 	lw	v0,36(s8)
600021ec:	8c420000 	lw	v0,0(v0)
600021f0:	afc20028 	sw	v0,40(s8)
600021f4:	8fc20024 	lw	v0,36(s8)
600021f8:	3c036000 	lui	v1,0x6000
600021fc:	24634498 	addiu	v1,v1,17560
60002200:	10430015 	beq	v0,v1,60002258 <_add_path_info+0x94>
60002204:	00000000 	nop
60002208:	8fc20024 	lw	v0,36(s8)
6000220c:	afc20030 	sw	v0,48(s8)
60002210:	8fc20030 	lw	v0,48(s8)
60002214:	afc20020 	sw	v0,32(s8)
60002218:	8fc20020 	lw	v0,32(s8)
6000221c:	8c44000c 	lw	a0,12(v0)
60002220:	8fc50048 	lw	a1,72(s8)
60002224:	0c000cba 	jal	600032e8 <strcmp>
60002228:	00000000 	nop
6000222c:	14400003 	bnez	v0,6000223c <_add_path_info+0x78>
60002230:	00000000 	nop
60002234:	10000035 	b	6000230c <_add_path_info+0x148>
60002238:	00000000 	nop
6000223c:	8fc20028 	lw	v0,40(s8)
60002240:	afc20024 	sw	v0,36(s8)
60002244:	8fc20024 	lw	v0,36(s8)
60002248:	8c420000 	lw	v0,0(v0)
6000224c:	afc20028 	sw	v0,40(s8)
60002250:	1000ffe8 	b	600021f4 <_add_path_info+0x30>
60002254:	00000000 	nop
60002258:	24040010 	li	a0,16
6000225c:	0c000d25 	jal	60003494 <malloc>
60002260:	00000000 	nop
60002264:	afc2002c 	sw	v0,44(s8)
60002268:	8fc2002c 	lw	v0,44(s8)
6000226c:	10400027 	beqz	v0,6000230c <_add_path_info+0x148>
60002270:	00000000 	nop
60002274:	8fd0002c 	lw	s0,44(s8)
60002278:	8fc40048 	lw	a0,72(s8)
6000227c:	0c000a89 	jal	60002a24 <basename>
60002280:	00000000 	nop
60002284:	00402021 	move	a0,v0
60002288:	0c000cf8 	jal	600033e0 <strdup>
6000228c:	00000000 	nop
60002290:	ae020008 	sw	v0,8(s0)
60002294:	8fd0002c 	lw	s0,44(s8)
60002298:	8fc40048 	lw	a0,72(s8)
6000229c:	0c000cf8 	jal	600033e0 <strdup>
600022a0:	00000000 	nop
600022a4:	ae02000c 	sw	v0,12(s0)
600022a8:	8fc4002c 	lw	a0,44(s8)
600022ac:	3c026000 	lui	v0,0x6000
600022b0:	24454498 	addiu	a1,v0,17560
600022b4:	0c0005f9 	jal	600017e4 <list_add>
600022b8:	00000000 	nop
600022bc:	0c000bee 	jal	60002fb8 <getpid>
600022c0:	00000000 	nop
600022c4:	00401821 	move	v1,v0
600022c8:	3c026000 	lui	v0,0x6000
600022cc:	24423b60 	addiu	v0,v0,15200
600022d0:	afa20010 	sw	v0,16(sp)
600022d4:	8fc2002c 	lw	v0,44(s8)
600022d8:	8c420008 	lw	v0,8(v0)
600022dc:	afa20014 	sw	v0,20(sp)
600022e0:	8fc2002c 	lw	v0,44(s8)
600022e4:	8c42000c 	lw	v0,12(v0)
600022e8:	afa20018 	sw	v0,24(sp)
600022ec:	3c026000 	lui	v0,0x6000
600022f0:	24443b70 	addiu	a0,v0,15216
600022f4:	00602821 	move	a1,v1
600022f8:	3c026000 	lui	v0,0x6000
600022fc:	244635c0 	addiu	a2,v0,13760
60002300:	240703d7 	li	a3,983
60002304:	0c000d22 	jal	60003488 <printf>
60002308:	00000000 	nop
6000230c:	03c0e821 	move	sp,s8
60002310:	8fbf0040 	lw	ra,64(sp)
60002314:	8fbe003c 	lw	s8,60(sp)
60002318:	8fb00038 	lw	s0,56(sp)
6000231c:	27bd0048 	addiu	sp,sp,72
60002320:	03e00008 	jr	ra
60002324:	00000000 	nop

60002328 <_get_path_info>:
60002328:	27bdffd0 	addiu	sp,sp,-48
6000232c:	afbf002c 	sw	ra,44(sp)
60002330:	afbe0028 	sw	s8,40(sp)
60002334:	03a0f021 	move	s8,sp
60002338:	afc40030 	sw	a0,48(s8)
6000233c:	3c026000 	lui	v0,0x6000
60002340:	8c424498 	lw	v0,17560(v0)
60002344:	afc20014 	sw	v0,20(s8)
60002348:	8fc20014 	lw	v0,20(s8)
6000234c:	8c420000 	lw	v0,0(v0)
60002350:	afc20018 	sw	v0,24(s8)
60002354:	8fc20014 	lw	v0,20(s8)
60002358:	3c036000 	lui	v1,0x6000
6000235c:	24634498 	addiu	v1,v1,17560
60002360:	10430018 	beq	v0,v1,600023c4 <_get_path_info+0x9c>
60002364:	00000000 	nop
60002368:	8fc20014 	lw	v0,20(s8)
6000236c:	afc2001c 	sw	v0,28(s8)
60002370:	8fc2001c 	lw	v0,28(s8)
60002374:	afc20010 	sw	v0,16(s8)
60002378:	8fc20010 	lw	v0,16(s8)
6000237c:	8c440008 	lw	a0,8(v0)
60002380:	8fc50030 	lw	a1,48(s8)
60002384:	0c000cba 	jal	600032e8 <strcmp>
60002388:	00000000 	nop
6000238c:	14400006 	bnez	v0,600023a8 <_get_path_info+0x80>
60002390:	00000000 	nop
60002394:	8fc20010 	lw	v0,16(s8)
60002398:	8c42000c 	lw	v0,12(v0)
6000239c:	afc20020 	sw	v0,32(s8)
600023a0:	10000009 	b	600023c8 <_get_path_info+0xa0>
600023a4:	00000000 	nop
600023a8:	8fc20018 	lw	v0,24(s8)
600023ac:	afc20014 	sw	v0,20(s8)
600023b0:	8fc20014 	lw	v0,20(s8)
600023b4:	8c420000 	lw	v0,0(v0)
600023b8:	afc20018 	sw	v0,24(s8)
600023bc:	1000ffe5 	b	60002354 <_get_path_info+0x2c>
600023c0:	00000000 	nop
600023c4:	afc00020 	sw	zero,32(s8)
600023c8:	8fc20020 	lw	v0,32(s8)
600023cc:	03c0e821 	move	sp,s8
600023d0:	8fbf002c 	lw	ra,44(sp)
600023d4:	8fbe0028 	lw	s8,40(sp)
600023d8:	27bd0030 	addiu	sp,sp,48
600023dc:	03e00008 	jr	ra
600023e0:	00000000 	nop

600023e4 <_get_sys_configs>:
600023e4:	27bdfbc8 	addiu	sp,sp,-1080
600023e8:	afbf0430 	sw	ra,1072(sp)
600023ec:	afbe042c 	sw	s8,1068(sp)
600023f0:	afb00428 	sw	s0,1064(sp)
600023f4:	03a0f021 	move	s8,sp
600023f8:	2402ffff 	li	v0,-1
600023fc:	afc20018 	sw	v0,24(s8)
60002400:	afc0001c 	sw	zero,28(s8)
60002404:	3c026000 	lui	v0,0x6000
60002408:	24443bc8 	addiu	a0,v0,15304
6000240c:	24050002 	li	a1,2
60002410:	0c000d2b 	jal	600034ac <dlopen>
60002414:	00000000 	nop
60002418:	afc20420 	sw	v0,1056(s8)
6000241c:	8fc20420 	lw	v0,1056(s8)
60002420:	14400016 	bnez	v0,6000247c <_get_sys_configs+0x98>
60002424:	00000000 	nop
60002428:	0c000bfd 	jal	60002ff4 <__errno>
6000242c:	00000000 	nop
60002430:	00408021 	move	s0,v0
60002434:	0c000bee 	jal	60002fb8 <getpid>
60002438:	00000000 	nop
6000243c:	00401821 	move	v1,v0
60002440:	240203f7 	li	v0,1015
60002444:	afa20010 	sw	v0,16(sp)
60002448:	3c026000 	lui	v0,0x6000
6000244c:	24423bb4 	addiu	v0,v0,15284
60002450:	afa20014 	sw	v0,20(sp)
60002454:	3c026000 	lui	v0,0x6000
60002458:	24443bd4 	addiu	a0,v0,15316
6000245c:	8e050000 	lw	a1,0(s0)
60002460:	00603021 	move	a2,v1
60002464:	3c026000 	lui	v0,0x6000
60002468:	244735c0 	addiu	a3,v0,13760
6000246c:	0c000d22 	jal	60003488 <printf>
60002470:	00000000 	nop
60002474:	10000039 	b	6000255c <_get_sys_configs+0x178>
60002478:	00000000 	nop
6000247c:	27c3001c 	addiu	v1,s8,28
60002480:	3c026000 	lui	v0,0x6000
60002484:	24443c10 	addiu	a0,v0,15376
60002488:	00602821 	move	a1,v1
6000248c:	24060004 	li	a2,4
60002490:	0c000d19 	jal	60003464 <get_config>
60002494:	00000000 	nop
60002498:	afc20018 	sw	v0,24(s8)
6000249c:	8fc30018 	lw	v1,24(s8)
600024a0:	2402ffff 	li	v0,-1
600024a4:	10620004 	beq	v1,v0,600024b8 <_get_sys_configs+0xd4>
600024a8:	00000000 	nop
600024ac:	3c036000 	lui	v1,0x6000
600024b0:	8fc2001c 	lw	v0,28(s8)
600024b4:	ac62402c 	sw	v0,16428(v1)
600024b8:	27c20020 	addiu	v0,s8,32
600024bc:	00402021 	move	a0,v0
600024c0:	00002821 	move	a1,zero
600024c4:	24060400 	li	a2,1024
600024c8:	0c000c52 	jal	60003148 <memset>
600024cc:	00000000 	nop
600024d0:	27c30020 	addiu	v1,s8,32
600024d4:	3c026000 	lui	v0,0x6000
600024d8:	24443c20 	addiu	a0,v0,15392
600024dc:	00602821 	move	a1,v1
600024e0:	24060400 	li	a2,1024
600024e4:	0c000d19 	jal	60003464 <get_config>
600024e8:	00000000 	nop
600024ec:	27c30020 	addiu	v1,s8,32
600024f0:	3c026000 	lui	v0,0x6000
600024f4:	244444b4 	addiu	a0,v0,17588
600024f8:	00602821 	move	a1,v1
600024fc:	0c00095e 	jal	60002578 <_parse_mutex>
60002500:	00000000 	nop
60002504:	27c20020 	addiu	v0,s8,32
60002508:	00402021 	move	a0,v0
6000250c:	00002821 	move	a1,zero
60002510:	24060400 	li	a2,1024
60002514:	0c000c52 	jal	60003148 <memset>
60002518:	00000000 	nop
6000251c:	27c30020 	addiu	v1,s8,32
60002520:	3c026000 	lui	v0,0x6000
60002524:	24443c34 	addiu	a0,v0,15412
60002528:	00602821 	move	a1,v1
6000252c:	24060400 	li	a2,1024
60002530:	0c000d19 	jal	60003464 <get_config>
60002534:	00000000 	nop
60002538:	27c30020 	addiu	v1,s8,32
6000253c:	3c026000 	lui	v0,0x6000
60002540:	24444488 	addiu	a0,v0,17544
60002544:	00602821 	move	a1,v1
60002548:	0c00095e 	jal	60002578 <_parse_mutex>
6000254c:	00000000 	nop
60002550:	8fc40420 	lw	a0,1056(s8)
60002554:	0c000d2e 	jal	600034b8 <dlclose>
60002558:	00000000 	nop
6000255c:	03c0e821 	move	sp,s8
60002560:	8fbf0430 	lw	ra,1072(sp)
60002564:	8fbe042c 	lw	s8,1068(sp)
60002568:	8fb00428 	lw	s0,1064(sp)
6000256c:	27bd0438 	addiu	sp,sp,1080
60002570:	03e00008 	jr	ra
60002574:	00000000 	nop

60002578 <_parse_mutex>:
60002578:	27bdffd0 	addiu	sp,sp,-48
6000257c:	afbf0028 	sw	ra,40(sp)
60002580:	afbe0024 	sw	s8,36(sp)
60002584:	afb00020 	sw	s0,32(sp)
60002588:	03a0f021 	move	s8,sp
6000258c:	afc40030 	sw	a0,48(s8)
60002590:	afc50034 	sw	a1,52(s8)
60002594:	8fc20034 	lw	v0,52(s8)
60002598:	afc20010 	sw	v0,16(s8)
6000259c:	8fc20034 	lw	v0,52(s8)
600025a0:	afc20014 	sw	v0,20(s8)
600025a4:	afc00018 	sw	zero,24(s8)
600025a8:	8fc20014 	lw	v0,20(s8)
600025ac:	10400040 	beqz	v0,600026b0 <_parse_mutex+0x138>
600025b0:	00000000 	nop
600025b4:	8fc40014 	lw	a0,20(s8)
600025b8:	2405003b 	li	a1,59
600025bc:	0c000c8e 	jal	60003238 <strchr>
600025c0:	00000000 	nop
600025c4:	afc20010 	sw	v0,16(s8)
600025c8:	8fc20010 	lw	v0,16(s8)
600025cc:	14400003 	bnez	v0,600025dc <_parse_mutex+0x64>
600025d0:	00000000 	nop
600025d4:	10000036 	b	600026b0 <_parse_mutex+0x138>
600025d8:	00000000 	nop
600025dc:	2404000c 	li	a0,12
600025e0:	0c000d25 	jal	60003494 <malloc>
600025e4:	00000000 	nop
600025e8:	afc20018 	sw	v0,24(s8)
600025ec:	8fc20018 	lw	v0,24(s8)
600025f0:	1040002a 	beqz	v0,6000269c <_parse_mutex+0x124>
600025f4:	00000000 	nop
600025f8:	8fd00018 	lw	s0,24(s8)
600025fc:	8fc30010 	lw	v1,16(s8)
60002600:	8fc20014 	lw	v0,20(s8)
60002604:	00621023 	subu	v0,v1,v0
60002608:	24420001 	addiu	v0,v0,1
6000260c:	00402021 	move	a0,v0
60002610:	0c000d25 	jal	60003494 <malloc>
60002614:	00000000 	nop
60002618:	ae020008 	sw	v0,8(s0)
6000261c:	8fc20018 	lw	v0,24(s8)
60002620:	8c420008 	lw	v0,8(v0)
60002624:	1040001a 	beqz	v0,60002690 <_parse_mutex+0x118>
60002628:	00000000 	nop
6000262c:	8fc40018 	lw	a0,24(s8)
60002630:	8fc30010 	lw	v1,16(s8)
60002634:	8fc20014 	lw	v0,20(s8)
60002638:	00621023 	subu	v0,v1,v0
6000263c:	24420001 	addiu	v0,v0,1
60002640:	8c840008 	lw	a0,8(a0)
60002644:	00002821 	move	a1,zero
60002648:	00403021 	move	a2,v0
6000264c:	0c000c52 	jal	60003148 <memset>
60002650:	00000000 	nop
60002654:	8fc40018 	lw	a0,24(s8)
60002658:	8fc30010 	lw	v1,16(s8)
6000265c:	8fc20014 	lw	v0,20(s8)
60002660:	00621023 	subu	v0,v1,v0
60002664:	8c840008 	lw	a0,8(a0)
60002668:	8fc50014 	lw	a1,20(s8)
6000266c:	00403021 	move	a2,v0
60002670:	0c000ce3 	jal	6000338c <strncpy>
60002674:	00000000 	nop
60002678:	8fc40018 	lw	a0,24(s8)
6000267c:	8fc50030 	lw	a1,48(s8)
60002680:	0c0005f9 	jal	600017e4 <list_add>
60002684:	00000000 	nop
60002688:	10000004 	b	6000269c <_parse_mutex+0x124>
6000268c:	00000000 	nop
60002690:	8fc40018 	lw	a0,24(s8)
60002694:	0c000d28 	jal	600034a0 <free>
60002698:	00000000 	nop
6000269c:	8fc20010 	lw	v0,16(s8)
600026a0:	24420001 	addiu	v0,v0,1
600026a4:	afc20014 	sw	v0,20(s8)
600026a8:	1000ffbf 	b	600025a8 <_parse_mutex+0x30>
600026ac:	00000000 	nop
600026b0:	03c0e821 	move	sp,s8
600026b4:	8fbf0028 	lw	ra,40(sp)
600026b8:	8fbe0024 	lw	s8,36(sp)
600026bc:	8fb00020 	lw	s0,32(sp)
600026c0:	27bd0030 	addiu	sp,sp,48
600026c4:	03e00008 	jr	ra
600026c8:	00000000 	nop

600026cc <_check_mutex>:
600026cc:	27bdfbd0 	addiu	sp,sp,-1072
600026d0:	afbf042c 	sw	ra,1068(sp)
600026d4:	afbe0428 	sw	s8,1064(sp)
600026d8:	03a0f021 	move	s8,sp
600026dc:	afc40430 	sw	a0,1072(s8)
600026e0:	3c026000 	lui	v0,0x6000
600026e4:	8c4244b4 	lw	v0,17588(v0)
600026e8:	afc20418 	sw	v0,1048(s8)
600026ec:	8fc20418 	lw	v0,1048(s8)
600026f0:	8c440000 	lw	a0,0(v0)
600026f4:	0c000a4e 	jal	60002938 <prefetch>
600026f8:	00000000 	nop
600026fc:	8fc30418 	lw	v1,1048(s8)
60002700:	3c026000 	lui	v0,0x6000
60002704:	244244b4 	addiu	v0,v0,17588
60002708:	1062003d 	beq	v1,v0,60002800 <_check_mutex+0x134>
6000270c:	00000000 	nop
60002710:	8fc20418 	lw	v0,1048(s8)
60002714:	afc20420 	sw	v0,1056(s8)
60002718:	8fc20420 	lw	v0,1056(s8)
6000271c:	afc2041c 	sw	v0,1052(s8)
60002720:	8fc2041c 	lw	v0,1052(s8)
60002724:	8c440008 	lw	a0,8(v0)
60002728:	8fc50430 	lw	a1,1072(s8)
6000272c:	0c000cba 	jal	600032e8 <strcmp>
60002730:	00000000 	nop
60002734:	1440002d 	bnez	v0,600027ec <_check_mutex+0x120>
60002738:	00000000 	nop
6000273c:	3c026000 	lui	v0,0x6000
60002740:	2444393c 	addiu	a0,v0,14652
60002744:	0c000a89 	jal	60002a24 <basename>
60002748:	00000000 	nop
6000274c:	00402021 	move	a0,v0
60002750:	0c000a9b 	jal	60002a6c <is_app_exist>
60002754:	00000000 	nop
60002758:	00401821 	move	v1,v0
6000275c:	24020001 	li	v0,1
60002760:	14620022 	bne	v1,v0,600027ec <_check_mutex+0x120>
60002764:	00000000 	nop
60002768:	240203e9 	li	v0,1001
6000276c:	afc20010 	sw	v0,16(s8)
60002770:	27c20014 	addiu	v0,s8,20
60002774:	00402021 	move	a0,v0
60002778:	00002821 	move	a1,zero
6000277c:	24060400 	li	a2,1024
60002780:	0c000c52 	jal	60003148 <memset>
60002784:	00000000 	nop
60002788:	3c026000 	lui	v0,0x6000
6000278c:	2444393c 	addiu	a0,v0,14652
60002790:	27c50010 	addiu	a1,s8,16
60002794:	0c000ab0 	jal	60002ac0 <send_async_msg>
60002798:	00000000 	nop
6000279c:	3c026000 	lui	v0,0x6000
600027a0:	2444393c 	addiu	a0,v0,14652
600027a4:	0c000a89 	jal	60002a24 <basename>
600027a8:	00000000 	nop
600027ac:	00401821 	move	v1,v0
600027b0:	3c026000 	lui	v0,0x6000
600027b4:	24444084 	addiu	a0,v0,16516
600027b8:	00602821 	move	a1,v1
600027bc:	24060400 	li	a2,1024
600027c0:	0c000ce3 	jal	6000338c <strncpy>
600027c4:	00000000 	nop
600027c8:	3c026000 	lui	v0,0x6000
600027cc:	24424080 	addiu	v0,v0,16512
600027d0:	ac400404 	sw	zero,1028(v0)
600027d4:	3c026000 	lui	v0,0x6000
600027d8:	24444080 	addiu	a0,v0,16512
600027dc:	0c000be2 	jal	60002f88 <sem_wait>
600027e0:	00000000 	nop
600027e4:	1000004e 	b	60002920 <_check_mutex+0x254>
600027e8:	00000000 	nop
600027ec:	8fc20418 	lw	v0,1048(s8)
600027f0:	8c420000 	lw	v0,0(v0)
600027f4:	afc20418 	sw	v0,1048(s8)
600027f8:	1000ffbc 	b	600026ec <_check_mutex+0x20>
600027fc:	00000000 	nop
60002800:	3c026000 	lui	v0,0x6000
60002804:	8c424488 	lw	v0,17544(v0)
60002808:	afc20418 	sw	v0,1048(s8)
6000280c:	8fc20418 	lw	v0,1048(s8)
60002810:	8c440000 	lw	a0,0(v0)
60002814:	0c000a4e 	jal	60002938 <prefetch>
60002818:	00000000 	nop
6000281c:	8fc30418 	lw	v1,1048(s8)
60002820:	3c026000 	lui	v0,0x6000
60002824:	24424488 	addiu	v0,v0,17544
60002828:	1062003d 	beq	v1,v0,60002920 <_check_mutex+0x254>
6000282c:	00000000 	nop
60002830:	8fc20418 	lw	v0,1048(s8)
60002834:	afc20420 	sw	v0,1056(s8)
60002838:	8fc20420 	lw	v0,1056(s8)
6000283c:	afc2041c 	sw	v0,1052(s8)
60002840:	8fc2041c 	lw	v0,1052(s8)
60002844:	8c440008 	lw	a0,8(v0)
60002848:	8fc50430 	lw	a1,1072(s8)
6000284c:	0c000cba 	jal	600032e8 <strcmp>
60002850:	00000000 	nop
60002854:	1440002d 	bnez	v0,6000290c <_check_mutex+0x240>
60002858:	00000000 	nop
6000285c:	3c026000 	lui	v0,0x6000
60002860:	2444395c 	addiu	a0,v0,14684
60002864:	0c000a89 	jal	60002a24 <basename>
60002868:	00000000 	nop
6000286c:	00402021 	move	a0,v0
60002870:	0c000a9b 	jal	60002a6c <is_app_exist>
60002874:	00000000 	nop
60002878:	00401821 	move	v1,v0
6000287c:	24020001 	li	v0,1
60002880:	14620022 	bne	v1,v0,6000290c <_check_mutex+0x240>
60002884:	00000000 	nop
60002888:	240203e9 	li	v0,1001
6000288c:	afc20010 	sw	v0,16(s8)
60002890:	27c20014 	addiu	v0,s8,20
60002894:	00402021 	move	a0,v0
60002898:	00002821 	move	a1,zero
6000289c:	24060400 	li	a2,1024
600028a0:	0c000c52 	jal	60003148 <memset>
600028a4:	00000000 	nop
600028a8:	3c026000 	lui	v0,0x6000
600028ac:	2444395c 	addiu	a0,v0,14684
600028b0:	27c50010 	addiu	a1,s8,16
600028b4:	0c000ab0 	jal	60002ac0 <send_async_msg>
600028b8:	00000000 	nop
600028bc:	3c026000 	lui	v0,0x6000
600028c0:	2444395c 	addiu	a0,v0,14684
600028c4:	0c000a89 	jal	60002a24 <basename>
600028c8:	00000000 	nop
600028cc:	00401821 	move	v1,v0
600028d0:	3c026000 	lui	v0,0x6000
600028d4:	24444084 	addiu	a0,v0,16516
600028d8:	00602821 	move	a1,v1
600028dc:	24060400 	li	a2,1024
600028e0:	0c000ce3 	jal	6000338c <strncpy>
600028e4:	00000000 	nop
600028e8:	3c026000 	lui	v0,0x6000
600028ec:	24424080 	addiu	v0,v0,16512
600028f0:	ac400404 	sw	zero,1028(v0)
600028f4:	3c026000 	lui	v0,0x6000
600028f8:	24444080 	addiu	a0,v0,16512
600028fc:	0c000be2 	jal	60002f88 <sem_wait>
60002900:	00000000 	nop
60002904:	10000006 	b	60002920 <_check_mutex+0x254>
60002908:	00000000 	nop
6000290c:	8fc20418 	lw	v0,1048(s8)
60002910:	8c420000 	lw	v0,0(v0)
60002914:	afc20418 	sw	v0,1048(s8)
60002918:	1000ffbc 	b	6000280c <_check_mutex+0x140>
6000291c:	00000000 	nop
60002920:	03c0e821 	move	sp,s8
60002924:	8fbf042c 	lw	ra,1068(sp)
60002928:	8fbe0428 	lw	s8,1064(sp)
6000292c:	27bd0430 	addiu	sp,sp,1072
60002930:	03e00008 	jr	ra
60002934:	00000000 	nop

60002938 <prefetch>:
60002938:	27bdfff8 	addiu	sp,sp,-8
6000293c:	afbe0000 	sw	s8,0(sp)
60002940:	03a0f021 	move	s8,sp
60002944:	afc40008 	sw	a0,8(s8)
60002948:	8fc20008 	lw	v0,8(s8)
6000294c:	cc400000 	pref	0x0,0(v0)
60002950:	03c0e821 	move	sp,s8
60002954:	8fbe0000 	lw	s8,0(sp)
60002958:	03e00008 	jr	ra
6000295c:	27bd0008 	addiu	sp,sp,8

60002960 <main>:
60002960:	27bdffe0 	addiu	sp,sp,-32
60002964:	afbf001c 	sw	ra,28(sp)
60002968:	afbe0018 	sw	s8,24(sp)
6000296c:	03a0f021 	move	s8,sp
60002970:	afc40020 	sw	a0,32(s8)
60002974:	afc50024 	sw	a1,36(s8)
60002978:	3c036000 	lui	v1,0x6000
6000297c:	3c026000 	lui	v0,0x6000
60002980:	244244b4 	addiu	v0,v0,17588
60002984:	ac6244b4 	sw	v0,17588(v1)
60002988:	3c026000 	lui	v0,0x6000
6000298c:	244344b4 	addiu	v1,v0,17588
60002990:	3c026000 	lui	v0,0x6000
60002994:	244244b4 	addiu	v0,v0,17588
60002998:	ac620004 	sw	v0,4(v1)
6000299c:	3c036000 	lui	v1,0x6000
600029a0:	3c026000 	lui	v0,0x6000
600029a4:	24424488 	addiu	v0,v0,17544
600029a8:	ac624488 	sw	v0,17544(v1)
600029ac:	3c026000 	lui	v0,0x6000
600029b0:	24434488 	addiu	v1,v0,17544
600029b4:	3c026000 	lui	v0,0x6000
600029b8:	24424488 	addiu	v0,v0,17544
600029bc:	ac620004 	sw	v0,4(v1)
600029c0:	0c0001a8 	jal	600006a0 <_manager_creat_wait_thread>
600029c4:	00000000 	nop
600029c8:	0c00011a 	jal	60000468 <_manager_creat_msg_thread>
600029cc:	00000000 	nop
600029d0:	27c40010 	addiu	a0,s8,16
600029d4:	0c000c0f 	jal	6000303c <pthread_self>
600029d8:	00000000 	nop
600029dc:	8fc40010 	lw	a0,16(s8)
600029e0:	0c000c12 	jal	60003048 <pthread_detach>
600029e4:	00000000 	nop
600029e8:	00002021 	move	a0,zero
600029ec:	0c000c0c 	jal	60003030 <pthread_exit>
600029f0:	00000000 	nop
600029f4:	03c0e821 	move	sp,s8
600029f8:	8fbf001c 	lw	ra,28(sp)
600029fc:	8fbe0018 	lw	s8,24(sp)
60002a00:	27bd0020 	addiu	sp,sp,32
60002a04:	03e00008 	jr	ra
60002a08:	00000000 	nop

60002a0c <sys_pm_set_clk_domain>:
60002a0c:	3c030012 	lui	v1,0x12
60002a10:	3463008f 	ori	v1,v1,0x8f
60002a14:	0000000c 	syscall

60002a18 <sys_pm_clear_clk_domain>:
60002a18:	3c030012 	lui	v1,0x12
60002a1c:	34630090 	ori	v1,v1,0x90
60002a20:	0000000c 	syscall

60002a24 <basename>:
60002a24:	3c030012 	lui	v1,0x12
60002a28:	34630092 	ori	v1,v1,0x92
60002a2c:	0000000c 	syscall

60002a30 <set_timer>:
60002a30:	3c030012 	lui	v1,0x12
60002a34:	3463000f 	ori	v1,v1,0xf
60002a38:	0000000c 	syscall

60002a3c <set_single_shot_timer>:
60002a3c:	3c030012 	lui	v1,0x12
60002a40:	34630010 	ori	v1,v1,0x10
60002a44:	0000000c 	syscall

60002a48 <modify_timer>:
60002a48:	3c030012 	lui	v1,0x12
60002a4c:	34630011 	ori	v1,v1,0x11
60002a50:	0000000c 	syscall

60002a54 <stop_timer>:
60002a54:	3c030012 	lui	v1,0x12
60002a58:	34630012 	ori	v1,v1,0x12
60002a5c:	0000000c 	syscall

60002a60 <kill_timer>:
60002a60:	3c030012 	lui	v1,0x12
60002a64:	34630014 	ori	v1,v1,0x14
60002a68:	0000000c 	syscall

60002a6c <is_app_exist>:
60002a6c:	3c030012 	lui	v1,0x12
60002a70:	34630002 	ori	v1,v1,0x2
60002a74:	0000000c 	syscall

60002a78 <applib_register_app>:
60002a78:	3c030012 	lui	v1,0x12
60002a7c:	34630034 	ori	v1,v1,0x34
60002a80:	0000000c 	syscall

60002a84 <applib_unregister_app>:
60002a84:	3c030012 	lui	v1,0x12
60002a88:	34630035 	ori	v1,v1,0x35
60002a8c:	0000000c 	syscall

60002a90 <applib_init>:
60002a90:	3c030012 	lui	v1,0x12
60002a94:	34630036 	ori	v1,v1,0x36
60002a98:	0000000c 	syscall

60002a9c <get_msg>:
60002a9c:	3c030012 	lui	v1,0x12
60002aa0:	34630038 	ori	v1,v1,0x38
60002aa4:	0000000c 	syscall

60002aa8 <get_app_name>:
60002aa8:	3c030012 	lui	v1,0x12
60002aac:	34630005 	ori	v1,v1,0x5
60002ab0:	0000000c 	syscall

60002ab4 <reply_sync_msg>:
60002ab4:	3c030012 	lui	v1,0x12
60002ab8:	3463003a 	ori	v1,v1,0x3a
60002abc:	0000000c 	syscall

60002ac0 <send_async_msg>:
60002ac0:	3c030012 	lui	v1,0x12
60002ac4:	3463003b 	ori	v1,v1,0x3b
60002ac8:	0000000c 	syscall

60002acc <dispatch_msg>:
60002acc:	3c030012 	lui	v1,0x12
60002ad0:	3463003d 	ori	v1,v1,0x3d
60002ad4:	0000000c 	syscall

60002ad8 <register_sys_dispatcher>:
60002ad8:	3c030012 	lui	v1,0x12
60002adc:	3463003e 	ori	v1,v1,0x3e
60002ae0:	0000000c 	syscall

60002ae4 <unregister_sys_dispatcher>:
60002ae4:	3c030012 	lui	v1,0x12
60002ae8:	3463003f 	ori	v1,v1,0x3f
60002aec:	0000000c 	syscall

60002af0 <app_running_list_get_app_info>:
60002af0:	3c030012 	lui	v1,0x12
60002af4:	34630006 	ori	v1,v1,0x6
60002af8:	0000000c 	syscall

60002afc <check_soft_watchdogs>:
60002afc:	3c030012 	lui	v1,0x12
60002b00:	34630046 	ori	v1,v1,0x46
60002b04:	0000000c 	syscall

60002b08 <app_running_list_set_app_info>:
60002b08:	3c030012 	lui	v1,0x12
60002b0c:	34630008 	ori	v1,v1,0x8
60002b10:	0000000c 	syscall

60002b14 <app_running_list_get_list>:
60002b14:	3c030012 	lui	v1,0x12
60002b18:	3463000a 	ori	v1,v1,0xa
60002b1c:	0000000c 	syscall

60002b20 <__do_global_dtors_aux>:
60002b20:	27bdffe0 	addiu	sp,sp,-32
60002b24:	afbf001c 	sw	ra,28(sp)
60002b28:	afbe0018 	sw	s8,24(sp)
60002b2c:	03a0f021 	move	s8,sp
60002b30:	3c026000 	lui	v0,0x6000
60002b34:	2442400c 	addiu	v0,v0,16396
60002b38:	afc20010 	sw	v0,16(s8)
60002b3c:	8fc20010 	lw	v0,16(s8)
60002b40:	8c420000 	lw	v0,0(v0)
60002b44:	1040000a 	beqz	v0,60002b70 <__do_global_dtors_aux+0x50>
60002b48:	00000000 	nop
60002b4c:	8fc20010 	lw	v0,16(s8)
60002b50:	8c420000 	lw	v0,0(v0)
60002b54:	0040f809 	jalr	v0
60002b58:	00000000 	nop
60002b5c:	8fc20010 	lw	v0,16(s8)
60002b60:	24420004 	addiu	v0,v0,4
60002b64:	afc20010 	sw	v0,16(s8)
60002b68:	1000fff4 	b	60002b3c <__do_global_dtors_aux+0x1c>
60002b6c:	00000000 	nop
60002b70:	03c0e821 	move	sp,s8
60002b74:	8fbf001c 	lw	ra,28(sp)
60002b78:	8fbe0018 	lw	s8,24(sp)
60002b7c:	27bd0020 	addiu	sp,sp,32
60002b80:	03e00008 	jr	ra
60002b84:	00000000 	nop

60002b88 <exec_release>:
60002b88:	03e00008 	jr	ra
60002b8c:	00001021 	move	v0,zero

60002b90 <dumpargv>:
60002b90:	10800007 	beqz	a0,60002bb0 <dumpargv+0x20>
60002b94:	00001821 	move	v1,zero
60002b98:	10000003 	b	60002ba8 <dumpargv+0x18>
60002b9c:	8c820000 	lw	v0,0(a0)
60002ba0:	8c820000 	lw	v0,0(a0)
60002ba4:	24630001 	addiu	v1,v1,1
60002ba8:	1440fffd 	bnez	v0,60002ba0 <dumpargv+0x10>
60002bac:	24840004 	addiu	a0,a0,4
60002bb0:	0003202a 	slt	a0,zero,v1
60002bb4:	1080000b 	beqz	a0,60002be4 <dumpargv+0x54>
60002bb8:	00000000 	nop
60002bbc:	00601021 	move	v0,v1
60002bc0:	2442ffff 	addiu	v0,v0,-1
60002bc4:	5440ffff 	bnezl	v0,60002bc4 <dumpargv+0x34>
60002bc8:	2442ffff 	addiu	v0,v0,-1
60002bcc:	10800005 	beqz	a0,60002be4 <dumpargv+0x54>
60002bd0:	00000000 	nop
60002bd4:	00601021 	move	v0,v1
60002bd8:	2442ffff 	addiu	v0,v0,-1
60002bdc:	5440ffff 	bnezl	v0,60002bdc <dumpargv+0x4c>
60002be0:	2442ffff 	addiu	v0,v0,-1
60002be4:	03e00008 	jr	ra
60002be8:	00000000 	nop

60002bec <process_start>:
60002bec:	27bdffe0 	addiu	sp,sp,-32
60002bf0:	afbf001c 	sw	ra,28(sp)
60002bf4:	afb10014 	sw	s1,20(sp)
60002bf8:	afb20018 	sw	s2,24(sp)
60002bfc:	0c000bee 	jal	60002fb8 <getpid>
60002c00:	afb00010 	sw	s0,16(sp)
60002c04:	0c000bfa 	jal	60002fe8 <__kernel_get_process_struct>
60002c08:	00402021 	move	a0,v0
60002c0c:	1040002e 	beqz	v0,60002cc8 <process_start+0xdc>
60002c10:	00008821 	move	s1,zero
60002c14:	8c520060 	lw	s2,96(v0)
60002c18:	2405004f 	li	a1,79
60002c1c:	0c000ae4 	jal	60002b90 <dumpargv>
60002c20:	02402021 	move	a0,s2
60002c24:	12400009 	beqz	s2,60002c4c <process_start+0x60>
60002c28:	3c036000 	lui	v1,0x6000
60002c2c:	8e420000 	lw	v0,0(s2)
60002c30:	10400005 	beqz	v0,60002c48 <process_start+0x5c>
60002c34:	02401821 	move	v1,s2
60002c38:	24630004 	addiu	v1,v1,4
60002c3c:	8c660000 	lw	a2,0(v1)
60002c40:	14c0fffd 	bnez	a2,60002c38 <process_start+0x4c>
60002c44:	26310001 	addiu	s1,s1,1
60002c48:	3c036000 	lui	v1,0x6000
60002c4c:	24703c60 	addiu	s0,v1,15456
60002c50:	02002021 	move	a0,s0
60002c54:	0c000d2b 	jal	600034ac <dlopen>
60002c58:	24050002 	li	a1,2
60002c5c:	5040000c 	beqzl	v0,60002c90 <process_start+0xa4>
60002c60:	02002021 	move	a0,s0
60002c64:	02202021 	move	a0,s1
60002c68:	0c000a58 	jal	60002960 <main>
60002c6c:	02402821 	move	a1,s2
60002c70:	0c000c2a 	jal	600030a8 <exit>
60002c74:	00002021 	move	a0,zero
60002c78:	8fbf001c 	lw	ra,28(sp)
60002c7c:	8fb20018 	lw	s2,24(sp)
60002c80:	8fb10014 	lw	s1,20(sp)
60002c84:	8fb00010 	lw	s0,16(sp)
60002c88:	03e00008 	jr	ra
60002c8c:	27bd0020 	addiu	sp,sp,32
60002c90:	0c000d2b 	jal	600034ac <dlopen>
60002c94:	24050002 	li	a1,2
60002c98:	5440fff3 	bnezl	v0,60002c68 <process_start+0x7c>
60002c9c:	02202021 	move	a0,s1
60002ca0:	0c000d34 	jal	600034d0 <os_cpu_save_sr>
60002ca4:	00000000 	nop
60002ca8:	3c076000 	lui	a3,0x6000
60002cac:	00408021 	move	s0,v0
60002cb0:	0c000d22 	jal	60003488 <printf>
60002cb4:	24e43c6c 	addiu	a0,a3,15468
60002cb8:	0c000d31 	jal	600034c4 <os_cpu_store_sr>
60002cbc:	02002021 	move	a0,s0
60002cc0:	1000ffe9 	b	60002c68 <process_start+0x7c>
60002cc4:	02202021 	move	a0,s1
60002cc8:	0c000d34 	jal	600034d0 <os_cpu_save_sr>
60002ccc:	00000000 	nop
60002cd0:	0c000bee 	jal	60002fb8 <getpid>
60002cd4:	00408021 	move	s0,v0
60002cd8:	3c046000 	lui	a0,0x6000
60002cdc:	3c056000 	lui	a1,0x6000
60002ce0:	24843c84 	addiu	a0,a0,15492
60002ce4:	24a53c48 	addiu	a1,a1,15432
60002ce8:	00403821 	move	a3,v0
60002cec:	0c000d22 	jal	60003488 <printf>
60002cf0:	24060048 	li	a2,72
60002cf4:	0c000d31 	jal	600034c4 <os_cpu_store_sr>
60002cf8:	02002021 	move	a0,s0
60002cfc:	1000ffde 	b	60002c78 <process_start+0x8c>
60002d00:	00001021 	move	v0,zero

60002d04 <__start>:
60002d04:	27bdffb0 	addiu	sp,sp,-80
60002d08:	afbf004c 	sw	ra,76(sp)
60002d0c:	afb20048 	sw	s2,72(sp)
60002d10:	afb10044 	sw	s1,68(sp)
60002d14:	afb00040 	sw	s0,64(sp)
60002d18:	00808821 	move	s1,a0
60002d1c:	00a09021 	move	s2,a1
60002d20:	00c08021 	move	s0,a2
60002d24:	0c000000 	jal	60000000 <_init>
60002d28:	afa00038 	sw	zero,56(sp)
60002d2c:	0c000d1c 	jal	60003470 <os_sched_lock>
60002d30:	00000000 	nop
60002d34:	0c000c15 	jal	60003054 <__kernel_get_pid>
60002d38:	27a40038 	addiu	a0,sp,56
60002d3c:	14400058 	bnez	v0,60002ea0 <__start+0x19c>
60002d40:	00000000 	nop
60002d44:	0c000c00 	jal	60003000 <__current_pid>
60002d48:	00000000 	nop
60002d4c:	8fa40038 	lw	a0,56(sp)
60002d50:	0c000c03 	jal	6000300c <__kernel_insert_sub_to_parent>
60002d54:	00402821 	move	a1,v0
60002d58:	0c000c00 	jal	60003000 <__current_pid>
60002d5c:	00000000 	nop
60002d60:	8fa40038 	lw	a0,56(sp)
60002d64:	02202821 	move	a1,s1
60002d68:	02003821 	move	a3,s0
60002d6c:	0c000bf7 	jal	60002fdc <__kernel_set_envp>
60002d70:	02403021 	move	a2,s2
60002d74:	14400029 	bnez	v0,60002e1c <__start+0x118>
60002d78:	00408821 	move	s1,v0
60002d7c:	0c000bfa 	jal	60002fe8 <__kernel_get_process_struct>
60002d80:	8fa40038 	lw	a0,56(sp)
60002d84:	10400055 	beqz	v0,60002edc <__start+0x1d8>
60002d88:	3c086000 	lui	t0,0x6000
60002d8c:	25072b88 	addiu	a3,t0,11144
60002d90:	ac470008 	sw	a3,8(v0)
60002d94:	0c000c18 	jal	60003060 <pthread_attr_init>
60002d98:	27a40010 	addiu	a0,sp,16
60002d9c:	27a40010 	addiu	a0,sp,16
60002da0:	0c000c1e 	jal	60003078 <pthread_attr_setinheritsched>
60002da4:	24050002 	li	a1,2
60002da8:	27a40010 	addiu	a0,sp,16
60002dac:	0c000c21 	jal	60003084 <pthread_attr_setdetachstate>
60002db0:	00002821 	move	a1,zero
60002db4:	02402021 	move	a0,s2
60002db8:	0c000ae4 	jal	60002b90 <dumpargv>
60002dbc:	24050099 	li	a1,153
60002dc0:	0c000c2d 	jal	600030b4 <_kernel_change_thread_pid>
60002dc4:	8fa40038 	lw	a0,56(sp)
60002dc8:	3c066000 	lui	a2,0x6000
60002dcc:	00409021 	move	s2,v0
60002dd0:	24c62bec 	addiu	a2,a2,11244
60002dd4:	27a4003c 	addiu	a0,sp,60
60002dd8:	27a50010 	addiu	a1,sp,16
60002ddc:	0c000c09 	jal	60003024 <pthread_create>
60002de0:	00003821 	move	a3,zero
60002de4:	02402021 	move	a0,s2
60002de8:	0c000c2d 	jal	600030b4 <_kernel_change_thread_pid>
60002dec:	00408821 	move	s1,v0
60002df0:	0c000c1b 	jal	6000306c <pthread_attr_destroy>
60002df4:	27a40010 	addiu	a0,sp,16
60002df8:	12200020 	beqz	s1,60002e7c <__start+0x178>
60002dfc:	00000000 	nop
60002e00:	0c000c00 	jal	60003000 <__current_pid>
60002e04:	00000000 	nop
60002e08:	8fa40038 	lw	a0,56(sp)
60002e0c:	0c000c06 	jal	60003018 <__kernel_remove_sub_from_parent>
60002e10:	00402821 	move	a1,v0
60002e14:	0c000beb 	jal	60002fac <__kernel_release_pid>
60002e18:	8fa40038 	lw	a0,56(sp)
60002e1c:	0c000bfd 	jal	60002ff4 <__errno>
60002e20:	00000000 	nop
60002e24:	0c000d34 	jal	600034d0 <os_cpu_save_sr>
60002e28:	ac510000 	sw	s1,0(v0)
60002e2c:	0c000bfd 	jal	60002ff4 <__errno>
60002e30:	00408021 	move	s0,v0
60002e34:	8c470000 	lw	a3,0(v0)
60002e38:	3c0a6000 	lui	t2,0x6000
60002e3c:	3c096000 	lui	t1,0x6000
60002e40:	25243cb0 	addiu	a0,t1,15536
60002e44:	25453c58 	addiu	a1,t2,15448
60002e48:	0c000d22 	jal	60003488 <printf>
60002e4c:	240600ad 	li	a2,173
60002e50:	0c000d31 	jal	600034c4 <os_cpu_store_sr>
60002e54:	02002021 	move	a0,s0
60002e58:	0c000d1f 	jal	6000347c <os_sched_unlock>
60002e5c:	00000000 	nop
60002e60:	8fbf004c 	lw	ra,76(sp)
60002e64:	8fb20048 	lw	s2,72(sp)
60002e68:	8fb10044 	lw	s1,68(sp)
60002e6c:	8fb00040 	lw	s0,64(sp)
60002e70:	2402ffff 	li	v0,-1
60002e74:	03e00008 	jr	ra
60002e78:	27bd0050 	addiu	sp,sp,80
60002e7c:	0c000d1f 	jal	6000347c <os_sched_unlock>
60002e80:	00000000 	nop
60002e84:	8fbf004c 	lw	ra,76(sp)
60002e88:	8fb20048 	lw	s2,72(sp)
60002e8c:	8fb10044 	lw	s1,68(sp)
60002e90:	8fb00040 	lw	s0,64(sp)
60002e94:	00001021 	move	v0,zero
60002e98:	03e00008 	jr	ra
60002e9c:	27bd0050 	addiu	sp,sp,80
60002ea0:	0c000d34 	jal	600034d0 <os_cpu_save_sr>
60002ea4:	00000000 	nop
60002ea8:	3c056000 	lui	a1,0x6000
60002eac:	3c046000 	lui	a0,0x6000
60002eb0:	00408021 	move	s0,v0
60002eb4:	24a53c58 	addiu	a1,a1,15448
60002eb8:	24060074 	li	a2,116
60002ebc:	0c000d22 	jal	60003488 <printf>
60002ec0:	24843cd4 	addiu	a0,a0,15572
60002ec4:	0c000d31 	jal	600034c4 <os_cpu_store_sr>
60002ec8:	02002021 	move	a0,s0
60002ecc:	0c000d1f 	jal	6000347c <os_sched_unlock>
60002ed0:	00000000 	nop
60002ed4:	1000ffe3 	b	60002e64 <__start+0x160>
60002ed8:	8fbf004c 	lw	ra,76(sp)
60002edc:	0c000d34 	jal	600034d0 <os_cpu_save_sr>
60002ee0:	00000000 	nop
60002ee4:	00408021 	move	s0,v0
60002ee8:	3c036000 	lui	v1,0x6000
60002eec:	8fa70038 	lw	a3,56(sp)
60002ef0:	3c026000 	lui	v0,0x6000
60002ef4:	24643c84 	addiu	a0,v1,15492
60002ef8:	24453c58 	addiu	a1,v0,15448
60002efc:	0c000d22 	jal	60003488 <printf>
60002f00:	2406008d 	li	a2,141
60002f04:	0c000d31 	jal	600034c4 <os_cpu_store_sr>
60002f08:	02002021 	move	a0,s0
60002f0c:	1000ffd5 	b	60002e64 <__start+0x160>
60002f10:	8fbf004c 	lw	ra,76(sp)

60002f14 <__do_global_ctors_aux>:
60002f14:	27bdffe0 	addiu	sp,sp,-32
60002f18:	afbf001c 	sw	ra,28(sp)
60002f1c:	afbe0018 	sw	s8,24(sp)
60002f20:	03a0f021 	move	s8,sp
60002f24:	3c026000 	lui	v0,0x6000
60002f28:	24424004 	addiu	v0,v0,16388
60002f2c:	afc20010 	sw	v0,16(s8)
60002f30:	8fc20010 	lw	v0,16(s8)
60002f34:	8c420000 	lw	v0,0(v0)
60002f38:	1040000a 	beqz	v0,60002f64 <__do_global_ctors_aux+0x50>
60002f3c:	00000000 	nop
60002f40:	8fc20010 	lw	v0,16(s8)
60002f44:	8c420000 	lw	v0,0(v0)
60002f48:	0040f809 	jalr	v0
60002f4c:	00000000 	nop
60002f50:	8fc20010 	lw	v0,16(s8)
60002f54:	24420004 	addiu	v0,v0,4
60002f58:	afc20010 	sw	v0,16(s8)
60002f5c:	1000fff4 	b	60002f30 <__do_global_ctors_aux+0x1c>
60002f60:	00000000 	nop
60002f64:	03c0e821 	move	sp,s8
60002f68:	8fbf001c 	lw	ra,28(sp)
60002f6c:	8fbe0018 	lw	s8,24(sp)
60002f70:	27bd0020 	addiu	sp,sp,32
60002f74:	03e00008 	jr	ra
60002f78:	00000000 	nop

60002f7c <sem_init>:
60002f7c:	3c030007 	lui	v1,0x7
60002f80:	346300a3 	ori	v1,v1,0xa3
60002f84:	0000000c 	syscall

60002f88 <sem_wait>:
60002f88:	3c030007 	lui	v1,0x7
60002f8c:	346300a6 	ori	v1,v1,0xa6
60002f90:	0000000c 	syscall

60002f94 <sem_post>:
60002f94:	3c030007 	lui	v1,0x7
60002f98:	346300a9 	ori	v1,v1,0xa9
60002f9c:	0000000c 	syscall

60002fa0 <execvp>:
60002fa0:	3c030007 	lui	v1,0x7
60002fa4:	34630014 	ori	v1,v1,0x14
60002fa8:	0000000c 	syscall

60002fac <__kernel_release_pid>:
60002fac:	3c030007 	lui	v1,0x7
60002fb0:	34630005 	ori	v1,v1,0x5
60002fb4:	0000000c 	syscall

60002fb8 <getpid>:
60002fb8:	3c030007 	lui	v1,0x7
60002fbc:	34630016 	ori	v1,v1,0x16
60002fc0:	0000000c 	syscall

60002fc4 <waitpid>:
60002fc4:	3c030007 	lui	v1,0x7
60002fc8:	34630018 	ori	v1,v1,0x18
60002fcc:	0000000c 	syscall

60002fd0 <putenv>:
60002fd0:	3c030007 	lui	v1,0x7
60002fd4:	3463001a 	ori	v1,v1,0x1a
60002fd8:	0000000c 	syscall

60002fdc <__kernel_set_envp>:
60002fdc:	3c030007 	lui	v1,0x7
60002fe0:	3463001d 	ori	v1,v1,0x1d
60002fe4:	0000000c 	syscall

60002fe8 <__kernel_get_process_struct>:
60002fe8:	3c030007 	lui	v1,0x7
60002fec:	34630006 	ori	v1,v1,0x6
60002ff0:	0000000c 	syscall

60002ff4 <__errno>:
60002ff4:	3c030007 	lui	v1,0x7
60002ff8:	34630024 	ori	v1,v1,0x24
60002ffc:	0000000c 	syscall

60003000 <__current_pid>:
60003000:	3c030007 	lui	v1,0x7
60003004:	34630025 	ori	v1,v1,0x25
60003008:	0000000c 	syscall

6000300c <__kernel_insert_sub_to_parent>:
6000300c:	3c030007 	lui	v1,0x7
60003010:	34630027 	ori	v1,v1,0x27
60003014:	0000000c 	syscall

60003018 <__kernel_remove_sub_from_parent>:
60003018:	3c030007 	lui	v1,0x7
6000301c:	34630028 	ori	v1,v1,0x28
60003020:	0000000c 	syscall

60003024 <pthread_create>:
60003024:	3c030007 	lui	v1,0x7
60003028:	34630060 	ori	v1,v1,0x60
6000302c:	0000000c 	syscall

60003030 <pthread_exit>:
60003030:	3c030007 	lui	v1,0x7
60003034:	34630061 	ori	v1,v1,0x61
60003038:	0000000c 	syscall

6000303c <pthread_self>:
6000303c:	3c030007 	lui	v1,0x7
60003040:	34630063 	ori	v1,v1,0x63
60003044:	0000000c 	syscall

60003048 <pthread_detach>:
60003048:	3c030007 	lui	v1,0x7
6000304c:	34630065 	ori	v1,v1,0x65
60003050:	0000000c 	syscall

60003054 <__kernel_get_pid>:
60003054:	3c030007 	lui	v1,0x7
60003058:	34630004 	ori	v1,v1,0x4
6000305c:	0000000c 	syscall

60003060 <pthread_attr_init>:
60003060:	3c030007 	lui	v1,0x7
60003064:	34630070 	ori	v1,v1,0x70
60003068:	0000000c 	syscall

6000306c <pthread_attr_destroy>:
6000306c:	3c030007 	lui	v1,0x7
60003070:	34630071 	ori	v1,v1,0x71
60003074:	0000000c 	syscall

60003078 <pthread_attr_setinheritsched>:
60003078:	3c030007 	lui	v1,0x7
6000307c:	34630072 	ori	v1,v1,0x72
60003080:	0000000c 	syscall

60003084 <pthread_attr_setdetachstate>:
60003084:	3c030007 	lui	v1,0x7
60003088:	34630074 	ori	v1,v1,0x74
6000308c:	0000000c 	syscall

60003090 <pthread_attr_setscope>:
60003090:	3c030007 	lui	v1,0x7
60003094:	34630078 	ori	v1,v1,0x78
60003098:	0000000c 	syscall

6000309c <pthread_attr_setschedparam>:
6000309c:	3c030007 	lui	v1,0x7
600030a0:	3463007c 	ori	v1,v1,0x7c
600030a4:	0000000c 	syscall

600030a8 <exit>:
600030a8:	3c030007 	lui	v1,0x7
600030ac:	34630082 	ori	v1,v1,0x82
600030b0:	0000000c 	syscall

600030b4 <_kernel_change_thread_pid>:
600030b4:	3c030007 	lui	v1,0x7
600030b8:	3463000e 	ori	v1,v1,0xe
600030bc:	0000000c 	syscall

600030c0 <sleep>:
600030c0:	3c030007 	lui	v1,0x7
600030c4:	34630083 	ori	v1,v1,0x83
600030c8:	0000000c 	syscall

600030cc <sched_get_priority_max>:
600030cc:	3c030007 	lui	v1,0x7
600030d0:	34630091 	ori	v1,v1,0x91
600030d4:	0000000c 	syscall

600030d8 <close>:
600030d8:	3c030006 	lui	v1,0x6
600030dc:	34630001 	ori	v1,v1,0x1
600030e0:	0000000c 	syscall

600030e4 <ioctl>:
600030e4:	3c030006 	lui	v1,0x6
600030e8:	3463003f 	ori	v1,v1,0x3f
600030ec:	0000000c 	syscall

600030f0 <open>:
600030f0:	3c030006 	lui	v1,0x6
600030f4:	0000000c 	syscall

600030f8 <memcpy>:
600030f8:	10000005 	b	60003110 <memcpy+0x18>
600030fc:	00801821 	move	v1,a0
60003100:	24c6ffff 	addiu	a2,a2,-1
60003104:	a0820000 	sb	v0,0(a0)
60003108:	24a50001 	addiu	a1,a1,1
6000310c:	24840001 	addiu	a0,a0,1
60003110:	54c0fffb 	bnezl	a2,60003100 <memcpy+0x8>
60003114:	90a20000 	lbu	v0,0(a1)
60003118:	03e00008 	jr	ra
6000311c:	00601021 	move	v0,v1

60003120 <bcopy>:
60003120:	10c00007 	beqz	a2,60003140 <bcopy+0x20>
60003124:	00000000 	nop
60003128:	90820000 	lbu	v0,0(a0)
6000312c:	24c6ffff 	addiu	a2,a2,-1
60003130:	a0a20000 	sb	v0,0(a1)
60003134:	24840001 	addiu	a0,a0,1
60003138:	14c0fffb 	bnez	a2,60003128 <bcopy+0x8>
6000313c:	24a50001 	addiu	a1,a1,1
60003140:	03e00008 	jr	ra
60003144:	00000000 	nop

60003148 <memset>:
60003148:	00801021 	move	v0,a0
6000314c:	10000003 	b	6000315c <memset+0x14>
60003150:	00801821 	move	v1,a0
60003154:	24c6ffff 	addiu	a2,a2,-1
60003158:	24630001 	addiu	v1,v1,1
6000315c:	54c0fffd 	bnezl	a2,60003154 <memset+0xc>
60003160:	a0650000 	sb	a1,0(v1)
60003164:	03e00008 	jr	ra
60003168:	00000000 	nop

6000316c <bzero>:
6000316c:	10a00005 	beqz	a1,60003184 <bzero+0x18>
60003170:	00000000 	nop
60003174:	a0800000 	sb	zero,0(a0)
60003178:	24a5ffff 	addiu	a1,a1,-1
6000317c:	14a0fffd 	bnez	a1,60003174 <bzero+0x8>
60003180:	24840001 	addiu	a0,a0,1
60003184:	03e00008 	jr	ra
60003188:	00000000 	nop

6000318c <strcat>:
6000318c:	2c870001 	sltiu	a3,a0,1
60003190:	2ca30001 	sltiu	v1,a1,1
60003194:	00e31025 	or	v0,a3,v1
60003198:	1440000d 	bnez	v0,600031d0 <strcat+0x44>
6000319c:	00803021 	move	a2,a0
600031a0:	10000002 	b	600031ac <strcat+0x20>
600031a4:	80820000 	lb	v0,0(a0)
600031a8:	80820000 	lb	v0,0(a0)
600031ac:	5440fffe 	bnezl	v0,600031a8 <strcat+0x1c>
600031b0:	24840001 	addiu	a0,a0,1
600031b4:	10000004 	b	600031c8 <strcat+0x3c>
600031b8:	90a20000 	lbu	v0,0(a1)
600031bc:	24a50001 	addiu	a1,a1,1
600031c0:	90a20000 	lbu	v0,0(a1)
600031c4:	24840001 	addiu	a0,a0,1
600031c8:	1440fffc 	bnez	v0,600031bc <strcat+0x30>
600031cc:	a0820000 	sb	v0,0(a0)
600031d0:	03e00008 	jr	ra
600031d4:	00c01021 	move	v0,a2

600031d8 <strncat>:
600031d8:	2c880001 	sltiu	t0,a0,1
600031dc:	2ca30001 	sltiu	v1,a1,1
600031e0:	01031025 	or	v0,t0,v1
600031e4:	14400012 	bnez	v0,60003230 <strncat+0x58>
600031e8:	00803821 	move	a3,a0
600031ec:	10c00010 	beqz	a2,60003230 <strncat+0x58>
600031f0:	00000000 	nop
600031f4:	10000002 	b	60003200 <strncat+0x28>
600031f8:	80820000 	lb	v0,0(a0)
600031fc:	80820000 	lb	v0,0(a0)
60003200:	5440fffe 	bnezl	v0,600031fc <strncat+0x24>
60003204:	24840001 	addiu	a0,a0,1
60003208:	90a20000 	lbu	v0,0(a1)
6000320c:	a0820000 	sb	v0,0(a0)
60003210:	10400007 	beqz	v0,60003230 <strncat+0x58>
60003214:	24840001 	addiu	a0,a0,1
60003218:	24a50001 	addiu	a1,a1,1
6000321c:	90a20000 	lbu	v0,0(a1)
60003220:	24c6ffff 	addiu	a2,a2,-1
60003224:	14c0fffa 	bnez	a2,60003210 <strncat+0x38>
60003228:	a0820000 	sb	v0,0(a0)
6000322c:	a0800000 	sb	zero,0(a0)
60003230:	03e00008 	jr	ra
60003234:	00e01021 	move	v0,a3

60003238 <strchr>:
60003238:	80830000 	lb	v1,0(a0)
6000323c:	1060000b 	beqz	v1,6000326c <strchr+0x34>
60003240:	7c052c20 	seb	a1,a1
60003244:	10000004 	b	60003258 <strchr+0x20>
60003248:	00000000 	nop
6000324c:	80830000 	lb	v1,0(a0)
60003250:	10600006 	beqz	v1,6000326c <strchr+0x34>
60003254:	00000000 	nop
60003258:	5465fffc 	bnel	v1,a1,6000324c <strchr+0x14>
6000325c:	24840001 	addiu	a0,a0,1
60003260:	00801021 	move	v0,a0
60003264:	03e00008 	jr	ra
60003268:	00000000 	nop
6000326c:	1465fffd 	bne	v1,a1,60003264 <strchr+0x2c>
60003270:	00001021 	move	v0,zero
60003274:	03e00008 	jr	ra
60003278:	00801021 	move	v0,a0

6000327c <strrchr>:
6000327c:	27bdffe0 	addiu	sp,sp,-32
60003280:	afb10014 	sw	s1,20(sp)
60003284:	afb00010 	sw	s0,16(sp)
60003288:	afbf0018 	sw	ra,24(sp)
6000328c:	00a08021 	move	s0,a1
60003290:	0c000d11 	jal	60003444 <strlen>
60003294:	00808821 	move	s1,a0
60003298:	00511821 	addu	v1,v0,s1
6000329c:	7c108420 	seb	s0,s0
600032a0:	80620000 	lb	v0,0(v1)
600032a4:	1050000b 	beq	v0,s0,600032d4 <strrchr+0x58>
600032a8:	8fbf0018 	lw	ra,24(sp)
600032ac:	2463ffff 	addiu	v1,v1,-1
600032b0:	0071202b 	sltu	a0,v1,s1
600032b4:	5080fffb 	beqzl	a0,600032a4 <strrchr+0x28>
600032b8:	80620000 	lb	v0,0(v1)
600032bc:	8fbf0018 	lw	ra,24(sp)
600032c0:	8fb10014 	lw	s1,20(sp)
600032c4:	8fb00010 	lw	s0,16(sp)
600032c8:	00001021 	move	v0,zero
600032cc:	03e00008 	jr	ra
600032d0:	27bd0020 	addiu	sp,sp,32
600032d4:	8fb10014 	lw	s1,20(sp)
600032d8:	8fb00010 	lw	s0,16(sp)
600032dc:	00601021 	move	v0,v1
600032e0:	03e00008 	jr	ra
600032e4:	27bd0020 	addiu	sp,sp,32

600032e8 <strcmp>:
600032e8:	90820000 	lbu	v0,0(a0)
600032ec:	90a30000 	lbu	v1,0(a1)
600032f0:	24840001 	addiu	a0,a0,1
600032f4:	10400005 	beqz	v0,6000330c <strcmp+0x24>
600032f8:	24a50001 	addiu	a1,a1,1
600032fc:	5043fffb 	beql	v0,v1,600032ec <strcmp+0x4>
60003300:	90820000 	lbu	v0,0(a0)
60003304:	03e00008 	jr	ra
60003308:	00431023 	subu	v0,v0,v1
6000330c:	03e00008 	jr	ra
60003310:	00031023 	negu	v0,v1

60003314 <strcoll>:
60003314:	08000cba 	j	600032e8 <strcmp>
60003318:	00000000 	nop

6000331c <strncmp>:
6000331c:	00003821 	move	a3,zero
60003320:	00004021 	move	t0,zero
60003324:	10c0000c 	beqz	a2,60003358 <strncmp+0x3c>
60003328:	24c6ffff 	addiu	a2,a2,-1
6000332c:	90870000 	lbu	a3,0(a0)
60003330:	90a80000 	lbu	t0,0(a1)
60003334:	2ce90001 	sltiu	t1,a3,1
60003338:	00e85026 	xor	t2,a3,t0
6000333c:	000a102b 	sltu	v0,zero,t2
60003340:	01221825 	or	v1,t1,v0
60003344:	24840001 	addiu	a0,a0,1
60003348:	1060fff6 	beqz	v1,60003324 <strncmp+0x8>
6000334c:	24a50001 	addiu	a1,a1,1
60003350:	03e00008 	jr	ra
60003354:	00e81023 	subu	v0,a3,t0
60003358:	03e00008 	jr	ra
6000335c:	00e81023 	subu	v0,a3,t0

60003360 <strcpy>:
60003360:	90a20000 	lbu	v0,0(a1)
60003364:	00801821 	move	v1,a0
60003368:	10000004 	b	6000337c <strcpy+0x1c>
6000336c:	a0820000 	sb	v0,0(a0)
60003370:	90a20000 	lbu	v0,0(a1)
60003374:	24840001 	addiu	a0,a0,1
60003378:	a0820000 	sb	v0,0(a0)
6000337c:	5440fffc 	bnezl	v0,60003370 <strcpy+0x10>
60003380:	24a50001 	addiu	a1,a1,1
60003384:	03e00008 	jr	ra
60003388:	00601021 	move	v0,v1

6000338c <strncpy>:
6000338c:	10c00008 	beqz	a2,600033b0 <strncpy+0x24>
60003390:	00801821 	move	v1,a0
60003394:	90a20000 	lbu	v0,0(a1)
60003398:	24a50001 	addiu	a1,a1,1
6000339c:	10400006 	beqz	v0,600033b8 <strncpy+0x2c>
600033a0:	a0820000 	sb	v0,0(a0)
600033a4:	24c6ffff 	addiu	a2,a2,-1
600033a8:	14c0fffa 	bnez	a2,60003394 <strncpy+0x8>
600033ac:	24840001 	addiu	a0,a0,1
600033b0:	03e00008 	jr	ra
600033b4:	00601021 	move	v0,v1
600033b8:	10c0fffd 	beqz	a2,600033b0 <strncpy+0x24>
600033bc:	00000000 	nop
600033c0:	10000003 	b	600033d0 <strncpy+0x44>
600033c4:	24c6ffff 	addiu	a2,a2,-1
600033c8:	24c6ffff 	addiu	a2,a2,-1
600033cc:	a0800000 	sb	zero,0(a0)
600033d0:	14c0fffd 	bnez	a2,600033c8 <strncpy+0x3c>
600033d4:	24840001 	addiu	a0,a0,1
600033d8:	03e00008 	jr	ra
600033dc:	00601021 	move	v0,v1

600033e0 <strdup>:
600033e0:	27bdffe0 	addiu	sp,sp,-32
600033e4:	afbf001c 	sw	ra,28(sp)
600033e8:	afb20018 	sw	s2,24(sp)
600033ec:	afb10014 	sw	s1,20(sp)
600033f0:	afb00010 	sw	s0,16(sp)
600033f4:	0c000d11 	jal	60003444 <strlen>
600033f8:	00808821 	move	s1,a0
600033fc:	24500001 	addiu	s0,v0,1
60003400:	0c000d25 	jal	60003494 <malloc>
60003404:	02002021 	move	a0,s0
60003408:	00409021 	move	s2,v0
6000340c:	00402021 	move	a0,v0
60003410:	02202821 	move	a1,s1
60003414:	02003021 	move	a2,s0
60003418:	12400004 	beqz	s2,6000342c <strdup+0x4c>
6000341c:	00001021 	move	v0,zero
60003420:	0c000c3e 	jal	600030f8 <memcpy>
60003424:	00000000 	nop
60003428:	02401021 	move	v0,s2
6000342c:	8fbf001c 	lw	ra,28(sp)
60003430:	8fb20018 	lw	s2,24(sp)
60003434:	8fb10014 	lw	s1,20(sp)
60003438:	8fb00010 	lw	s0,16(sp)
6000343c:	03e00008 	jr	ra
60003440:	27bd0020 	addiu	sp,sp,32

60003444 <strlen>:
60003444:	80820000 	lb	v0,0(a0)
60003448:	10000002 	b	60003454 <strlen+0x10>
6000344c:	00801821 	move	v1,a0
60003450:	80620000 	lb	v0,0(v1)
60003454:	5440fffe 	bnezl	v0,60003450 <strlen+0xc>
60003458:	24630001 	addiu	v1,v1,1
6000345c:	03e00008 	jr	ra
60003460:	00641023 	subu	v0,v1,a0

60003464 <get_config>:
60003464:	3c030011 	lui	v1,0x11
60003468:	0000000c 	syscall
6000346c:	00000000 	nop

60003470 <os_sched_lock>:
60003470:	3c030001 	lui	v1,0x1
60003474:	34630002 	ori	v1,v1,0x2
60003478:	0000000c 	syscall

6000347c <os_sched_unlock>:
6000347c:	3c030001 	lui	v1,0x1
60003480:	34630003 	ori	v1,v1,0x3
60003484:	0000000c 	syscall

60003488 <printf>:
60003488:	3c030001 	lui	v1,0x1
6000348c:	34630032 	ori	v1,v1,0x32
60003490:	0000000c 	syscall

60003494 <malloc>:
60003494:	3c030001 	lui	v1,0x1
60003498:	3463003a 	ori	v1,v1,0x3a
6000349c:	0000000c 	syscall

600034a0 <free>:
600034a0:	3c030001 	lui	v1,0x1
600034a4:	3463003b 	ori	v1,v1,0x3b
600034a8:	0000000c 	syscall

600034ac <dlopen>:
600034ac:	3c030001 	lui	v1,0x1
600034b0:	3463006c 	ori	v1,v1,0x6c
600034b4:	0000000c 	syscall

600034b8 <dlclose>:
600034b8:	3c030001 	lui	v1,0x1
600034bc:	3463006d 	ori	v1,v1,0x6d
600034c0:	0000000c 	syscall

600034c4 <os_cpu_store_sr>:
600034c4:	3c030002 	lui	v1,0x2
600034c8:	34630001 	ori	v1,v1,0x1
600034cc:	0000000c 	syscall

600034d0 <os_cpu_save_sr>:
600034d0:	3c030002 	lui	v1,0x2
600034d4:	0000000c 	syscall
600034d8:	746e6d2f 	jalx	61b9b4bc <music_mutex_list+0x1b97008>
600034dc:	7369642f 	0x7369642f
600034e0:	612f616b 	0x612f616b
600034e4:	2f737070 	sltiu	s3,k1,28784
600034e8:	616e616d 	0x616e616d
600034ec:	2e726567 	sltiu	s2,s3,25959
600034f0:	00707061 	0x707061
600034f4:	746e6d2f 	jalx	61b9b4bc <music_mutex_list+0x1b97008>
600034f8:	7369642f 	0x7369642f
600034fc:	612f616b 	0x612f616b
60003500:	2f737070 	sltiu	s3,k1,28784
60003504:	5f67736d 	0x5f67736d
60003508:	76726573 	jalx	69c995cc <music_mutex_list+0x9c95118>
6000350c:	7070612e 	0x7070612e
60003510:	00000000 	nop
60003514:	746e6d2f 	jalx	61b9b4bc <music_mutex_list+0x1b97008>
60003518:	7369642f 	0x7369642f
6000351c:	612f616b 	0x612f616b
60003520:	2f737070 	sltiu	s3,k1,28784
60003524:	666e6f63 	0x666e6f63
60003528:	612e6769 	0x612e6769
6000352c:	00007070 	tge	zero,zero,0x1c1
60003530:	746e6d2f 	jalx	61b9b4bc <music_mutex_list+0x1b97008>
60003534:	7369642f 	0x7369642f
60003538:	612f616b 	0x612f616b
6000353c:	2f737070 	sltiu	s3,k1,28784
60003540:	6e75616c 	0x6e75616c
60003544:	72656863 	0x72656863
60003548:	75616c2f 	jalx	6585b0bc <music_mutex_list+0x5856c08>
6000354c:	6568636e 	0x6568636e
60003550:	70612e72 	0x70612e72
60003554:	00000070 	tge	zero,zero,0x1

60003558 <s_clk_domain_create_app>:
60003558:	00000000 	nop
6000355c:	00000003 	sra	zero,zero,0x0
60003560:	6c707061 	0x6c707061
60003564:	732e6269 	0x732e6269
60003568:	0000006f 	0x6f

6000356c <__func__.0>:
6000356c:	6163735f 	0x6163735f
60003570:	7075656c 	0x7075656c
60003574:	5f6d705f 	0x5f6d705f
60003578:	71657266 	0x71657266
6000357c:	00000000 	nop
60003580:	55424544 	bnel	t2,v0,60014a94 <music_mutex_list+0x105e0>
60003584:	69702d47 	0x69702d47
60003588:	64253a64 	0x64253a64
6000358c:	2c73252d 	sltiu	s3,v1,9517
60003590:	252c6425 	addiu	t4,t1,25637
60003594:	2d2d2d73 	sltiu	t5,t1,11635
60003598:	6c616320 	0x6c616320
6000359c:	7973206c 	0x7973206c
600035a0:	6d705f73 	0x6d705f73
600035a4:	7465735f 	jalx	6195cd7c <music_mutex_list+0x19588c8>
600035a8:	6b6c635f 	0x6b6c635f
600035ac:	6d6f645f 	0x6d6f645f
600035b0:	206e6961 	addi	t6,v1,26977
600035b4:	63637573 	0x63637573
600035b8:	21737365 	addi	s3,t3,29541
600035bc:	0000000a 	movz	zero,zero,zero
600035c0:	616e616d 	0x616e616d
600035c4:	5f726567 	0x5f726567
600035c8:	6e69616d 	0x6e69616d
600035cc:	0000632e 	0x632e
600035d0:	4f525245 	c3	0x1525245
600035d4:	72652852 	udi2	s3,a1,a1,0x1
600035d8:	3d6f6e72 	0x3d6f6e72
600035dc:	2d296425 	sltiu	t1,t1,25637
600035e0:	3a646970 	xori	a0,s3,0x6970
600035e4:	252d6425 	addiu	t5,t1,25637
600035e8:	64252c73 	0x64252c73
600035ec:	2d73252c 	sltiu	s3,t3,9516
600035f0:	63202d2d 	0x63202d2d
600035f4:	206c6c61 	addi	t4,v1,27745
600035f8:	5f737973 	0x5f737973
600035fc:	735f6d70 	0x735f6d70
60003600:	635f7465 	0x635f7465
60003604:	645f6b6c 	0x645f6b6c
60003608:	69616d6f 	0x69616d6f
6000360c:	6166206e 	0x6166206e
60003610:	64656c69 	0x64656c69
60003614:	00000a21 	0xa21

60003618 <__func__.1>:
60003618:	6174735f 	0x6174735f
6000361c:	775f7472 	jalx	6d7dd1c8 <music_mutex_list+0xd7d8d14>
60003620:	68637461 	0x68637461
60003624:	00676f64 	0x676f64
60003628:	7665642f 	jalx	699590bc <music_mutex_list+0x9954c08>
6000362c:	0064772f 	0x64772f
60003630:	4f525245 	c3	0x1525245
60003634:	72652852 	udi2	s3,a1,a1,0x1
60003638:	3d6f6e72 	0x3d6f6e72
6000363c:	2d296425 	sltiu	t1,t1,25637
60003640:	3a646970 	xori	a0,s3,0x6970
60003644:	252d6425 	addiu	t5,t1,25637
60003648:	64252c73 	0x64252c73
6000364c:	2d73252c 	sltiu	s3,t3,9516
60003650:	45202d2d 	0x45202d2d
60003654:	726f7272 	0x726f7272
60003658:	706f203a 	0x706f203a
6000365c:	77206e65 	jalx	6c81b994 <music_mutex_list+0xc8174e0>
60003660:	68637461 	0x68637461
60003664:	20676f64 	addi	a3,v1,28516
60003668:	69766564 	0x69766564
6000366c:	0a0a6563 	j	6829958c <music_mutex_list+0x82950d8>
60003670:	0000000a 	movz	zero,zero,zero

60003674 <__func__.2>:
60003674:	6e616d5f 	0x6e616d5f
60003678:	72656761 	0x72656761
6000367c:	6572635f 	0x6572635f
60003680:	6d5f7461 	0x6d5f7461
60003684:	745f6773 	jalx	617d9dcc <music_mutex_list+0x17d5918>
60003688:	61657268 	0x61657268
6000368c:	00000064 	0x64
60003690:	55424544 	bnel	t2,v0,60014ba4 <music_mutex_list+0x106f0>
60003694:	69702d47 	0x69702d47
60003698:	64253a64 	0x64253a64
6000369c:	2c73252d 	sltiu	s3,v1,9517
600036a0:	252c6425 	addiu	t4,t1,25637
600036a4:	2d2d2d73 	sltiu	t5,t1,11635
600036a8:	616d2020 	0x616d2020
600036ac:	6567616e 	0x6567616e
600036b0:	736d5f72 	0x736d5f72
600036b4:	6f6c5f67 	0x6f6c5f67
600036b8:	2020706f 	addi	zero,at,28783
600036bc:	65726874 	0x65726874
600036c0:	73276461 	0x73276461
600036c4:	69727020 	0x69727020
600036c8:	7469726f 	jalx	61a5c9bc <music_mutex_list+0x1a58508>
600036cc:	73692079 	0x73692079
600036d0:	6425203a 	0x6425203a
600036d4:	00000a0a 	0xa0a
600036d8:	6e616d20 	0x6e616d20
600036dc:	72656761 	0x72656761
600036e0:	6f727020 	0x6f727020
600036e4:	73736563 	0x73736563
600036e8:	6e65203a 	0x6e65203a
600036ec:	20726574 	addi	s2,v1,25972
600036f0:	7373656d 	0x7373656d
600036f4:	20656761 	addi	a1,v1,26465
600036f8:	65636572 	0x65636572
600036fc:	20657669 	addi	a1,v1,30313
60003700:	706f6f6c 	0x706f6f6c
60003704:	0a2e2e2e 	j	68b8b8b8 <music_mutex_list+0x8b87404>
60003708:	00000000 	nop

6000370c <__func__.3>:
6000370c:	6e616d5f 	0x6e616d5f
60003710:	72656761 	0x72656761
60003714:	6572635f 	0x6572635f
60003718:	775f7461 	jalx	6d7dd184 <music_mutex_list+0xd7d8cd0>
6000371c:	5f746961 	0x5f746961
60003720:	65726874 	0x65726874
60003724:	00006461 	0x6461
60003728:	55424544 	bnel	t2,v0,60014c3c <music_mutex_list+0x10788>
6000372c:	69702d47 	0x69702d47
60003730:	64253a64 	0x64253a64
60003734:	2c73252d 	sltiu	s3,v1,9517
60003738:	252c6425 	addiu	t4,t1,25637
6000373c:	2d2d2d73 	sltiu	t5,t1,11635
60003740:	616d2020 	0x616d2020
60003744:	6567616e 	0x6567616e
60003748:	61775f72 	0x61775f72
6000374c:	6c5f7469 	0x6c5f7469
60003750:	20706f6f 	addi	s0,v1,28527
60003754:	72687420 	0x72687420
60003758:	27646165 	addiu	a0,k1,24933
6000375c:	72702073 	0x72702073
60003760:	69726f69 	0x69726f69
60003764:	69207974 	0x69207974
60003768:	25203a73 	addiu	zero,t1,14963
6000376c:	000a0a64 	0xa0a64

60003770 <__func__.4>:
60003770:	6e616d5f 	0x6e616d5f
60003774:	72656761 	0x72656761
60003778:	6961775f 	0x6961775f
6000377c:	6f6c5f74 	0x6f6c5f74
60003780:	0000706f 	0x706f
60003784:	600034d8 	0x600034d8
60003788:	48544150 	0x48544150
6000378c:	6e6d2f3d 	0x6e6d2f3d
60003790:	65722f74 	0x65722f74
60003794:	65746f6d 	0x65746f6d
60003798:	6b736964 	0x6b736964
6000379c:	6d2f3a2f 	0x6d2f3a2f
600037a0:	642f746e 	0x642f746e
600037a4:	616b7369 	0x616b7369
600037a8:	7070612f 	0x7070612f
600037ac:	2f3a2f73 	sltiu	k0,t9,12147
600037b0:	2f746e6d 	sltiu	s4,k1,28269
600037b4:	73696473 	0x73696473
600037b8:	00002f6b 	0x2f6b
600037bc:	55424544 	bnel	t2,v0,60014cd0 <music_mutex_list+0x1081c>
600037c0:	69702d47 	0x69702d47
600037c4:	64253a64 	0x64253a64
600037c8:	2c73252d 	sltiu	s3,v1,9517
600037cc:	252c6425 	addiu	t4,t1,25637
600037d0:	2d2d2d73 	sltiu	t5,t1,11635
600037d4:	726f6620 	0x726f6620
600037d8:	6e676965 	0x6e676965
600037dc:	6f727020 	0x6f727020
600037e0:	73736563 	0x73736563
600037e4:	20642520 	addi	a0,v1,9504
600037e8:	74697865 	jalx	61a5e194 <music_mutex_list+0x1a59ce0>
600037ec:	3c3c202e 	0x3c3c202e
600037f0:	3c3c3c3c 	0x3c3c3c3c
600037f4:	3c3c3c3c 	0x3c3c3c3c
600037f8:	3c3c3c3c 	0x3c3c3c3c
600037fc:	3c3c3c3c 	0x3c3c3c3c
60003800:	3c3c3c3c 	0x3c3c3c3c
60003804:	000a3c3c 	0xa3c3c
60003808:	55424544 	bnel	t2,v0,60014d1c <music_mutex_list+0x10868>
6000380c:	69702d47 	0x69702d47
60003810:	64253a64 	0x64253a64
60003814:	2c73252d 	sltiu	s3,v1,9517
60003818:	252c6425 	addiu	t4,t1,25637
6000381c:	2d2d2d73 	sltiu	t5,t1,11635
60003820:	68742020 	0x68742020
60003824:	20657265 	addi	a1,v1,29285
60003828:	6e207369 	0x6e207369
6000382c:	6863206f 	0x6863206f
60003830:	20646c69 	addi	a0,v1,27753
60003834:	61632069 	0x61632069
60003838:	6177206e 	0x6177206e
6000383c:	6e697469 	0x6e697469
60003840:	6f662067 	0x6f662067
60003844:	2e2e2e72 	sltiu	t6,s1,11890
60003848:	3c3c3c3c 	0x3c3c3c3c
6000384c:	3c3c3c3c 	0x3c3c3c3c
60003850:	3c3c3c3c 	0x3c3c3c3c
60003854:	3c3c3c3c 	0x3c3c3c3c
60003858:	3c3c3c3c 	0x3c3c3c3c
6000385c:	0000000a 	movz	zero,zero,zero

60003860 <__func__.5>:
60003860:	6e616d5f 	0x6e616d5f
60003864:	72656761 	0x72656761
60003868:	6968635f 	0x6968635f
6000386c:	655f646c 	0x655f646c
60003870:	5f746978 	0x5f746978
60003874:	00006263 	0x6263
60003878:	5f6e6f6e 	0x5f6e6f6e
6000387c:	73697865 	0x73697865
60003880:	70612e74 	0x70612e74
60003884:	00000070 	tge	zero,zero,0x1
60003888:	55424544 	bnel	t2,v0,60014d9c <music_mutex_list+0x108e8>
6000388c:	69702d47 	0x69702d47
60003890:	64253a64 	0x64253a64
60003894:	2c73252d 	sltiu	s3,v1,9517
60003898:	252c6425 	addiu	t4,t1,25637
6000389c:	2d2d2d73 	sltiu	t5,t1,11635
600038a0:	69686320 	0x69686320
600038a4:	7020646c 	0x7020646c
600038a8:	65636f72 	0x65636f72
600038ac:	25207373 	addiu	zero,t1,29555
600038b0:	78652073 	0x78652073
600038b4:	202e7469 	addi	t6,at,29801
600038b8:	3c3c3c3c 	0x3c3c3c3c
600038bc:	3c3c3c3c 	0x3c3c3c3c
600038c0:	3c3c3c3c 	0x3c3c3c3c
600038c4:	3c3c3c3c 	0x3c3c3c3c
600038c8:	3c3c3c3c 	0x3c3c3c3c
600038cc:	3c3c3c3c 	0x3c3c3c3c
600038d0:	0000000a 	movz	zero,zero,zero
600038d4:	55424544 	bnel	t2,v0,60014de8 <music_mutex_list+0x10934>
600038d8:	69702d47 	0x69702d47
600038dc:	64253a64 	0x64253a64
600038e0:	2c73252d 	sltiu	s3,v1,9517
600038e4:	252c6425 	addiu	t4,t1,25637
600038e8:	2d2d2d73 	sltiu	t5,t1,11635
600038ec:	706d7420 	0x706d7420
600038f0:	69207327 	0x69207327
600038f4:	6b6f766e 	0x6b6f766e
600038f8:	253d7265 	addiu	sp,t1,29285
600038fc:	69202c73 	0x69202c73
60003900:	6b6f766e 	0x6b6f766e
60003904:	20656564 	addi	a1,v1,25956
60003908:	7325203d 	0x7325203d
6000390c:	00000a0a 	0xa0a
60003910:	55424544 	bnel	t2,v0,60014e24 <music_mutex_list+0x10970>
60003914:	69702d47 	0x69702d47
60003918:	64253a64 	0x64253a64
6000391c:	2c73252d 	sltiu	s3,v1,9517
60003920:	252c6425 	addiu	t4,t1,25637
60003924:	2d2d2d73 	sltiu	t5,t1,11635
60003928:	6f626120 	0x6f626120
6000392c:	65206576 	0x65206576
60003930:	6c617571 	0x6c617571
60003934:	0a0a2e73 	j	6828b9cc <music_mutex_list+0x8287518>
60003938:	00000000 	nop
6000393c:	746e6d2f 	jalx	61b9b4bc <music_mutex_list+0x1b97008>
60003940:	7369642f 	0x7369642f
60003944:	612f616b 	0x612f616b
60003948:	2f737070 	sltiu	s3,k1,28784
6000394c:	6e655f6d 	0x6e655f6d
60003950:	656e6967 	0x656e6967
60003954:	7070612e 	0x7070612e
60003958:	00000000 	nop
6000395c:	746e6d2f 	jalx	61b9b4bc <music_mutex_list+0x1b97008>
60003960:	7369642f 	0x7369642f
60003964:	612f616b 	0x612f616b
60003968:	2f737070 	sltiu	s3,k1,28784
6000396c:	6e656d66 	0x6e656d66
60003970:	656e6967 	0x656e6967
60003974:	7070612e 	0x7070612e
60003978:	00000000 	nop
6000397c:	4f525245 	c3	0x1525245
60003980:	72652852 	udi2	s3,a1,a1,0x1
60003984:	3d6f6e72 	0x3d6f6e72
60003988:	2d296425 	sltiu	t1,t1,25637
6000398c:	3a646970 	xori	a0,s3,0x6970
60003990:	252d6425 	addiu	t5,t1,25637
60003994:	64252c73 	0x64252c73
60003998:	2d73252c 	sltiu	s3,t3,9516
6000399c:	0a202d2d 	j	6880b4b4 <music_mutex_list+0x8807000>
600039a0:	00000000 	nop
600039a4:	73657220 	0x73657220
600039a8:	00656d75 	0x656d75

600039ac <__func__.6>:
600039ac:	746f6e5f 	jalx	61bdb97c <music_mutex_list+0x1bd74c8>
600039b0:	5f796669 	0x5f796669
600039b4:	6e75616c 	0x6e75616c
600039b8:	72656863 	0x72656863
600039bc:	00000000 	nop
600039c0:	55424544 	bnel	t2,v0,60014ed4 <music_mutex_list+0x10a20>
600039c4:	69702d47 	0x69702d47
600039c8:	64253a64 	0x64253a64
600039cc:	2c73252d 	sltiu	s3,v1,9517
600039d0:	252c6425 	addiu	t4,t1,25637
600039d4:	2d2d2d73 	sltiu	t5,t1,11635
600039d8:	00000a20 	0xa20

600039dc <__func__.7>:
600039dc:	67736d5f 	0x67736d5f
600039e0:	6f6f6c5f 	0x6f6f6c5f
600039e4:	62635f70 	0x62635f70
600039e8:	00000000 	nop
600039ec:	55424544 	bnel	t2,v0,60014f00 <music_mutex_list+0x10a4c>
600039f0:	69702d47 	0x69702d47
600039f4:	64253a64 	0x64253a64
600039f8:	2c73252d 	sltiu	s3,v1,9517
600039fc:	252c6425 	addiu	t4,t1,25637
60003a00:	2d2d2d73 	sltiu	t5,t1,11635
60003a04:	69200a20 	0x69200a20
60003a08:	616d206e 	0x616d206e
60003a0c:	6567616e 	0x6567616e
60003a10:	20732772 	addi	s3,v1,10098
60003a14:	7373656d 	0x7373656d
60003a18:	20656761 	addi	a1,v1,26465
60003a1c:	706f6f6c 	0x706f6f6c
60003a20:	000a0a3a 	0xa0a3a
60003a24:	55424544 	bnel	t2,v0,60014f38 <music_mutex_list+0x10a84>
60003a28:	69702d47 	0x69702d47
60003a2c:	64253a64 	0x64253a64
60003a30:	2c73252d 	sltiu	s3,v1,9517
60003a34:	252c6425 	addiu	t4,t1,25637
60003a38:	2d2d2d73 	sltiu	t5,t1,11635
60003a3c:	67736d20 	0x67736d20
60003a40:	7079742e 	0x7079742e
60003a44:	203d2065 	addi	sp,at,8293
60003a48:	0a096425 	j	68259094 <music_mutex_list+0x8254be0>
60003a4c:	00000000 	nop
60003a50:	600010a4 	0x600010a4
60003a54:	600010dc 	0x600010dc
60003a58:	600013e8 	0x600013e8
60003a5c:	60001254 	0x60001254
60003a60:	60001150 	0x60001150
60003a64:	600012d0 	0x600012d0
60003a68:	600012f4 	0x600012f4
60003a6c:	60001338 	0x60001338
60003a70:	60001548 	0x60001548
60003a74:	60001548 	0x60001548
60003a78:	60001548 	0x60001548
60003a7c:	60001548 	0x60001548
60003a80:	60001548 	0x60001548
60003a84:	60001548 	0x60001548
60003a88:	60001548 	0x60001548
60003a8c:	600014dc 	0x600014dc
60003a90:	60001548 	0x60001548
60003a94:	60001394 	0x60001394
60003a98:	60001500 	0x60001500
60003a9c:	60001528 	0x60001528

60003aa0 <__func__.8>:
60003aa0:	6578655f 	0x6578655f
60003aa4:	70615f63 	0x70615f63
60003aa8:	00000070 	tge	zero,zero,0x1
60003aac:	55424544 	bnel	t2,v0,60014fc0 <music_mutex_list+0x10b0c>
60003ab0:	69702d47 	0x69702d47
60003ab4:	64253a64 	0x64253a64
60003ab8:	2c73252d 	sltiu	s3,v1,9517
60003abc:	252c6425 	addiu	t4,t1,25637
60003ac0:	2d2d2d73 	sltiu	t5,t1,11635
60003ac4:	77656e20 	jalx	6d95b880 <music_mutex_list+0xd9573cc>
60003ac8:	766e6920 	jalx	69b9a480 <music_mutex_list+0x9b95fcc>
60003acc:	20656b6f 	addi	a1,v1,27503
60003ad0:	65646461 	0x65646461
60003ad4:	69203a64 	0x69203a64
60003ad8:	6b6f766e 	0x6b6f766e
60003adc:	253d7265 	addiu	sp,t1,29285
60003ae0:	6e692073 	0x6e692073
60003ae4:	656b6f76 	0x656b6f76
60003ae8:	73253d65 	0x73253d65
60003aec:	0000000a 	movz	zero,zero,zero

60003af0 <__func__.9>:
60003af0:	6c696b5f 	0x6c696b5f
60003af4:	73755f6c 	0x73755f6c
60003af8:	615f7265 	0x615f7265
60003afc:	00737070 	tge	v1,s3,0x1c1
60003b00:	55424544 	bnel	t2,v0,60015014 <music_mutex_list+0x10b60>
60003b04:	69702d47 	0x69702d47
60003b08:	64253a64 	0x64253a64
60003b0c:	2c73252d 	sltiu	s3,v1,9517
60003b10:	252c6425 	addiu	t4,t1,25637
60003b14:	2d2d2d73 	sltiu	t5,t1,11635
60003b18:	69617720 	0x69617720
60003b1c:	676e6974 	0x676e6974
60003b20:	726f6620 	0x726f6620
60003b24:	73253c20 	0x73253c20
60003b28:	6f74203e 	0x6f74203e
60003b2c:	69786520 	0x69786520
60003b30:	3c202e74 	0x3c202e74
60003b34:	3c3c3c3c 	0x3c3c3c3c
60003b38:	3c3c3c3c 	0x3c3c3c3c
60003b3c:	3c3c3c3c 	0x3c3c3c3c
60003b40:	3c3c3c3c 	0x3c3c3c3c
60003b44:	3c3c3c3c 	0x3c3c3c3c
60003b48:	3c3c3c3c 	0x3c3c3c3c
60003b4c:	0000000a 	movz	zero,zero,zero
60003b50:	76677261 	jalx	699dc984 <music_mutex_list+0x99d84d0>
60003b54:	5d64255b 	0x5d64255b
60003b58:	0a73253d 	j	69cc94f4 <music_mutex_list+0x9cc5040>
60003b5c:	00000000 	nop

60003b60 <__func__.10>:
60003b60:	6464615f 	0x6464615f
60003b64:	7461705f 	jalx	6185c17c <music_mutex_list+0x1857cc8>
60003b68:	6e695f68 	0x6e695f68
60003b6c:	00006f66 	0x6f66
60003b70:	55424544 	bnel	t2,v0,60015084 <music_mutex_list+0x10bd0>
60003b74:	69702d47 	0x69702d47
60003b78:	64253a64 	0x64253a64
60003b7c:	2c73252d 	sltiu	s3,v1,9517
60003b80:	252c6425 	addiu	t4,t1,25637
60003b84:	2d2d2d73 	sltiu	t5,t1,11635
60003b88:	2d2d2020 	sltiu	t5,t1,8224
60003b8c:	6461202d 	0x6461202d
60003b90:	6f742064 	0x6f742064
60003b94:	70706120 	0x70706120
60003b98:	7461705f 	jalx	6185c17c <music_mutex_list+0x1857cc8>
60003b9c:	6e695f68 	0x6e695f68
60003ba0:	6c5f6f66 	0x6c5f6f66
60003ba4:	3a747369 	xori	s4,s3,0x7369
60003ba8:	20732520 	addi	s3,v1,9504
60003bac:	7325202d 	0x7325202d
60003bb0:	0000000a 	movz	zero,zero,zero

60003bb4 <__func__.11>:
60003bb4:	7465675f 	jalx	61959d7c <music_mutex_list+0x19558c8>
60003bb8:	7379735f 	udi15	k1,t9,t6,0xd
60003bbc:	6e6f635f 	0x6e6f635f
60003bc0:	73676966 	0x73676966
60003bc4:	00000000 	nop
60003bc8:	6f637061 	0x6f637061
60003bcc:	6769666e 	0x6769666e
60003bd0:	006f732e 	0x6f732e
60003bd4:	4f525245 	c3	0x1525245
60003bd8:	72652852 	udi2	s3,a1,a1,0x1
60003bdc:	3d6f6e72 	0x3d6f6e72
60003be0:	2d296425 	sltiu	t1,t1,25637
60003be4:	3a646970 	xori	a0,s3,0x6970
60003be8:	252d6425 	addiu	t5,t1,25637
60003bec:	64252c73 	0x64252c73
60003bf0:	2d73252c 	sltiu	s3,t3,9516
60003bf4:	6c202d2d 	0x6c202d2d
60003bf8:	2064616f 	addi	a0,v1,24943
60003bfc:	6f637061 	0x6f637061
60003c00:	6769666e 	0x6769666e
60003c04:	69616620 	0x69616620
60003c08:	2e64656c 	sltiu	a0,s3,25964
60003c0c:	0000000a 	movz	zero,zero,zero
60003c10:	43544157 	c0	0x1544157
60003c14:	474f4448 	c1	0x14f4448
60003c18:	4d49545f 	0x4d49545f
60003c1c:	00000045 	0x45
60003c20:	6973756d 	0x6973756d
60003c24:	756d5f63 	jalx	65b57d8c <music_mutex_list+0x5b538d8>
60003c28:	5f786574 	0x5f786574
60003c2c:	73707061 	0x73707061
60003c30:	00000000 	nop
60003c34:	69646172 	0x69646172
60003c38:	756d5f6f 	jalx	65b57dbc <music_mutex_list+0x5b53908>
60003c3c:	5f786574 	0x5f786574
60003c40:	73707061 	0x73707061
60003c44:	00000000 	nop

60003c48 <__FUNCTION__.1>:
60003c48:	636f7270 	0x636f7270
60003c4c:	5f737365 	0x5f737365
60003c50:	72617473 	0x72617473
60003c54:	00000074 	teq	zero,zero,0x1

60003c58 <__FUNCTION__.0>:
60003c58:	74735f5f 	jalx	61cd7d7c <music_mutex_list+0x1cd38c8>
60003c5c:	00747261 	0x747261
60003c60:	6362696c 	0x6362696c
60003c64:	2e73665f 	sltiu	s3,s3,26207
60003c68:	00006f73 	tltu	zero,zero,0x1bd
60003c6c:	6362696c 	0x6362696c
60003c70:	2e73665f 	sltiu	s3,s3,26207
60003c74:	6f206f73 	0x6f206f73
60003c78:	206e6570 	addi	t6,v1,25968
60003c7c:	6f727265 	0x6f727265
60003c80:	00000a72 	tlt	zero,zero,0x29
60003c84:	6f727265 	0x6f727265
60003c88:	25202172 	addiu	zero,t1,8562
60003c8c:	64252c73 	0x64252c73
60003c90:	b7dece3a 	0xb7dece3a
60003c94:	b5d2d5a8 	0xb5d2d5a8
60003c98:	697028bd 	0x697028bd
60003c9c:	253d3d64 	addiu	sp,t1,15716
60003ca0:	c4b52964 	lwc1	$f21,10596(a1)
60003ca4:	ccb3f8bd 	pref	0x13,-1859(a1)
60003ca8:	b9b9e1bd 	swr	t9,-7747(t5)
60003cac:	000ae5cc 	syscall	0x2b97
60003cb0:	6f727265 	0x6f727265
60003cb4:	25202172 	addiu	zero,t1,8562
60003cb8:	64252c73 	0x64252c73
60003cbc:	b3f8bd3a 	0xb3f8bd3a
60003cc0:	bdb4b4cc 	cache	0x14,-19252(t5)
60003cc4:	b0a7caa8 	0xb0a7caa8
60003cc8:	727265dc 	udi12	s3,s2,t4,0x17
60003ccc:	253d6f6e 	addiu	sp,t1,28526
60003cd0:	00000a64 	0xa64
60003cd4:	6f727265 	0x6f727265
60003cd8:	25202172 	addiu	zero,t1,8562
60003cdc:	64252c73 	0x64252c73
60003ce0:	b4d1d23a 	0xb4d1d23a
60003ce4:	cfbdb5ef 	pref	0x1d,-18961(sp)
60003ce8:	d6b3cdb5 	ldc1	$f19,-12875(s5)
60003cec:	b5d6b3a7 	0xb5d6b3a7
60003cf0:	b4eed7c4 	0xb4eed7c4
60003cf4:	b3f8bdf3 	0xb3f8bdf3
60003cf8:	0afdcacc 	j	6bf72b30 <music_mutex_list+0xbf6e67c>
60003cfc:	Address 0x60003cfc is out of bounds.

Disassembly of section .fini:

60003d00 <_fini>:
60003d00:	27bdffe0 	addiu	sp,sp,-32
60003d04:	afbf0014 	sw	ra,20(sp)
60003d08:	0c000ac8 	jal	60002b20 <__do_global_dtors_aux>
60003d0c:	00000000 	nop
60003d10:	8fbf0014 	lw	ra,20(sp)
60003d14:	27bd0020 	addiu	sp,sp,32
60003d18:	03e00008 	jr	ra
60003d1c:	00000000 	nop
Disassembly of section .ctors:

60004000 <__CTOR_LIST__>:
60004000:	ffffffff 	sdc3	$31,-1(ra)

60004004 <__CTOR_END__>:
60004004:	00000000 	nop
Disassembly of section .dtors:

60004008 <__DTOR_LIST__>:
60004008:	ffffffff 	sdc3	$31,-1(ra)
6000400c:	60002b88 	0x60002b88

60004010 <__DTOR_END__>:
60004010:	00000000 	nop
Disassembly of section .data:

60004014 <no_kills_system>:
60004014:	600034d8 	0x600034d8
60004018:	600034f4 	0x600034f4
6000401c:	60003514 	0x60003514
60004020:	60003530 	0x60003530

60004024 <freq_timer_id>:
60004024:	ffffffff 	sdc3	$31,-1(ra)

60004028 <wd_timer_id>:
60004028:	ffffffff 	sdc3	$31,-1(ra)

6000402c <watchdog_time>:
6000402c:	00001388 	0x1388

60004030 <wd_fd>:
60004030:	ffffffff 	sdc3	$31,-1(ra)
Disassembly of section .bss:

60004034 <args>:
	...

6000405c <bootup_finish>:
6000405c:	00000000 	nop

60004060 <remind_launcher>:
60004060:	00000000 	nop

60004064 <app_var>:
60004064:	00000000 	nop

60004068 <invoke_list>:
	...

6000407c <pthread_mutex_type_t>:
6000407c:	00000000 	nop

60004080 <quit_app_info>:
	...

60004488 <radio_mutex_list>:
	...

60004494 <pthread_share_type_t>:
60004494:	00000000 	nop

60004498 <app_path_info_list>:
	...

600044a8 <app_list>:
	...

600044b4 <music_mutex_list>:
	...
Disassembly of section .reginfo:

00000000 <.reginfo>:
   0:	e00100fc 	sc	at,252(zero)
	...
Disassembly of section .pdr:

00000000 <.pdr>:
   0:	60000020 	0x60000020
   4:	c0010000 	ll	at,0(zero)
   8:	fffffff8 	sdc3	$31,-8(ra)
	...
  14:	00000028 	0x28
  18:	0000001e 	0x1e
  1c:	0000001f 	0x1f
  20:	60000094 	0x60000094
  24:	c0000000 	ll	zero,0(zero)
  28:	fffffffc 	sdc3	$31,-4(ra)
	...
  34:	00000018 	mult	zero,zero
  38:	0000001e 	0x1e
  3c:	0000001f 	0x1f
  40:	600000e4 	0x600000e4
  44:	c0010000 	ll	at,0(zero)
  48:	fffffff8 	sdc3	$31,-8(ra)
	...
  54:	00000030 	tge	zero,zero
  58:	0000001e 	0x1e
  5c:	0000001f 	0x1f
  60:	60000218 	0x60000218
  64:	c0000000 	ll	zero,0(zero)
  68:	fffffffc 	sdc3	$31,-4(ra)
	...
  74:	00000018 	mult	zero,zero
  78:	0000001e 	0x1e
  7c:	0000001f 	0x1f
  80:	60000280 	0x60000280
  84:	c0010000 	ll	at,0(zero)
  88:	fffffff8 	sdc3	$31,-8(ra)
	...
  94:	00000028 	0x28
  98:	0000001e 	0x1e
  9c:	0000001f 	0x1f
  a0:	60000394 	0x60000394
  a4:	c0000000 	ll	zero,0(zero)
  a8:	fffffffc 	sdc3	$31,-4(ra)
	...
  b4:	00000018 	mult	zero,zero
  b8:	0000001e 	0x1e
  bc:	0000001f 	0x1f
  c0:	60000418 	0x60000418
  c4:	c0000000 	ll	zero,0(zero)
  c8:	fffffffc 	sdc3	$31,-4(ra)
	...
  d4:	00000018 	mult	zero,zero
  d8:	0000001e 	0x1e
  dc:	0000001f 	0x1f
  e0:	60000468 	0x60000468
  e4:	c0000000 	ll	zero,0(zero)
  e8:	fffffffc 	sdc3	$31,-4(ra)
	...
  f4:	00000058 	0x58
  f8:	0000001e 	0x1e
  fc:	0000001f 	0x1f
 100:	60000578 	0x60000578
 104:	c0000000 	ll	zero,0(zero)
 108:	fffffffc 	sdc3	$31,-4(ra)
	...
 114:	00000420 	0x420
 118:	0000001e 	0x1e
 11c:	0000001f 	0x1f
 120:	600006a0 	0x600006a0
 124:	c0000000 	ll	zero,0(zero)
 128:	fffffffc 	sdc3	$31,-4(ra)
	...
 134:	00000058 	0x58
 138:	0000001e 	0x1e
 13c:	0000001f 	0x1f
 140:	600007ac 	0x600007ac
 144:	c0000000 	ll	zero,0(zero)
 148:	fffffffc 	sdc3	$31,-4(ra)
	...
 154:	00000030 	tge	zero,zero
 158:	0000001e 	0x1e
 15c:	0000001f 	0x1f
 160:	60000924 	0x60000924
 164:	c0010000 	ll	at,0(zero)
 168:	fffffff8 	sdc3	$31,-8(ra)
	...
 174:	00000050 	0x50
 178:	0000001e 	0x1e
 17c:	0000001f 	0x1f
 180:	60000c78 	0x60000c78
 184:	c0000000 	ll	zero,0(zero)
 188:	fffffffc 	sdc3	$31,-4(ra)
	...
 194:	00000018 	mult	zero,zero
 198:	0000001e 	0x1e
 19c:	0000001f 	0x1f
 1a0:	60000cdc 	0x60000cdc
 1a4:	40000000 	mfc0	zero,c0_index
 1a8:	fffffff8 	sdc3	$31,-8(ra)
	...
 1b4:	00000008 	jr	zero
 1b8:	0000001e 	0x1e
 1bc:	0000001f 	0x1f
 1c0:	60000d1c 	0x60000d1c
 1c4:	c0000000 	ll	zero,0(zero)
 1c8:	fffffffc 	sdc3	$31,-4(ra)
	...
 1d4:	00000430 	tge	zero,zero,0x10
 1d8:	0000001e 	0x1e
 1dc:	0000001f 	0x1f
 1e0:	60000ed8 	0x60000ed8
 1e4:	c0000000 	ll	zero,0(zero)
 1e8:	fffffffc 	sdc3	$31,-4(ra)
	...
 1f4:	00000430 	tge	zero,zero,0x10
 1f8:	0000001e 	0x1e
 1fc:	0000001f 	0x1f
 200:	60000fd0 	0x60000fd0
 204:	c0000000 	ll	zero,0(zero)
 208:	fffffffc 	sdc3	$31,-4(ra)
	...
 214:	00001868 	0x1868
 218:	0000001e 	0x1e
 21c:	0000001f 	0x1f
 220:	60001564 	0x60001564
 224:	c0010000 	ll	at,0(zero)
 228:	fffffff8 	sdc3	$31,-8(ra)
	...
 234:	00000ad8 	0xad8
 238:	0000001e 	0x1e
 23c:	0000001f 	0x1f
 240:	600017e4 	0x600017e4
 244:	c0000000 	ll	zero,0(zero)
 248:	fffffffc 	sdc3	$31,-4(ra)
	...
 254:	00000018 	mult	zero,zero
 258:	0000001e 	0x1e
 25c:	0000001f 	0x1f
 260:	6000182c 	0x6000182c
 264:	40000000 	mfc0	zero,c0_index
 268:	fffffff8 	sdc3	$31,-8(ra)
	...
 274:	00000008 	jr	zero
 278:	0000001e 	0x1e
 27c:	0000001f 	0x1f
 280:	60001888 	0x60001888
 284:	c0010000 	ll	at,0(zero)
 288:	fffffff8 	sdc3	$31,-8(ra)
	...
 294:	00000448 	0x448
 298:	0000001e 	0x1e
 29c:	0000001f 	0x1f
 2a0:	60001be4 	0x60001be4
 2a4:	c0000000 	ll	zero,0(zero)
 2a8:	fffffffc 	sdc3	$31,-4(ra)
	...
 2b4:	00000020 	add	zero,zero,zero
 2b8:	0000001e 	0x1e
 2bc:	0000001f 	0x1f
 2c0:	60001c88 	0x60001c88
 2c4:	c0010000 	ll	at,0(zero)
 2c8:	fffffff8 	sdc3	$31,-8(ra)
	...
 2d4:	00000030 	tge	zero,zero
 2d8:	0000001e 	0x1e
 2dc:	0000001f 	0x1f
 2e0:	60002080 	0x60002080
 2e4:	c0000000 	ll	zero,0(zero)
 2e8:	fffffffc 	sdc3	$31,-4(ra)
	...
 2f4:	00000020 	add	zero,zero,zero
 2f8:	0000001e 	0x1e
 2fc:	0000001f 	0x1f
 300:	60002128 	0x60002128
 304:	c0000000 	ll	zero,0(zero)
 308:	fffffffc 	sdc3	$31,-4(ra)
	...
 314:	00000020 	add	zero,zero,zero
 318:	0000001e 	0x1e
 31c:	0000001f 	0x1f
 320:	600021c4 	0x600021c4
 324:	c0010000 	ll	at,0(zero)
 328:	fffffff8 	sdc3	$31,-8(ra)
	...
 334:	00000048 	0x48
 338:	0000001e 	0x1e
 33c:	0000001f 	0x1f
 340:	60002328 	0x60002328
 344:	c0000000 	ll	zero,0(zero)
 348:	fffffffc 	sdc3	$31,-4(ra)
	...
 354:	00000030 	tge	zero,zero
 358:	0000001e 	0x1e
 35c:	0000001f 	0x1f
 360:	600023e4 	0x600023e4
 364:	c0010000 	ll	at,0(zero)
 368:	fffffff8 	sdc3	$31,-8(ra)
	...
 374:	00000438 	0x438
 378:	0000001e 	0x1e
 37c:	0000001f 	0x1f
 380:	60002578 	0x60002578
 384:	c0010000 	ll	at,0(zero)
 388:	fffffff8 	sdc3	$31,-8(ra)
	...
 394:	00000030 	tge	zero,zero
 398:	0000001e 	0x1e
 39c:	0000001f 	0x1f
 3a0:	600026cc 	0x600026cc
 3a4:	c0000000 	ll	zero,0(zero)
 3a8:	fffffffc 	sdc3	$31,-4(ra)
	...
 3b4:	00000430 	tge	zero,zero,0x10
 3b8:	0000001e 	0x1e
 3bc:	0000001f 	0x1f
 3c0:	60002938 	0x60002938
 3c4:	40000000 	mfc0	zero,c0_index
 3c8:	fffffff8 	sdc3	$31,-8(ra)
	...
 3d4:	00000008 	jr	zero
 3d8:	0000001e 	0x1e
 3dc:	0000001f 	0x1f
 3e0:	60002960 	0x60002960
 3e4:	c0000000 	ll	zero,0(zero)
 3e8:	fffffffc 	sdc3	$31,-4(ra)
	...
 3f4:	00000020 	add	zero,zero,zero
 3f8:	0000001e 	0x1e
 3fc:	0000001f 	0x1f
 400:	60002a0c 	0x60002a0c
	...
 418:	0000001d 	0x1d
 41c:	0000001f 	0x1f
 420:	60002a18 	0x60002a18
	...
 438:	0000001d 	0x1d
 43c:	0000001f 	0x1f
 440:	60002a24 	0x60002a24
	...
 458:	0000001d 	0x1d
 45c:	0000001f 	0x1f
 460:	60002a30 	0x60002a30
	...
 478:	0000001d 	0x1d
 47c:	0000001f 	0x1f
 480:	60002a3c 	0x60002a3c
	...
 498:	0000001d 	0x1d
 49c:	0000001f 	0x1f
 4a0:	60002a48 	0x60002a48
	...
 4b8:	0000001d 	0x1d
 4bc:	0000001f 	0x1f
 4c0:	60002a54 	0x60002a54
	...
 4d8:	0000001d 	0x1d
 4dc:	0000001f 	0x1f
 4e0:	60002a60 	0x60002a60
	...
 4f8:	0000001d 	0x1d
 4fc:	0000001f 	0x1f
 500:	60002a6c 	0x60002a6c
	...
 518:	0000001d 	0x1d
 51c:	0000001f 	0x1f
 520:	60002a78 	0x60002a78
	...
 538:	0000001d 	0x1d
 53c:	0000001f 	0x1f
 540:	60002a84 	0x60002a84
	...
 558:	0000001d 	0x1d
 55c:	0000001f 	0x1f
 560:	60002a90 	0x60002a90
	...
 578:	0000001d 	0x1d
 57c:	0000001f 	0x1f
 580:	60002a9c 	0x60002a9c
	...
 598:	0000001d 	0x1d
 59c:	0000001f 	0x1f
 5a0:	60002aa8 	0x60002aa8
	...
 5b8:	0000001d 	0x1d
 5bc:	0000001f 	0x1f
 5c0:	60002ab4 	0x60002ab4
	...
 5d8:	0000001d 	0x1d
 5dc:	0000001f 	0x1f
 5e0:	60002ac0 	0x60002ac0
	...
 5f8:	0000001d 	0x1d
 5fc:	0000001f 	0x1f
 600:	60002acc 	0x60002acc
	...
 618:	0000001d 	0x1d
 61c:	0000001f 	0x1f
 620:	60002ad8 	0x60002ad8
	...
 638:	0000001d 	0x1d
 63c:	0000001f 	0x1f
 640:	60002ae4 	0x60002ae4
	...
 658:	0000001d 	0x1d
 65c:	0000001f 	0x1f
 660:	60002af0 	0x60002af0
	...
 678:	0000001d 	0x1d
 67c:	0000001f 	0x1f
 680:	60002afc 	0x60002afc
	...
 698:	0000001d 	0x1d
 69c:	0000001f 	0x1f
 6a0:	60002b08 	0x60002b08
	...
 6b8:	0000001d 	0x1d
 6bc:	0000001f 	0x1f
 6c0:	60002b14 	0x60002b14
	...
 6d8:	0000001d 	0x1d
 6dc:	0000001f 	0x1f
 6e0:	60002b20 	0x60002b20
 6e4:	c0000000 	ll	zero,0(zero)
 6e8:	fffffffc 	sdc3	$31,-4(ra)
	...
 6f4:	00000020 	add	zero,zero,zero
 6f8:	0000001e 	0x1e
 6fc:	0000001f 	0x1f
 700:	60002b88 	0x60002b88
	...
 718:	0000001d 	0x1d
 71c:	0000001f 	0x1f
 720:	60002b90 	0x60002b90
	...
 738:	0000001d 	0x1d
 73c:	0000001f 	0x1f
 740:	60002bec 	0x60002bec
 744:	80070000 	lb	a3,0(zero)
 748:	fffffffc 	sdc3	$31,-4(ra)
	...
 754:	00000020 	add	zero,zero,zero
 758:	0000001d 	0x1d
 75c:	0000001f 	0x1f
 760:	60002d04 	0x60002d04
 764:	80070000 	lb	a3,0(zero)
 768:	fffffffc 	sdc3	$31,-4(ra)
	...
 774:	00000050 	0x50
 778:	0000001d 	0x1d
 77c:	0000001f 	0x1f
 780:	60002f14 	0x60002f14
 784:	c0000000 	ll	zero,0(zero)
 788:	fffffffc 	sdc3	$31,-4(ra)
	...
 794:	00000020 	add	zero,zero,zero
 798:	0000001e 	0x1e
 79c:	0000001f 	0x1f
 7a0:	60002f7c 	0x60002f7c
	...
 7b8:	0000001d 	0x1d
 7bc:	0000001f 	0x1f
 7c0:	60002f88 	0x60002f88
	...
 7d8:	0000001d 	0x1d
 7dc:	0000001f 	0x1f
 7e0:	60002f94 	0x60002f94
	...
 7f8:	0000001d 	0x1d
 7fc:	0000001f 	0x1f
 800:	60002fa0 	0x60002fa0
	...
 818:	0000001d 	0x1d
 81c:	0000001f 	0x1f
 820:	60002fac 	0x60002fac
	...
 838:	0000001d 	0x1d
 83c:	0000001f 	0x1f
 840:	60002fb8 	0x60002fb8
	...
 858:	0000001d 	0x1d
 85c:	0000001f 	0x1f
 860:	60002fc4 	0x60002fc4
	...
 878:	0000001d 	0x1d
 87c:	0000001f 	0x1f
 880:	60002fd0 	0x60002fd0
	...
 898:	0000001d 	0x1d
 89c:	0000001f 	0x1f
 8a0:	60002fdc 	0x60002fdc
	...
 8b8:	0000001d 	0x1d
 8bc:	0000001f 	0x1f
 8c0:	60002fe8 	0x60002fe8
	...
 8d8:	0000001d 	0x1d
 8dc:	0000001f 	0x1f
 8e0:	60002ff4 	0x60002ff4
	...
 8f8:	0000001d 	0x1d
 8fc:	0000001f 	0x1f
 900:	60003000 	0x60003000
	...
 918:	0000001d 	0x1d
 91c:	0000001f 	0x1f
 920:	6000300c 	0x6000300c
	...
 938:	0000001d 	0x1d
 93c:	0000001f 	0x1f
 940:	60003018 	0x60003018
	...
 958:	0000001d 	0x1d
 95c:	0000001f 	0x1f
 960:	60003024 	0x60003024
	...
 978:	0000001d 	0x1d
 97c:	0000001f 	0x1f
 980:	60003030 	0x60003030
	...
 998:	0000001d 	0x1d
 99c:	0000001f 	0x1f
 9a0:	6000303c 	0x6000303c
	...
 9b8:	0000001d 	0x1d
 9bc:	0000001f 	0x1f
 9c0:	60003048 	0x60003048
	...
 9d8:	0000001d 	0x1d
 9dc:	0000001f 	0x1f
 9e0:	60003054 	0x60003054
	...
 9f8:	0000001d 	0x1d
 9fc:	0000001f 	0x1f
 a00:	60003060 	0x60003060
	...
 a18:	0000001d 	0x1d
 a1c:	0000001f 	0x1f
 a20:	6000306c 	0x6000306c
	...
 a38:	0000001d 	0x1d
 a3c:	0000001f 	0x1f
 a40:	60003078 	0x60003078
	...
 a58:	0000001d 	0x1d
 a5c:	0000001f 	0x1f
 a60:	60003084 	0x60003084
	...
 a78:	0000001d 	0x1d
 a7c:	0000001f 	0x1f
 a80:	60003090 	0x60003090
	...
 a98:	0000001d 	0x1d
 a9c:	0000001f 	0x1f
 aa0:	6000309c 	0x6000309c
	...
 ab8:	0000001d 	0x1d
 abc:	0000001f 	0x1f
 ac0:	600030a8 	0x600030a8
	...
 ad8:	0000001d 	0x1d
 adc:	0000001f 	0x1f
 ae0:	600030b4 	0x600030b4
	...
 af8:	0000001d 	0x1d
 afc:	0000001f 	0x1f
 b00:	600030c0 	0x600030c0
	...
 b18:	0000001d 	0x1d
 b1c:	0000001f 	0x1f
 b20:	600030cc 	0x600030cc
	...
 b38:	0000001d 	0x1d
 b3c:	0000001f 	0x1f
 b40:	600030d8 	0x600030d8
	...
 b58:	0000001d 	0x1d
 b5c:	0000001f 	0x1f
 b60:	600030e4 	0x600030e4
	...
 b78:	0000001d 	0x1d
 b7c:	0000001f 	0x1f
 b80:	600030f0 	0x600030f0
	...
 b98:	0000001d 	0x1d
 b9c:	0000001f 	0x1f
 ba0:	600030f8 	0x600030f8
	...
 bb8:	0000001d 	0x1d
 bbc:	0000001f 	0x1f
 bc0:	60003120 	0x60003120
	...
 bd8:	0000001d 	0x1d
 bdc:	0000001f 	0x1f
 be0:	60003148 	0x60003148
	...
 bf8:	0000001d 	0x1d
 bfc:	0000001f 	0x1f
 c00:	6000316c 	0x6000316c
	...
 c18:	0000001d 	0x1d
 c1c:	0000001f 	0x1f
 c20:	6000318c 	0x6000318c
	...
 c38:	0000001d 	0x1d
 c3c:	0000001f 	0x1f
 c40:	600031d8 	0x600031d8
	...
 c58:	0000001d 	0x1d
 c5c:	0000001f 	0x1f
 c60:	60003238 	0x60003238
	...
 c78:	0000001d 	0x1d
 c7c:	0000001f 	0x1f
 c80:	6000327c 	0x6000327c
 c84:	80030000 	lb	v1,0(zero)
 c88:	fffffff8 	sdc3	$31,-8(ra)
	...
 c94:	00000020 	add	zero,zero,zero
 c98:	0000001d 	0x1d
 c9c:	0000001f 	0x1f
 ca0:	600032e8 	0x600032e8
	...
 cb8:	0000001d 	0x1d
 cbc:	0000001f 	0x1f
 cc0:	60003314 	0x60003314
	...
 cd8:	0000001d 	0x1d
 cdc:	0000001f 	0x1f
 ce0:	6000331c 	0x6000331c
	...
 cf8:	0000001d 	0x1d
 cfc:	0000001f 	0x1f
 d00:	60003360 	0x60003360
	...
 d18:	0000001d 	0x1d
 d1c:	0000001f 	0x1f
 d20:	6000338c 	0x6000338c
	...
 d38:	0000001d 	0x1d
 d3c:	0000001f 	0x1f
 d40:	600033e0 	0x600033e0
 d44:	80070000 	lb	a3,0(zero)
 d48:	fffffffc 	sdc3	$31,-4(ra)
	...
 d54:	00000020 	add	zero,zero,zero
 d58:	0000001d 	0x1d
 d5c:	0000001f 	0x1f
 d60:	60003444 	0x60003444
	...
 d78:	0000001d 	0x1d
 d7c:	0000001f 	0x1f
 d80:	60003464 	0x60003464
	...
 d98:	0000001d 	0x1d
 d9c:	0000001f 	0x1f
 da0:	60003470 	0x60003470
	...
 db8:	0000001d 	0x1d
 dbc:	0000001f 	0x1f
 dc0:	6000347c 	0x6000347c
	...
 dd8:	0000001d 	0x1d
 ddc:	0000001f 	0x1f
 de0:	60003488 	0x60003488
	...
 df8:	0000001d 	0x1d
 dfc:	0000001f 	0x1f
 e00:	60003494 	0x60003494
	...
 e18:	0000001d 	0x1d
 e1c:	0000001f 	0x1f
 e20:	600034a0 	0x600034a0
	...
 e38:	0000001d 	0x1d
 e3c:	0000001f 	0x1f
 e40:	600034ac 	0x600034ac
	...
 e58:	0000001d 	0x1d
 e5c:	0000001f 	0x1f
 e60:	600034b8 	0x600034b8
	...
 e78:	0000001d 	0x1d
 e7c:	0000001f 	0x1f
 e80:	600034c4 	0x600034c4
	...
 e98:	0000001d 	0x1d
 e9c:	0000001f 	0x1f
 ea0:	600034d0 	0x600034d0
	...
 eb8:	0000001d 	0x1d
 ebc:	0000001f 	0x1f
Disassembly of section .debug_abbrev:

00000000 <.debug_abbrev>:
   0:	10011101 	beq	zero,at,4408 <_init-0x5fffbbf8>
   4:	11011206 	beq	t0,at,4820 <_init-0x5fffb7e0>
   8:	13082501 	beq	t8,t0,9410 <_init-0x5fff6bf0>
   c:	1b08030b 	0x1b08030b
  10:	02000008 	jr	s0
  14:	13010113 	beq	t8,at,464 <_init-0x5ffffb9c>
  18:	0b3a0b0b 	j	ce82c2c <_init-0x5317d3d4>
  1c:	00000b3b 	0xb3b
  20:	03000d03 	0x3000d03
  24:	3b0b3a08 	xori	t3,t8,0x3a08
  28:	3813490b 	xori	s3,zero,0x490b
  2c:	0400000a 	bltz	zero,58 <_init-0x5fffffa8>
  30:	0e03000d 	jal	80c0034 <_init-0x57f3ffcc>
  34:	0b3b0b3a 	j	cec2ce8 <_init-0x5313d318>
  38:	0a381349 	j	8e04d24 <_init-0x571fb2dc>
  3c:	24050000 	li	a1,0
  40:	0b080300 	j	c200c00 <_init-0x53dff400>
  44:	000b3e0b 	0xb3e0b
  48:	000f0600 	sll	zero,t7,0x18
  4c:	00000b0b 	0xb0b
  50:	03001607 	0x3001607
  54:	3b0b3a08 	xori	t3,t8,0x3a08
  58:	0013490b 	0x13490b
  5c:	01010800 	0x1010800
  60:	13491301 	beq	k0,t1,4c68 <_init-0x5fffb398>
  64:	21090000 	addi	t1,t0,0
  68:	2f134900 	sltiu	s3,t8,18688
  6c:	0a00000b 	j	800002c <_init-0x57ffffd4>
  70:	0e030024 	jal	80c0090 <_init-0x57f3ff70>
  74:	0b3e0b0b 	j	cf82c2c <_init-0x5307d3d4>
  78:	0f0b0000 	jal	c2c0000 <_init-0x53d40000>
  7c:	490b0b00 	bc2tl	$cc2,2c80 <_init-0x5fffd380>
  80:	0c000013 	jal	4c <_init-0x5fffffb4>
  84:	13010104 	beq	t8,at,498 <_init-0x5ffffb68>
  88:	0b3a0b0b 	j	ce82c2c <_init-0x5317d3d4>
  8c:	00000b3b 	0xb3b
  90:	0300280d 	break	0x300,0xa0
  94:	000d1c08 	0xd1c08
  98:	01130e00 	0x1130e00
  9c:	0b0b1301 	j	c2c4c04 <_init-0x53d3b3fc>
  a0:	053b0b3a 	0x53b0b3a
  a4:	0d0f0000 	jal	43c0000 <_init-0x5bc40000>
  a8:	3a080300 	xori	t0,s0,0x300
  ac:	49053b0b 	bc2t	$cc1,ecdc <_init-0x5fff1324>
  b0:	000a3813 	0xa3813
  b4:	00161000 	sll	v0,s6,0x0
  b8:	0b3a0803 	j	ce8200c <_init-0x5317dff4>
  bc:	1349053b 	beq	k0,t1,15ac <_init-0x5fffea54>
  c0:	13110000 	beq	t8,s1,c4 <_init-0x5fffff3c>
  c4:	03130101 	0x3130101
  c8:	3a0b0b08 	xori	t3,s0,0xb08
  cc:	000b3b0b 	0xb3b0b
  d0:	00261200 	0x261200
  d4:	00001349 	0x1349
  d8:	01011713 	0x1011713
  dc:	3a0b0b13 	xori	t3,s0,0xb13
  e0:	00053b0b 	0x53b0b
  e4:	000d1400 	sll	v0,t5,0x10
  e8:	0b3a0803 	j	ce8200c <_init-0x5317dff4>
  ec:	1349053b 	beq	k0,t1,15dc <_init-0x5fffea24>
  f0:	21150000 	addi	s5,t0,0
  f4:	2f134900 	sltiu	s3,t8,18688
  f8:	16000005 	bnez	s0,110 <_init-0x5ffffef0>
  fc:	00000026 	xor	zero,zero,zero
 100:	01011317 	0x1011317
 104:	3a050b13 	xori	a1,s0,0xb13
 108:	000b3b0b 	0xb3b0b
 10c:	01151800 	0x1151800
 110:	0c271301 	jal	9c4c04 <_init-0x5f63b3fc>
 114:	00001349 	0x1349
 118:	49000519 	bc2f	1580 <_init-0x5fffea80>
 11c:	1a000013 	blez	s0,16c <_init-0x5ffffe94>
 120:	13010113 	beq	t8,at,570 <_init-0x5ffffa90>
 124:	0b0b0e03 	j	c2c380c <_init-0x53d3c7f4>
 128:	0b3b0b3a 	j	cec2ce8 <_init-0x5313d318>
 12c:	131b0000 	beq	t8,k1,130 <_init-0x5ffffed0>
 130:	03130101 	0x3130101
 134:	3a050b08 	xori	a1,s0,0xb08
 138:	000b3b0b 	0xb3b0b
 13c:	002e1c00 	0x2e1c00
 140:	0b3a0803 	j	ce8200c <_init-0x5317dff4>
 144:	0c270b3b 	jal	9c2cec <_init-0x5f63d314>
 148:	01111349 	0x1111349
 14c:	0a400112 	j	9000448 <_init-0x56fffbb8>
 150:	2e1d0000 	sltiu	sp,s0,0
 154:	3a080300 	xori	t0,s0,0x300
 158:	270b3b0b 	addiu	t3,t8,15115
 15c:	1201110c 	beq	s0,at,4590 <_init-0x5fffba70>
 160:	000a4001 	0xa4001
 164:	012e1e00 	0x12e1e00
 168:	08031301 	j	c4c04 <_init-0x5ff3b3fc>
 16c:	0b3b0b3a 	j	cec2ce8 <_init-0x5313d318>
 170:	01110c27 	0x1110c27
 174:	0a400112 	j	9000448 <_init-0x56fffbb8>
 178:	341f0000 	li	ra,0x0
 17c:	490e0300 	bc2fl	$cc3,d80 <_init-0x5ffff280>
 180:	020c3413 	0x20c3413
 184:	2000000a 	addi	zero,zero,10
 188:	0111010b 	0x111010b
 18c:	00000112 	0x112
 190:	03003421 	0x3003421
 194:	3b0b3a08 	xori	t3,t8,0x3a08
 198:	0213490b 	0x213490b
 19c:	2200000a 	addi	zero,s0,10
 1a0:	0803002e 	j	c00b8 <_init-0x5ff3ff48>
 1a4:	053b0b3a 	0x53b0b3a
 1a8:	01110c27 	0x1110c27
 1ac:	0a400112 	j	9000448 <_init-0x56fffbb8>
 1b0:	2e230000 	sltiu	v1,s1,0
 1b4:	03130101 	0x3130101
 1b8:	3b0b3a08 	xori	t3,t8,0x3a08
 1bc:	110c2705 	beq	t0,t4,9dd4 <_init-0x5fff622c>
 1c0:	40011201 	0x40011201
 1c4:	2400000a 	li	zero,10
 1c8:	08030005 	j	c0014 <_init-0x5ff3ffec>
 1cc:	053b0b3a 	0x53b0b3a
 1d0:	0a021349 	j	8084d24 <_init-0x57f7b2dc>
 1d4:	34250000 	ori	a1,at,0x0
 1d8:	3a080300 	xori	t0,s0,0x300
 1dc:	49053b0b 	bc2t	$cc1,ee0c <_init-0x5fff11f4>
 1e0:	000a0213 	0xa0213
 1e4:	00342600 	0x342600
 1e8:	0b3a0e03 	j	ce8380c <_init-0x5317c7f4>
 1ec:	1349053b 	beq	k0,t1,16dc <_init-0x5fffe924>
 1f0:	00000a02 	srl	at,zero,0x8
 1f4:	01012e27 	0x1012e27
 1f8:	3a080313 	xori	t0,s0,0x313
 1fc:	27053b0b 	addiu	a1,t8,15115
 200:	1113490c 	beq	t0,s3,12634 <_init-0x5ffed9cc>
 204:	40011201 	0x40011201
 208:	2800000a 	slti	zero,zero,10
 20c:	0e030005 	jal	80c0014 <_init-0x57f3ffec>
 210:	053b0b3a 	0x53b0b3a
 214:	0a021349 	j	8084d24 <_init-0x57f7b2dc>
 218:	05290000 	tgeiu	t1,0
 21c:	3a080300 	xori	t0,s0,0x300
 220:	490b3b0b 	bc2tl	$cc2,ee50 <_init-0x5fff11b0>
 224:	000a0213 	0xa0213
 228:	010b2a00 	0x10b2a00
 22c:	01111301 	0x1111301
 230:	00000112 	0x112
 234:	01012e2b 	0x1012e2b
 238:	030c3f13 	0x30c3f13
 23c:	3b0b3a08 	xori	t3,t8,0x3a08
 240:	490c2705 	bc2f	$cc3,9e58 <_init-0x5fff61a8>
 244:	12011113 	beq	s0,at,4694 <_init-0x5fffb96c>
 248:	000a4001 	0xa4001
 24c:	00342c00 	0x342c00
 250:	0b3a0803 	j	ce8200c <_init-0x5317dff4>
 254:	13490b3b 	beq	k0,t1,2f44 <_init-0x5fffd0bc>
 258:	0a020c3f 	j	80830fc <_init-0x57f7cf04>
 25c:	342d0000 	ori	t5,at,0x0
 260:	3a0e0300 	xori	t6,s0,0x300
 264:	490b3b0b 	bc2tl	$cc2,ee94 <_init-0x5fff116c>
 268:	020c3f13 	0x20c3f13
 26c:	0000000a 	movz	zero,zero,zero
 270:	10011101 	beq	zero,at,4678 <_init-0x5fffb988>
 274:	11011206 	beq	t0,at,4a90 <_init-0x5fffb570>
 278:	130e2501 	beq	t8,t6,9680 <_init-0x5fff6980>
 27c:	1b0e030b 	0x1b0e030b
 280:	0200000e 	0x200000e
 284:	0e030024 	jal	80c0090 <_init-0x57f3ff70>
 288:	0b3e0b0b 	j	cf82c2c <_init-0x5307d3d4>
 28c:	0f030000 	jal	c0c0000 <_init-0x53f40000>
 290:	000b0b00 	sll	at,t3,0xc
 294:	00240400 	0x240400
 298:	0b0b0803 	j	c2c200c <_init-0x53d3dff4>
 29c:	00000b3e 	0xb3e
 2a0:	01010405 	0x1010405
 2a4:	3a0b0b13 	xori	t3,s0,0xb13
 2a8:	000b3b0b 	0xb3b0b
 2ac:	00280600 	0x280600
 2b0:	0d1c0e03 	jal	470380c <_init-0x5b8fc7f4>
 2b4:	2e070000 	sltiu	a3,s0,0
 2b8:	3f130101 	0x3f130101
 2bc:	3a0e030c 	xori	t6,s0,0x30c
 2c0:	270b3b0b 	addiu	t3,t8,15115
 2c4:	1113490c 	beq	t0,s3,126f8 <_init-0x5ffed908>
 2c8:	40011201 	0x40011201
 2cc:	0800000a 	j	28 <_init-0x5fffffd8>
 2d0:	0e030005 	jal	80c0014 <_init-0x57f3ffec>
 2d4:	0b3b0b3a 	j	cec2ce8 <_init-0x5313d318>
 2d8:	0a021349 	j	8084d24 <_init-0x57f7b2dc>
 2dc:	34090000 	li	t1,0x0
 2e0:	3a0e0300 	xori	t6,s0,0x300
 2e4:	490b3b0b 	bc2tl	$cc2,ef14 <_init-0x5fff10ec>
 2e8:	020c3f13 	0x20c3f13
 2ec:	0000000a 	movz	zero,zero,zero
 2f0:	10011101 	beq	zero,at,46f8 <_init-0x5fffb908>
 2f4:	11011206 	beq	t0,at,4b10 <_init-0x5fffb4f0>
 2f8:	130e2501 	beq	t8,t6,9700 <_init-0x5fff6900>
 2fc:	1b0e030b 	0x1b0e030b
 300:	0200000e 	0x200000e
 304:	0e030024 	jal	80c0090 <_init-0x57f3ff70>
 308:	0b3e0b0b 	j	cf82c2c <_init-0x5307d3d4>
 30c:	0f030000 	jal	c0c0000 <_init-0x53f40000>
 310:	000b0b00 	sll	at,t3,0xc
 314:	00240400 	0x240400
 318:	0b0b0803 	j	c2c200c <_init-0x53d3dff4>
 31c:	00000b3e 	0xb3e
 320:	03001605 	0x3001605
 324:	3b0b3a0e 	xori	t3,t8,0x3a0e
 328:	0013490b 	0x13490b
 32c:	000f0600 	sll	zero,t7,0x18
 330:	13490b0b 	beq	k0,t1,2f60 <_init-0x5fffd0a0>
 334:	15070000 	bne	t0,a3,338 <_init-0x5ffffcc8>
 338:	000c2700 	sll	a0,t4,0x1c
 33c:	00260800 	0x260800
 340:	00001349 	0x1349
 344:	01010109 	0x1010109
 348:	00134913 	0x134913
 34c:	00210a00 	0x210a00
 350:	0b2f1349 	j	cbc4d24 <_init-0x5343b2dc>
 354:	130b0000 	beq	t8,t3,358 <_init-0x5ffffca8>
 358:	03130101 	0x3130101
 35c:	3a0b0b0e 	xori	t3,s0,0xb0e
 360:	000b3b0b 	0xb3b0b
 364:	000d0c00 	sll	at,t5,0x10
 368:	0b3a0e03 	j	ce8380c <_init-0x5317c7f4>
 36c:	13490b3b 	beq	k0,t1,305c <_init-0x5fffcfa4>
 370:	00000a38 	0xa38
 374:	0101040d 	break	0x101,0x10
 378:	3a0b0b13 	xori	t3,s0,0xb13
 37c:	000b3b0b 	0xb3b0b
 380:	00280e00 	0x280e00
 384:	0d1c0e03 	jal	470380c <_init-0x5b8fc7f4>
 388:	130f0000 	beq	t8,t7,38c <_init-0x5ffffc74>
 38c:	0b130101 	j	c4c0404 <_init-0x53b3fbfc>
 390:	3b0b3a0b 	xori	t3,t8,0x3a0b
 394:	1000000b 	b	3c4 <_init-0x5ffffc3c>
 398:	13010113 	beq	t8,at,7e8 <_init-0x5ffff818>
 39c:	0b3a0b0b 	j	ce82c2c <_init-0x5317d3d4>
 3a0:	0000053b 	0x53b
 3a4:	03000d11 	0x3000d11
 3a8:	3b0b3a08 	xori	t3,t8,0x3a08
 3ac:	38134905 	xori	s3,zero,0x4905
 3b0:	1200000a 	beqz	s0,3dc <_init-0x5ffffc24>
 3b4:	13010117 	beq	t8,at,814 <_init-0x5ffff7ec>
 3b8:	0b3a0b0b 	j	ce82c2c <_init-0x5317d3d4>
 3bc:	0000053b 	0x53b
 3c0:	03000d13 	0x3000d13
 3c4:	3b0b3a0e 	xori	t3,t8,0x3a0e
 3c8:	00134905 	0x134905
 3cc:	00161400 	sll	v0,s6,0x10
 3d0:	0b3a0e03 	j	ce8380c <_init-0x5317c7f4>
 3d4:	1349053b 	beq	k0,t1,18c4 <_init-0x5fffe73c>
 3d8:	13150000 	beq	t8,s5,3dc <_init-0x5ffffc24>
 3dc:	03130101 	0x3130101
 3e0:	3a0b0b0e 	xori	t3,s0,0xb0e
 3e4:	00053b0b 	0x53b0b
 3e8:	01151600 	0x1151600
 3ec:	0c271301 	jal	9c4c04 <_init-0x5f63b3fc>
 3f0:	05170000 	0x5170000
 3f4:	00134900 	sll	t1,s3,0x4
 3f8:	000d1800 	sll	v1,t5,0x0
 3fc:	0b3a0803 	j	ce8200c <_init-0x5317dff4>
 400:	13490b3b 	beq	k0,t1,30f0 <_init-0x5fffcf10>
 404:	00000a38 	0xa38
 408:	01011519 	0x1011519
 40c:	490c2713 	bc2f	$cc3,a05c <_init-0x5fff5fa4>
 410:	1a000013 	blez	s0,460 <_init-0x5ffffba0>
 414:	1301012e 	beq	t8,at,8d0 <_init-0x5ffff730>
 418:	0e030c3f 	jal	80c30fc <_init-0x57f3cf04>
 41c:	0b3b0b3a 	j	cec2ce8 <_init-0x5313d318>
 420:	01110c27 	0x1110c27
 424:	0a400112 	j	9000448 <_init-0x56fffbb8>
 428:	051b0000 	0x51b0000
 42c:	3a0e0300 	xori	t6,s0,0x300
 430:	490b3b0b 	bc2tl	$cc2,f060 <_init-0x5fff0fa0>
 434:	000a0213 	0xa0213
 438:	00341c00 	0x341c00
 43c:	0b3a0e03 	j	ce8380c <_init-0x5317c7f4>
 440:	13490b3b 	beq	k0,t1,3130 <_init-0x5fffced0>
 444:	00000a02 	srl	at,zero,0x8
 448:	0300341d 	0x300341d
 44c:	3b0b3a08 	xori	t3,t8,0x3a08
 450:	0213490b 	0x213490b
 454:	1e00000a 	bgtz	s0,480 <_init-0x5ffffb80>
 458:	1301012e 	beq	t8,at,914 <_init-0x5ffff6ec>
 45c:	0e030c3f 	jal	80c30fc <_init-0x57f3cf04>
 460:	0b3b0b3a 	j	cec2ce8 <_init-0x5313d318>
 464:	13490c27 	beq	k0,t1,3504 <_init-0x5fffcafc>
 468:	01120111 	0x1120111
 46c:	00000a40 	sll	at,zero,0x9
 470:	0300341f 	0x300341f
 474:	3b0b3a08 	xori	t3,t8,0x3a08
 478:	0013490b 	0x13490b
 47c:	00342000 	0x342000
 480:	13490e03 	beq	k0,t1,3c90 <_init-0x5fffc370>
 484:	0a020c34 	j	80830d0 <_init-0x57f7cf30>
 488:	0b210000 	j	c840000 <_init-0x537c0000>
 48c:	11130101 	beq	t0,s3,894 <_init-0x5ffff76c>
 490:	00011201 	0x11201
 494:	010b2200 	0x10b2200
 498:	01120111 	0x1120111
 49c:	34230000 	ori	v1,at,0x0
 4a0:	3a0e0300 	xori	t6,s0,0x300
 4a4:	490b3b0b 	bc2tl	$cc2,f0d4 <_init-0x5fff0f2c>
 4a8:	24000013 	li	zero,19
 4ac:	1301010b 	beq	t8,at,8dc <_init-0x5ffff724>
 4b0:	00000655 	0x655
 4b4:	03003425 	0x3003425
 4b8:	3b0b3a0e 	xori	t3,t8,0x3a0e
 4bc:	3f13490b 	0x3f13490b
 4c0:	000a020c 	syscall	0x2808
	...
Disassembly of section .debug_info:

00000000 <.debug_info>:
       0:	00002c23 	0x2c23
       4:	00000002 	srl	zero,zero,0x0
       8:	01040000 	0x1040000
       c:	00000000 	nop
      10:	60002a0c 	0x60002a0c
      14:	60000020 	0x60000020
      18:	20554e47 	addi	s5,v0,20039
      1c:	2e332043 	sltiu	s3,s1,8259
      20:	20342e34 	addi	s4,at,11828
      24:	7370696d 	0x7370696d
      28:	2d656473 	sltiu	a1,t3,25715
      2c:	36302e36 	ori	s0,s1,0x2e36
      30:	2d31302e 	sltiu	s1,t1,12334
      34:	37303032 	ori	s0,t9,0x3032
      38:	30323430 	andi	s2,at,0x3430
      3c:	616d0100 	0x616d0100
      40:	6567616e 	0x6567616e
      44:	616d5f72 	0x616d5f72
      48:	632e6e69 	0x632e6e69
      4c:	79632f00 	0x79632f00
      50:	69726467 	0x69726467
      54:	632f6576 	0x632f6576
      58:	6e69622f 	0x6e69622f
      5c:	616e6e61 	0x616e6e61
      60:	73752f6e 	0x73752f6e
      64:	46333132 	c.eq.d	$fcc1,$f6,$f19
      68:	6e69622f 	0x6e69622f
      6c:	616e6e61 	0x616e6e61
      70:	73755f6e 	0x73755f6e
      74:	66333132 	0x66333132
      78:	6f76752f 	0x6f76752f
      7c:	73752f62 	0x73752f62
      80:	31326b64 	andi	s2,t1,0x6b64
      84:	632f6633 	0x632f6633
      88:	2f657361 	sltiu	a1,k1,29537
      8c:	73707061 	0x73707061
      90:	6f72702f 	0x6f72702f
      94:	73736563 	0x73736563
      98:	6e616d5f 	0x6e616d5f
      9c:	72656761 	0x72656761
      a0:	00d40200 	0xd40200
      a4:	0b080000 	j	c200000 <_init-0x53e00000>
      a8:	736f03e6 	0x736f03e6
      ac:	6576655f 	0x6576655f
      b0:	655f746e 	0x655f746e
      b4:	745f7478 	jalx	17dd1e0 <_init-0x5e822e20>
      b8:	00657079 	0x657079
      bc:	00d4e40b 	0xd4e40b
      c0:	23020000 	addi	v0,t8,0
      c4:	00720400 	0x720400
      c8:	e50b0000 	swc1	$f11,0(t0)
      cc:	000000e5 	0xe5
      d0:	00042302 	srl	a0,a0,0xc
      d4:	736e7505 	0x736e7505
      d8:	656e6769 	0x656e6769
      dc:	68632064 	0x68632064
      e0:	01007261 	0x1007261
      e4:	07040608 	0x7040608
      e8:	655f736f 	0x655f736f
      ec:	746e6576 	jalx	1b995d8 <_init-0x5e466a28>
      f0:	7478655f 	jalx	1e1957c <_init-0x5e1e6a84>
      f4:	0b00745f 	j	c01d17c <_init-0x53fe2e84>
      f8:	0000a1e6 	0xa1e6
      fc:	01a00200 	0x1a00200
     100:	0b200000 	j	c800000 <_init-0x53800000>
     104:	736f03f2 	0x736f03f2
     108:	6576655f 	0x6576655f
     10c:	745f746e 	jalx	17dd1b8 <_init-0x5e822e48>
     110:	00657079 	0x657079
     114:	00d4e90b 	0xd4e90b
     118:	23020000 	addi	v0,t8,0
     11c:	736f0300 	0x736f0300
     120:	6576655f 	0x6576655f
     124:	675f746e 	0x675f746e
     128:	0b007072 	j	c01c1c8 <_init-0x53fe3e38>
     12c:	0000d4ea 	0xd4ea
     130:	01230200 	0x1230200
     134:	5f736f03 	0x5f736f03
     138:	6e657665 	0x6e657665
     13c:	6e635f74 	0x6e635f74
     140:	eb0b0074 	swc2	$11,116(t8)
     144:	000001a0 	0x1a0
     148:	03022302 	0x3022302
     14c:	655f736f 	0x655f736f
     150:	746e6576 	jalx	1b995d8 <_init-0x5e466a28>
     154:	7274705f 	udi15	s3,s4,t6,0x1
     158:	e5ec0b00 	swc1	$f12,2816(t7)
     15c:	02000000 	0x2000000
     160:	6f030423 	0x6f030423
     164:	76655f73 	jalx	9957dcc <_init-0x566a8234>
     168:	5f746e65 	0x5f746e65
     16c:	006c6274 	teq	v1,t4,0x189
     170:	01b6ed0b 	0x1b6ed0b
     174:	23020000 	addi	v0,t8,0
     178:	736f0308 	0x736f0308
     17c:	6576655f 	0x6576655f
     180:	6e5f746e 	0x6e5f746e
     184:	00656d61 	0x656d61
     188:	01cdef0b 	0x1cdef0b
     18c:	23020000 	addi	v0,t8,0
     190:	0072040d 	break	0x72,0x10
     194:	f10b0000 	0xf10b0000
     198:	000001dd 	0x1dd
     19c:	001c2302 	srl	a0,gp,0xc
     1a0:	6f687305 	0x6f687305
     1a4:	75207472 	jalx	481d1c8 <_init-0x5b7e2e38>
     1a8:	6769736e 	0x6769736e
     1ac:	2064656e 	addi	a0,v1,25966
     1b0:	00746e69 	0x746e69
     1b4:	c6080702 	lwc1	$f8,1794(s0)
     1b8:	d4000001 	ldc1	$f0,1(zero)
     1bc:	09000000 	j	4000000 <_init-0x5c000000>
     1c0:	000001c6 	0x1c6
     1c4:	000a0004 	sllv	zero,t2,zero
     1c8:	04000000 	bltz	zero,1cc <_init-0x5ffffe34>
     1cc:	01dd0807 	srav	at,sp,t6
     1d0:	00d40000 	0xd40000
     1d4:	c6090000 	lwc1	$f9,0(s0)
     1d8:	0b000001 	j	c000004 <_init-0x53fffffc>
     1dc:	e7040b00 	swc1	$f4,2816(t8)
     1e0:	07000000 	bltz	t8,1e4 <_init-0x5ffffe1c>
     1e4:	655f736f 	0x655f736f
     1e8:	746e6576 	jalx	1b995d8 <_init-0x5e466a28>
     1ec:	0b00745f 	j	c01d17c <_init-0x53fe2e84>
     1f0:	0000fdf2 	tlt	zero,zero,0x3f7
     1f4:	6e750500 	0x6e750500
     1f8:	6e676973 	0x6e676973
     1fc:	69206465 	0x69206465
     200:	0400746e 	bltz	zero,1d3bc <_init-0x5ffe2c44>
     204:	e3040b07 	sc	a0,2823(t8)
     208:	0c000001 	jal	4 <_init-0x5ffffffc>
     20c:	00000223 	0x223
     210:	0d260404 	jal	4981010 <_init-0x5b67eff0>
     214:	736c6166 	0x736c6166
     218:	0d000065 	jal	4000194 <_init-0x5bfffe6c>
     21c:	65757274 	0x65757274
     220:	07000100 	bltz	t8,624 <_init-0x5ffff9dc>
     224:	6c6f6f62 	0x6c6f6f62
     228:	0b290400 	j	ca41000 <_init-0x535bf000>
     22c:	07000002 	bltz	t8,238 <_init-0x5ffffdc8>
     230:	657a6973 	0x657a6973
     234:	0400745f 	bltz	zero,1d3b4 <_init-0x5ffe2c4c>
     238:	0001f52f 	0x1f52f
     23c:	6e690500 	0x6e690500
     240:	05040074 	0x5040074
     244:	6e6f6c05 	0x6e6f6c05
     248:	6f6c2067 	0x6f6c2067
     24c:	6920676e 	0x6920676e
     250:	0800746e 	j	1d1b8 <_init-0x5ffe2e48>
     254:	00000a05 	0xa05
     258:	07040000 	0x7040000
     25c:	64697007 	0x64697007
     260:	0400745f 	bltz	zero,1d3e0 <_init-0x5ffe2c20>
     264:	00023d3b 	0x23d3b
     268:	6f6c0500 	0x6f6c0500
     26c:	6920676e 	0x6920676e
     270:	0400746e 	bltz	zero,1d42c <_init-0x5ffe2bd4>
     274:	68630505 	0x68630505
     278:	01007261 	0x1007261
     27c:	68730506 	0x68730506
     280:	2074726f 	addi	s4,v1,29295
     284:	00746e69 	0x746e69
     288:	6c050502 	0x6c050502
     28c:	20676e6f 	addi	a3,v1,28271
     290:	676e6f6c 	0x676e6f6c
     294:	736e7520 	0x736e7520
     298:	656e6769 	0x656e6769
     29c:	6e692064 	0x6e692064
     2a0:	07080074 	tgei	t8,116
     2a4:	0002cc0e 	0x2cc0e
     2a8:	2c0c0800 	sltiu	t4,zero,2048
     2ac:	696d0f01 	0x696d0f01
     2b0:	290c006e 	slti	t4,t0,110
     2b4:	0001f501 	0x1f501
     2b8:	00230200 	0x230200
     2bc:	78616d0f 	0x78616d0f
     2c0:	012b0c00 	0x12b0c00
     2c4:	000001f5 	0x1f5
     2c8:	00042302 	srl	a0,a0,0xc
     2cc:	6b6c6310 	0x6b6c6310
     2d0:	6d6f645f 	0x6d6f645f
     2d4:	5f6e6961 	0x5f6e6961
     2d8:	2c0c0074 	sltiu	t4,zero,116
     2dc:	0002a401 	0x2a401
     2e0:	03121100 	0x3121100
     2e4:	696c0000 	0x696c0000
     2e8:	685f7473 	0x685f7473
     2ec:	00646165 	0x646165
     2f0:	03250208 	0x3250208
     2f4:	7478656e 	jalx	1e195b8 <_init-0x5e1e6a48>
     2f8:	12270200 	beq	s1,a3,afc <_init-0x5ffff504>
     2fc:	02000003 	0x2000003
     300:	70030023 	0x70030023
     304:	00766572 	tlt	v1,s6,0x195
     308:	03122902 	0x3122902
     30c:	23020000 	addi	v0,t8,0
     310:	040b0004 	tltiu	zero,4
     314:	000002e1 	0x2e1
     318:	031e040b 	0x31e040b
     31c:	75120000 	jalx	4480000 <_init-0x5bb80000>
     320:	0b000002 	j	c000008 <_init-0x53fffff8>
     324:	00027504 	0x27504
     328:	03390800 	0x3390800
     32c:	02750000 	0x2750000
     330:	c6090000 	lwc1	$f9,0(s0)
     334:	03000001 	movf	zero,t8,$fcc0
     338:	03490800 	0x3490800
     33c:	02750000 	0x2750000
     340:	c6090000 	lwc1	$f9,0(s0)
     344:	1f000001 	bgtz	t8,34c <_init-0x5ffffcb4>
     348:	03771100 	0x3771100
     34c:	63730000 	0x63730000
     350:	5f646568 	0x5f646568
     354:	61726170 	0x61726170
     358:	0604006d 	0x604006d
     35c:	6373032b 	0x6373032b
     360:	5f646568 	0x5f646568
     364:	6f697270 	0x6f697270
     368:	79746972 	0x79746972
     36c:	3d2d0600 	0x3d2d0600
     370:	02000002 	0x2000002
     374:	0c000023 	jal	8c <_init-0x5fffff74>
     378:	000003b4 	teq	zero,zero,0xe
     37c:	0d7e0504 	jal	5f81410 <_init-0x5a07ebf0>
     380:	52485450 	beql	s2,t0,154c4 <_init-0x5ffeab3c>
     384:	5f444145 	0x5f444145
     388:	41455243 	0x41455243
     38c:	445f4554 	0x445f4554
     390:	43415445 	c0	0x1415445
     394:	00444548 	0x444548
     398:	54500d00 	bnel	v0,s0,379c <_init-0x5fffc864>
     39c:	41455248 	0x41455248
     3a0:	52435f44 	beql	s2,v1,180b4 <_init-0x5ffe7f4c>
     3a4:	45544145 	0x45544145
     3a8:	494f4a5f 	0x494f4a5f
     3ac:	4c42414e 	0x4c42414e
     3b0:	00010045 	0x10045
     3b4:	74656407 	jalx	195901c <_init-0x5e6a6fe4>
     3b8:	5f686361 	0x5f686361
     3bc:	72747461 	0x72747461
     3c0:	0500745f 	bltz	t0,1d540 <_init-0x5ffe2ac0>
     3c4:	00037783 	sra	t6,v1,0x1e
     3c8:	044e0c00 	tnei	v0,3072
     3cc:	05040000 	0x5040000
     3d0:	54500da3 	bnel	v0,s0,3a60 <_init-0x5fffc5a0>
     3d4:	41455248 	0x41455248
     3d8:	554d5f44 	bnel	t2,t5,180ec <_init-0x5ffe7f14>
     3dc:	5f584554 	0x5f584554
     3e0:	4d524f4e 	0x4d524f4e
     3e4:	00004c41 	0x4c41
     3e8:	4854500d 	0x4854500d
     3ec:	44414552 	0x44414552
     3f0:	54554d5f 	bnel	v0,s5,13970 <_init-0x5ffec690>
     3f4:	525f5845 	beql	s2,ra,1650c <_init-0x5ffe9af4>
     3f8:	52554345 	beql	s2,s5,11110 <_init-0x5ffeeef0>
     3fc:	45564953 	0x45564953
     400:	500d0100 	beql	zero,t5,804 <_init-0x5ffff7fc>
     404:	45524854 	0x45524854
     408:	4d5f4441 	0x4d5f4441
     40c:	58455455 	0x58455455
     410:	5252455f 	beql	s2,s2,11990 <_init-0x5ffee670>
     414:	4843524f 	0x4843524f
     418:	004b4345 	0x4b4345
     41c:	54500d02 	bnel	v0,s0,3828 <_init-0x5fffc7d8>
     420:	41455248 	0x41455248
     424:	554d5f44 	bnel	t2,t5,18138 <_init-0x5ffe7ec8>
     428:	5f584554 	0x5f584554
     42c:	41564e49 	0x41564e49
     430:	0044494c 	syscall	0x11125
     434:	54500d03 	bnel	v0,s0,3844 <_init-0x5fffc7bc>
     438:	41455248 	0x41455248
     43c:	554d5f44 	bnel	t2,t5,18150 <_init-0x5ffe7eb0>
     440:	5f584554 	0x5f584554
     444:	41464544 	0x41464544
     448:	00544c55 	0x544c55
     44c:	8a0c0000 	lwl	t4,0(s0)
     450:	04000004 	bltz	zero,464 <_init-0x5ffffb9c>
     454:	500db005 	beql	zero,t5,fffec46c <music_mutex_list+0x9ffe7fb8>
     458:	45524854 	0x45524854
     45c:	505f4441 	beql	v0,ra,11564 <_init-0x5ffeea9c>
     460:	45434f52 	0x45434f52
     464:	505f5353 	beql	v0,ra,151b4 <_init-0x5ffeae4c>
     468:	41564952 	0x41564952
     46c:	00004554 	0x4554
     470:	4854500d 	0x4854500d
     474:	44414552 	0x44414552
     478:	4f52505f 	c3	0x152505f
     47c:	53534543 	beql	k0,s3,1198c <_init-0x5ffee674>
     480:	4148535f 	0x4148535f
     484:	00444552 	0x444552
     488:	51020001 	beql	t0,v0,490 <_init-0x5ffffb70>
     48c:	24000005 	li	zero,5
     490:	6d03d505 	0x6d03d505
     494:	63696761 	0x63696761
     498:	29c40500 	slti	a0,t6,1280
     49c:	02000003 	0x2000003
     4a0:	73030023 	0x73030023
     4a4:	6b636174 	0x6b636174
     4a8:	72646461 	0x72646461
     4ac:	e5c60500 	swc1	$f6,1280(t6)
     4b0:	02000000 	0x2000000
     4b4:	73030423 	0x73030423
     4b8:	6b636174 	0x6b636174
     4bc:	657a6973 	0x657a6973
     4c0:	3dc80500 	0x3dc80500
     4c4:	02000002 	0x2000002
     4c8:	67030823 	0x67030823
     4cc:	64726175 	0x64726175
     4d0:	657a6973 	0x657a6973
     4d4:	f5ca0500 	sdc1	$f10,1280(t6)
     4d8:	02000001 	movf	zero,s0,$fcc0
     4dc:	69030c23 	0x69030c23
     4e0:	7265686e 	0x7265686e
     4e4:	63737469 	0x63737469
     4e8:	00646568 	0x646568
     4ec:	023dcc05 	0x23dcc05
     4f0:	23020000 	addi	v0,t8,0
     4f4:	6f630310 	0x6f630310
     4f8:	6e65746e 	0x6e65746e
     4fc:	6e6f6974 	0x6e6f6974
     500:	706f6373 	0x706f6373
     504:	ce050065 	pref	0x5,101(s0)
     508:	0000023d 	0x23d
     50c:	03142302 	0x3142302
     510:	65686373 	0x65686373
     514:	72617064 	0x72617064
     518:	05006d61 	bltz	t0,1baa0 <_init-0x5ffe4560>
     51c:	000349d0 	0x349d0
     520:	18230200 	0x18230200
     524:	68637303 	0x68637303
     528:	6f706465 	0x6f706465
     52c:	7963696c 	0x7963696c
     530:	3dd20500 	0x3dd20500
     534:	02000002 	0x2000002
     538:	64031c23 	0x64031c23
     53c:	63617465 	0x63617465
     540:	61747368 	0x61747368
     544:	05006574 	bltz	t0,19b18 <_init-0x5ffe64e8>
     548:	0003b4d4 	0x3b4d4
     54c:	20230200 	addi	v1,at,512
     550:	74700700 	jalx	1c01c00 <_init-0x5e3fe400>
     554:	61657268 	0x61657268
     558:	74615f64 	jalx	1857d90 <_init-0x5e7a8270>
     55c:	745f7274 	jalx	17dc9d0 <_init-0x5e823630>
     560:	8ad50500 	lwl	s5,1280(s6)
     564:	0e000004 	jal	8000010 <_init-0x57fffff0>
     568:	0000058f 	0x58f
     56c:	01390504 	0x1390504
     570:	6469700f 	0x6469700f
     574:	01370500 	0x1370500
     578:	000001a0 	0x1a0
     57c:	0f002302 	jal	c008c08 <_init-0x53ff73f8>
     580:	00646974 	teq	v1,a0,0x1a5
     584:	a0013805 	sb	at,14341(zero)
     588:	02000001 	movf	zero,s0,$fcc0
     58c:	13000223 	beqz	t8,e1c <_init-0x5ffff1e4>
     590:	000005ba 	0x5ba
     594:	013b0504 	0x13b0504
     598:	72747314 	udi4	s3,s4,t6,0xc
     59c:	5f746375 	0x5f746375
     5a0:	05006469 	bltz	t0,19748 <_init-0x5ffe68b8>
     5a4:	05670139 	0x5670139
     5a8:	69140000 	0x69140000
     5ac:	695f746e 	0x695f746e
     5b0:	3a050064 	xori	a1,s0,0x64
     5b4:	0001f501 	0x1f501
     5b8:	5f100000 	0x5f100000
     5bc:	65726874 	0x65726874
     5c0:	695f6461 	0x695f6461
     5c4:	00745f64 	0x745f64
     5c8:	8f013b05 	lw	at,15109(t8)
     5cc:	10000005 	b	5e4 <_init-0x5ffffa1c>
     5d0:	72687470 	0x72687470
     5d4:	5f646165 	0x5f646165
     5d8:	41050074 	0x41050074
     5dc:	0005ba01 	0x5ba01
     5e0:	716d0700 	0x716d0700
     5e4:	00745f64 	0x745f64
     5e8:	023d3209 	0x23d3209
     5ec:	84020000 	lh	v0,0(zero)
     5f0:	38000006 	xori	zero,zero,0x6
     5f4:	6d03520a 	0x6d03520a
     5f8:	63696761 	0x63696761
     5fc:	29440a00 	slti	a0,t2,2560
     600:	02000003 	0x2000003
     604:	72030023 	0x72030023
     608:	0a006665 	j	8019994 <_init-0x57fe666c>
     60c:	00023d46 	0x23d46
     610:	04230200 	bgezl	at,e14 <_init-0x5ffff1ec>
     614:	68737003 	0x68737003
     618:	64657261 	0x64657261
     61c:	3d480a00 	0x3d480a00
     620:	02000002 	0x2000002
     624:	73030823 	0x73030823
     628:	70616d65 	0x70616d65
     62c:	5f726f68 	0x5f726f68
     630:	65726874 	0x65726874
     634:	0a006461 	j	8019184 <_init-0x57fe6e7c>
     638:	0001e34a 	0x1e34a
     63c:	0c230200 	jal	8c0800 <_init-0x5f73f800>
     640:	6d657303 	0x6d657303
     644:	6f687061 	0x6f687061
     648:	4c0a0072 	0x4c0a0072
     64c:	00000205 	0x205
     650:	032c2302 	0x32c2302
     654:	6e696c75 	0x6e696c75
     658:	6f6e5f6b 	0x6f6e5f6b
     65c:	0a006564 	j	8019590 <_init-0x57fe6a70>
     660:	0000e54e 	0xe54e
     664:	30230200 	andi	v1,at,0x200
     668:	62656403 	0x62656403
     66c:	735f6775 	0x735f6775
     670:	65637061 	0x65637061
     674:	646f6e5f 	0x646f6e5f
     678:	500a0065 	beql	zero,t2,810 <_init-0x5ffff7f0>
     67c:	000000e5 	0xe5
     680:	00342302 	ror	a0,s4,0xc
     684:	6d657307 	0x6d657307
     688:	5f736e5f 	0x5f736e5f
     68c:	520a0074 	beql	s0,t2,860 <_init-0x5ffff7a0>
     690:	000005ee 	0x5ee
     694:	0006ae02 	srl	s5,a2,0x18
     698:	5c0a0400 	0x5c0a0400
     69c:	6d657303 	0x6d657303
     6a0:	00736e5f 	0x736e5f
     6a4:	06ae5b0a 	tnei	s5,23306
     6a8:	23020000 	addi	v0,t8,0
     6ac:	040b0000 	tltiu	zero,0
     6b0:	00000684 	0x684
     6b4:	6d657307 	0x6d657307
     6b8:	0a00745f 	j	801d17c <_init-0x57fe2e84>
     6bc:	0006945c 	0x6945c
     6c0:	06d20800 	bltzall	s6,26c4 <_init-0x5fffd93c>
     6c4:	02750000 	0x2750000
     6c8:	c6150000 	lwc1	$f21,0(s0)
     6cc:	ff000001 	sdc3	$0,1(t8)
     6d0:	e2080003 	sc	t0,3(s0)
     6d4:	75000006 	jalx	4000018 <_init-0x5bffffe8>
     6d8:	09000002 	j	4000008 <_init-0x5bfffff8>
     6dc:	000001c6 	0x1c6
     6e0:	040b003f 	tltiu	zero,63
     6e4:	00000323 	0x323
     6e8:	06ee040b 	tnei	s7,1035
     6ec:	0c160000 	jal	580000 <_init-0x5fa80000>
     6f0:	00001546 	0x1546
     6f4:	0d190704 	jal	4641c10 <_init-0x5b9be3f0>
     6f8:	5f47534d 	0x5f47534d
     6fc:	4c4c554e 	0x4c4c554e
     700:	4d0d0000 	lwxc1	$f0,t5(t0)
     704:	505f4753 	beql	v0,ra,12454 <_init-0x5ffedbac>
     708:	5245574f 	beql	s2,a1,16448 <_init-0x5ffe9bb8>
     70c:	46464f5f 	c1	0x464f5f
     710:	0d00e400 	jal	4039000 <_init-0x5bfc7000>
     714:	5f47534d 	0x5f47534d
     718:	524f4853 	beql	s2,t7,12868 <_init-0x5ffed798>
     71c:	54554354 	bnel	v0,s5,11470 <_init-0x5ffeeb90>
     720:	4f56545f 	c3	0x156545f
     724:	e5005455 	swc1	$f0,21589(t0)
     728:	534d0d00 	beql	k0,t5,3b2c <_init-0x5fffc4d4>
     72c:	48535f47 	0x48535f47
     730:	4354524f 	c0	0x154524f
     734:	435f5455 	c0	0x15f5455
     738:	52454d41 	beql	s2,a1,13c40 <_init-0x5ffec3c0>
     73c:	00e60041 	0xe60041
     740:	47534d0d 	c1	0x1534d0d
     744:	4f48535f 	c3	0x148535f
     748:	55435452 	bnel	t2,v1,15894 <_init-0x5ffea76c>
     74c:	4c505f54 	0x4c505f54
     750:	41425941 	0x41425941
     754:	e7004b43 	swc1	$f0,19267(t8)
     758:	534d0d00 	beql	k0,t5,3b5c <_init-0x5fffc4a4>
     75c:	48535f47 	0x48535f47
     760:	4354524f 	c0	0x154524f
     764:	445f5455 	0x445f5455
     768:	54454c45 	bnel	v0,a1,13880 <_init-0x5ffec780>
     76c:	00e80045 	0xe80045
     770:	47534d0d 	c1	0x1534d0d
     774:	4f48535f 	c3	0x148535f
     778:	55435452 	bnel	t2,v1,158c4 <_init-0x5ffea73c>
     77c:	45525f54 	0x45525f54
     780:	4e525554 	c3	0x525554
     784:	0d00e900 	jal	403a400 <_init-0x5bfc5c00>
     788:	54535953 	bnel	v0,s3,16cd8 <_init-0x5ffe9328>
     78c:	425f4d45 	c0	0x5f4d45
     790:	00455341 	0x455341
     794:	4d0d07e8 	msub.s	$f31,$f8,$f0,$f13
     798:	415f4753 	0x415f4753
     79c:	515f5050 	beql	t2,ra,148e0 <_init-0x5ffeb720>
     7a0:	00544955 	0x544955
     7a4:	4d0d07e9 	msub.d	$f31,$f8,$f0,$f13
     7a8:	4c5f4753 	0x4c5f4753
     7ac:	565f574f 	bnel	s2,ra,164ec <_init-0x5ffe9b14>
     7b0:	41544c4f 	0x41544c4f
     7b4:	ea004547 	swc2	$0,17735(s0)
     7b8:	534d0d07 	beql	k0,t5,3bd8 <_init-0x5fffc428>
     7bc:	454b5f47 	0x454b5f47
     7c0:	434f4c59 	c0	0x14f4c59
     7c4:	07eb004b 	tltiu	ra,75
     7c8:	47534d0d 	c1	0x1534d0d
     7cc:	59454b5f 	0x59454b5f
     7d0:	4f4c4e55 	c3	0x14c4e55
     7d4:	ec004b43 	swc3	$0,19267(zero)
     7d8:	534d0d07 	beql	k0,t5,3bf8 <_init-0x5fffc408>
     7dc:	41435f47 	0x41435f47
     7e0:	495f4452 	0x495f4452
     7e4:	07ed004e 	0x7ed004e
     7e8:	47534d0d 	c1	0x1534d0d
     7ec:	5241435f 	beql	s2,at,1156c <_init-0x5ffeea94>
     7f0:	4e495f44 	c3	0x495f44
     7f4:	465f5449 	c1	0x5f5449
     7f8:	454c4941 	0x454c4941
     7fc:	07ee0044 	tnei	ra,68
     800:	47534d0d 	c1	0x1534d0d
     804:	5241435f 	beql	s2,at,11584 <_init-0x5ffeea7c>
     808:	554f5f44 	bnel	t2,t7,1851c <_init-0x5ffe7ae4>
     80c:	07ef0054 	0x7ef0054
     810:	47534d0d 	c1	0x1534d0d
     814:	4253555f 	c0	0x53555f
     818:	534f485f 	beql	k0,t7,12998 <_init-0x5ffed668>
     81c:	49445f54 	0x49445f54
     820:	495f4b53 	0x495f4b53
     824:	07f0004e 	bltzal	ra,960 <_init-0x5ffff6a0>
     828:	47534d0d 	c1	0x1534d0d
     82c:	4253555f 	c0	0x53555f
     830:	534f485f 	beql	k0,t7,129b0 <_init-0x5ffed650>
     834:	49445f54 	0x49445f54
     838:	495f4b53 	0x495f4b53
     83c:	5f54494e 	0x5f54494e
     840:	4c494146 	0x4c494146
     844:	f1004445 	0xf1004445
     848:	534d0d07 	beql	k0,t5,3c68 <_init-0x5fffc398>
     84c:	53555f47 	beql	k0,s5,1856c <_init-0x5ffe7a94>
     850:	4f485f42 	c3	0x1485f42
     854:	445f5453 	0x445f5453
     858:	5f4b5349 	0x5f4b5349
     85c:	0054554f 	0x54554f
     860:	4d0d07f2 	0x4d0d07f2
     864:	555f4753 	bnel	t2,ra,125b4 <_init-0x5ffeda4c>
     868:	425f4253 	c0	0x5f4253
     86c:	004e495f 	0x4e495f
     870:	4d0d07f3 	0x4d0d07f3
     874:	555f4753 	bnel	t2,ra,125c4 <_init-0x5ffeda3c>
     878:	425f4253 	c0	0x5f4253
     87c:	54554f5f 	bnel	v0,s5,145fc <_init-0x5ffeba04>
     880:	0d07f400 	jal	41fd000 <_init-0x5be03000>
     884:	5f47534d 	0x5f47534d
     888:	5f425355 	0x5f425355
     88c:	50414441 	beql	v0,at,11994 <_init-0x5ffee66c>
     890:	5f524f54 	0x5f524f54
     894:	f5004e49 	sdc1	$f0,20041(t0)
     898:	534d0d07 	beql	k0,t5,3cb8 <_init-0x5fffc348>
     89c:	53555f47 	beql	k0,s5,185bc <_init-0x5ffe7a44>
     8a0:	44415f42 	0x44415f42
     8a4:	4f545041 	c3	0x1545041
     8a8:	554f5f52 	bnel	t2,t7,185f4 <_init-0x5ffe7a0c>
     8ac:	07f60054 	0x7f60054
     8b0:	47534d0d 	c1	0x1534d0d
     8b4:	4956545f 	0x4956545f
     8b8:	4c415f4e 	0x4c415f4e
     8bc:	5f4d5241 	0x5f4d5241
     8c0:	f7004e49 	sdc1	$f0,20041(t8)
     8c4:	534d0d07 	beql	k0,t5,3ce4 <_init-0x5fffc31c>
     8c8:	45525f47 	0x45525f47
     8cc:	5f544553 	0x5f544553
     8d0:	41464544 	0x41464544
     8d4:	5f544c55 	0x5f544c55
     8d8:	00474643 	0x474643
     8dc:	4d0d07f8 	nmsub.s	$f31,$f8,$f0,$f13
     8e0:	4c5f4753 	0x4c5f4753
     8e4:	55474e41 	bnel	t2,a3,141ec <_init-0x5ffebe14>
     8e8:	5f454741 	0x5f454741
     8ec:	4e414843 	c3	0x414843
     8f0:	00444547 	0x444547
     8f4:	4d0d07f9 	nmsub.d	$f31,$f8,$f0,$f13
     8f8:	465f4753 	c1	0x5f4753
     8fc:	5f544e4f 	0x5f544e4f
     900:	4e414843 	c3	0x414843
     904:	00444547 	0x444547
     908:	4d0d07fa 	0x4d0d07fa
     90c:	545f4753 	bnel	v0,ra,1265c <_init-0x5ffed9a4>
     910:	454d4548 	0x454d4548
     914:	4148435f 	0x4148435f
     918:	4445474e 	0x4445474e
     91c:	0d07fb00 	jal	41fec00 <_init-0x5be01400>
     920:	5f47534d 	0x5f47534d
     924:	5f544553 	0x5f544553
     928:	5f464544 	0x5f464544
     92c:	544e4f46 	bnel	v0,t6,14648 <_init-0x5ffeb9b8>
     930:	4e59535f 	c3	0x59535f
     934:	07fc0043 	0x7fc0043
     938:	47534d0d 	c1	0x1534d0d
     93c:	534e555f 	beql	k0,t6,15ebc <_init-0x5ffea144>
     940:	445f5445 	0x445f5445
     944:	465f4645 	c1	0x5f4645
     948:	5f544e4f 	0x5f544e4f
     94c:	434e5953 	c0	0x14e5953
     950:	0d07fd00 	jal	41ff400 <_init-0x5be00c00>
     954:	5f47534d 	0x5f47534d
     958:	4e49414d 	c3	0x49414d
     95c:	5349445f 	beql	k0,t1,11adc <_init-0x5ffee524>
     960:	48435f4b 	0x48435f4b
     964:	45474e41 	0x45474e41
     968:	07fe0044 	0x7fe0044
     96c:	47534d0d 	c1	0x1534d0d
     970:	45454e5f 	0x45454e5f
     974:	45475f44 	0x45475f44
     978:	4c505f4e 	0x4c505f4e
     97c:	00545349 	0x545349
     980:	4d0d07ff 	0x4d0d07ff
     984:	435f4753 	c0	0x15f4753
     988:	5f445241 	0x5f445241
     98c:	4e554f4d 	c3	0x554f4d
     990:	41465f54 	0x41465f54
     994:	44454c49 	0x44454c49
     998:	0d088000 	jal	4220000 <_init-0x5bde0000>
     99c:	434f5250 	c0	0x14f5250
     9a0:	4d535345 	0x4d535345
     9a4:	47414e41 	c1	0x1414e41
     9a8:	425f5245 	c0	0x5f5245
     9ac:	00455341 	0x455341
     9b0:	4d0d0fd0 	0x4d0d0fd0
     9b4:	435f4753 	c0	0x15f4753
     9b8:	54414552 	bnel	v0,at,11f04 <_init-0x5ffee0fc>
     9bc:	5050415f 	beql	v0,s0,10f3c <_init-0x5ffef0c4>
     9c0:	0d0fd100 	jal	43f4400 <_init-0x5bc0bc00>
     9c4:	5f47534d 	0x5f47534d
     9c8:	41455243 	0x41455243
     9cc:	50415f54 	beql	v0,at,18720 <_init-0x5ffe78e0>
     9d0:	59535f50 	0x59535f50
     9d4:	d200434e 	0xd200434e
     9d8:	534d0d0f 	beql	k0,t5,3e18 <_init-0x5fffc1e8>
     9dc:	52435f47 	beql	s2,v1,186fc <_init-0x5ffe7904>
     9e0:	5f544145 	0x5f544145
     9e4:	5f505041 	0x5f505041
     9e8:	55534552 	bnel	t2,s3,11f34 <_init-0x5ffee0cc>
     9ec:	d300454d 	0xd300454d
     9f0:	534d0d0f 	beql	k0,t5,3e30 <_init-0x5fffc1d0>
     9f4:	494b5f47 	0x494b5f47
     9f8:	415f4c4c 	0x415f4c4c
     9fc:	d4005050 	ldc1	$f0,20560(zero)
     a00:	534d0d0f 	beql	k0,t5,3e40 <_init-0x5fffc1c0>
     a04:	494b5f47 	0x494b5f47
     a08:	415f4c4c 	0x415f4c4c
     a0c:	535f5050 	beql	k0,ra,14b50 <_init-0x5ffeb4b0>
     a10:	00434e59 	0x434e59
     a14:	4d0d0fd5 	0x4d0d0fd5
     a18:	4b5f4753 	c2	0x15f4753
     a1c:	5f4c4c49 	0x5f4c4c49
     a20:	52455355 	beql	s2,a1,15778 <_init-0x5ffea888>
     a24:	5050415f 	beql	v0,s0,10fa4 <_init-0x5ffef05c>
     a28:	0fd60053 	jal	f58014c <_init-0x50a7feb4>
     a2c:	47534d0d 	c1	0x1534d0d
     a30:	4c494b5f 	0x4c494b5f
     a34:	53555f4c 	beql	k0,s5,18768 <_init-0x5ffe7898>
     a38:	415f5245 	0x415f5245
     a3c:	5f535050 	0x5f535050
     a40:	434e5953 	c0	0x14e5953
     a44:	0d0fd700 	jal	43f5c00 <_init-0x5bc0a400>
     a48:	5f47534d 	0x5f47534d
     a4c:	4c4c494b 	0x4c4c494b
     a50:	4553555f 	0x4553555f
     a54:	50415f52 	beql	v0,at,187a0 <_init-0x5ffe7860>
     a58:	435f5350 	c0	0x15f5350
     a5c:	54414552 	bnel	v0,at,11fa8 <_init-0x5ffee058>
     a60:	5050415f 	beql	v0,s0,10fe0 <_init-0x5ffef020>
     a64:	0d0fd800 	jal	43f6000 <_init-0x5bc0a000>
     a68:	5f47534d 	0x5f47534d
     a6c:	49544341 	0x49544341
     a70:	d9004556 	ldc2	$0,17750(t0)
     a74:	534d0d0f 	beql	k0,t5,3eb4 <_init-0x5fffc14c>
     a78:	43415f47 	c0	0x1415f47
     a7c:	45564954 	0x45564954
     a80:	4e59535f 	c3	0x59535f
     a84:	0fda0043 	jal	f68010c <_init-0x5097fef4>
     a88:	47534d0d 	c1	0x1534d0d
     a8c:	5050415f 	beql	v0,s0,1100c <_init-0x5ffeeff4>
     a90:	4958455f 	0x4958455f
     a94:	00444554 	0x444554
     a98:	4d0d0fdb 	0x4d0d0fdb
     a9c:	535f4753 	beql	k0,ra,127ec <_init-0x5ffed814>
     aa0:	415f5445 	0x415f5445
     aa4:	465f5050 	c1	0x5f5050
     aa8:	4745524f 	c1	0x145524f
     aac:	4e554f52 	c3	0x554f52
     ab0:	0fdc0044 	jal	f700110 <_init-0x508ffef0>
     ab4:	47534d0d 	c1	0x1534d0d
     ab8:	5445535f 	bnel	v0,a1,15838 <_init-0x5ffea7c8>
     abc:	5050415f 	beql	v0,s0,1103c <_init-0x5ffeefc4>
     ac0:	524f465f 	beql	s2,t7,12440 <_init-0x5ffedbc0>
     ac4:	4f524745 	c3	0x1524745
     ac8:	5f444e55 	0x5f444e55
     acc:	434e5953 	c0	0x14e5953
     ad0:	0d0fdd00 	jal	43f7400 <_init-0x5bc08c00>
     ad4:	5f47534d 	0x5f47534d
     ad8:	5f544553 	0x5f544553
     adc:	5f505041 	0x5f505041
     ae0:	4b434142 	c2	0x1434142
     ae4:	554f5247 	bnel	t2,t7,15404 <_init-0x5ffeabfc>
     ae8:	de00444e 	ldc3	$0,17486(s0)
     aec:	534d0d0f 	beql	k0,t5,3f2c <_init-0x5fffc0d4>
     af0:	45535f47 	0x45535f47
     af4:	50415f54 	beql	v0,at,18848 <_init-0x5ffe77b8>
     af8:	41425f50 	0x41425f50
     afc:	52474b43 	beql	s2,a3,1380c <_init-0x5ffec7f4>
     b00:	444e554f 	0x444e554f
     b04:	4e59535f 	c3	0x59535f
     b08:	0fdf0043 	jal	f7c010c <_init-0x5083fef4>
     b0c:	47534d0d 	c1	0x1534d0d
     b10:	4f4f425f 	c3	0x14f425f
     b14:	5f505554 	0x5f505554
     b18:	494e4946 	0x494e4946
     b1c:	e0004853 	sc	zero,18515(zero)
     b20:	534d0d0f 	beql	k0,t5,3f60 <_init-0x5fffc0a0>
     b24:	41425f47 	0x41425f47
     b28:	52474b43 	beql	s2,a3,13838 <_init-0x5ffec7c8>
     b2c:	444e554f 	0x444e554f
     b30:	4349505f 	c0	0x149505f
     b34:	4148435f 	0x4148435f
     b38:	0045474e 	0x45474e
     b3c:	4d0d0fe1 	madd.d	$f31,$f8,$f1,$f13
     b40:	4b5f4753 	c2	0x15f4753
     b44:	5f4c4c49 	0x5f4c4c49
     b48:	5f4c4c41 	0x5f4c4c41
     b4c:	52455355 	beql	s2,a1,158a4 <_init-0x5ffea75c>
     b50:	5050415f 	beql	v0,s0,110d0 <_init-0x5ffeef30>
     b54:	59535f53 	0x59535f53
     b58:	e200434e 	sc	zero,17230(s0)
     b5c:	534d0d0f 	beql	k0,t5,3f9c <_init-0x5fffc064>
     b60:	54535f47 	bnel	v0,s3,18880 <_init-0x5ffe7780>
     b64:	485f504f 	0x485f504f
     b68:	5f445241 	0x5f445241
     b6c:	43544157 	c0	0x1544157
     b70:	5f474448 	0x5f474448
     b74:	434e5953 	c0	0x14e5953
     b78:	0d0fe300 	jal	43f8c00 <_init-0x5bc07400>
     b7c:	5f47534d 	0x5f47534d
     b80:	54534552 	bnel	v0,s3,120cc <_init-0x5ffedf34>
     b84:	5f545241 	0x5f545241
     b88:	44524148 	0x44524148
     b8c:	5441575f 	bnel	v0,at,1690c <_init-0x5ffe96f4>
     b90:	47444843 	c1	0x1444843
     b94:	4e59535f 	c3	0x59535f
     b98:	0fe40043 	jal	f90010c <_init-0x506ffef4>
     b9c:	4e4f430d 	c3	0x4f430d
     ba0:	5f474946 	0x5f474946
     ba4:	45534142 	0x45534142
     ba8:	0d17b800 	jal	45ee000 <_init-0x5ba12000>
     bac:	5f47534d 	0x5f47534d
     bb0:	56524553 	bnel	s2,s2,12100 <_init-0x5ffedf00>
     bb4:	425f5245 	c0	0x5f5245
     bb8:	00455341 	0x455341
     bbc:	4d0d1fa0 	madd.s	$f30,$f8,$f3,$f13
     bc0:	535f4753 	beql	k0,ra,12910 <_init-0x5ffed6f0>
     bc4:	4b5f5445 	c2	0x15f5445
     bc8:	545f5945 	bnel	v0,ra,170e0 <_init-0x5ffe8f20>
     bcc:	5f454e4f 	0x5f454e4f
     bd0:	a1004e4f 	sb	zero,20047(t0)
     bd4:	534d0d1f 	beql	k0,t5,4054 <_init-0x5fffbfac>
     bd8:	45535f47 	0x45535f47
     bdc:	454b5f54 	0x454b5f54
     be0:	4f545f59 	c3	0x1545f59
     be4:	455f454e 	0x455f454e
     be8:	4c42414e 	0x4c42414e
     bec:	1fa20045 	0x1fa20045
     bf0:	47534d0d 	c1	0x1534d0d
     bf4:	5445535f 	bnel	v0,a1,15974 <_init-0x5ffea68c>
     bf8:	5359535f 	beql	k0,t9,15978 <_init-0x5ffea688>
     bfc:	5456455f 	bnel	v0,s6,1217c <_init-0x5ffede84>
     c00:	5445445f 	bnel	v0,a1,11d80 <_init-0x5ffee280>
     c04:	5f544345 	0x5f544345
     c08:	535f4e4f 	beql	k0,ra,14548 <_init-0x5ffebab8>
     c0c:	00434e59 	0x434e59
     c10:	4d0d1fa3 	0x4d0d1fa3
     c14:	535f4753 	beql	k0,ra,12964 <_init-0x5ffed69c>
     c18:	535f5445 	beql	k0,ra,15d30 <_init-0x5ffea2d0>
     c1c:	45455243 	0x45455243
     c20:	5641534e 	bnel	s2,at,1595c <_init-0x5ffea6a4>
     c24:	545f5245 	bnel	v0,ra,1553c <_init-0x5ffeaac4>
     c28:	5f454d49 	0x5f454d49
     c2c:	434e5953 	c0	0x14e5953
     c30:	0d1fa400 	jal	47e9000 <_init-0x5b817000>
     c34:	5f47534d 	0x5f47534d
     c38:	5f544553 	0x5f544553
     c3c:	4f545541 	c3	0x1545541
     c40:	4154535f 	0x4154535f
     c44:	5942444e 	0x5942444e
     c48:	4d49545f 	0x4d49545f
     c4c:	59535f45 	0x59535f45
     c50:	a500434e 	sh	zero,17230(t0)
     c54:	534d0d1f 	beql	k0,t5,40d4 <_init-0x5fffbf2c>
     c58:	45535f47 	0x45535f47
     c5c:	49545f54 	0x49545f54
     c60:	5f44454d 	0x5f44454d
     c64:	54555453 	bnel	v0,s5,15db4 <_init-0x5ffea24c>
     c68:	4e574f44 	c3	0x574f44
     c6c:	4d49545f 	0x4d49545f
     c70:	59535f45 	0x59535f45
     c74:	a600434e 	sh	zero,17230(s0)
     c78:	534d0d1f 	beql	k0,t5,40f8 <_init-0x5fffbf08>
     c7c:	45535f47 	0x45535f47
     c80:	434c5f54 	c0	0x14c5f54
     c84:	41425f44 	0x41425f44
     c88:	494c4b43 	0x494c4b43
     c8c:	5f544847 	0x5f544847
     c90:	434e5953 	c0	0x14e5953
     c94:	0d1fa700 	jal	47e9c00 <_init-0x5b816400>
     c98:	5f47534d 	0x5f47534d
     c9c:	5f544553 	0x5f544553
     ca0:	52414843 	beql	s2,at,12db0 <_init-0x5ffed250>
     ca4:	505f4547 	beql	v0,ra,121c4 <_init-0x5ffede3c>
     ca8:	4d415241 	0x4d415241
     cac:	4e59535f 	c3	0x59535f
     cb0:	1fa80043 	0x1fa80043
     cb4:	47534d0d 	c1	0x1534d0d
     cb8:	5445535f 	bnel	v0,a1,15a38 <_init-0x5ffea5c8>
     cbc:	4148435f 	0x4148435f
     cc0:	5f454752 	0x5f454752
     cc4:	52415453 	beql	s2,at,15e14 <_init-0x5ffea1ec>
     cc8:	59535f54 	0x59535f54
     ccc:	a900434e 	swl	zero,17230(t0)
     cd0:	534d0d1f 	beql	k0,t5,4150 <_init-0x5fffbeb0>
     cd4:	45475f47 	0x45475f47
     cd8:	48435f54 	0x48435f54
     cdc:	45475241 	0x45475241
     ce0:	4154535f 	0x4154535f
     ce4:	5f535554 	0x5f535554
     ce8:	434e5953 	c0	0x14e5953
     cec:	0d1faa00 	jal	47ea800 <_init-0x5b815800>
     cf0:	5f47534d 	0x5f47534d
     cf4:	5f544553 	0x5f544553
     cf8:	5f59454b 	0x5f59454b
     cfc:	5050414d 	beql	v0,s0,11234 <_init-0x5ffeedcc>
     d00:	5f474e49 	0x5f474e49
     d04:	434e5953 	c0	0x14e5953
     d08:	0d1fab00 	jal	47eac00 <_init-0x5b815400>
     d0c:	5f47534d 	0x5f47534d
     d10:	5f544553 	0x5f544553
     d14:	554c4f56 	bnel	t2,t4,14a70 <_init-0x5ffeb590>
     d18:	535f454d 	beql	k0,ra,12250 <_init-0x5ffeddb0>
     d1c:	00434e59 	0x434e59
     d20:	4d0d1fac 	0x4d0d1fac
     d24:	475f4753 	c1	0x15f4753
     d28:	565f5445 	bnel	s2,ra,15e40 <_init-0x5ffea1c0>
     d2c:	4d554c4f 	0x4d554c4f
     d30:	59535f45 	0x59535f45
     d34:	ad00434e 	sw	zero,17230(t0)
     d38:	534d0d1f 	beql	k0,t5,41b8 <_init-0x5fffbe48>
     d3c:	45475f47 	0x45475f47
     d40:	57485f54 	bnel	k0,t0,18a94 <_init-0x5ffe756c>
     d44:	4154535f 	0x4154535f
     d48:	5f535554 	0x5f535554
     d4c:	434e5953 	c0	0x14e5953
     d50:	0d1fae00 	jal	47eb800 <_init-0x5b814800>
     d54:	5f47534d 	0x5f47534d
     d58:	5f544553 	0x5f544553
     d5c:	4e455347 	c3	0x455347
     d60:	5f524f53 	0x5f524f53
     d64:	af004e4f 	sw	zero,20047(t8)
     d68:	534d0d1f 	beql	k0,t5,41e8 <_init-0x5fffbe18>
     d6c:	45525f47 	0x45525f47
     d70:	5f544553 	0x5f544553
     d74:	4e455347 	c3	0x455347
     d78:	5f524f53 	0x5f524f53
     d7c:	41544f52 	0x41544f52
     d80:	4e4f4954 	c3	0x4f4954
     d84:	0d1fb000 	jal	47ec000 <_init-0x5b814000>
     d88:	5f47534d 	0x5f47534d
     d8c:	4e455347 	c3	0x455347
     d90:	5f524f53 	0x5f524f53
     d94:	41544f52 	0x41544f52
     d98:	4e4f4954 	c3	0x4f4954
     d9c:	4148435f 	0x4148435f
     da0:	4445474e 	0x4445474e
     da4:	0d1fb100 	jal	47ec400 <_init-0x5b813c00>
     da8:	5f47534d 	0x5f47534d
     dac:	5f544547 	0x5f544547
     db0:	4e455347 	c3	0x455347
     db4:	5f524f53 	0x5f524f53
     db8:	41544f52 	0x41544f52
     dbc:	4e4f4954 	c3	0x4f4954
     dc0:	4e59535f 	c3	0x59535f
     dc4:	1fb20043 	0x1fb20043
     dc8:	47534d0d 	c1	0x1534d0d
     dcc:	5345525f 	beql	k0,a1,1574c <_init-0x5ffea8b4>
     dd0:	475f5445 	c1	0x15f5445
     dd4:	534e4553 	beql	k0,t6,12324 <_init-0x5ffedcdc>
     dd8:	535f524f 	beql	k0,ra,15718 <_init-0x5ffea8e8>
     ddc:	454b4148 	0x454b4148
     de0:	0d1fb300 	jal	47ecc00 <_init-0x5b813400>
     de4:	5f47534d 	0x5f47534d
     de8:	4e455347 	c3	0x455347
     dec:	5f524f53 	0x5f524f53
     df0:	4b414853 	c2	0x1414853
     df4:	b4004445 	0xb4004445
     df8:	534d0d1f 	beql	k0,t5,4278 <_init-0x5fffbd88>
     dfc:	45525f47 	0x45525f47
     e00:	5f544553 	0x5f544553
     e04:	5f535953 	0x5f535953
     e08:	454c4449 	0x454c4449
     e0c:	4d49545f 	0x4d49545f
     e10:	5f535245 	0x5f535245
     e14:	434e5953 	c0	0x14e5953
     e18:	0d1fb500 	jal	47ed400 <_init-0x5b812c00>
     e1c:	5f47534d 	0x5f47534d
     e20:	45534552 	0x45534552
     e24:	55415f54 	bnel	t2,at,18b78 <_init-0x5ffe7488>
     e28:	535f4f54 	beql	k0,ra,14b7c <_init-0x5ffeb484>
     e2c:	444e4154 	0x444e4154
     e30:	545f5942 	bnel	v0,ra,1733c <_init-0x5ffe8cc4>
     e34:	52454d49 	beql	s2,a1,1435c <_init-0x5ffebca4>
     e38:	4e59535f 	c3	0x59535f
     e3c:	1fb60043 	0x1fb60043
     e40:	47534d0d 	c1	0x1534d0d
     e44:	5345525f 	beql	k0,a1,157c4 <_init-0x5ffea83c>
     e48:	535f5445 	beql	k0,ra,15f60 <_init-0x5ffea0a0>
     e4c:	45455243 	0x45455243
     e50:	5641534e 	bnel	s2,at,15b8c <_init-0x5ffea474>
     e54:	545f5245 	bnel	v0,ra,1576c <_init-0x5ffea894>
     e58:	52454d49 	beql	s2,a1,14380 <_init-0x5ffebc80>
     e5c:	4e59535f 	c3	0x59535f
     e60:	1fb70043 	0x1fb70043
     e64:	47534d0d 	c1	0x1534d0d
     e68:	544e455f 	bnel	v0,t6,123e8 <_init-0x5ffedc18>
     e6c:	535f5245 	beql	k0,ra,15784 <_init-0x5ffea87c>
     e70:	45455243 	0x45455243
     e74:	5641534e 	bnel	s2,at,15bb0 <_init-0x5ffea450>
     e78:	535f5245 	beql	k0,ra,15790 <_init-0x5ffea870>
     e7c:	00434e59 	0x434e59
     e80:	4d0d1fb8 	nmsub.s	$f30,$f8,$f3,$f13
     e84:	455f4753 	0x455f4753
     e88:	5f544958 	0x5f544958
     e8c:	45524353 	0x45524353
     e90:	41534e45 	0x41534e45
     e94:	5f524556 	0x5f524556
     e98:	434e5953 	c0	0x14e5953
     e9c:	0d1fb900 	jal	47ee400 <_init-0x5b811c00>
     ea0:	5f47534d 	0x5f47534d
     ea4:	5f544553 	0x5f544553
     ea8:	5f59454b 	0x5f59454b
     eac:	56524553 	bnel	s2,s2,123fc <_init-0x5ffedc04>
     eb0:	455f5245 	0x455f5245
     eb4:	4c42414e 	0x4c42414e
     eb8:	59535f45 	0x59535f45
     ebc:	ba00434e 	swr	zero,17230(s0)
     ec0:	534d0d1f 	beql	k0,t5,4340 <_init-0x5fffbcc0>
     ec4:	45475f47 	0x45475f47
     ec8:	50415f54 	beql	v0,at,18c1c <_init-0x5ffe73e4>
     ecc:	54535f50 	bnel	v0,s3,18c10 <_init-0x5ffe73f0>
     ed0:	53555441 	beql	k0,s5,15fd8 <_init-0x5ffea028>
     ed4:	4e59535f 	c3	0x59535f
     ed8:	1fbb0043 	0x1fbb0043
     edc:	47534d0d 	c1	0x1534d0d
     ee0:	5345525f 	beql	k0,a1,15860 <_init-0x5ffea7a0>
     ee4:	545f5445 	bnel	v0,ra,15ffc <_init-0x5ffea004>
     ee8:	44454d49 	0x44454d49
     eec:	5548535f 	bnel	t2,t0,15c6c <_init-0x5ffea394>
     ef0:	574f4454 	bnel	k0,t7,12044 <_init-0x5ffedfbc>
     ef4:	59535f4e 	0x59535f4e
     ef8:	bc00434e 	cache	0x0,17230(zero)
     efc:	454d0d1f 	0x454d0d1f
     f00:	4e49474e 	c3	0x49474e
     f04:	41425f45 	0x41425f45
     f08:	88004553 	lwl	zero,17747(zero)
     f0c:	534d0d27 	beql	k0,t5,43ac <_init-0x5fffbc54>
     f10:	454d5f47 	0x454d5f47
     f14:	4e49474e 	c3	0x49474e
     f18:	45475f45 	0x45475f45
     f1c:	4e455f54 	c3	0x455f54
     f20:	454e4947 	0x454e4947
     f24:	464e495f 	c1	0x4e495f
     f28:	59535f4f 	0x59535f4f
     f2c:	8900434e 	lwl	zero,17230(t0)
     f30:	534d0d27 	beql	k0,t5,43d0 <_init-0x5fffbc30>
     f34:	454d5f47 	0x454d5f47
     f38:	4e49474e 	c3	0x49474e
     f3c:	45475f45 	0x45475f45
     f40:	49465f54 	0x49465f54
     f44:	4150454c 	0x4150454c
     f48:	535f4854 	beql	k0,ra,1309c <_init-0x5ffecf64>
     f4c:	00434e59 	0x434e59
     f50:	4d0d278a 	0x4d0d278a
     f54:	4d5f4753 	0x4d5f4753
     f58:	49474e45 	0x49474e45
     f5c:	535f454e 	beql	k0,ra,12498 <_init-0x5ffedb68>
     f60:	455f5445 	0x455f5445
     f64:	59535f51 	0x59535f51
     f68:	8b00434e 	lwl	zero,17230(t8)
     f6c:	534d0d27 	beql	k0,t5,440c <_init-0x5fffbbf4>
     f70:	454d5f47 	0x454d5f47
     f74:	4e49474e 	c3	0x49474e
     f78:	45535f45 	0x45535f45
     f7c:	4c505f54 	0x4c505f54
     f80:	4f4d5941 	c3	0x14d5941
     f84:	535f4544 	beql	k0,ra,12498 <_init-0x5ffedb68>
     f88:	00434e59 	0x434e59
     f8c:	4d0d278c 	0x4d0d278c
     f90:	4d5f4753 	0x4d5f4753
     f94:	49474e45 	0x49474e45
     f98:	535f454e 	beql	k0,ra,124d4 <_init-0x5ffedb2c>
     f9c:	445f5445 	0x445f5445
     fa0:	4d505349 	0x4d505349
     fa4:	5f45444f 	0x5f45444f
     fa8:	434e5953 	c0	0x14e5953
     fac:	0d278d00 	jal	49e3400 <_init-0x5b61cc00>
     fb0:	5f47534d 	0x5f47534d
     fb4:	474e454d 	c1	0x14e454d
     fb8:	5f454e49 	0x5f454e49
     fbc:	5f544553 	0x5f544553
     fc0:	45444146 	0x45444146
     fc4:	4e59535f 	c3	0x59535f
     fc8:	278e0043 	addiu	t6,gp,67
     fcc:	47534d0d 	c1	0x1534d0d
     fd0:	4e454d5f 	c3	0x454d5f
     fd4:	454e4947 	0x454e4947
     fd8:	5445535f 	bnel	v0,a1,15d58 <_init-0x5ffea2a8>
     fdc:	414c505f 	0x414c505f
     fe0:	45505359 	0x45505359
     fe4:	535f4445 	beql	k0,ra,120fc <_init-0x5ffedf04>
     fe8:	00434e59 	0x434e59
     fec:	4d0d278f 	0x4d0d278f
     ff0:	4d5f4753 	0x4d5f4753
     ff4:	49474e45 	0x49474e45
     ff8:	535f454e 	beql	k0,ra,12534 <_init-0x5ffedacc>
     ffc:	415f5445 	0x415f5445
    1000:	55415f42 	bnel	t2,at,18d0c <_init-0x5ffe72f4>
    1004:	535f4f54 	beql	k0,ra,14d58 <_init-0x5ffeb2a8>
    1008:	00434e59 	0x434e59
    100c:	4d0d2790 	0x4d0d2790
    1010:	4d5f4753 	0x4d5f4753
    1014:	49474e45 	0x49474e45
    1018:	535f454e 	beql	k0,ra,12554 <_init-0x5ffedaac>
    101c:	415f5445 	0x415f5445
    1020:	4f435f42 	c3	0x1435f42
    1024:	5f544e55 	0x5f544e55
    1028:	434e5953 	c0	0x14e5953
    102c:	0d279100 	jal	49e4400 <_init-0x5b61bc00>
    1030:	5f47534d 	0x5f47534d
    1034:	474e454d 	c1	0x14e454d
    1038:	5f454e49 	0x5f454e49
    103c:	5f544553 	0x5f544553
    1040:	545f4241 	bnel	v0,ra,11948 <_init-0x5ffee6b8>
    1044:	5f454d49 	0x5f454d49
    1048:	434e5953 	c0	0x14e5953
    104c:	0d279200 	jal	49e4800 <_init-0x5b61b800>
    1050:	5f47534d 	0x5f47534d
    1054:	474e454d 	c1	0x14e454d
    1058:	5f454e49 	0x5f454e49
    105c:	52415453 	beql	s2,at,161ac <_init-0x5ffe9e54>
    1060:	42415f54 	c0	0x415f54
    1064:	4e59535f 	c3	0x59535f
    1068:	27930043 	addiu	s3,gp,67
    106c:	47534d0d 	c1	0x1534d0d
    1070:	4e454d5f 	c3	0x454d5f
    1074:	454e4947 	0x454e4947
    1078:	454c435f 	0x454c435f
    107c:	415f5241 	0x415f5241
    1080:	59535f42 	0x59535f42
    1084:	9400434e 	lhu	zero,17230(zero)
    1088:	534d0d27 	beql	k0,t5,4528 <_init-0x5fffbad8>
    108c:	454d5f47 	0x454d5f47
    1090:	4e49474e 	c3	0x49474e
    1094:	45535f45 	0x45535f45
    1098:	42415f54 	c0	0x415f54
    109c:	58454e5f 	0x58454e5f
    10a0:	59535f54 	0x59535f54
    10a4:	9500434e 	lhu	zero,17230(t0)
    10a8:	534d0d27 	beql	k0,t5,4548 <_init-0x5fffbab8>
    10ac:	454d5f47 	0x454d5f47
    10b0:	4e49474e 	c3	0x49474e
    10b4:	45535f45 	0x45535f45
    10b8:	42415f54 	c0	0x415f54
    10bc:	4552505f 	0x4552505f
    10c0:	59535f56 	0x59535f56
    10c4:	9600434e 	lhu	zero,17230(s0)
    10c8:	534d0d27 	beql	k0,t5,4568 <_init-0x5fffba98>
    10cc:	454d5f47 	0x454d5f47
    10d0:	4e49474e 	c3	0x49474e
    10d4:	4c505f45 	0x4c505f45
    10d8:	535f5941 	beql	k0,ra,175e0 <_init-0x5ffe8a20>
    10dc:	00434e59 	0x434e59
    10e0:	4d0d2797 	0x4d0d2797
    10e4:	4d5f4753 	0x4d5f4753
    10e8:	49474e45 	0x49474e45
    10ec:	535f454e 	beql	k0,ra,12628 <_init-0x5ffed9d8>
    10f0:	5f504f54 	0x5f504f54
    10f4:	434e5953 	c0	0x14e5953
    10f8:	0d279800 	jal	49e6000 <_init-0x5b61a000>
    10fc:	5f47534d 	0x5f47534d
    1100:	474e454d 	c1	0x14e454d
    1104:	5f454e49 	0x5f454e49
    1108:	53554150 	beql	k0,s5,1164c <_init-0x5ffee9b4>
    110c:	59535f45 	0x59535f45
    1110:	9900434e 	lwr	zero,17230(t0)
    1114:	534d0d27 	beql	k0,t5,45b4 <_init-0x5fffba4c>
    1118:	454d5f47 	0x454d5f47
    111c:	4e49474e 	c3	0x49474e
    1120:	45525f45 	0x45525f45
    1124:	454d5553 	0x454d5553
    1128:	4e59535f 	c3	0x59535f
    112c:	279a0043 	addiu	k0,gp,67
    1130:	47534d0d 	c1	0x1534d0d
    1134:	4e454d5f 	c3	0x454d5f
    1138:	454e4947 	0x454e4947
    113c:	4545535f 	0x4545535f
    1140:	59535f4b 	0x59535f4b
    1144:	9b00434e 	lwr	zero,17230(t8)
    1148:	534d0d27 	beql	k0,t5,45e8 <_init-0x5fffba18>
    114c:	454d5f47 	0x454d5f47
    1150:	4e49474e 	c3	0x49474e
    1154:	45535f45 	0x45535f45
    1158:	49465f54 	0x49465f54
    115c:	4150454c 	0x4150454c
    1160:	535f4854 	beql	k0,ra,132b4 <_init-0x5ffecd4c>
    1164:	00434e59 	0x434e59
    1168:	4d0d279c 	0x4d0d279c
    116c:	4d5f4753 	0x4d5f4753
    1170:	49474e45 	0x49474e45
    1174:	535f454e 	beql	k0,ra,126b0 <_init-0x5ffed950>
    1178:	465f5445 	c1	0x5f5445
    117c:	49454c49 	0x49454c49
    1180:	5845444e 	0x5845444e
    1184:	4e59535f 	c3	0x59535f
    1188:	279d0043 	addiu	sp,gp,67
    118c:	47534d0d 	c1	0x1534d0d
    1190:	4e454d5f 	c3	0x454d5f
    1194:	454e4947 	0x454e4947
    1198:	414c505f 	0x414c505f
    119c:	454e5f59 	0x454e5f59
    11a0:	535f5458 	beql	k0,ra,16304 <_init-0x5ffe9cfc>
    11a4:	00434e59 	0x434e59
    11a8:	4d0d279e 	alnv.ps	$f30,$f4,$f13,t0
    11ac:	4d5f4753 	0x4d5f4753
    11b0:	49474e45 	0x49474e45
    11b4:	505f454e 	beql	v0,ra,126f0 <_init-0x5ffed910>
    11b8:	5f59414c 	0x5f59414c
    11bc:	56455250 	bnel	s2,a1,15b00 <_init-0x5ffea500>
    11c0:	4e59535f 	c3	0x59535f
    11c4:	279f0043 	addiu	ra,gp,67
    11c8:	47534d0d 	c1	0x1534d0d
    11cc:	4e454d5f 	c3	0x454d5f
    11d0:	454e4947 	0x454e4947
    11d4:	4c45445f 	0x4c45445f
    11d8:	5f455445 	0x5f455445
    11dc:	454c4946 	0x454c4946
    11e0:	4e59535f 	c3	0x59535f
    11e4:	27a00043 	addiu	zero,sp,67
    11e8:	47534d0d 	c1	0x1534d0d
    11ec:	4e454d5f 	c3	0x454d5f
    11f0:	454e4947 	0x454e4947
    11f4:	5746465f 	bnel	k0,a2,12b74 <_init-0x5ffed48c>
    11f8:	59535f44 	0x59535f44
    11fc:	a100434e 	sb	zero,17230(t0)
    1200:	534d0d27 	beql	k0,t5,46a0 <_init-0x5fffb960>
    1204:	454d5f47 	0x454d5f47
    1208:	4e49474e 	c3	0x49474e
    120c:	42465f45 	c0	0x465f45
    1210:	535f4457 	beql	k0,ra,12370 <_init-0x5ffedc90>
    1214:	00434e59 	0x434e59
    1218:	4d0d27a2 	0x4d0d27a2
    121c:	4d5f4753 	0x4d5f4753
    1220:	49474e45 	0x49474e45
    1224:	435f454e 	c0	0x15f454e
    1228:	45434e41 	0x45434e41
    122c:	46465f4c 	c1	0x465f4c
    1230:	59535f42 	0x59535f42
    1234:	a300434e 	sb	zero,17230(t8)
    1238:	534d0d27 	beql	k0,t5,46d8 <_init-0x5fffb928>
    123c:	454d5f47 	0x454d5f47
    1240:	4e49474e 	c3	0x49474e
    1244:	45535f45 	0x45535f45
    1248:	46465f54 	c1	0x465f54
    124c:	45545342 	0x45545342
    1250:	59535f50 	0x59535f50
    1254:	a400434e 	sh	zero,17230(zero)
    1258:	534d0d27 	beql	k0,t5,46f8 <_init-0x5fffb908>
    125c:	454d5f47 	0x454d5f47
    1260:	4e49474e 	c3	0x49474e
    1264:	45535f45 	0x45535f45
    1268:	46465f54 	c1	0x465f54
    126c:	4d495442 	0x4d495442
    1270:	59535f45 	0x59535f45
    1274:	a500434e 	sh	zero,17230(t0)
    1278:	534d0d27 	beql	k0,t5,4718 <_init-0x5fffb8e8>
    127c:	454d5f47 	0x454d5f47
    1280:	4e49474e 	c3	0x49474e
    1284:	414d5f45 	0x414d5f45
    1288:	425f454b 	c0	0x5f454b
    128c:	4d4b4f4f 	0x4d4b4f4f
    1290:	5f4b5241 	0x5f4b5241
    1294:	434e5953 	c0	0x14e5953
    1298:	0d27a600 	jal	49e9800 <_init-0x5b616800>
    129c:	5f47534d 	0x5f47534d
    12a0:	474e454d 	c1	0x14e454d
    12a4:	5f454e49 	0x5f454e49
    12a8:	5f544553 	0x5f544553
    12ac:	5453414c 	bnel	v0,s3,117e0 <_init-0x5ffee820>
    12b0:	4c49465f 	0x4c49465f
    12b4:	59535f45 	0x59535f45
    12b8:	a700434e 	sh	zero,17230(t8)
    12bc:	4d460d27 	0x4d460d27
    12c0:	49474e45 	0x49474e45
    12c4:	425f454e 	c0	0x5f454e
    12c8:	00455341 	0x455341
    12cc:	4d0d36d8 	0x4d0d36d8
    12d0:	465f4753 	c1	0x5f4753
    12d4:	474e454d 	c1	0x14e454d
    12d8:	5f454e49 	0x5f454e49
    12dc:	5f544547 	0x5f544547
    12e0:	52455453 	beql	s2,a1,16430 <_init-0x5ffe9bd0>
    12e4:	4d5f4f45 	0x4d5f4f45
    12e8:	0045444f 	0x45444f
    12ec:	4d0d36d9 	0x4d0d36d9
    12f0:	465f4753 	c1	0x5f4753
    12f4:	474e454d 	c1	0x14e454d
    12f8:	5f454e49 	0x5f454e49
    12fc:	5f544547 	0x5f544547
    1300:	4f464e49 	c3	0x1464e49
    1304:	0d36da00 	jal	4db6800 <_init-0x5b249800>
    1308:	5f47534d 	0x5f47534d
    130c:	4e454d46 	c3	0x454d46
    1310:	454e4947 	0x454e4947
    1314:	5445475f 	bnel	v0,a1,13094 <_init-0x5ffecf6c>
    1318:	544e495f 	bnel	v0,t6,13898 <_init-0x5ffec768>
    131c:	49534e45 	0x49534e45
    1320:	db005954 	ldc2	$0,22868(t8)
    1324:	534d0d36 	beql	k0,t5,4800 <_init-0x5fffb800>
    1328:	4d465f47 	0x4d465f47
    132c:	49474e45 	0x49474e45
    1330:	475f454e 	c1	0x15f454e
    1334:	425f5445 	c0	0x5f5445
    1338:	5f444e41 	0x5f444e41
    133c:	45444f4d 	0x45444f4d
    1340:	0d36dc00 	jal	4db7000 <_init-0x5b249000>
    1344:	5f47534d 	0x5f47534d
    1348:	4e454d46 	c3	0x454d46
    134c:	454e4947 	0x454e4947
    1350:	5445475f 	bnel	v0,a1,130d0 <_init-0x5ffecf30>
    1354:	4552465f 	0x4552465f
    1358:	36dd0051 	ori	sp,s6,0x51
    135c:	47534d0d 	c1	0x1534d0d
    1360:	454d465f 	0x454d465f
    1364:	4e49474e 	c3	0x49474e
    1368:	45475f45 	0x45475f45
    136c:	4e415f54 	c3	0x415f54
    1370:	4e4e4554 	c3	0x4e4554
    1374:	36de0041 	ori	s8,s6,0x41
    1378:	47534d0d 	c1	0x1534d0d
    137c:	454d465f 	0x454d465f
    1380:	4e49474e 	c3	0x49474e
    1384:	45535f45 	0x45535f45
    1388:	52465f54 	beql	s2,a2,190dc <_init-0x5ffe6f24>
    138c:	df005145 	ldc3	$0,20805(t8)
    1390:	534d0d36 	beql	k0,t5,486c <_init-0x5fffb794>
    1394:	4d465f47 	0x4d465f47
    1398:	49474e45 	0x49474e45
    139c:	535f454e 	beql	k0,ra,128d8 <_init-0x5ffed728>
    13a0:	545f5445 	bnel	v0,ra,164b8 <_init-0x5ffe9b48>
    13a4:	53455248 	beql	k0,a1,15cc8 <_init-0x5ffea338>
    13a8:	444c4f48 	0x444c4f48
    13ac:	0d36e000 	jal	4db8000 <_init-0x5b248000>
    13b0:	5f47534d 	0x5f47534d
    13b4:	4e454d46 	c3	0x454d46
    13b8:	454e4947 	0x454e4947
    13bc:	5445535f 	bnel	v0,a1,1613c <_init-0x5ffe9ec4>
    13c0:	4e41425f 	c3	0x41425f
    13c4:	4f4d5f44 	c3	0x14d5f44
    13c8:	e1004544 	sc	zero,17732(t0)
    13cc:	534d0d36 	beql	k0,t5,48a8 <_init-0x5fffb758>
    13d0:	4d465f47 	0x4d465f47
    13d4:	49474e45 	0x49474e45
    13d8:	535f454e 	beql	k0,ra,12914 <_init-0x5ffed6ec>
    13dc:	505f5445 	beql	v0,ra,164f4 <_init-0x5ffe9b0c>
    13e0:	0059414c 	syscall	0x16505
    13e4:	4d0d36e2 	0x4d0d36e2
    13e8:	465f4753 	c1	0x5f4753
    13ec:	474e454d 	c1	0x14e454d
    13f0:	5f454e49 	0x5f454e49
    13f4:	5f544553 	0x5f544553
    13f8:	504f5453 	beql	v0,t7,16548 <_init-0x5ffe9ab8>
    13fc:	0d36e300 	jal	4db8c00 <_init-0x5b247400>
    1400:	5f47534d 	0x5f47534d
    1404:	4e454d46 	c3	0x454d46
    1408:	454e4947 	0x454e4947
    140c:	5445535f 	bnel	v0,a1,1618c <_init-0x5ffe9e74>
    1410:	544e455f 	bnel	v0,t6,12990 <_init-0x5ffed670>
    1414:	535f5245 	beql	k0,ra,15d2c <_init-0x5ffea2d4>
    1418:	444e4154 	0x444e4154
    141c:	e4005942 	swc1	$f0,22850(zero)
    1420:	534d0d36 	beql	k0,t5,48fc <_init-0x5fffb704>
    1424:	4d465f47 	0x4d465f47
    1428:	49474e45 	0x49474e45
    142c:	535f454e 	beql	k0,ra,12968 <_init-0x5ffed698>
    1430:	415f5445 	0x415f5445
    1434:	5f4f5455 	0x5f4f5455
    1438:	4b454553 	c2	0x1454553
    143c:	0d36e500 	jal	4db9400 <_init-0x5b246c00>
    1440:	5f47534d 	0x5f47534d
    1444:	4e454d46 	c3	0x454d46
    1448:	454e4947 	0x454e4947
    144c:	5445535f 	bnel	v0,a1,161cc <_init-0x5ffe9e34>
    1450:	5455415f 	bnel	v0,s5,119d0 <_init-0x5ffee630>
    1454:	45535f4f 	0x45535f4f
    1458:	425f4b45 	c0	0x5f4b45
    145c:	4b414552 	c2	0x1414552
    1460:	0d36e600 	jal	4db9800 <_init-0x5b246800>
    1464:	5f47534d 	0x5f47534d
    1468:	4e454d46 	c3	0x454d46
    146c:	454e4947 	0x454e4947
    1470:	5241455f 	beql	s2,at,129f0 <_init-0x5ffed610>
    1474:	4e4f4850 	c3	0x4f4850
    1478:	4f4e5f45 	c3	0x14e5f45
    147c:	4e495f54 	c3	0x495f54
    1480:	54524553 	bnel	v0,s2,129d0 <_init-0x5ffed630>
    1484:	0d36e700 	jal	4db9c00 <_init-0x5b246400>
    1488:	5f47534d 	0x5f47534d
    148c:	4e454d46 	c3	0x454d46
    1490:	454e4947 	0x454e4947
    1494:	5455415f 	bnel	v0,s5,11a14 <_init-0x5ffee5ec>
    1498:	45535f4f 	0x45535f4f
    149c:	4f5f4b45 	c3	0x15f4b45
    14a0:	00524556 	0x524556
    14a4:	4d0d36e8 	msub.s	$f27,$f8,$f6,$f13
    14a8:	465f4753 	c1	0x5f4753
    14ac:	474e454d 	c1	0x14e454d
    14b0:	5f454e49 	0x5f454e49
    14b4:	5f544547 	0x5f544547
    14b8:	4f545541 	c3	0x1545541
    14bc:	4545535f 	0x4545535f
    14c0:	36e9004b 	ori	t1,s7,0x4b
    14c4:	47534d0d 	c1	0x1534d0d
    14c8:	454d465f 	0x454d465f
    14cc:	4e49474e 	c3	0x49474e
    14d0:	494c5f45 	0x494c5f45
    14d4:	4e49454e 	c3	0x49454e
    14d8:	534e495f 	beql	k0,t6,13a58 <_init-0x5ffec5a8>
    14dc:	00545245 	0x545245
    14e0:	500d36ea 	beql	zero,t5,f08c <_init-0x5fff0f74>
    14e4:	4f544f48 	c3	0x1544f48
    14e8:	5341425f 	beql	k0,at,11e68 <_init-0x5ffee198>
    14ec:	3ec00045 	0x3ec00045
    14f0:	47534d0d 	c1	0x1534d0d
    14f4:	4f48505f 	c3	0x148505f
    14f8:	445f4f54 	0x445f4f54
    14fc:	444f4345 	0x444f4345
    1500:	3ec10045 	0x3ec10045
    1504:	47534d0d 	c1	0x1534d0d
    1508:	4649475f 	c1	0x49475f
    150c:	4345445f 	c0	0x145445f
    1510:	0045444f 	0x45444f
    1514:	450d3ec2 	bc1t	$fcc3,11020 <_init-0x5ffeefe0>
    1518:	4b4f4f42 	c2	0x14f4f42
    151c:	5341425f 	beql	k0,at,11e9c <_init-0x5ffee164>
    1520:	c6a80045 	lwc1	$f8,69(s5)
    1524:	534d0d00 	beql	k0,t5,4928 <_init-0x5fffb6d8>
    1528:	42455f47 	c0	0x455f47
    152c:	5f4b4f4f 	0x5f4b4f4f
    1530:	41445055 	0x41445055
    1534:	545f4554 	bnel	v0,ra,12a88 <_init-0x5ffed578>
    1538:	4c41544f 	0x4c41544f
    153c:	4741505f 	c1	0x141505f
    1540:	c6a90045 	lwc1	$f9,69(s5)
    1544:	6d070000 	0x6d070000
    1548:	615f6773 	0x615f6773
    154c:	5f737070 	0x5f737070
    1550:	65707974 	0x65707974
    1554:	0700655f 	bltz	t8,1aad4 <_init-0x5ffe552c>
    1558:	0006efce 	0x6efce
    155c:	159a1700 	bne	t4,k0,7160 <_init-0x5fff8ea0>
    1560:	04080000 	tgei	zero,0
    1564:	7403dd07 	jalx	f741c <_init-0x5ff08be4>
    1568:	00657079 	0x657079
    156c:	1546d807 	bne	t2,a2,ffff758c <music_mutex_list+0x9fff30d8>
    1570:	23020000 	addi	v0,t8,0
    1574:	00830400 	0x830400
    1578:	da070000 	ldc2	$7,0(s0)
    157c:	000006c1 	0x6c1
    1580:	03042302 	0x3042302
    1584:	646e6573 	0x646e6573
    1588:	705f7265 	0x705f7265
    158c:	07006469 	bltz	t8,1a734 <_init-0x5ffe58cc>
    1590:	00025cdc 	0x25cdc
    1594:	84230300 	lh	v1,768(at)
    1598:	6d070008 	0x6d070008
    159c:	615f6773 	0x615f6773
    15a0:	5f737070 	0x5f737070
    15a4:	dd070074 	ldc3	$7,116(t0)
    15a8:	0000155d 	0x155d
    15ac:	0016610c 	syscall	0x5984
    15b0:	e2070400 	sc	a3,1024(s0)
    15b4:	47534d0d 	c1	0x1534d0d
    15b8:	5045525f 	beql	v0,a1,15f38 <_init-0x5ffea0c8>
    15bc:	4e5f594c 	c3	0x5f594c
    15c0:	45525f4f 	0x45525f4f
    15c4:	00594c50 	0x594c50
    15c8:	534d0d00 	beql	k0,t5,49cc <_init-0x5fffb634>
    15cc:	45525f47 	0x45525f47
    15d0:	5f594c50 	0x5f594c50
    15d4:	43435553 	c0	0x1435553
    15d8:	00535345 	0x535345
    15dc:	534d0d01 	beql	k0,t5,49e4 <_init-0x5fffb61c>
    15e0:	45525f47 	0x45525f47
    15e4:	5f594c50 	0x5f594c50
    15e8:	4c494146 	0x4c494146
    15ec:	02004445 	0x2004445
    15f0:	47534d0d 	c1	0x1534d0d
    15f4:	5045525f 	beql	v0,a1,15f74 <_init-0x5ffea08c>
    15f8:	4d5f594c 	0x4d5f594c
    15fc:	49474e45 	0x49474e45
    1600:	475f454e 	c1	0x15f454e
    1604:	535f5445 	beql	k0,ra,1671c <_init-0x5ffe98e4>
    1608:	45544154 	0x45544154
    160c:	414c505f 	0x414c505f
    1610:	474e4959 	c1	0x14e4959
    1614:	4d0d0300 	lwxc1	$f12,t5(t0)
    1618:	525f4753 	beql	s2,ra,13368 <_init-0x5ffecc98>
    161c:	594c5045 	0x594c5045
    1620:	4e454d5f 	c3	0x454d5f
    1624:	454e4947 	0x454e4947
    1628:	5445475f 	bnel	v0,a1,133a8 <_init-0x5ffecc58>
    162c:	4154535f 	0x4154535f
    1630:	505f4554 	beql	v0,ra,12b84 <_init-0x5ffed47c>
    1634:	45535541 	0x45535541
    1638:	0d040044 	jal	4100110 <_init-0x5beffef0>
    163c:	5f47534d 	0x5f47534d
    1640:	4c504552 	0x4c504552
    1644:	454d5f59 	0x454d5f59
    1648:	4e49474e 	c3	0x49474e
    164c:	45475f45 	0x45475f45
    1650:	54535f54 	bnel	v0,s3,193a4 <_init-0x5ffe6c5c>
    1654:	5f455441 	0x5f455441
    1658:	504f5453 	beql	v0,t7,167a8 <_init-0x5ffe9858>
    165c:	05004445 	bltz	t0,12774 <_init-0x5ffed88c>
    1660:	736d0700 	0x736d0700
    1664:	65725f67 	0x65725f67
    1668:	5f796c70 	0x5f796c70
    166c:	65707974 	0x65707974
    1670:	0700655f 	bltz	t8,1abf0 <_init-0x5ffe5410>
    1674:	0015aced 	0x15aced
    1678:	16a01700 	bnez	s5,727c <_init-0x5fff8d84>
    167c:	04040000 	0x4040000
    1680:	7403fb07 	jalx	fec1c <_init-0x5ff013e4>
    1684:	00657079 	0x657079
    1688:	1661f807 	bne	s3,at,fffff6a8 <music_mutex_list+0x9fffb1f4>
    168c:	23020000 	addi	v0,t8,0
    1690:	00830400 	0x830400
    1694:	fa070000 	sdc2	$7,0(s0)
    1698:	000006c1 	0x6c1
    169c:	00042302 	srl	a0,a0,0xc
    16a0:	67736d07 	0x67736d07
    16a4:	7065725f 	udi15	v1,a1,t6,0x9
    16a8:	745f796c 	jalx	17de5b0 <_init-0x5e821a50>
    16ac:	79fb0700 	0x79fb0700
    16b0:	0c000016 	jal	58 <_init-0x5fffffa8>
    16b4:	000016e4 	0x16e4
    16b8:	0d290804 	jal	4a42010 <_init-0x5b5bdff0>
    16bc:	5f505041 	0x5f505041
    16c0:	54415453 	bnel	v0,at,16810 <_init-0x5ffe97f0>
    16c4:	4e495f45 	c3	0x495f45
    16c8:	49544341 	0x49544341
    16cc:	00004556 	0x4556
    16d0:	5050410d 	beql	v0,s0,11b08 <_init-0x5ffee4f8>
    16d4:	4154535f 	0x4154535f
    16d8:	415f4554 	0x415f4554
    16dc:	56495443 	bnel	s2,t1,167ec <_init-0x5ffe9814>
    16e0:	00010045 	0x10045
    16e4:	70706107 	0x70706107
    16e8:	6174735f 	0x6174735f
    16ec:	655f6574 	0x655f6574
    16f0:	b32c0800 	0xb32c0800
    16f4:	0c000016 	jal	58 <_init-0x5fffffa8>
    16f8:	00001722 	0x1722
    16fc:	0d340804 	jal	4d02010 <_init-0x5b2fdff0>
    1700:	5f505041 	0x5f505041
    1704:	45505954 	0x45505954
    1708:	4955475f 	0x4955475f
    170c:	410d0000 	mftc0	zero,c0_cause
    1710:	545f5050 	bnel	v0,ra,15854 <_init-0x5ffea7ac>
    1714:	5f455059 	0x5f455059
    1718:	534e4f43 	beql	k0,t6,15428 <_init-0x5ffeabd8>
    171c:	00454c4f 	0x454c4f
    1720:	61070001 	0x61070001
    1724:	745f7070 	jalx	17dc1c0 <_init-0x5e823e40>
    1728:	5f657079 	0x5f657079
    172c:	37080065 	ori	t0,t8,0x65
    1730:	000016f7 	0x16f7
    1734:	73797307 	0x73797307
    1738:	67736d5f 	0x67736d5f
    173c:	6f72705f 	0x6f72705f
    1740:	3d080063 	0x3d080063
    1744:	00001748 	0x1748
    1748:	174e040b 	bne	k0,t6,2778 <_init-0x5fffd888>
    174c:	5e180000 	0x5e180000
    1750:	01000017 	0x1000017
    1754:	0000023d 	0x23d
    1758:	00175e19 	0x175e19
    175c:	040b0000 	tltiu	zero,0
    1760:	0000159a 	0x159a
    1764:	00179e02 	srl	s3,s7,0x18
    1768:	48084800 	mfc2	t0,$9
    176c:	5f716d03 	0x5f716d03
    1770:	656d616e 	0x656d616e
    1774:	d2450800 	0xd2450800
    1778:	02000006 	srlv	zero,zero,s0
    177c:	6d030023 	0x6d030023
    1780:	73656471 	0x73656471
    1784:	3d460800 	0x3d460800
    1788:	02000002 	0x2000002
    178c:	70034023 	0x70034023
    1790:	00636f72 	tlt	v1,v1,0x1bd
    1794:	17344708 	bne	t9,s4,133b8 <_init-0x5ffecc48>
    1798:	23020000 	addi	v0,t8,0
    179c:	67070044 	0x67070044
    17a0:	61626f6c 	0x61626f6c
    17a4:	716d5f6c 	0x716d5f6c
    17a8:	7461645f 	jalx	185917c <_init-0x5e7a6e84>
    17ac:	00745f61 	0x745f61
    17b0:	17644808 	bne	k1,a0,137d4 <_init-0x5ffec82c>
    17b4:	41170000 	mftc0	zero,c0_debug
    17b8:	8c000019 	lw	zero,25(zero)
    17bc:	0370080a 	movz	at,k1,s0
    17c0:	00646970 	tge	v1,a0,0x1a5
    17c4:	025c5108 	0x25c5108
    17c8:	23020000 	addi	v0,t8,0
    17cc:	616e0300 	0x616e0300
    17d0:	0800656d 	j	195b4 <_init-0x5ffe6a4c>
    17d4:	00033953 	0x33953
    17d8:	04230200 	bgezl	at,1fdc <_init-0x5fffe024>
    17dc:	5f716d03 	0x5f716d03
    17e0:	656d616e 	0x656d616e
    17e4:	d2550800 	0xd2550800
    17e8:	02000006 	srlv	zero,zero,s0
    17ec:	6d032423 	0x6d032423
    17f0:	73656471 	0x73656471
    17f4:	e1570800 	sc	s7,2048(t2)
    17f8:	02000005 	0x2000005
    17fc:	74036423 	jalx	d908c <_init-0x5ff26f74>
    1800:	00657079 	0x657079
    1804:	17225908 	bne	t9,v0,17c28 <_init-0x5ffe83d8>
    1808:	23020000 	addi	v0,t8,0
    180c:	74730368 	jalx	1cc0da0 <_init-0x5e33f260>
    1810:	00657461 	0x657461
    1814:	16e45b08 	bne	s7,a0,18438 <_init-0x5ffe7bc8>
    1818:	23020000 	addi	v0,t8,0
    181c:	6f73036c 	0x6f73036c
    1820:	775f7466 	jalx	d7dd198 <_init-0x52822e68>
    1824:	68637461 	0x68637461
    1828:	5f676f64 	0x5f676f64
    182c:	656d6974 	0x656d6974
    1830:	5f74756f 	0x5f74756f
    1834:	69707865 	0x69707865
    1838:	00736572 	tlt	v1,s3,0x195
    183c:	02555d08 	0x2555d08
    1840:	23020000 	addi	v0,t8,0
    1844:	6f730370 	0x6f730370
    1848:	775f7466 	jalx	d7dd198 <_init-0x52822e68>
    184c:	68637461 	0x68637461
    1850:	5f676f64 	0x5f676f64
    1854:	62726f66 	0x62726f66
    1858:	65646469 	0x65646469
    185c:	5f08006e 	0x5f08006e
    1860:	00000223 	0x223
    1864:	03742302 	0x3742302
    1868:	65726373 	0x65726373
    186c:	61736e65 	0x61736e65
    1870:	5f726576 	0x5f726576
    1874:	62726f66 	0x62726f66
    1878:	65646469 	0x65646469
    187c:	6108006e 	0x6108006e
    1880:	00000223 	0x223
    1884:	03782302 	0x3782302
    1888:	6f747561 	0x6f747561
    188c:	6174735f 	0x6174735f
    1890:	7962646e 	0x7962646e
    1894:	726f665f 	udi15	s3,t7,t4,0x19
    1898:	64646962 	0x64646962
    189c:	08006e65 	j	1b994 <_init-0x5ffe466c>
    18a0:	00022363 	0x22363
    18a4:	7c230200 	ext	v1,at,0x8,0x1
    18a8:	6d697403 	0x6d697403
    18ac:	735f6465 	0x735f6465
    18b0:	64747568 	0x64747568
    18b4:	5f6e776f 	0x5f6e776f
    18b8:	62726f66 	0x62726f66
    18bc:	65646469 	0x65646469
    18c0:	6508006e 	0x6508006e
    18c4:	00000223 	0x223
    18c8:	01802303 	0x1802303
    18cc:	67736d03 	0x67736d03
    18d0:	6172675f 	0x6172675f
    18d4:	00646562 	0x646562
    18d8:	19416708 	0x19416708
    18dc:	23030000 	addi	v1,t8,0
    18e0:	74030184 	jalx	c0610 <_init-0x5ff3f9f0>
    18e4:	72656d69 	0x72656d69
    18e8:	6c61765f 	0x6c61765f
    18ec:	08006469 	j	191a4 <_init-0x5ffe6e5c>
    18f0:	00022369 	0x22369
    18f4:	84230300 	lh	v1,768(at)
    18f8:	736d0302 	0x736d0302
    18fc:	69665f67 	0x69665f67
    1900:	7265746c 	0x7265746c
    1904:	08006465 	j	19194 <_init-0x5ffe6e6c>
    1908:	0019416b 	0x19416b
    190c:	88230300 	lwl	v1,768(at)
    1910:	69660302 	0x69660302
    1914:	7265746c 	0x7265746c
    1918:	6c6c615f 	0x6c6c615f
    191c:	67736d5f 	0x67736d5f
    1920:	236d0800 	addi	t5,k1,2048
    1924:	03000002 	0x3000002
    1928:	03038823 	subu	s1,t8,v1
    192c:	626f6c67 	0x626f6c67
    1930:	6d5f6c61 	0x6d5f6c61
    1934:	6f080071 	0x6f080071
    1938:	00001951 	0x1951
    193c:	038c2303 	0x38c2303
    1940:	19510800 	0x19510800
    1944:	023d0000 	0x23d0000
    1948:	c6090000 	lwc1	$f9,0(s0)
    194c:	1f000001 	bgtz	t8,1954 <_init-0x5fffe6ac>
    1950:	19610800 	0x19610800
    1954:	179e0000 	bne	gp,s8,1958 <_init-0x5fffe6a8>
    1958:	c6090000 	lwc1	$f9,0(s0)
    195c:	1f000001 	bgtz	t8,1964 <_init-0x5fffe69c>
    1960:	70610700 	0x70610700
    1964:	6e695f70 	0x6e695f70
    1968:	745f6f66 	jalx	17dbd98 <_init-0x5e824268>
    196c:	b6700800 	0xb6700800
    1970:	1a000017 	blez	s0,19d0 <_init-0x5fffe630>
    1974:	000019a2 	0x19a2
    1978:	00000012 	mflo	zero
    197c:	03770808 	0x3770808
    1980:	5f707061 	0x5f707061
    1984:	6f666e69 	0x6f666e69
    1988:	a2780800 	sb	t8,2048(s3)
    198c:	02000019 	multu	s0,zero
    1990:	6e030023 	0x6e030023
    1994:	00747865 	0x747865
    1998:	19ad7908 	0x19ad7908
    199c:	23020000 	addi	v0,t8,0
    19a0:	040b0004 	tltiu	zero,4
    19a4:	000019a8 	0x19a8
    19a8:	00196112 	0x196112
    19ac:	73040b00 	0x73040b00
    19b0:	07000019 	bltz	t8,1a18 <_init-0x5fffe5e8>
    19b4:	5f707061 	0x5f707061
    19b8:	6e6e7572 	0x6e6e7572
    19bc:	5f676e69 	0x5f676e69
    19c0:	7473696c 	jalx	1cda5b0 <_init-0x5e325a50>
    19c4:	0800745f 	j	1d17c <_init-0x5ffe2e84>
    19c8:	0019737a 	0x19737a
    19cc:	19f51100 	0x19f51100
    19d0:	70610000 	madd	v1,at
    19d4:	61765f70 	0x61765f70
    19d8:	00735f72 	tlt	v1,s3,0x17d
    19dc:	03100104 	0x3100104
    19e0:	6c707061 	0x6c707061
    19e4:	6c5f6269 	0x6c5f6269
    19e8:	01006269 	0x1006269
    19ec:	0000e511 	0xe511
    19f0:	00230200 	0x230200
    19f4:	70610700 	0x70610700
    19f8:	61765f70 	0x61765f70
    19fc:	00745f72 	tlt	v1,s4,0x17d
    1a00:	19cd1201 	0x19cd1201
    1a04:	651b0000 	0x651b0000
    1a08:	7100001a 	udi10	t0,zero,zero,0x0
    1a0c:	5f746975 	0x5f746975
    1a10:	5f707061 	0x5f707061
    1a14:	6f666e69 	0x6f666e69
    1a18:	0800745f 	j	1d17c <_init-0x5ffe2e84>
    1a1c:	03180104 	0x3180104
    1a20:	74697571 	jalx	1a5d5c4 <_init-0x5e5a2a3c>
    1a24:	6d65735f 	0x6d65735f
    1a28:	b4190100 	0xb4190100
    1a2c:	02000006 	srlv	zero,zero,s0
    1a30:	71030023 	0x71030023
    1a34:	5f746975 	0x5f746975
    1a38:	5f707061 	0x5f707061
    1a3c:	656d616e 	0x656d616e
    1a40:	c11a0100 	ll	k0,256(t0)
    1a44:	02000006 	srlv	zero,zero,s0
    1a48:	6e030423 	0x6e030423
    1a4c:	6669746f 	0x6669746f
    1a50:	6e695f79 	0x6e695f79
    1a54:	656b6f76 	0x656b6f76
    1a58:	1b010072 	0x1b010072
    1a5c:	00000223 	0x223
    1a60:	08842303 	j	2108c0c <_init-0x5def73f4>
    1a64:	1ac01100 	blez	s6,5e68 <_init-0x5fffa198>
    1a68:	6e690000 	0x6e690000
    1a6c:	656b6f76 	0x656b6f76
    1a70:	73696c5f 	udi15	k1,t1,t5,0x11
    1a74:	00745f74 	teq	v1,s4,0x17d
    1a78:	03240114 	0x3240114
    1a7c:	7473696c 	jalx	1cda5b0 <_init-0x5e325a50>
    1a80:	e1250100 	sc	a1,256(t1)
    1a84:	02000002 	0x2000002
    1a88:	69030023 	0x69030023
    1a8c:	6b6f766e 	0x6b6f766e
    1a90:	01007265 	0x1007265
    1a94:	00032326 	0x32326
    1a98:	08230200 	j	8c0800 <_init-0x5f73f800>
    1a9c:	766e6903 	jalx	9b9a40c <_init-0x56465bf4>
    1aa0:	65656b6f 	0x65656b6f
    1aa4:	23270100 	addi	a3,t9,256
    1aa8:	02000003 	0x2000003
    1aac:	72030c23 	0x72030c23
    1ab0:	6d757365 	0x6d757365
    1ab4:	28010065 	slti	at,zero,101
    1ab8:	00000223 	0x223
    1abc:	00102302 	srl	a0,s0,0xc
    1ac0:	001af311 	0x1af311
    1ac4:	74756d00 	jalx	1d5b400 <_init-0x5e2a4c00>
    1ac8:	6c5f7865 	0x6c5f7865
    1acc:	5f747369 	0x5f747369
    1ad0:	010c0074 	teq	t0,t4,0x1
    1ad4:	696c0330 	0x696c0330
    1ad8:	01007473 	tltu	t0,zero,0x1d1
    1adc:	0002e131 	tgeu	zero,v0,0x384
    1ae0:	00230200 	0x230200
    1ae4:	00002e04 	0x2e04
    1ae8:	23320100 	addi	s2,t9,256
    1aec:	02000003 	0x2000003
    1af0:	11000823 	beqz	t0,3b80 <_init-0x5fffc480>
    1af4:	00001b24 	0x1b24
    1af8:	5f707061 	0x5f707061
    1afc:	7473696c 	jalx	1cda5b0 <_init-0x5e325a50>
    1b00:	0c00745f 	jal	1d17c <_init-0x5ffe2e84>
    1b04:	6c033901 	0x6c033901
    1b08:	00747369 	0x747369
    1b0c:	02e13a01 	0x2e13a01
    1b10:	23020000 	addi	v0,t8,0
    1b14:	002e0400 	0x2e0400
    1b18:	3b010000 	xori	at,t8,0x0
    1b1c:	00000323 	0x323
    1b20:	00082302 	srl	a0,t0,0xc
    1b24:	001b6811 	0x1b6811
    1b28:	70706100 	0x70706100
    1b2c:	7461705f 	jalx	185c17c <_init-0x5e7a3e84>
    1b30:	6e695f68 	0x6e695f68
    1b34:	745f6f66 	jalx	17dbd98 <_init-0x5e824268>
    1b38:	45011000 	bc1t	5b3c <_init-0x5fffa4c4>
    1b3c:	73696c03 	0x73696c03
    1b40:	46010074 	c1	0x10074
    1b44:	000002e1 	0x2e1
    1b48:	04002302 	bltz	zero,a754 <_init-0x5fff58ac>
    1b4c:	0000002e 	0x2e
    1b50:	03234701 	0x3234701
    1b54:	23020000 	addi	v0,t8,0
    1b58:	00970408 	0x970408
    1b5c:	48010000 	mfc2	at,$0
    1b60:	00000323 	0x323
    1b64:	000c2302 	srl	a0,t4,0xc
    1b68:	6e695f1c 	0x6e695f1c
    1b6c:	01007469 	0x1007469
    1b70:	022301c7 	0x22301c7
    1b74:	00200000 	0x200000
    1b78:	00946000 	0x946000
    1b7c:	6e016000 	0x6e016000
    1b80:	65645f1d 	0x65645f1d
    1b84:	74696e69 	jalx	1a5b9a4 <_init-0x5e5a465c>
    1b88:	01d20100 	0x1d20100
    1b8c:	60000094 	0x60000094
    1b90:	600000e4 	0x600000e4
    1b94:	e01e6e01 	sc	s8,28161(zero)
    1b98:	5f00001b 	bgtzl	t8,1c08 <_init-0x5fffe3f8>
    1b9c:	6c616373 	0x6c616373
    1ba0:	5f707565 	0x5f707565
    1ba4:	665f6d70 	0x665f6d70
    1ba8:	00716572 	tlt	v1,s1,0x195
    1bac:	e401db01 	swc1	$f1,-9471(zero)
    1bb0:	18600000 	blez	v1,1bb4 <_init-0x5fffe44c>
    1bb4:	01600002 	0x1600002
    1bb8:	005f1f6e 	0x5f1f6e
    1bbc:	1bf00000 	0x1bf00000
    1bc0:	05010000 	bgez	t0,1bc4 <_init-0x5fffe43c>
    1bc4:	00356c03 	0x356c03
    1bc8:	010c2060 	0x10c2060
    1bcc:	01e06000 	0x1e06000
    1bd0:	62216000 	0x62216000
    1bd4:	23de0100 	addi	s8,s8,256
    1bd8:	02000002 	0x2000002
    1bdc:	00001891 	0x1891
    1be0:	001bf008 	0x1bf008
    1be4:	00031e00 	sll	v1,v1,0x18
    1be8:	01c60900 	0x1c60900
    1bec:	00100000 	sll	zero,s0,0x0
    1bf0:	001be012 	0x1be012
    1bf4:	735f1d00 	0x735f1d00
    1bf8:	656c6163 	0x656c6163
    1bfc:	6e776f64 	0x6e776f64
    1c00:	5f6d705f 	0x5f6d705f
    1c04:	71657266 	0x71657266
    1c08:	01f10100 	0x1f10100
    1c0c:	60000218 	0x60000218
    1c10:	60000280 	0x60000280
    1c14:	491e6e01 	bc2fl	$cc7,1d41c <_init-0x5ffe2be4>
    1c18:	5f00001c 	bgtzl	t8,1c8c <_init-0x5fffe374>
    1c1c:	72617473 	0x72617473
    1c20:	61775f74 	0x61775f74
    1c24:	64686374 	0x64686374
    1c28:	0100676f 	0x100676f
    1c2c:	028001fb 	0x28001fb
    1c30:	03946000 	0x3946000
    1c34:	6e016000 	0x6e016000
    1c38:	00005f1f 	0x5f1f
    1c3c:	001c5900 	sll	t3,gp,0x4
    1c40:	03050100 	0x3050100
    1c44:	60003618 	0x60003618
    1c48:	1c590800 	0x1c590800
    1c4c:	031e0000 	0x31e0000
    1c50:	c6090000 	lwc1	$f9,0(s0)
    1c54:	0f000001 	jal	c000004 <_init-0x53fffffc>
    1c58:	1c491200 	0x1c491200
    1c5c:	5f220000 	0x5f220000
    1c60:	706f7473 	0x706f7473
    1c64:	7461775f 	jalx	185dd7c <_init-0x5e7a2284>
    1c68:	6f646863 	0x6f646863
    1c6c:	0d010067 	jal	404019c <_init-0x5bfbfe64>
    1c70:	03940101 	0x3940101
    1c74:	04186000 	0x4186000
    1c78:	6e016000 	0x6e016000
    1c7c:	001cba23 	0x1cba23
    1c80:	68635f00 	0x68635f00
    1c84:	5f6b6365 	0x5f6b6365
    1c88:	5f707061 	0x5f707061
    1c8c:	74666f73 	jalx	199bdcc <_init-0x5e664234>
    1c90:	63746177 	0x63746177
    1c94:	676f6468 	0x676f6468
    1c98:	1d010073 	0x1d010073
    1c9c:	04180101 	0x4180101
    1ca0:	04686000 	tgei	v1,24576
    1ca4:	6e016000 	0x6e016000
    1ca8:	72617024 	0x72617024
    1cac:	01006d61 	0x1006d61
    1cb0:	00e5011c 	0xe5011c
    1cb4:	91020000 	lbu	v0,0(t0)
    1cb8:	34230018 	ori	v1,at,0x18
    1cbc:	5f00001d 	bgtzl	t8,1d34 <_init-0x5fffe2cc>
    1cc0:	616e616d 	0x616e616d
    1cc4:	5f726567 	0x5f726567
    1cc8:	61657263 	0x61657263
    1ccc:	736d5f74 	0x736d5f74
    1cd0:	68745f67 	0x68745f67
    1cd4:	64616572 	0x64616572
    1cd8:	01230100 	0x1230100
    1cdc:	00046801 	movf	t5,zero,$fcc1
    1ce0:	00057860 	0x57860
    1ce4:	256e0160 	addiu	t6,t3,352
    1ce8:	00646974 	teq	v1,a0,0x1a5
    1cec:	cf012401 	pref	0x1,9217(t8)
    1cf0:	02000005 	0x2000005
    1cf4:	3e261891 	0x3e261891
    1cf8:	01000000 	0x1000000
    1cfc:	05510125 	bgezal	t2,2194 <_init-0x5fffde6c>
    1d00:	91020000 	lbu	v0,0(t0)
    1d04:	616d2520 	0x616d2520
    1d08:	6567616e 	0x6567616e
    1d0c:	736d5f72 	0x736d5f72
    1d10:	61705f67 	0x61705f67
    1d14:	006d6172 	tlt	v1,t5,0x185
    1d18:	49012601 	bc2t	b520 <_init-0x5fff4ae0>
    1d1c:	03000003 	0x3000003
    1d20:	1f00c891 	bgtz	t8,ffff3f68 <music_mutex_list+0x9ffefab4>
    1d24:	0000005f 	0x5f
    1d28:	00001d44 	0x1d44
    1d2c:	74030501 	jalx	c1404 <_init-0x5ff3ebfc>
    1d30:	00600036 	tne	v1,zero
    1d34:	001d4408 	0x1d4408
    1d38:	00031e00 	sll	v1,v1,0x18
    1d3c:	01c60900 	0x1c60900
    1d40:	00190000 	sll	zero,t9,0x0
    1d44:	001d3412 	0x1d3412
    1d48:	1d932700 	0x1d932700
    1d4c:	6d5f0000 	0x6d5f0000
    1d50:	67616e61 	0x67616e61
    1d54:	6d5f7265 	0x6d5f7265
    1d58:	6c5f6773 	0x6c5f6773
    1d5c:	00706f6f 	0x706f6f
    1d60:	01013a01 	0x1013a01
    1d64:	000000e5 	0xe5
    1d68:	60000578 	0x60000578
    1d6c:	600006a0 	0x600006a0
    1d70:	64246e01 	0x64246e01
    1d74:	00617461 	0x617461
    1d78:	e5013901 	swc1	$f1,14593(t0)
    1d7c:	03000000 	0x3000000
    1d80:	2508a091 	addiu	t0,t0,-24431
    1d84:	0067736d 	0x67736d
    1d88:	9a013b01 	lwr	at,15105(s0)
    1d8c:	02000015 	0x2000015
    1d90:	23001091 	addi	zero,t8,4241
    1d94:	00001e0f 	0x1e0f
    1d98:	6e616d5f 	0x6e616d5f
    1d9c:	72656761 	0x72656761
    1da0:	6572635f 	0x6572635f
    1da4:	775f7461 	jalx	d7dd184 <_init-0x52822e7c>
    1da8:	5f746961 	0x5f746961
    1dac:	65726874 	0x65726874
    1db0:	01006461 	0x1006461
    1db4:	a0010154 	sb	at,340(zero)
    1db8:	ac600006 	sw	zero,6(v1)
    1dbc:	01600007 	srav	zero,zero,t3
    1dc0:	6974256e 	0x6974256e
    1dc4:	56010064 	bnel	s0,at,1f58 <_init-0x5fffe0a8>
    1dc8:	0005cf01 	0x5cf01
    1dcc:	18910200 	0x18910200
    1dd0:	00003e26 	0x3e26
    1dd4:	01570100 	0x1570100
    1dd8:	00000551 	0x551
    1ddc:	25209102 	addiu	zero,t1,-28414
    1de0:	616e616d 	0x616e616d
    1de4:	5f726567 	0x5f726567
    1de8:	74696177 	jalx	1a585dc <_init-0x5e5a7a24>
    1dec:	7261705f 	udi15	s3,at,t6,0x1
    1df0:	01006d61 	0x1006d61
    1df4:	03490158 	0x3490158
    1df8:	91030000 	lbu	v1,0(t0)
    1dfc:	5f1f00c8 	0x5f1f00c8
    1e00:	1f000000 	bgtz	t8,1e04 <_init-0x5fffe1fc>
    1e04:	0100001e 	0x100001e
    1e08:	370c0305 	ori	t4,t8,0x305
    1e0c:	08006000 	j	18000 <_init-0x5ffe8000>
    1e10:	00001e1f 	0x1e1f
    1e14:	0000031e 	0x31e
    1e18:	0001c609 	0x1c609
    1e1c:	12001a00 	beqz	s0,8620 <_init-0x5fff79e0>
    1e20:	00001e0f 	0x1e0f
    1e24:	001ecd27 	0x1ecd27
    1e28:	616d5f00 	0x616d5f00
    1e2c:	6567616e 	0x6567616e
    1e30:	61775f72 	0x61775f72
    1e34:	6c5f7469 	0x6c5f7469
    1e38:	00706f6f 	0x706f6f
    1e3c:	01016c01 	0x1016c01
    1e40:	000000e5 	0xe5
    1e44:	600007ac 	0x600007ac
    1e48:	60000924 	0x60000924
    1e4c:	64246e01 	0x64246e01
    1e50:	00617461 	0x617461
    1e54:	e5016b01 	swc1	$f1,27393(t0)
    1e58:	02000000 	0x2000000
    1e5c:	61253091 	0x61253091
    1e60:	01006772 	tlt	t0,zero,0x19d
    1e64:	1ecd016d 	0x1ecd016d
    1e68:	91020000 	lbu	v0,0(t0)
    1e6c:	65642518 	0x65642518
    1e70:	6c756166 	0x6c756166
    1e74:	61705f74 	0x61705f74
    1e78:	01006874 	teq	t0,zero,0x1a1
    1e7c:	0323016f 	0x323016f
    1e80:	91020000 	lbu	v0,0(t0)
    1e84:	005f1f1c 	0x5f1f1c
    1e88:	1eed0000 	0x1eed0000
    1e8c:	05010000 	bgez	t0,1e90 <_init-0x5fffe170>
    1e90:	00377003 	0x377003
    1e94:	08182060 	j	608180 <_init-0x5f9f7e80>
    1e98:	091c6000 	j	4718000 <_init-0x5b8e8000>
    1e9c:	65256000 	0x65256000
    1ea0:	5f746978 	0x5f746978
    1ea4:	00646970 	tge	v1,a0,0x1a5
    1ea8:	5c017a01 	0x5c017a01
    1eac:	02000002 	0x2000002
    1eb0:	48202091 	0x48202091
    1eb4:	b8600008 	swr	zero,8(v1)
    1eb8:	26600008 	addiu	zero,s3,8
    1ebc:	00000051 	0x51
    1ec0:	18017f01 	0x18017f01
    1ec4:	02000003 	0x2000003
    1ec8:	00002491 	0x2491
    1ecc:	1edd0800 	0x1edd0800
    1ed0:	03180000 	0x3180000
    1ed4:	c6090000 	lwc1	$f9,0(s0)
    1ed8:	00000001 	movf	zero,zero,$fcc0
    1edc:	1eed0800 	0x1eed0800
    1ee0:	031e0000 	0x31e0000
    1ee4:	c6090000 	lwc1	$f9,0(s0)
    1ee8:	12000001 	beqz	s0,1ef0 <_init-0x5fffe110>
    1eec:	1edd1200 	0x1edd1200
    1ef0:	c4230000 	lwc1	$f3,0(at)
    1ef4:	5f00001f 	bgtzl	t8,1f74 <_init-0x5fffe08c>
    1ef8:	616e616d 	0x616e616d
    1efc:	5f726567 	0x5f726567
    1f00:	6c696863 	0x6c696863
    1f04:	78655f64 	0x78655f64
    1f08:	635f7469 	0x635f7469
    1f0c:	96010062 	lhu	at,98(s0)
    1f10:	09240101 	j	4900404 <_init-0x5b6ffbfc>
    1f14:	0c786000 	jal	1e18000 <_init-0x5e1e8000>
    1f18:	6e016000 	0x6e016000
    1f1c:	00005128 	0x5128
    1f20:	01950100 	0x1950100
    1f24:	00000318 	0x318
    1f28:	00d09103 	0xd09103
    1f2c:	706d7425 	0x706d7425
    1f30:	01970100 	0x1970100
    1f34:	00001fc4 	0x1fc4
    1f38:	25209102 	addiu	zero,t1,-28414
    1f3c:	00736f70 	tge	v1,s3,0x1bd
    1f40:	12019801 	beq	s0,at,fffe7f48 <music_mutex_list+0x9ffe3a94>
    1f44:	02000003 	0x2000003
    1f48:	71252491 	udi1	t1,a1,a0,0x12
    1f4c:	01980100 	0x1980100
    1f50:	00000312 	0x312
    1f54:	25289102 	addiu	t0,t1,-28414
    1f58:	6f6e5f62 	0x6f6e5f62
    1f5c:	79666974 	0x79666974
    1f60:	766e695f 	jalx	9b9a57c <_init-0x56465a84>
    1f64:	72656b6f 	0x72656b6f
    1f68:	019a0100 	0x19a0100
    1f6c:	00000223 	0x223
    1f70:	262c9102 	addiu	t4,s1,-28414
    1f74:	0000001b 	divu	zero,zero,zero
    1f78:	23019c01 	addi	at,t8,-25599
    1f7c:	02000002 	0x2000002
    1f80:	63253091 	0x63253091
    1f84:	715f706d 	0x715f706d
    1f88:	5f746975 	0x5f746975
    1f8c:	00707061 	0x707061
    1f90:	3d019e01 	0x3d019e01
    1f94:	02000002 	0x2000002
    1f98:	5f1f3491 	0x5f1f3491
    1f9c:	da000000 	ldc2	$0,0(s0)
    1fa0:	0100001f 	0x100001f
    1fa4:	38600305 	xori	zero,v1,0x305
    1fa8:	3c206000 	0x3c206000
    1fac:	4460000a 	0x4460000a
    1fb0:	2660000a 	addiu	zero,s3,10
    1fb4:	00000037 	0x37
    1fb8:	df01b401 	ldc3	$1,-19455(t8)
    1fbc:	0200001f 	0x200001f
    1fc0:	00003891 	0x3891
    1fc4:	1a65040b 	0x1a65040b
    1fc8:	da080000 	ldc2	$8,0(s0)
    1fcc:	1e00001f 	bgtz	s0,204c <_init-0x5fffdfb4>
    1fd0:	09000003 	j	400000c <_init-0x5bfffff4>
    1fd4:	000001c6 	0x1c6
    1fd8:	ca120016 	lwc2	$18,22(s0)
    1fdc:	0b00001f 	j	c00007c <_init-0x53ffff84>
    1fe0:	001fe504 	0x1fe504
    1fe4:	02e11200 	0x2e11200
    1fe8:	161e0000 	bne	s0,s8,1fec <_init-0x5fffe014>
    1fec:	6c000020 	0x6c000020
    1ff0:	5f747369 	0x5f747369
    1ff4:	006c6564 	0x6c6564
    1ff8:	78017302 	0x78017302
    1ffc:	dc60000c 	ldc3	$0,12(v1)
    2000:	0160000c 	syscall	0x58000
    2004:	6e65296e 	0x6e65296e
    2008:	00797274 	teq	v1,t9,0x1c9
    200c:	03127202 	0x3127202
    2010:	91020000 	lbu	v0,0(t0)
    2014:	521e0018 	beql	s0,s8,2078 <_init-0x5fffdf88>
    2018:	5f000020 	bgtzl	t8,209c <_init-0x5fffdf64>
    201c:	73696c5f 	udi15	k1,t1,t5,0x11
    2020:	65645f74 	0x65645f74
    2024:	6702006c 	0x6702006c
    2028:	000cdc01 	0xcdc01
    202c:	000d1c60 	0xd1c60
    2030:	296e0160 	slti	t6,t3,352
    2034:	76657270 	jalx	995c9c0 <_init-0x566a3640>
    2038:	12660200 	beq	s3,a2,283c <_init-0x5fffd7c4>
    203c:	02000003 	0x2000003
    2040:	6e290891 	0x6e290891
    2044:	00747865 	0x747865
    2048:	03126602 	0x3126602
    204c:	91020000 	lbu	v0,0(t0)
    2050:	e327000c 	sc	a3,12(t9)
    2054:	5f000020 	bgtzl	t8,20d8 <_init-0x5fffdf28>
    2058:	69746f6e 	0x69746f6e
    205c:	695f7966 	0x695f7966
    2060:	6b6f766e 	0x6b6f766e
    2064:	01007265 	0x1007265
    2068:	230101e6 	addi	at,t8,486
    206c:	1c000002 	bgtz	zero,2078 <_init-0x5fffdf88>
    2070:	d860000d 	ldc2	$0,13(v1)
    2074:	0160000e 	0x160000e
    2078:	6d74246e 	0x6d74246e
    207c:	e5010070 	swc1	$f1,112(t0)
    2080:	001fc401 	0x1fc401
    2084:	b0910300 	0xb0910300
    2088:	00512808 	0x512808
    208c:	e5010000 	swc1	$f1,0(t0)
    2090:	00031801 	0x31801
    2094:	b4910300 	0xb4910300
    2098:	736d2508 	0x736d2508
    209c:	e7010067 	swc1	$f1,103(t8)
    20a0:	00159a01 	0x159a01
    20a4:	10910200 	beq	a0,s1,28a8 <_init-0x5fffd758>
    20a8:	00001b26 	0x1b26
    20ac:	01e90100 	0x1e90100
    20b0:	00000223 	0x223
    20b4:	08989103 	j	262440c <_init-0x5d9dbbf4>
    20b8:	00006826 	xor	t5,zero,zero
    20bc:	01eb0100 	0x1eb0100
    20c0:	00000223 	0x223
    20c4:	089c9103 	j	272440c <_init-0x5d8dbbf4>
    20c8:	000e1820 	add	v1,zero,t6
    20cc:	000ebc60 	0xebc60
    20d0:	00972660 	0x972660
    20d4:	fd010000 	sdc3	$1,0(t0)
    20d8:	00032301 	0x32301
    20dc:	a0910300 	sb	s1,768(a0)
    20e0:	27000008 	addiu	zero,t8,8
    20e4:	00002156 	0x2156
    20e8:	746f6e5f 	jalx	1bdb97c <_init-0x5e424684>
    20ec:	5f796669 	0x5f796669
    20f0:	6e75616c 	0x6e75616c
    20f4:	72656863 	0x72656863
    20f8:	020f0100 	0x20f0100
    20fc:	00022301 	0x22301
    2100:	000ed800 	sll	k1,t6,0x0
    2104:	000fd060 	0xfd060
    2108:	286e0160 	slti	t6,v1,352
    210c:	00000051 	0x51
    2110:	18020e01 	0x18020e01
    2114:	03000003 	0x3000003
    2118:	2508b091 	addiu	t0,t0,-20335
    211c:	0067736d 	0x67736d
    2120:	9a021001 	lwr	v0,4097(s0)
    2124:	02000015 	0x2000015
    2128:	6c251891 	0x6c251891
    212c:	636e7561 	0x636e7561
    2130:	5f726568 	0x5f726568
    2134:	73697865 	0x73697865
    2138:	12010074 	beq	s0,at,230c <_init-0x5fffdcf4>
    213c:	00022302 	srl	a0,v0,0xc
    2140:	a0910300 	sb	s1,768(a0)
    2144:	005f1f08 	0x5f1f08
    2148:	21560000 	addi	s6,t2,0
    214c:	05010000 	bgez	t0,2150 <_init-0x5fffdeb0>
    2150:	0039ac03 	0x39ac03
    2154:	e0120060 	sc	s2,96(zero)
    2158:	2700001b 	addiu	zero,t8,27
    215c:	00002319 	0x2319
    2160:	67736d5f 	0x67736d5f
    2164:	6f6f6c5f 	0x6f6f6c5f
    2168:	62635f70 	0x62635f70
    216c:	02230100 	0x2230100
    2170:	00023d01 	0x23d01
    2174:	000fd000 	sll	k0,t7,0x0
    2178:	00156460 	0x156460
    217c:	246e0160 	addiu	t6,v1,352
    2180:	0067736d 	0x67736d
    2184:	5e022201 	0x5e022201
    2188:	03000017 	0x3000017
    218c:	2630e891 	addiu	s0,s1,-5999
    2190:	00000068 	0x68
    2194:	23022501 	addi	v0,t8,9473
    2198:	02000002 	0x2000002
    219c:	5f1f1891 	0x5f1f1891
    21a0:	29000000 	slti	zero,t0,0
    21a4:	01000023 	subu	zero,t0,zero
    21a8:	39dc0305 	xori	gp,t6,0x305
    21ac:	e12a6000 	sc	t2,24576(t1)
    21b0:	dc000021 	ldc3	$0,33(zero)
    21b4:	48600010 	mfhc2	zero,0x10
    21b8:	25600011 	addiu	zero,t3,17
    21bc:	6c706572 	0x6c706572
    21c0:	01003279 	0x1003279
    21c4:	16a00234 	bnez	s5,2a98 <_init-0x5fffd568>
    21c8:	91020000 	lbu	v0,0(t0)
    21cc:	65722520 	0x65722520
    21d0:	746c7573 	jalx	1b1d5cc <_init-0x5e4e2a34>
    21d4:	02350100 	0x2350100
    21d8:	00000223 	0x223
    21dc:	08a89103 	j	2a2440c <_init-0x5d5dbbf4>
    21e0:	220d2a00 	addi	t5,s0,10752
    21e4:	11840000 	beq	t4,a0,21e8 <_init-0x5fffde18>
    21e8:	122c6000 	beq	s1,t4,1a1ec <_init-0x5ffe5e14>
    21ec:	6d256000 	0x6d256000
    21f0:	02480100 	0x2480100
    21f4:	0000159a 	0x159a
    21f8:	08b09103 	j	2c2440c <_init-0x5d3dbbf4>
    21fc:	00004b26 	0x4b26
    2200:	02490100 	0x2490100
    2204:	000016a0 	0x16a0
    2208:	10b89103 	beq	a1,t8,fffe6618 <music_mutex_list+0x9ffe2164>
    220c:	222b2a00 	addi	t3,s1,10752
    2210:	12340000 	beq	s1,s4,2214 <_init-0x5fffddec>
    2214:	124c6000 	beq	s2,t4,1a218 <_init-0x5ffe5de8>
    2218:	4b266000 	c2	0x1266000
    221c:	01000000 	0x1000000
    2220:	16a00258 	bnez	s5,2b84 <_init-0x5fffd47c>
    2224:	91030000 	lbu	v1,0(t0)
    2228:	2a0018c0 	slti	zero,s0,6336
    222c:	00002247 	0x2247
    2230:	60001288 	0x60001288
    2234:	600012c8 	0x600012c8
    2238:	01006d25 	0x1006d25
    223c:	159a0264 	bne	t4,k0,2bd0 <_init-0x5fffd430>
    2240:	91030000 	lbu	v1,0(t0)
    2244:	2a0008b0 	slti	zero,s0,2224
    2248:	00002275 	0x2275
    224c:	600012f4 	0x600012f4
    2250:	60001330 	0x60001330
    2254:	00004b26 	0x4b26
    2258:	027e0100 	0x27e0100
    225c:	000016a0 	0x16a0
    2260:	08b09103 	j	2c2440c <_init-0x5d3dbbf4>
    2264:	00008b26 	0x8b26
    2268:	027f0100 	0x27f0100
    226c:	00000318 	0x318
    2270:	08a89103 	j	2a2440c <_init-0x5d5dbbf4>
    2274:	22a32a00 	addi	v1,s5,10752
    2278:	13940000 	beq	gp,s4,227c <_init-0x5fffdd84>
    227c:	13e06000 	beqz	ra,1a280 <_init-0x5ffe5d80>
    2280:	4b266000 	c2	0x1266000
    2284:	01000000 	0x1000000
    2288:	16a00292 	bnez	s5,2cd4 <_init-0x5fffd32c>
    228c:	91030000 	lbu	v1,0(t0)
    2290:	8b2610b8 	lwl	a2,4280(t9)
    2294:	01000000 	0x1000000
    2298:	03180293 	0x3180293
    229c:	91030000 	lbu	v1,0(t0)
    22a0:	2a0008a8 	slti	zero,s0,2216
    22a4:	000022e0 	0x22e0
    22a8:	600013e8 	0x600013e8
    22ac:	600014d4 	0x600014d4
    22b0:	01006d25 	0x1006d25
    22b4:	159a029e 	bne	t4,k0,2d30 <_init-0x5fffd2d0>
    22b8:	91030000 	lbu	v1,0(t0)
    22bc:	6e2520c8 	0x6e2520c8
    22c0:	00656d61 	0x656d61
    22c4:	18029f01 	0x18029f01
    22c8:	03000003 	0x3000003
    22cc:	2608a891 	addiu	t0,s0,-22383
    22d0:	0000008b 	0x8b
    22d4:	2e02a001 	sltiu	v0,s0,-24575
    22d8:	03000023 	subu	zero,t8,zero
    22dc:	0018c091 	0x18c091
    22e0:	0022fe2a 	0x22fe2a
    22e4:	00150000 	sll	zero,s5,0x0
    22e8:	00152060 	0x152060
    22ec:	004b2660 	0x4b2660
    22f0:	c0010000 	ll	at,0(zero)
    22f4:	0016a002 	srl	s4,s6,0x0
    22f8:	c0910300 	ll	s1,768(a0)
    22fc:	28200019 	slti	zero,at,25
    2300:	48600015 	mfhc2	zero,0x15
    2304:	26600015 	addiu	zero,s3,21
    2308:	0000004b 	0x4b
    230c:	a002c901 	sb	v0,-14079(zero)
    2310:	03000016 	0x3000016
    2314:	0028d091 	0x28d091
    2318:	23290800 	addi	t1,t9,2048
    231c:	031e0000 	0x31e0000
    2320:	c6090000 	lwc1	$f9,0(s0)
    2324:	0c000001 	jal	4 <_init-0x5ffffffc>
    2328:	23191200 	addi	t9,t8,4608
    232c:	3e080000 	0x3e080000
    2330:	75000023 	jalx	400008c <_init-0x5bffff74>
    2334:	09000002 	j	4000008 <_init-0x5bfffff8>
    2338:	000001c6 	0x1c6
    233c:	2627007f 	addiu	a3,s1,127
    2340:	5f000024 	bgtzl	t8,23d4 <_init-0x5fffdc2c>
    2344:	63657865 	0x63657865
    2348:	7070615f 	udi15	v1,s0,t4,0x5
    234c:	02d70100 	0x2d70100
    2350:	00022301 	0x22301
    2354:	00156400 	sll	t4,s5,0x10
    2358:	0017e460 	0x17e460
    235c:	286e0160 	slti	t6,v1,352
    2360:	00000083 	sra	zero,zero,0x2
    2364:	2302d601 	addi	v0,t8,-10751
    2368:	03000003 	0x3000003
    236c:	2815d891 	slti	s5,zero,-10095
    2370:	0000008b 	0x8b
    2374:	1802d601 	0x1802d601
    2378:	03000003 	0x3000003
    237c:	2415dc91 	li	s5,-9071
    2380:	75736572 	jalx	5cd95c8 <_init-0x5a326a38>
    2384:	0100656d 	0x100656d
    2388:	022302d6 	0x22302d6
    238c:	91030000 	lbu	v1,0(t0)
    2390:	722515e0 	0x722515e0
    2394:	6c757365 	0x6c757365
    2398:	d8010074 	ldc2	$1,116(zero)
    239c:	00022302 	srl	a0,v0,0xc
    23a0:	20910200 	addi	s1,a0,512
    23a4:	70706125 	0x70706125
    23a8:	6765725f 	0x6765725f
    23ac:	65747369 	0x65747369
    23b0:	75735f72 	jalx	5cd7dc8 <_init-0x5a328238>
    23b4:	73656363 	0x73656363
    23b8:	da010073 	ldc2	$1,115(s0)
    23bc:	00022302 	srl	a0,v0,0xc
    23c0:	24910200 	addiu	s1,a0,512
    23c4:	00005f1f 	0x5f1f
    23c8:	00243600 	0x243600
    23cc:	03050100 	0x3050100
    23d0:	60003aa0 	0x60003aa0
    23d4:	00161020 	add	v0,zero,s6
    23d8:	0017b860 	0x17b860
    23dc:	65722560 	0x65722560
    23e0:	ea010074 	swc2	$1,116(s0)
    23e4:	00023d02 	srl	a3,v0,0x14
    23e8:	28910200 	slti	s1,a0,512
    23ec:	00163820 	add	a3,zero,s6
    23f0:	00179460 	0x179460
    23f4:	656e2560 	0x656e2560
    23f8:	6e695f77 	0x6e695f77
    23fc:	01006f66 	0x1006f66
    2400:	196102ed 	0x196102ed
    2404:	91020000 	lbu	v0,0(t0)
    2408:	16a42030 	bne	s5,a0,a4cc <_init-0x5fff5b34>
    240c:	178c6000 	bne	gp,t4,1a410 <_init-0x5ffe5bf0>
    2410:	74256000 	jalx	958000 <_init-0x5f6a8000>
    2414:	0100706d 	0x100706d
    2418:	1fc402f4 	0x1fc402f4
    241c:	91030000 	lbu	v1,0(t0)
    2420:	000015c0 	sll	v0,zero,0x17
    2424:	36080000 	ori	t0,s0,0x0
    2428:	1e000024 	bgtz	s0,24bc <_init-0x5fffdb44>
    242c:	09000003 	j	400000c <_init-0x5bfffff4>
    2430:	000001c6 	0x1c6
    2434:	26120009 	addiu	s2,s0,9
    2438:	1e000024 	bgtz	s0,24cc <_init-0x5fffdb34>
    243c:	00002474 	teq	zero,zero,0x91
    2440:	7473696c 	jalx	1cda5b0 <_init-0x5e325a50>
    2444:	6464615f 	0x6464615f
    2448:	014e0200 	0x14e0200
    244c:	600017e4 	0x600017e4
    2450:	6000182c 	0x6000182c
    2454:	6e296e01 	0x6e296e01
    2458:	02007765 	0x2007765
    245c:	0003124d 	break	0x3,0x49
    2460:	18910200 	0x18910200
    2464:	61656829 	0x61656829
    2468:	4d020064 	bc3fl	25fc <_init-0x5fffda04>
    246c:	00000312 	0x312
    2470:	001c9102 	srl	s2,gp,0x4
    2474:	0024be1e 	0x24be1e
    2478:	6c5f5f00 	0x6c5f5f00
    247c:	5f747369 	0x5f747369
    2480:	00646461 	0x646461
    2484:	2c013e02 	sltiu	at,zero,15874
    2488:	88600018 	lwl	zero,24(v1)
    248c:	01600018 	mult	t3,zero
    2490:	656e296e 	0x656e296e
    2494:	3b020077 	xori	v0,t8,0x77
    2498:	00000312 	0x312
    249c:	29089102 	slti	t0,t0,-28414
    24a0:	76657270 	jalx	995c9c0 <_init-0x566a3640>
    24a4:	123c0200 	beq	s1,gp,2ca8 <_init-0x5fffd358>
    24a8:	02000003 	0x2000003
    24ac:	6e290c91 	0x6e290c91
    24b0:	00747865 	0x747865
    24b4:	03123d02 	0x3123d02
    24b8:	91020000 	lbu	v0,0(t0)
    24bc:	d5230010 	ldc1	$f3,16(t1)
    24c0:	5f000025 	bgtzl	t8,2558 <_init-0x5fffdaa8>
    24c4:	6c6c696b 	0x6c6c696b
    24c8:	6573755f 	0x6573755f
    24cc:	70615f72 	0x70615f72
    24d0:	01007370 	tge	t0,zero,0x1cd
    24d4:	88010315 	lwl	at,789(zero)
    24d8:	e4600018 	swc1	$f0,24(v1)
    24dc:	0160001b 	divu	zero,t3,zero
    24e0:	6573246e 	0x6573246e
    24e4:	7265646e 	0x7265646e
    24e8:	03140100 	0x3140100
    24ec:	00000318 	0x318
    24f0:	08c89103 	j	322440c <_init-0x5cddbbf4>
    24f4:	70706124 	0x70706124
    24f8:	7079745f 	udi15	v1,t9,t6,0x11
    24fc:	14010065 	bne	zero,at,2694 <_init-0x5fffd96c>
    2500:	00172203 	sra	a0,s7,0x8
    2504:	cc910300 	pref	0x11,768(a0)
    2508:	006d2508 	0x6d2508
    250c:	9a031601 	lwr	v1,5633(s0)
    2510:	02000015 	0x2000015
    2514:	70251891 	udi1	at,a1,v1,0x2
    2518:	03170100 	0x3170100
    251c:	000025d5 	0x25d5
    2520:	08a09103 	j	282440c <_init-0x5d7dbbf4>
    2524:	736f7025 	0x736f7025
    2528:	03180100 	0x3180100
    252c:	00000312 	0x312
    2530:	08a49103 	j	292440c <_init-0x5d6dbbf4>
    2534:	01007125 	0x1007125
    2538:	03120318 	0x3120318
    253c:	91030000 	lbu	v1,0(t0)
    2540:	5f1f08a8 	0x5f1f08a8
    2544:	e0000000 	sc	zero,0(zero)
    2548:	01000025 	move	zero,t0
    254c:	3af00305 	xori	s0,s7,0x305
    2550:	a02a6000 	sb	t2,24576(at)
    2554:	38000025 	xori	zero,zero,0x25
    2558:	84600019 	lh	zero,25(v1)
    255c:	2560001a 	addiu	zero,t3,26
    2560:	29010074 	slti	at,t0,116
    2564:	0025e503 	0x25e503
    2568:	ac910300 	sw	s1,768(a0)
    256c:	19b42008 	0x19b42008
    2570:	1a686000 	0x1a686000
    2574:	6c256000 	0x6c256000
    2578:	03320100 	0x3320100
    257c:	00001fc4 	0x1fc4
    2580:	08b09103 	j	2c2440c <_init-0x5d3dbbf4>
    2584:	0019b420 	0x19b420
    2588:	0019bc60 	0x19bc60
    258c:	00372660 	0x372660
    2590:	32010000 	andi	at,s0,0x0
    2594:	001fdf03 	sra	k1,ra,0x1c
    2598:	b4910300 	0xb4910300
    259c:	00000008 	jr	zero
    25a0:	001ac420 	0x1ac420
    25a4:	001bac60 	0x1bac60
    25a8:	6d742560 	0x6d742560
    25ac:	48010070 	0x48010070
    25b0:	0025e503 	0x25e503
    25b4:	b4910300 	0xb4910300
    25b8:	1ac42008 	0x1ac42008
    25bc:	1acc6000 	0x1acc6000
    25c0:	37266000 	ori	a2,t9,0x6000
    25c4:	01000000 	0x1000000
    25c8:	1fdf0348 	0x1fdf0348
    25cc:	91030000 	lbu	v1,0(t0)
    25d0:	000008b0 	tge	zero,zero,0x22
    25d4:	db040b00 	ldc2	$4,2816(t8)
    25d8:	12000025 	beqz	s0,2670 <_init-0x5fffd990>
    25dc:	000019b3 	tltu	zero,zero,0x66
    25e0:	001c4912 	0x1c4912
    25e4:	f3040b00 	0xf3040b00
    25e8:	2700001a 	addiu	zero,t8,26
    25ec:	00002630 	tge	zero,zero,0x98
    25f0:	5f73695f 	0x5f73695f
    25f4:	5f707061 	0x5f707061
    25f8:	5f746f6e 	0x5f746f6e
    25fc:	6c6c696b 	0x6c6c696b
    2600:	03590100 	0x3590100
    2604:	00022301 	0x22301
    2608:	001be400 	sll	gp,k1,0x10
    260c:	001c8860 	0x1c8860
    2610:	286e0160 	slti	t6,v1,352
    2614:	0000002e 	0x2e
    2618:	18035801 	0x18035801
    261c:	02000003 	0x2000003
    2620:	69252091 	0x69252091
    2624:	035a0100 	0x35a0100
    2628:	0000023d 	0x23d
    262c:	00109102 	srl	s2,s0,0x4
    2630:	00269423 	0x269423
    2634:	61705f00 	0x61705f00
    2638:	5f657372 	0x5f657372
    263c:	76677261 	jalx	99dc984 <_init-0x5662367c>
    2640:	03670100 	0x3670100
    2644:	001c8801 	movf	s1,zero,$fcc7
    2648:	00208060 	0x208060
    264c:	246e0160 	addiu	t6,v1,352
    2650:	66010073 	0x66010073
    2654:	00032303 	sra	a0,v1,0xc
    2658:	30910200 	andi	s1,a0,0x200
    265c:	01006925 	0x1006925
    2660:	023d0368 	0x23d0368
    2664:	91020000 	lbu	v0,0(t0)
    2668:	00702510 	0x702510
    266c:	23036901 	addi	v1,t8,26881
    2670:	02000003 	0x2000003
    2674:	73251491 	udi1	t9,a1,v0,0x12
    2678:	6a010073 	0x6a010073
    267c:	00032303 	sra	a0,v1,0xc
    2680:	18910200 	0x18910200
    2684:	6e656c25 	0x6e656c25
    2688:	036b0100 	0x36b0100
    268c:	0000022f 	0x22f
    2690:	001c9102 	srl	s2,gp,0x4
    2694:	0026c123 	0x26c123
    2698:	65725f00 	0x65725f00
    269c:	5f746573 	0x5f746573
    26a0:	76677261 	jalx	99dc984 <_init-0x5662367c>
    26a4:	03a60100 	0x3a60100
    26a8:	00208001 	movf	s0,at,$fcc0
    26ac:	00212860 	0x212860
    26b0:	256e0160 	addiu	t6,t3,352
    26b4:	a7010069 	sh	at,105(t8)
    26b8:	00023d03 	sra	a3,v0,0x14
    26bc:	10910200 	beq	a0,s1,2ec0 <_init-0x5fffd140>
    26c0:	26ee2300 	addiu	t6,s7,8960
    26c4:	705f0000 	madd	v0,ra
    26c8:	746e6972 	jalx	1b9a5c8 <_init-0x5e465a38>
    26cc:	6772615f 	0x6772615f
    26d0:	b4010076 	0xb4010076
    26d4:	21280103 	addi	t0,t1,259
    26d8:	21c46000 	addi	a0,t6,24576
    26dc:	6e016000 	0x6e016000
    26e0:	01006925 	0x1006925
    26e4:	023d03b5 	0x23d03b5
    26e8:	91020000 	lbu	v0,0(t0)
    26ec:	90230010 	lbu	v1,16(at)
    26f0:	5f000027 	bgtzl	t8,2790 <_init-0x5fffd870>
    26f4:	5f646461 	0x5f646461
    26f8:	68746170 	0x68746170
    26fc:	666e695f 	0x666e695f
    2700:	c001006f 	ll	at,111(zero)
    2704:	21c40103 	addi	a0,t6,259
    2708:	23286000 	addi	t0,t9,24576
    270c:	6e016000 	0x6e016000
    2710:	70706124 	0x70706124
    2714:	6c75665f 	0x6c75665f
    2718:	7461706c 	jalx	185c1b0 <_init-0x5e7a3e50>
    271c:	616e5f68 	0x616e5f68
    2720:	0100656d 	0x100656d
    2724:	031803bf 	0x31803bf
    2728:	91030000 	lbu	v1,0(t0)
    272c:	742500c8 	jalx	940320 <_init-0x5f6bfce0>
    2730:	0100706d 	0x100706d
    2734:	279003c1 	addiu	s0,gp,961
    2738:	91020000 	lbu	v0,0(t0)
    273c:	6f702520 	0x6f702520
    2740:	c2010073 	ll	at,115(s0)
    2744:	00031203 	sra	v0,v1,0x8
    2748:	24910200 	addiu	s1,a0,512
    274c:	01007125 	0x1007125
    2750:	031203c2 	0x31203c2
    2754:	91020000 	lbu	v0,0(t0)
    2758:	00742528 	0x742528
    275c:	9003c301 	lbu	v1,-15615(zero)
    2760:	02000027 	nor	zero,s0,zero
    2764:	5f1f2c91 	0x5f1f2c91
    2768:	a6000000 	sh	zero,0(s0)
    276c:	01000027 	nor	zero,t0,zero
    2770:	3b600305 	xori	zero,k1,0x305
    2774:	08206000 	j	818000 <_init-0x5f7e8000>
    2778:	10600022 	beqz	v1,2804 <_init-0x5fffd7fc>
    277c:	26600022 	addiu	zero,s3,34
    2780:	00000037 	0x37
    2784:	df03c701 	ldc3	$3,-14591(t8)
    2788:	0200001f 	0x200001f
    278c:	00003091 	0x3091
    2790:	1b24040b 	0x1b24040b
    2794:	a6080000 	sh	t0,0(s0)
    2798:	1e000027 	bgtz	s0,2838 <_init-0x5fffd7c8>
    279c:	09000003 	j	400000c <_init-0x5bfffff4>
    27a0:	000001c6 	0x1c6
    27a4:	9612000e 	lhu	s2,14(s0)
    27a8:	27000027 	addiu	zero,t8,39
    27ac:	00002825 	move	a1,zero
    27b0:	7465675f 	jalx	1959d7c <_init-0x5e6a6284>
    27b4:	7461705f 	jalx	185c17c <_init-0x5e7a3e84>
    27b8:	6e695f68 	0x6e695f68
    27bc:	01006f66 	0x1006f66
    27c0:	230103dc 	addi	at,t8,988
    27c4:	28000003 	slti	zero,zero,3
    27c8:	e4600023 	swc1	$f0,35(v1)
    27cc:	01600023 	subu	zero,t3,zero
    27d0:	002e286e 	0x2e286e
    27d4:	db010000 	ldc2	$1,0(t8)
    27d8:	00031803 	sra	v1,v1,0x0
    27dc:	30910200 	andi	s1,a0,0x200
    27e0:	706d7425 	0x706d7425
    27e4:	03dd0100 	0x3dd0100
    27e8:	00002790 	0x2790
    27ec:	25109102 	addiu	s0,t0,-28414
    27f0:	00736f70 	tge	v1,s3,0x1bd
    27f4:	1203de01 	beq	s0,v1,ffff9ffc <music_mutex_list+0x9fff5b48>
    27f8:	02000003 	0x2000003
    27fc:	71251491 	udi1	t1,a1,v0,0x12
    2800:	03de0100 	0x3de0100
    2804:	00000312 	0x312
    2808:	20189102 	addi	t8,zero,-28414
    280c:	60002368 	0x60002368
    2810:	60002370 	0x60002370
    2814:	00003726 	0x3726
    2818:	03e20100 	0x3e20100
    281c:	00001fdf 	0x1fdf
    2820:	001c9102 	srl	s2,gp,0x4
    2824:	289d2300 	slti	sp,a0,8960
    2828:	675f0000 	0x675f0000
    282c:	735f7465 	0x735f7465
    2830:	635f7379 	0x635f7379
    2834:	69666e6f 	0x69666e6f
    2838:	01007367 	0x1007367
    283c:	e40103ef 	swc1	$f1,1007(zero)
    2840:	78600023 	0x78600023
    2844:	01600025 	move	zero,t3
    2848:	6572256e 	0x6572256e
    284c:	f0010074 	0xf0010074
    2850:	00023d03 	sra	a3,v0,0x14
    2854:	18910200 	0x18910200
    2858:	01007625 	0x1007625
    285c:	01f503f1 	tgeu	t7,s5,0xf
    2860:	91020000 	lbu	v0,0(t0)
    2864:	6574251c 	0x6574251c
    2868:	01007478 	0x1007478
    286c:	06c103f2 	bgez	s6,3838 <_init-0x5fffc7c8>
    2870:	91020000 	lbu	v0,0(t0)
    2874:	5f702520 	0x5f702520
    2878:	6f637061 	0x6f637061
    287c:	6769666e 	0x6769666e
    2880:	03f40100 	0x3f40100
    2884:	000000e5 	0xe5
    2888:	08a09103 	j	282440c <_init-0x5d7dbbf4>
    288c:	00005f1f 	0x5f1f
    2890:	00289d00 	0x289d00
    2894:	03050100 	0x3050100
    2898:	60003bb4 	0x60003bb4
    289c:	1be01200 	blez	ra,70a0 <_init-0x5fff8f60>
    28a0:	0c230000 	jal	8c0000 <_init-0x5f740000>
    28a4:	5f000029 	bgtzl	t8,294c <_init-0x5fffd6b4>
    28a8:	73726170 	0x73726170
    28ac:	756d5f65 	jalx	5b57d94 <_init-0x5a4a826c>
    28b0:	00786574 	teq	v1,t8,0x195
    28b4:	01040e01 	0x1040e01
    28b8:	60002578 	0x60002578
    28bc:	600026cc 	0x600026cc
    28c0:	6c246e01 	0x6c246e01
    28c4:	00747369 	0x747369
    28c8:	0c040d01 	jal	103404 <_init-0x5fefcbfc>
    28cc:	02000029 	0x2000029
    28d0:	74243091 	jalx	90c244 <_init-0x5f6f3dbc>
    28d4:	00747865 	0x747865
    28d8:	23040d01 	addi	a0,t8,3329
    28dc:	02000003 	0x2000003
    28e0:	70253491 	udi1	at,a1,a2,0x12
    28e4:	040f0100 	0x40f0100
    28e8:	00000323 	0x323
    28ec:	25109102 	addiu	s0,t0,-28414
    28f0:	10010071 	beq	zero,at,2ab8 <_init-0x5fffd548>
    28f4:	00032304 	0x32304
    28f8:	14910200 	bne	a0,s1,30fc <_init-0x5fffcf04>
    28fc:	706d7425 	0x706d7425
    2900:	04110100 	bal	2d04 <_init-0x5fffd2fc>
    2904:	0000290c 	syscall	0xa4
    2908:	00189102 	srl	s2,t8,0x4
    290c:	1ac0040b 	blez	s6,393c <_init-0x5fffc6c4>
    2910:	a6230000 	sh	v1,0(s1)
    2914:	5f000029 	bgtzl	t8,29bc <_init-0x5fffd644>
    2918:	63656863 	0x63656863
    291c:	756d5f6b 	jalx	5b57dac <_init-0x5a4a8254>
    2920:	00786574 	teq	v1,t8,0x195
    2924:	01043101 	0x1043101
    2928:	600026cc 	0x600026cc
    292c:	60002938 	0x60002938
    2930:	2e286e01 	sltiu	t0,s1,28161
    2934:	01000000 	0x1000000
    2938:	03230430 	tge	t9,v1,0x10
    293c:	91030000 	lbu	v1,0(t0)
    2940:	6d2508b0 	0x6d2508b0
    2944:	04320100 	bltzall	at,2d48 <_init-0x5fffd2b8>
    2948:	0000159a 	0x159a
    294c:	25109102 	addiu	s0,t0,-28414
    2950:	00736f70 	tge	v1,s3,0x1bd
    2954:	12043401 	beq	s0,a0,f95c <_init-0x5fff06a4>
    2958:	03000003 	0x3000003
    295c:	25089891 	addiu	t0,t0,-26479
    2960:	35010074 	ori	at,t0,0x74
    2964:	00290c04 	0x290c04
    2968:	9c910300 	0x9c910300
    296c:	298b2a08 	slti	t3,t4,10760
    2970:	27100000 	addiu	s0,t8,0
    2974:	27186000 	addiu	t8,t8,24576
    2978:	37266000 	ori	a2,t9,0x6000
    297c:	01000000 	0x1000000
    2980:	1fdf0439 	0x1fdf0439
    2984:	91030000 	lbu	v1,0(t0)
    2988:	200008a0 	addi	zero,zero,2208
    298c:	60002830 	0x60002830
    2990:	60002838 	0x60002838
    2994:	00003726 	0x3726
    2998:	044b0100 	tltiu	v0,256
    299c:	00001fdf 	0x1fdf
    29a0:	08a09103 	j	282440c <_init-0x5d7dbbf4>
    29a4:	d11e0000 	0xd11e0000
    29a8:	70000029 	0x70000029
    29ac:	65666572 	0x65666572
    29b0:	00686374 	teq	v1,t0,0x18d
    29b4:	38012b03 	xori	at,zero,0x2b03
    29b8:	60600029 	0x60600029
    29bc:	01600029 	0x1600029
    29c0:	6461296e 	0x6461296e
    29c4:	03007264 	0x3007264
    29c8:	0006e82a 	slt	sp,zero,a2
    29cc:	08910200 	j	2440800 <_init-0x5dbbf800>
    29d0:	2a0f2b00 	slti	t7,s0,11008
    29d4:	6d010000 	0x6d010000
    29d8:	006e6961 	0x6e6961
    29dc:	01045d01 	0x1045d01
    29e0:	0000023d 	0x23d
    29e4:	60002960 	0x60002960
    29e8:	60002a0c 	0x60002a0c
    29ec:	61246e01 	0x61246e01
    29f0:	00636772 	tlt	v1,v1,0x19d
    29f4:	3d045c01 	0x3d045c01
    29f8:	02000002 	0x2000002
    29fc:	61242091 	0x61242091
    2a00:	00766772 	tlt	v1,s6,0x19d
    2a04:	e2045c01 	sc	a0,23553(s0)
    2a08:	02000006 	srlv	zero,zero,s0
    2a0c:	2c002491 	sltiu	zero,zero,9361
    2a10:	72687470 	0x72687470
    2a14:	5f646165 	0x5f646165
    2a18:	6574756d 	0x6574756d
    2a1c:	79745f78 	0x79745f78
    2a20:	745f6570 	jalx	17d95c0 <_init-0x5e826a40>
    2a24:	c9a90500 	lwc2	$9,1280(t5)
    2a28:	01000003 	0x1000003
    2a2c:	407c0305 	0x407c0305
    2a30:	702c6000 	0x702c6000
    2a34:	65726874 	0x65726874
    2a38:	735f6461 	0x735f6461
    2a3c:	65726168 	0x65726168
    2a40:	7079745f 	udi15	v1,t9,t6,0x11
    2a44:	00745f65 	0x745f65
    2a48:	044eb505 	tnei	v0,-19195
    2a4c:	05010000 	bgez	t0,2a50 <_init-0x5fffd5b0>
    2a50:	00449403 	0x449403
    2a54:	75712c60 	jalx	5c4b180 <_init-0x5a3b4e80>
    2a58:	615f7469 	0x615f7469
    2a5c:	695f7070 	0x695f7070
    2a60:	006f666e 	0x6f666e
    2a64:	1a061c01 	0x1a061c01
    2a68:	05010000 	bgez	t0,2a6c <_init-0x5fffd594>
    2a6c:	00408003 	0x408003
    2a70:	6e692c60 	0x6e692c60
    2a74:	656b6f76 	0x656b6f76
    2a78:	73696c5f 	udi15	k1,t1,t5,0x11
    2a7c:	29010074 	slti	at,t0,116
    2a80:	00001a65 	0x1a65
    2a84:	68030501 	0x68030501
    2a88:	2c600040 	sltiu	zero,v1,64
    2a8c:	6973756d 	0x6973756d
    2a90:	756d5f63 	jalx	5b57d8c <_init-0x5a4a8274>
    2a94:	5f786574 	0x5f786574
    2a98:	7473696c 	jalx	1cda5b0 <_init-0x5e325a50>
    2a9c:	c0330100 	ll	s3,256(at)
    2aa0:	0100001a 	div	zero,t0,zero
    2aa4:	44b40305 	0x44b40305
    2aa8:	722c6000 	0x722c6000
    2aac:	6f696461 	0x6f696461
    2ab0:	74756d5f 	jalx	1d5b57c <_init-0x5e2a4a84>
    2ab4:	6c5f7865 	0x6c5f7865
    2ab8:	00747369 	0x747369
    2abc:	1ac03301 	blez	s6,f6c4 <_init-0x5fff093c>
    2ac0:	05010000 	bgez	t0,2ac4 <_init-0x5fffd53c>
    2ac4:	00448803 	0x448803
    2ac8:	00122d60 	0x122d60
    2acc:	3c010000 	lui	at,0x0
    2ad0:	00001af3 	tltu	zero,zero,0x6b
    2ad4:	a8030501 	swl	v1,1281(zero)
    2ad8:	2c600044 	sltiu	zero,v1,68
    2adc:	5f707061 	0x5f707061
    2ae0:	68746170 	0x68746170
    2ae4:	666e695f 	0x666e695f
    2ae8:	696c5f6f 	0x696c5f6f
    2aec:	01007473 	tltu	t0,zero,0x1d1
    2af0:	001b2449 	0x1b2449
    2af4:	03050100 	0x3050100
    2af8:	60004498 	0x60004498
    2afc:	70706121 	0x70706121
    2b00:	7261765f 	udi15	s3,at,t6,0x19
    2b04:	f58f0100 	sdc1	$f15,256(t4)
    2b08:	05000019 	bltz	t0,2b70 <_init-0x5fffd490>
    2b0c:	00406403 	0x406403
    2b10:	2b210860 	slti	at,t9,2144
    2b14:	03180000 	0x3180000
    2b18:	c6090000 	lwc1	$f9,0(s0)
    2b1c:	03000001 	movf	zero,t8,$fcc0
    2b20:	6f6e2c00 	0x6f6e2c00
    2b24:	6c696b5f 	0x6c696b5f
    2b28:	735f736c 	0x735f736c
    2b2c:	65747379 	0x65747379
    2b30:	a301006d 	sb	at,109(t8)
    2b34:	00002b11 	0x2b11
    2b38:	14030501 	bne	zero,v1,3f40 <_init-0x5fffc0c0>
    2b3c:	08600040 	j	1800100 <_init-0x5e7fff00>
    2b40:	00002b4f 	0x2b4f
    2b44:	00000323 	0x323
    2b48:	0001c609 	0x1c609
    2b4c:	2c000900 	sltiu	zero,zero,2304
    2b50:	73677261 	0x73677261
    2b54:	3fa90100 	0x3fa90100
    2b58:	0100002b 	sltu	zero,t0,zero
    2b5c:	40340305 	0x40340305
    2b60:	73216000 	0x73216000
    2b64:	6b6c635f 	0x6b6c635f
    2b68:	6d6f645f 	0x6d6f645f
    2b6c:	5f6e6961 	0x5f6e6961
    2b70:	61657263 	0x61657263
    2b74:	615f6574 	0x615f6574
    2b78:	01007070 	tge	t0,zero,0x1c1
    2b7c:	002b87ae 	0x2b87ae
    2b80:	58030500 	0x58030500
    2b84:	12600035 	beqz	s3,2c5c <_init-0x5fffd3a4>
    2b88:	000002cc 	syscall	0xb
    2b8c:	6f6f6221 	0x6f6f6221
    2b90:	5f707574 	0x5f707574
    2b94:	696e6966 	0x696e6966
    2b98:	01006873 	tltu	t0,zero,0x1a1
    2b9c:	000223b3 	tltu	zero,v0,0x8e
    2ba0:	5c030500 	0x5c030500
    2ba4:	21600040 	addi	zero,t3,64
    2ba8:	71657266 	0x71657266
    2bac:	6d69745f 	0x6d69745f
    2bb0:	695f7265 	0x695f7265
    2bb4:	b5010064 	0xb5010064
    2bb8:	0000023d 	0x23d
    2bbc:	40240305 	0x40240305
    2bc0:	77216000 	jalx	c858000 <_init-0x537a8000>
    2bc4:	69745f64 	0x69745f64
    2bc8:	5f72656d 	0x5f72656d
    2bcc:	01006469 	0x1006469
    2bd0:	00023db7 	0x23db7
    2bd4:	28030500 	slti	v1,zero,1280
    2bd8:	21600040 	addi	zero,t3,64
    2bdc:	63746177 	0x63746177
    2be0:	676f6468 	0x676f6468
    2be4:	6d69745f 	0x6d69745f
    2be8:	b9010065 	swr	at,101(t0)
    2bec:	000001f5 	0x1f5
    2bf0:	402c0305 	0x402c0305
    2bf4:	77216000 	jalx	c858000 <_init-0x537a8000>
    2bf8:	64665f64 	0x64665f64
    2bfc:	3dbb0100 	0x3dbb0100
    2c00:	05000002 	bltz	t0,2c0c <_init-0x5fffd3f4>
    2c04:	00403003 	0x403003
    2c08:	65722160 	0x65722160
    2c0c:	646e696d 	0x646e696d
    2c10:	75616c5f 	jalx	585b17c <_init-0x5a7a4e84>
    2c14:	6568636e 	0x6568636e
    2c18:	c3010072 	ll	at,114(t8)
    2c1c:	00000223 	0x223
    2c20:	40600305 	0x40600305
    2c24:	fa006000 	sdc2	$0,24576(s0)
    2c28:	02000000 	0x2000000
    2c2c:	00027000 	sll	t6,v0,0x0
    2c30:	0f010400 	jal	c041000 <_init-0x53fbf000>
    2c34:	90000005 	lbu	zero,5(zero)
    2c38:	8860002b 	lwl	zero,43(v1)
    2c3c:	0560002b 	bltz	t3,2cec <_init-0x5fffd314>
    2c40:	01000001 	movf	zero,t0,$fcc0
    2c44:	00000166 	0x166
    2c48:	000000a0 	0xa0
    2c4c:	00020002 	srl	zero,v0,0x0
    2c50:	03080100 	0x3080100
    2c54:	02230204 	0x2230204
    2c58:	07020000 	bltzl	t8,2c5c <_init-0x5fffd3a4>
    2c5c:	00012f02 	srl	a1,at,0x1c
    2c60:	02070400 	0x2070400
    2c64:	00000134 	teq	zero,zero,0x4
    2c68:	69040704 	0x69040704
    2c6c:	0400746e 	bltz	zero,1fe28 <_init-0x5ffe01d8>
    2c70:	018b0205 	0x18b0205
    2c74:	05080000 	tgei	t0,0
    2c78:	00012f02 	srl	a1,at,0x1c
    2c7c:	02070400 	0x2070400
    2c80:	00000190 	0x190
    2c84:	09020504 	j	4081410 <_init-0x5bf7ebf0>
    2c88:	01000002 	0x1000002
    2c8c:	01e10206 	0x1e10206
    2c90:	05020000 	bltzl	t0,2c94 <_init-0x5fffd36c>
    2c94:	00012a02 	srl	a1,at,0x8
    2c98:	05070800 	0x5070800
    2c9c:	0000009b 	0x9b
    2ca0:	06a30204 	bgezl	s5,34b4 <_init-0x5fffcb4c>
    2ca4:	000001b0 	tge	zero,zero,0x6
    2ca8:	01410600 	0x1410600
    2cac:	06010000 	bgez	s0,2cb0 <_init-0x5fffd350>
    2cb0:	00000172 	tlt	zero,zero,0x5
    2cb4:	01cb0602 	0x1cb0602
    2cb8:	06030000 	bgezl	s0,2cbc <_init-0x5fffd344>
    2cbc:	00000236 	tne	zero,zero,0x8
    2cc0:	b0050000 	0xb0050000
    2cc4:	04000000 	bltz	zero,2cc8 <_init-0x5fffd338>
    2cc8:	ed06b002 	swc3	$6,-20478(t0)
    2ccc:	00000000 	nop
    2cd0:	00019906 	0x19906
    2cd4:	07000100 	bltz	t8,30d8 <_init-0x5fffcf28>
    2cd8:	000000d9 	0xd9
    2cdc:	00015901 	0x15901
    2ce0:	011c0100 	0x11c0100
    2ce4:	00000043 	sra	zero,zero,0x1
    2ce8:	60002b88 	0x60002b88
    2cec:	60002b90 	0x60002b90
    2cf0:	c5086d01 	lwc1	$f8,27905(t0)
    2cf4:	01000001 	movf	zero,t0,$fcc0
    2cf8:	00002c1b 	0x2c1b
    2cfc:	00540100 	0x540100
    2d00:	0001eb09 	0x1eb09
    2d04:	74a90200 	jalx	2a40800 <_init-0x5d5bf800>
    2d08:	01000000 	0x1000000
    2d0c:	407c0305 	0x407c0305
    2d10:	0e096000 	jal	8258000 <_init-0x57da8000>
    2d14:	02000002 	0x2000002
    2d18:	00009bb5 	0x9bb5
    2d1c:	03050100 	0x3050100
    2d20:	60004494 	0x60004494
    2d24:	0007ce00 	sll	t9,a3,0x18
    2d28:	f0000200 	0xf0000200
    2d2c:	04000002 	bltz	zero,2d38 <_init-0x5fffd2c8>
    2d30:	00057101 	0x57101
    2d34:	002f1400 	0x2f1400
    2d38:	002b9060 	0x2b9060
    2d3c:	00010560 	0x10560
    2d40:	055b0100 	0x55b0100
    2d44:	00a00000 	0xa00000
    2d48:	00020000 	sll	zero,v0,0x0
    2d4c:	01000002 	0x1000002
    2d50:	02040308 	0x2040308
    2d54:	00000223 	0x223
    2d58:	2f020702 	sltiu	v0,t8,1794
    2d5c:	04000001 	bltz	zero,2d64 <_init-0x5fffd29c>
    2d60:	01340207 	0x1340207
    2d64:	07040000 	0x7040000
    2d68:	746e6904 	jalx	1b9a410 <_init-0x5e465bf0>
    2d6c:	02050400 	0x2050400
    2d70:	0000018b 	0x18b
    2d74:	2f020508 	sltiu	v0,t8,1288
    2d78:	04000001 	bltz	zero,2d80 <_init-0x5fffd280>
    2d7c:	04620507 	bltzl	v1,419c <_init-0x5fffbe64>
    2d80:	3b070000 	xori	a3,t8,0x0
    2d84:	00000043 	sra	zero,zero,0x1
    2d88:	00019002 	srl	s2,at,0x0
    2d8c:	02050400 	0x2050400
    2d90:	00000209 	0x209
    2d94:	e1020601 	sc	v0,1537(t0)
    2d98:	02000001 	movf	zero,s0,$fcc0
    2d9c:	012a0205 	0x12a0205
    2da0:	07080000 	tgei	t8,0
    2da4:	00850406 	0x850406
    2da8:	01070000 	0x1070000
    2dac:	00006a08 	0x6a08
    2db0:	6a040600 	0x6a040600
    2db4:	09000000 	j	4000000 <_init-0x5c000000>
    2db8:	000000a2 	0xa2
    2dbc:	0000006a 	0x6a
    2dc0:	0000350a 	0x350a
    2dc4:	0b000300 	j	c000c00 <_init-0x53fff400>
    2dc8:	000000bd 	0xbd
    2dcc:	0000034b 	0x34b
    2dd0:	0c2b0604 	jal	ac1810 <_init-0x5f53e7f0>
    2dd4:	0000049c 	0x49c
    2dd8:	00432d06 	0x432d06
    2ddc:	23020000 	addi	v0,t8,0
    2de0:	d80b0000 	ldc2	$11,0(zero)
    2de4:	d1000000 	0xd1000000
    2de8:	04000002 	bltz	zero,2df4 <_init-0x5fffd20c>
    2dec:	b20c1e05 	0xb20c1e05
    2df0:	05000003 	bltz	t0,2e00 <_init-0x5fffd200>
    2df4:	00004320 	0x4320
    2df8:	00230200 	0x230200
    2dfc:	00ed0d00 	0xed0d00
    2e00:	03040000 	0x3040000
    2e04:	03e90e7e 	0x3e90e7e
    2e08:	0e000000 	jal	8000000 <_init-0x58000000>
    2e0c:	00000357 	0x357
    2e10:	11050001 	beq	t0,a1,2e18 <_init-0x5fffd1e8>
    2e14:	03000005 	0x3000005
    2e18:	0000d883 	sra	k1,zero,0x2
    2e1c:	011f0d00 	0x11f0d00
    2e20:	03040000 	0x3040000
    2e24:	01b00ea3 	0x1b00ea3
    2e28:	0e000000 	jal	8000000 <_init-0x58000000>
    2e2c:	00000141 	0x141
    2e30:	01720e01 	0x1720e01
    2e34:	0e020000 	jal	8080000 <_init-0x57f80000>
    2e38:	000001cb 	0x1cb
    2e3c:	02360e03 	0x2360e03
    2e40:	00000000 	nop
    2e44:	0001340d 	break	0x1,0xd0
    2e48:	b0030400 	0xb0030400
    2e4c:	0000ed0e 	0xed0e
    2e50:	990e0000 	lwr	t6,0(t0)
    2e54:	01000001 	movf	zero,t0,$fcc0
    2e58:	040d0500 	0x40d0500
    2e5c:	bb030000 	swr	v1,0(t8)
    2e60:	00000043 	sra	zero,zero,0x1
    2e64:	0001c60f 	0x1c60f
    2e68:	d5032400 	ldc1	$f3,9216(t0)
    2e6c:	0005a90c 	syscall	0x16a4
    2e70:	92c40300 	lbu	a0,768(s6)
    2e74:	02000000 	0x2000000
    2e78:	510c0023 	beql	t0,t4,2f08 <_init-0x5fffd0f8>
    2e7c:	03000005 	0x3000005
    2e80:	00002cc6 	0x2cc6
    2e84:	04230200 	bgezl	at,3688 <_init-0x5fffc978>
    2e88:	0004720c 	syscall	0x11c8
    2e8c:	43c80300 	c0	0x1c80300
    2e90:	02000000 	0x2000000
    2e94:	2d0c0823 	sltiu	t4,t0,2083
    2e98:	03000004 	sllv	zero,zero,t8
    2e9c:	00003cca 	0x3cca
    2ea0:	0c230200 	jal	8c0800 <_init-0x5f73f800>
    2ea4:	00030a0c 	syscall	0xc28
    2ea8:	43cc0300 	c0	0x1cc0300
    2eac:	02000000 	0x2000000
    2eb0:	d80c1023 	ldc2	$12,4131(zero)
    2eb4:	03000002 	0x3000002
    2eb8:	000043ce 	0x43ce
    2ebc:	14230200 	bne	at,v1,36c0 <_init-0x5fffc940>
    2ec0:	0002f20c 	syscall	0xbc8
    2ec4:	a2d00300 	sb	s0,768(s6)
    2ec8:	02000000 	0x2000000
    2ecc:	be0c1823 	cache	0xc,6179(s0)
    2ed0:	03000005 	0x3000005
    2ed4:	000043d2 	0x43d2
    2ed8:	1c230200 	0x1c230200
    2edc:	0003dd0c 	syscall	0xf74
    2ee0:	edd40300 	swc3	$20,768(t6)
    2ee4:	02000000 	0x2000000
    2ee8:	05002023 	bltz	t0,af78 <_init-0x5fff5088>
    2eec:	00000453 	0x453
    2ef0:	013fd503 	0x13fd503
    2ef4:	f9100000 	sdc2	$16,0(t0)
    2ef8:	04000001 	bltz	zero,2f00 <_init-0x5fffd100>
    2efc:	11013903 	beq	t0,at,1130c <_init-0x5ffeecf4>
    2f00:	00646970 	tge	v1,a0,0x1a5
    2f04:	2e013703 	sltiu	at,s0,14083
    2f08:	02000000 	0x2000000
    2f0c:	74110023 	jalx	44008c <_init-0x5fbbff74>
    2f10:	03006469 	0x3006469
    2f14:	002e0138 	0x2e0138
    2f18:	23020000 	addi	v0,t8,0
    2f1c:	1b120002 	0x1b120002
    2f20:	04000002 	bltz	zero,2f2c <_init-0x5fffd0d4>
    2f24:	13013b03 	beq	t8,at,11b34 <_init-0x5ffee4cc>
    2f28:	000005b4 	teq	zero,zero,0x16
    2f2c:	d1013903 	0xd1013903
    2f30:	13000001 	beqz	t8,2f38 <_init-0x5fffd0c8>
    2f34:	000002c9 	0x2c9
    2f38:	3c013a03 	lui	at,0x3a03
    2f3c:	00000000 	nop
    2f40:	0003c114 	0x3c114
    2f44:	013b0300 	0x13b0300
    2f48:	000001f9 	0x1f9
    2f4c:	00028114 	0x28114
    2f50:	01410300 	0x1410300
    2f54:	0000021b 	0x21b
    2f58:	00024c14 	0x24c14
    2f5c:	01470300 	0x1470300
    2f60:	0000023f 	0x23f
    2f64:	02450406 	0x2450406
    2f68:	17150000 	bne	t8,s5,2f6c <_init-0x5fffd094>
    2f6c:	ab000003 	swl	zero,3(t8)
    2f70:	80000004 	lb	zero,4(zero)
    2f74:	0c014703 	jal	51c0c <_init-0x5ffae3f4>
    2f78:	000005af 	0x5af
    2f7c:	023f5c04 	0x23f5c04
    2f80:	23020000 	addi	v0,t8,0
    2f84:	03980c00 	0x3980c00
    2f88:	5e040000 	0x5e040000
    2f8c:	00000233 	tltu	zero,zero,0x8
    2f90:	0c042302 	jal	108c08 <_init-0x5fef73f8>
    2f94:	00000268 	0x268
    2f98:	02276004 	sllv	t4,a3,s1
    2f9c:	23020000 	addi	v0,t8,0
    2fa0:	059c0c08 	0x59c0c08
    2fa4:	62040000 	0x62040000
    2fa8:	0000006a 	0x6a
    2fac:	0c0c2302 	jal	308c08 <_init-0x5fcf73f8>
    2fb0:	0000044a 	0x44a
    2fb4:	006a6404 	0x6a6404
    2fb8:	23020000 	addi	v0,t8,0
    2fbc:	047c0c0d 	0x47c0c0d
    2fc0:	66040000 	0x66040000
    2fc4:	000003a5 	0x3a5
    2fc8:	0c102302 	jal	408c08 <_init-0x5fbf73f8>
    2fcc:	000003ce 	0x3ce
    2fd0:	02336804 	sllv	t5,s3,s1
    2fd4:	23020000 	addi	v0,t8,0
    2fd8:	02e80c14 	0x2e80c14
    2fdc:	6a040000 	0x6a040000
    2fe0:	0000034e 	0x34e
    2fe4:	0c182302 	jal	608c08 <_init-0x5f9f73f8>
    2fe8:	000004ca 	0x4ca
    2fec:	03ab6c04 	0x3ab6c04
    2ff0:	23020000 	addi	v0,t8,0
    2ff4:	02d00c1c 	0x2d00c1c
    2ff8:	6e040000 	0x6e040000
    2ffc:	000000bd 	0xbd
    3000:	0c442302 	jal	1108c08 <_init-0x5eef73f8>
    3004:	00000504 	0x504
    3008:	01c67004 	sllv	t6,a2,t6
    300c:	23020000 	addi	v0,t8,0
    3010:	05650c48 	0x5650c48
    3014:	72040000 	madd	s0,a0
    3018:	00000366 	0x366
    301c:	0c6c2302 	jal	1b08c08 <_init-0x5e4f73f8>
    3020:	0000041c 	0x41c
    3024:	00437404 	0x437404
    3028:	23020000 	addi	v0,t8,0
    302c:	03b90c74 	teq	sp,t9,0x31
    3030:	76040000 	jalx	8100000 <_init-0x57f00000>
    3034:	0000002c 	0x2c
    3038:	00782302 	0x782302
    303c:	00034e0b 	0x34e0b
    3040:	0004ec00 	sll	sp,a0,0x10
    3044:	41040c00 	0x41040c00
    3048:	0005af0c 	syscall	0x16bc
    304c:	4e430400 	lwxc1	$f16,v1(s2)
    3050:	02000003 	0x2000003
    3054:	680c0023 	0x680c0023
    3058:	04000004 	bltz	zero,306c <_init-0x5fffcf94>
    305c:	00036045 	0x36045
    3060:	04230200 	bgezl	at,3864 <_init-0x5fffc79c>
    3064:	0002c30c 	syscall	0xb0c
    3068:	2c470400 	sltiu	a3,v0,1024
    306c:	02000000 	0x2000000
    3070:	06000823 	bltz	s0,5100 <_init-0x5fffaf00>
    3074:	00031704 	0x31704
    3078:	03601600 	0x3601600
    307c:	17010000 	bne	t8,at,3080 <_init-0x5fffcf80>
    3080:	0000002c 	0x2c
    3084:	54040600 	bnel	zero,a0,4888 <_init-0x5fffb778>
    3088:	0b000003 	j	c00000c <_init-0x53fffff4>
    308c:	0000038f 	0x38f
    3090:	00000437 	0x437
    3094:	0c4f0408 	jal	13c1020 <_init-0x5ec3efe0>
    3098:	0000058e 	0x58e
    309c:	039f5104 	0x39f5104
    30a0:	23020000 	addi	v0,t8,0
    30a4:	72611800 	madd	$ac3,s3,at
    30a8:	53040067 	beql	t8,a0,3248 <_init-0x5fffcdb8>
    30ac:	0000002c 	0x2c
    30b0:	00042302 	srl	a0,a0,0xc
    30b4:	00039f19 	0x39f19
    30b8:	002c0100 	0x2c0100
    30bc:	2c170000 	sltiu	s7,zero,0
    30c0:	00000000 	nop
    30c4:	038f0406 	0x38f0406
    30c8:	04060000 	0x4060000
    30cc:	0000002c 	0x2c
    30d0:	0003bb09 	0x3bb09
    30d4:	00002c00 	sll	a1,zero,0x10
    30d8:	00350a00 	0x350a00
    30dc:	00090000 	sll	zero,t1,0x0
    30e0:	0003e00f 	0x3e00f
    30e4:	33020800 	andi	v0,t8,0x800
    30e8:	64697418 	0x64697418
    30ec:	27310200 	addiu	s1,t9,512
    30f0:	02000002 	0x2000002
    30f4:	510c0023 	beql	t0,t4,3184 <_init-0x5fffce7c>
    30f8:	02000005 	0x2000005
    30fc:	00002c32 	tlt	zero,zero,0xb0
    3100:	04230200 	bgezl	at,3904 <_init-0x5fffc6fc>
    3104:	03810500 	0x3810500
    3108:	33020000 	andi	v0,t8,0x0
    310c:	000003bb 	0x3bb
    3110:	0004100f 	0x4100f
    3114:	3a020800 	xori	v0,s0,0x800
    3118:	0004850c 	syscall	0x1214
    311c:	43380200 	c0	0x1380200
    3120:	02000000 	0x2000000
    3124:	830c0023 	lb	t4,35(t8)
    3128:	02000005 	0x2000005
    312c:	00036039 	0x36039
    3130:	04230200 	bgezl	at,3934 <_init-0x5fffc6cc>
    3134:	028b0500 	0x28b0500
    3138:	3a020000 	xori	v0,s0,0x0
    313c:	000003eb 	0x3eb
    3140:	0004520b 	0x4520b
    3144:	00053100 	sll	a2,a1,0x4
    3148:	40020c00 	0x40020c00
    314c:	0005af0c 	syscall	0x16bc
    3150:	52420200 	beql	s2,v0,3954 <_init-0x5fffc6ac>
    3154:	02000004 	sllv	zero,zero,s0
    3158:	680c0023 	0x680c0023
    315c:	02000004 	sllv	zero,zero,s0
    3160:	00046844 	0x46844
    3164:	04230200 	bgezl	at,3968 <_init-0x5fffc698>
    3168:	0002c30c 	syscall	0xb0c
    316c:	2c460200 	sltiu	a2,v0,512
    3170:	02000000 	0x2000000
    3174:	06000823 	bltz	s0,5204 <_init-0x5fffadfc>
    3178:	00041b04 	0x41b04
    317c:	04681900 	tgei	v1,6400
    3180:	43010000 	c0	0x1010000
    3184:	17000000 	bnez	t8,3188 <_init-0x5fffce78>
    3188:	0000002c 	0x2c
    318c:	58040600 	0x58040600
    3190:	0f000004 	jal	c000010 <_init-0x53fffff0>
    3194:	0000055a 	0x55a
    3198:	0c5c02ec 	jal	1700bb0 <_init-0x5e8ff450>
    319c:	000002a5 	0x2a5
    31a0:	02334c02 	0x2334c02
    31a4:	23020000 	addi	v0,t8,0
    31a8:	03170c00 	0x3170c00
    31ac:	4d020000 	lwxc1	$f0,v0(t0)
    31b0:	00000134 	teq	zero,zero,0x4
    31b4:	0c042302 	jal	108c08 <_init-0x5fef73f8>
    31b8:	00000159 	0x159
    31bc:	04684e02 	tgei	v1,19970
    31c0:	23020000 	addi	v0,t8,0
    31c4:	051f0c08 	synci	3080(t0)
    31c8:	4f020000 	lwxc1	$f0,v0(t8)
    31cc:	0000055a 	0x55a
    31d0:	0c0c2302 	jal	308c08 <_init-0x5fcf73f8>
    31d4:	0000039d 	0x39d
    31d8:	00435002 	0x435002
    31dc:	23020000 	addi	v0,t8,0
    31e0:	026e0c10 	0x26e0c10
    31e4:	51020000 	beql	t0,v0,31e8 <_init-0x5fffce18>
    31e8:	00000043 	sra	zero,zero,0x1
    31ec:	0c142302 	jal	508c08 <_init-0x5faf73f8>
    31f0:	000002b5 	0x2b5
    31f4:	05605202 	bltz	t3,17a00 <_init-0x5ffe8600>
    31f8:	23020000 	addi	v0,t8,0
    31fc:	04010c18 	b	6260 <_init-0x5fff9da0>
    3200:	53020000 	beql	t8,v0,3204 <_init-0x5fffcdfc>
    3204:	00000043 	sra	zero,zero,0x1
    3208:	0c582302 	jal	1608c08 <_init-0x5e9f73f8>
    320c:	000002b0 	tge	zero,zero,0xa
    3210:	05705402 	bltzal	t3,1821c <_init-0x5ffe7de4>
    3214:	23020000 	addi	v0,t8,0
    3218:	04c50c5c 	0x4c50c5c
    321c:	55020000 	bnel	t0,v0,3220 <_init-0x5fffcde0>
    3220:	00000570 	tge	zero,zero,0x15
    3224:	0c602302 	jal	1808c08 <_init-0x5e7f73f8>
    3228:	0000033a 	0x33a
    322c:	008c5602 	0x8c5602
    3230:	23020000 	addi	v0,t8,0
    3234:	038f0c64 	0x38f0c64
    3238:	57020000 	bnel	t8,v0,323c <_init-0x5fffcdc4>
    323c:	00000043 	sra	zero,zero,0x1
    3240:	0c682302 	jal	1a08c08 <_init-0x5e5f73f8>
    3244:	0000032f 	0x32f
    3248:	05765802 	0x5765802
    324c:	23020000 	addi	v0,t8,0
    3250:	02e80c6c 	0x2e80c6c
    3254:	59020000 	0x59020000
    3258:	00000452 	0x452
    325c:	01bc2303 	0x1bc2303
    3260:	00033f0c 	syscall	0xcfc
    3264:	865a0200 	lh	k0,512(s2)
    3268:	03000005 	0x3000005
    326c:	0c01c023 	jal	7008c <_init-0x5ff8ff74>
    3270:	0000048d 	break	0x0,0x12
    3274:	00435b02 	0x435b02
    3278:	23030000 	addi	v1,t8,0
    327c:	060001e8 	bltz	s0,3a20 <_init-0x5fffc5e0>
    3280:	0003e004 	sllv	gp,v1,zero
    3284:	05700900 	bltzal	t3,5688 <_init-0x5fffa978>
    3288:	00580000 	0x580000
    328c:	350a0000 	ori	t2,t0,0x0
    3290:	0f000000 	jal	c000000 <_init-0x54000000>
    3294:	8c040600 	lw	a0,1536(zero)
    3298:	09000000 	j	4000000 <_init-0x5c000000>
    329c:	00000586 	0x586
    32a0:	00000410 	0x410
    32a4:	0000350a 	0x350a
    32a8:	09000900 	j	4002400 <_init-0x5bffdc00>
    32ac:	00000596 	0x596
    32b0:	0000007f 	0x7f
    32b4:	0000350a 	0x350a
    32b8:	05000900 	bltz	t0,56bc <_init-0x5fffa944>
    32bc:	00000572 	tlt	zero,zero,0x15
    32c0:	046e5c02 	tnei	v1,23554
    32c4:	eb1a0000 	swc2	$26,0(t8)
    32c8:	01000005 	0x1000005
    32cc:	000004c1 	0x4c1
    32d0:	90012701 	lbu	at,9985(zero)
    32d4:	ec60002b 	swc3	$0,43(v1)
    32d8:	0160002b 	sltu	zero,t3,zero
    32dc:	04c51b6d 	0x4c51b6d
    32e0:	26010000 	addiu	at,s0,0
    32e4:	00000570 	tge	zero,zero,0x15
    32e8:	ad1b5401 	sw	k1,21505(t0)
    32ec:	01000003 	0x1000003
    32f0:	00004326 	0x4326
    32f4:	1c550100 	0x1c550100
    32f8:	000003d8 	0x3d8
    32fc:	00432801 	0x432801
    3300:	53010000 	beql	t8,at,3304 <_init-0x5fffccfc>
    3304:	0100691d 	0x100691d
    3308:	00004329 	0x4329
    330c:	00520100 	0x520100
    3310:	0006881e 	0x6881e
    3314:	03210100 	0x3210100
    3318:	3f010000 	0x3f010000
    331c:	00002c01 	0x2c01
    3320:	002bec00 	0x2bec00
    3324:	002d0460 	0x2d0460
    3328:	1b6d0160 	0x1b6d0160
    332c:	000001c6 	0x1c6
    3330:	002c3e01 	0x2c3e01
    3334:	54010000 	bnel	zero,at,3338 <_init-0x5fffccc8>
    3338:	7465721f 	jalx	195c87c <_init-0x5e6a3784>
    333c:	43400100 	c0	0x1400100
    3340:	1c000000 	bgtz	zero,3344 <_init-0x5fffccbc>
    3344:	000003d8 	0x3d8
    3348:	00434101 	0x434101
    334c:	61010000 	0x61010000
    3350:	0004dd1c 	0x4dd1c
    3354:	88420100 	lwl	v0,256(v0)
    3358:	01000006 	srlv	zero,zero,t0
    335c:	04c51c52 	0x4c51c52
    3360:	43010000 	c0	0x1010000
    3364:	00000570 	tge	zero,zero,0x15
    3368:	fd206201 	sdc3	$0,25089(t1)
    336c:	9e000002 	0x9e000002
    3370:	01000006 	srlv	zero,zero,t0
    3374:	3c480305 	0x3c480305
    3378:	70216000 	0x70216000
    337c:	a0000006 	sb	zero,6(zero)
    3380:	c860002c 	lwc2	$0,44(v1)
    3384:	1c60002c 	bgtz	v1,3438 <_init-0x5fffcbc8>
    3388:	0000037a 	0x37a
    338c:	003c5a01 	0x3c5a01
    3390:	60010000 	0x60010000
    3394:	2cc82200 	sltiu	t0,a2,8704
    3398:	2d046000 	sltiu	a0,t0,24576
    339c:	7a1c6000 	0x7a1c6000
    33a0:	01000003 	0x1000003
    33a4:	00003c48 	0x3c48
    33a8:	00600100 	0x600100
    33ac:	96040600 	lhu	a0,1536(s0)
    33b0:	09000005 	j	4000014 <_init-0x5bffffec>
    33b4:	0000069e 	0x69e
    33b8:	00000087 	0x87
    33bc:	0000350a 	0x350a
    33c0:	08000d00 	j	3400 <_init-0x5fffcc00>
    33c4:	0000068e 	0x68e
    33c8:	0007981e 	0x7981e
    33cc:	05490100 	tgeiu	t2,256
    33d0:	66010000 	0x66010000
    33d4:	00004301 	0x4301
    33d8:	002d0400 	0x2d0400
    33dc:	002f1460 	0x2f1460
    33e0:	1b6d0160 	0x1b6d0160
    33e4:	0000025a 	0x25a
    33e8:	008c6501 	0x8c6501
    33ec:	61010000 	0x61010000
    33f0:	0004c51b 	0x4c51b
    33f4:	70650100 	0x70650100
    33f8:	01000005 	0x1000005
    33fc:	02b01b62 	0x2b01b62
    3400:	65010000 	0x65010000
    3404:	00000570 	tge	zero,zero,0x15
    3408:	041c6001 	bposge32	1b410 <_init-0x5ffe4bf0>
    340c:	01000005 	0x1000005
    3410:	0001c667 	0x1c667
    3414:	10910200 	beq	a0,s1,3c18 <_init-0x5fffc3e8>
    3418:	6469741d 	0x6469741d
    341c:	27680100 	addiu	t0,k1,256
    3420:	02000002 	0x2000002
    3424:	5f1c3c91 	0x5f1c3c91
    3428:	01000002 	0x1000002
    342c:	00004369 	0x4369
    3430:	23600100 	addi	zero,k1,256
    3434:	0000029e 	0x29e
    3438:	00436a01 	0x436a01
    343c:	6f1c0000 	0x6f1c0000
    3440:	01000003 	0x1000003
    3444:	0000436b 	0x436b
    3448:	38910200 	xori	s1,a0,0x200
    344c:	0002fd20 	0x2fd20
    3450:	0007a800 	sll	s5,a3,0x0
    3454:	03050100 	0x3050100
    3458:	60003c58 	0x60003c58
    345c:	00074e24 	0x74e24
    3460:	00000000 	nop
    3464:	04dd1c00 	0x4dd1c00
    3468:	88010000 	lwl	at,0(zero)
    346c:	00000688 	0x688
    3470:	24005301 	li	zero,21249
    3474:	00000765 	0x765
    3478:	00000018 	mult	zero,zero
    347c:	00037a1c 	0x37a1c
    3480:	3cad0100 	0x3cad0100
    3484:	01000000 	0x1000000
    3488:	80210060 	lb	at,96(at)
    348c:	a0000007 	sb	zero,7(zero)
    3490:	c460002e 	lwc1	$f0,46(v1)
    3494:	1c60002e 	bgtz	v1,3550 <_init-0x5fffcab0>
    3498:	0000037a 	0x37a
    349c:	003c7401 	0x3c7401
    34a0:	60010000 	0x60010000
    34a4:	2edc2200 	sltiu	gp,s6,8704
    34a8:	2f146000 	sltiu	s4,t8,24576
    34ac:	7a1c6000 	0x7a1c6000
    34b0:	01000003 	0x1000003
    34b4:	00003c8d 	break	0x0,0xf2
    34b8:	00600100 	0x600100
    34bc:	07a80900 	tgei	sp,2304
    34c0:	00870000 	0x870000
    34c4:	350a0000 	ori	t2,t0,0x0
    34c8:	07000000 	bltz	t8,34cc <_init-0x5fffcb34>
    34cc:	07980800 	0x7980800
    34d0:	eb250000 	swc2	$5,0(t9)
    34d4:	03000001 	movf	zero,t8,$fcc0
    34d8:	0000f8a9 	0xf8a9
    34dc:	03050100 	0x3050100
    34e0:	6000407c 	0x6000407c
    34e4:	00020e25 	0x20e25
    34e8:	1fb50300 	0x1fb50300
    34ec:	01000001 	movf	zero,t0,$fcc0
    34f0:	44940305 	0x44940305
    34f4:	Address 0x34f4 is out of bounds.

Disassembly of section .debug_line:

00000000 <.debug_line>:
   0:	0000050b 	0x50b
   4:	018c0002 	0x18c0002
   8:	01010000 	0x1010000
   c:	000a0efb 	0xa0efb
  10:	01010101 	0x1010101
  14:	01000000 	0x1000000
  18:	2e2e2f2e 	sltiu	t6,s1,12078
  1c:	2f2e2e2f 	sltiu	t6,t9,11823
  20:	702f2e2e 	0x702f2e2e
  24:	725f7073 	0x725f7073
  28:	692f6c65 	0x692f6c65
  2c:	756c636e 	jalx	5b18db8 <_init-0x5a4e7248>
  30:	752f6564 	jalx	4bd9590 <_init-0x5b426a70>
  34:	00736f63 	0x736f63
  38:	2e2e2f2e 	sltiu	t6,s1,12078
  3c:	2f2e2e2f 	sltiu	t6,t9,11823
  40:	702f2e2e 	0x702f2e2e
  44:	725f7073 	0x725f7073
  48:	692f6c65 	0x692f6c65
  4c:	756c636e 	jalx	5b18db8 <_init-0x5a4e7248>
  50:	612f6564 	0x612f6564
  54:	6d2d6d73 	0x6d2d6d73
  58:	00737069 	0x737069
  5c:	2e2e2f2e 	sltiu	t6,s1,12078
  60:	2f2e2e2f 	sltiu	t6,t9,11823
  64:	702f2e2e 	0x702f2e2e
  68:	725f7073 	0x725f7073
  6c:	692f6c65 	0x692f6c65
  70:	756c636e 	jalx	5b18db8 <_init-0x5a4e7248>
  74:	752f6564 	jalx	4bd9590 <_init-0x5b426a70>
  78:	2f736f63 	sltiu	s3,k1,28515
  7c:	6c2f2e2e 	0x6c2f2e2e
  80:	00636269 	0x636269
  84:	2e2e2f2e 	sltiu	t6,s1,12078
  88:	2f2e2e2f 	sltiu	t6,t9,11823
  8c:	702f2e2e 	0x702f2e2e
  90:	725f7073 	0x725f7073
  94:	692f6c65 	0x692f6c65
  98:	756c636e 	jalx	5b18db8 <_init-0x5a4e7248>
  9c:	6c2f6564 	0x6c2f6564
  a0:	2f636269 	sltiu	v1,k1,25193
  a4:	00737973 	tltu	v1,s3,0x1e5
  a8:	2e2e2f2e 	sltiu	t6,s1,12078
  ac:	2f2e2e2f 	sltiu	t6,t9,11823
  b0:	632f2e2e 	0x632f2e2e
  b4:	2f657361 	sltiu	a1,k1,29537
  b8:	6c636e69 	0x6c636e69
  bc:	00656475 	0x656475
  c0:	2e2e2f2e 	sltiu	t6,s1,12078
  c4:	2f2e2e2f 	sltiu	t6,t9,11823
  c8:	632f2e2e 	0x632f2e2e
  cc:	2f657361 	sltiu	a1,k1,29537
  d0:	6c636e69 	0x6c636e69
  d4:	2f656475 	sltiu	a1,k1,25717
  d8:	6c707061 	0x6c707061
  dc:	2e006269 	sltiu	zero,s0,25193
  e0:	2f2e2e2f 	sltiu	t6,t9,11823
  e4:	2e2f2e2e 	sltiu	t7,s1,11822
  e8:	73702f2e 	0x73702f2e
  ec:	65725f70 	0x65725f70
  f0:	6e692f6c 	0x6e692f6c
  f4:	64756c63 	0x64756c63
  f8:	6d000065 	0x6d000065
  fc:	67616e61 	0x67616e61
 100:	6d5f7265 	0x6d5f7265
 104:	2e6e6961 	sltiu	t6,s3,26977
 108:	00000063 	0x63
 10c:	73696c00 	0x73696c00
 110:	00682e74 	teq	v1,t0,0xb9
 114:	70000001 	maddu	zero,zero
 118:	65636f72 	0x65636f72
 11c:	726f7373 	0x726f7373
 120:	0200682e 	0x200682e
 124:	79740000 	0x79740000
 128:	2e736570 	sltiu	s3,s3,25968
 12c:	00030068 	0x30068
 130:	70797400 	0x70797400
 134:	682e7365 	0x682e7365
 138:	00000400 	sll	zero,zero,0x10
 13c:	65686373 	0x65686373
 140:	00682e64 	0x682e64
 144:	61000004 	0x61000004
 148:	6d5f7070 	0x6d5f7070
 14c:	682e6773 	0x682e6773
 150:	00000500 	sll	zero,zero,0x14
 154:	5f707061 	0x5f707061
 158:	6e6e7572 	0x6e6e7572
 15c:	5f676e69 	0x5f676e69
 160:	7473696c 	jalx	1cda5b0 <_init-0x5e325a50>
 164:	0600682e 	bltz	s0,1a220 <_init-0x5ffe5de0>
 168:	716d0000 	madd	t3,t5
 16c:	65756575 	0x65756575
 170:	0400682e 	bltz	zero,1a22c <_init-0x5ffe5dd4>
 174:	65730000 	0x65730000
 178:	6870616d 	0x6870616d
 17c:	2e65726f 	sltiu	a1,s3,29295
 180:	00040068 	0x40068
 184:	2e736f00 	sltiu	s3,s3,28416
 188:	00010068 	0x10068
 18c:	2e6d7000 	sltiu	t5,s3,28672
 190:	00070068 	0x70068
 194:	05000000 	bltz	t0,198 <_init-0x5ffffe68>
 198:	00002002 	srl	a0,zero,0x0
 19c:	01c60360 	0x1c60360
 1a0:	083a0801 	j	e82004 <_init-0x5f17dffc>
 1a4:	80baf1aa 	lb	k0,-3670(a1)
 1a8:	f1f0e408 	0xf1f0e408
 1ac:	740881f0 	jalx	2207c0 <_init-0x5fddf840>
 1b0:	3b083a08 	xori	t0,t8,0x3a08
 1b4:	02f13a08 	0x2f13a08
 1b8:	2c021038 	sltiu	v0,zero,4152
 1bc:	14540213 	bne	v0,s4,a0c <_init-0x5ffff5f4>
 1c0:	ad083b08 	sw	t0,15112(t0)
 1c4:	f03b08f0 	0xf03b08f0
 1c8:	7408b9f0 	jalx	22e7c0 <_init-0x5fdd1840>
 1cc:	02f13a08 	0x2f13a08
 1d0:	02f11024 	and	v0,s7,s1
 1d4:	30021354 	andi	v0,zero,0x1354
 1d8:	08ac0811 	j	2b02044 <_init-0x5d4fdfbc>
 1dc:	f0f1f0ac 	0xf0f1f0ac
 1e0:	f03b08b9 	0xf03b08b9
 1e4:	087508ba 	j	1d422e8 <_init-0x5e2bdd18>
 1e8:	aa08803a 	swl	t0,-32710(s0)
 1ec:	09037408 	j	40dd020 <_init-0x5bf22fe0>
 1f0:	023a08ef 	0x23a08ef
 1f4:	08f01040 	j	3c04100 <_init-0x5c3fbf00>
 1f8:	083a083a 	j	e820e8 <_init-0x5f17df18>
 1fc:	0873083a 	j	1cc20e8 <_init-0x5e33df18>
 200:	7408f0e3 	jalx	23c38c <_init-0x5fdc3c74>
 204:	24023c08 	li	v0,15368
 208:	11240211 	beq	t1,a0,a50 <_init-0x5ffff5b0>
 20c:	f0112402 	0xf0112402
 210:	ab0880f1 	swl	t0,-32527(t8)
 214:	ab083b08 	swl	t0,15112(t8)
 218:	08803c08 	j	200f020 <_init-0x5dff0fe0>
 21c:	ef0a0374 	swc3	$10,884(t8)
 220:	104002f0 	beqz	v0,de4 <_init-0x5ffff21c>
 224:	083a08f0 	j	e823c0 <_init-0x5f17dc40>
 228:	083a083a 	j	e820e8 <_init-0x5f17df18>
 22c:	f0e30873 	0xf0e30873
 230:	3a087408 	xori	t0,s0,0x7408
 234:	81b9b8b9 	lb	t9,-18247(t5)
 238:	75083b08 	jalx	420ec20 <_init-0x5bdf13e0>
 23c:	f1730880 	0xf1730880
 240:	3d08b9f0 	0x3d08b9f0
 244:	08144802 	j	512008 <_init-0x5faedff8>
 248:	11380273 	beq	t1,t8,c18 <_init-0x5ffff3e8>
 24c:	75084008 	jalx	4210020 <_init-0x5bdeffe0>
 250:	ab084981 	swl	t0,18817(t8)
 254:	483b08b9 	0x483b08b9
 258:	ac08f0f1 	sw	t0,-3855(zero)
 25c:	154002b8 	bnez	t2,d40 <_init-0x5ffff2c0>
 260:	f1112c02 	0xf1112c02
 264:	08115002 	j	454008 <_init-0x5fbabff8>
 268:	113802ab 	beq	t1,t8,d18 <_init-0x5ffff2e8>
 26c:	b83b08f1 	swr	k1,2289(at)
 270:	03b8f0f0 	tge	sp,t8,0x3c3
 274:	16037f6e 	bne	s0,v1,20030 <_init-0x5ffdffd0>
 278:	86f4a908 	lh	s4,-22264(s7)
 27c:	82125002 	lb	s2,20482(s0)
 280:	f3b83b08 	0xf3b83b08
 284:	04114c02 	bal	13290 <_init-0x5ffecd70>
 288:	7d900302 	0x7d900302
 28c:	3a08a908 	xori	t0,s0,0xa908
 290:	f0f07208 	0xf0f07208
 294:	71087003 	0x71087003
 298:	b8b83a08 	swr	t8,14856(a1)
 29c:	fc030104 	sdc3	$3,260(zero)
 2a0:	08390802 	j	e42008 <_init-0x5f1bdff8>
 2a4:	3a084974 	xori	t0,s0,0x4974
 2a8:	720880f1 	0x720880f1
 2ac:	3b087208 	xori	t0,t8,0x7208
 2b0:	81114402 	lb	s1,17410(t0)
 2b4:	083b08f3 	j	ec23cc <_init-0x5f13dc34>
 2b8:	7208b93a 	0x7208b93a
 2bc:	72083a08 	0x72083a08
 2c0:	b8122c02 	swr	s2,11266(zero)
 2c4:	74084883 	jalx	21220c <_init-0x5fdeddf4>
 2c8:	e2083c08 	sc	t0,15368(s0)
 2cc:	103802f1 	beq	at,t8,e94 <_init-0x5ffff16c>
 2d0:	08720880 	j	1c82200 <_init-0x5e37de00>
 2d4:	f33a0872 	0xf33a0872
 2d8:	08ac0849 	j	2b02124 <_init-0x5d4fdedc>
 2dc:	3802493b 	xori	v0,zero,0x493b
 2e0:	11440210 	beq	t2,a0,b24 <_init-0x5ffff4dc>
 2e4:	02134002 	0x2134002
 2e8:	02841130 	tge	s4,a0,0x44
 2ec:	f3f11134 	0xf3f11134
 2f0:	0283f181 	0x283f181
 2f4:	80f41024 	lb	s4,4132(a3)
 2f8:	aa08aa08 	swl	t0,-22008(s0)
 2fc:	f0103002 	0xf0103002
 300:	760880f2 	jalx	82203c8 <_init-0x57ddfc38>
 304:	0283f280 	0x283f280
 308:	80f21024 	lb	s2,4132(a3)
 30c:	ac08aa08 	sw	t0,-22008(zero)
 310:	b87f0d03 	swr	ra,3331(v1)
 314:	3a0884f1 	xori	t0,s0,0x84f1
 318:	83f180f1 	lb	s1,-32527(ra)
 31c:	3002f080 	andi	v0,zero,0xf080
 320:	0884b910 	j	212e440 <_init-0x5ded1bc0>
 324:	80f1f03a 	lb	s1,-4038(a3)
 328:	088087f1 	j	2021fc4 <_init-0x5dfde03c>
 32c:	b93a0872 	swr	k0,2162(t1)
 330:	08807308 	j	201cc20 <_init-0x5dfe33e0>
 334:	087208aa 	j	1c822a8 <_init-0x5e37dd58>
 338:	08f1b8aa 	j	3c6e2a8 <_init-0x5c391d58>
 33c:	81b883e4 	lb	t8,-31772(t5)
 340:	80808481 	lb	zero,-31615(a0)
 344:	808084f1 	lb	zero,-31503(a0)
 348:	740848f6 	jalx	2123d8 <_init-0x5fdedc28>
 34c:	4949e208 	0x4949e208
 350:	80823b08 	lb	v0,15112(a0)
 354:	ab0881b8 	swl	t0,-32328(t8)
 358:	08f1e208 	j	3c78820 <_init-0x5c3877e0>
 35c:	3402b9aa 	li	v0,0xb9aa
 360:	24028010 	li	v0,-32752
 364:	08f1b912 	j	3c6e448 <_init-0x5c391bb8>
 368:	1024023a 	beq	at,a0,c54 <_init-0x5ffff3ac>
 36c:	813d08f1 	lb	sp,2289(t1)
 370:	50023a08 	beql	zero,v0,eb94 <_init-0x5fff146c>
 374:	02f3f211 	0x2f3f211
 378:	48491424 	0x48491424
 37c:	bc030204 	cache	0x3,516(zero)
 380:	08a9087a 	j	2a421e8 <_init-0x5d5bde18>
 384:	03720872 	tlt	k1,s2,0x21
 388:	0871086e 	j	1c421b8 <_init-0x5e3bde48>
 38c:	b8b8b872 	swr	t8,-18318(a1)
 390:	030104b8 	0x30104b8
 394:	390805d2 	xori	t0,t0,0x5d2
 398:	b84aab08 	swr	t2,-21752(v0)
 39c:	113002b9 	beq	t1,s0,e84 <_init-0x5ffff17c>
 3a0:	82730882 	lb	s3,2178(s3)
 3a4:	b9f0e308 	swr	s0,-7416(t7)
 3a8:	3b08e308 	xori	t0,t8,0xe308
 3ac:	f1112c02 	0xf1112c02
 3b0:	02823b08 	0x2823b08
 3b4:	f0f01150 	0xf0f01150
 3b8:	b77203b8 	0xb77203b8
 3bc:	a9086b03 	swl	t0,27395(t0)
 3c0:	39082b03 	xori	t0,t0,0x2b03
 3c4:	f1112c02 	0xf1112c02
 3c8:	08720880 	j	1c82200 <_init-0x5e37de00>
 3cc:	b8aa083a 	swr	t2,2106(a1)
 3d0:	f1104402 	0xf1104402
 3d4:	7203f0b8 	0x7203f0b8
 3d8:	081003b7 	j	400edc <_init-0x5fbff124>
 3dc:	08ac08a9 	j	2b022a4 <_init-0x5d4fdd5c>
 3e0:	023b083b 	0x23b083b
 3e4:	08eb1138 	j	3ac44e0 <_init-0x5c53bb20>
 3e8:	ad084840 	sw	t0,18496(t0)
 3ec:	48487208 	0x48487208
 3f0:	44024980 	0x44024980
 3f4:	813c0811 	lb	gp,2065(t1)
 3f8:	b83b08b9 	swr	k1,2233(at)
 3fc:	02b93a08 	0x2b93a08
 400:	38021034 	xori	v0,zero,0x1034
 404:	11340210 	beq	t1,s4,c48 <_init-0x5ffff3b8>
 408:	114402b9 	beq	t2,a0,ef0 <_init-0x5ffff110>
 40c:	b8803b08 	swr	zero,15112(a0)
 410:	083a0883 	j	e8220c <_init-0x5f17ddf4>
 414:	103402ab 	beq	at,s4,ec4 <_init-0x5ffff13c>
 418:	02103802 	0x2103802
 41c:	44021134 	0x44021134
 420:	803b0811 	lb	k1,2065(at)
 424:	b9f03c08 	swr	s0,15368(t7)
 428:	02102c02 	0x2102c02
 42c:	28021030 	slti	v0,zero,4144
 430:	f1ac0812 	0xf1ac0812
 434:	e3083b08 	sc	t0,15112(t8)
 438:	6c08e208 	0x6c08e208
 43c:	39080903 	xori	t0,t0,0x903
 440:	08f17408 	j	3c5d020 <_init-0x5c3a2fe0>
 444:	02e3083b 	0x2e3083b
 448:	40080b2c 	0x40080b2c
 44c:	76087408 	jalx	821d020 <_init-0x57de2fe0>
 450:	f1112c02 	0xf1112c02
 454:	7a03ab08 	0x7a03ab08
 458:	080a037f 	j	280dfc <_init-0x5fd7f204>
 45c:	08b9f0a9 	j	2e7c2a4 <_init-0x5d183d5c>
 460:	083b08e2 	j	ec2388 <_init-0x5f13dc78>
 464:	1150023b 	beq	t2,s0,d54 <_init-0x5ffff2ac>
 468:	3d08ac08 	0x3d08ac08
 46c:	f1112c02 	0xf1112c02
 470:	7a03ab08 	0x7a03ab08
 474:	0a033908 	j	80ce420 <_init-0x57f31be0>
 478:	0848a908 	j	122a420 <_init-0x5edd5be0>
 47c:	803a08ad 	lb	k0,2221(at)
 480:	b972084a 	swr	s2,2122(t3)
 484:	83104c02 	lb	s0,19458(t8)
 488:	baf1e208 	swr	s1,-7672(s7)
 48c:	aa087208 	swl	t0,29192(s0)
 490:	72087308 	0x72087308
 494:	7208aa08 	0x7208aa08
 498:	08ac08b9 	j	2b022e4 <_init-0x5d4fdd1c>
 49c:	498080aa 	0x498080aa
 4a0:	b93a08b9 	swr	k0,2233(t1)
 4a4:	02b9f182 	0x2b9f182
 4a8:	02f11024 	and	v0,s7,s1
 4ac:	24021028 	li	v0,4136
 4b0:	ba750811 	swr	s5,2065(s3)
 4b4:	ac083b08 	sw	t0,15112(zero)
 4b8:	30023f08 	andi	v0,zero,0x3f08
 4bc:	ab08f011 	swl	t0,-4079(t8)
 4c0:	80112c02 	lb	s1,11266(zero)
 4c4:	3a087208 	xori	t0,s0,0x7208
 4c8:	b8102c02 	swr	s0,11266(zero)
 4cc:	7f7303f0 	dpsu.h.qbr	$ac0,k1,s3
 4d0:	39081203 	xori	t0,t0,0x1203
 4d4:	f0113002 	0xf0113002
 4d8:	2c02ab08 	sltiu	v0,zero,-21752
 4dc:	72088011 	udi1	s0,t0,s0,0x0
 4e0:	2c023a08 	sltiu	v0,zero,14856
 4e4:	03f0b810 	0x3f0b810
 4e8:	11037f73 	beq	t0,v1,202b8 <_init-0x5ffdfd48>
 4ec:	03043908 	0x3043908
 4f0:	0877d103 	j	1df440c <_init-0x5e20bbf4>
 4f4:	0485f071 	0x485f071
 4f8:	08ab0301 	j	2ac0c04 <_init-0x5d53f3fc>
 4fc:	027208ef 	0x27208ef
 500:	24021024 	li	v0,4132
 504:	08818014 	j	2060050 <_init-0x5df9ffb0>
 508:	1802b873 	0x1802b873
 50c:	5e010100 	0x5e010100
 510:	02000000 	0x2000000
 514:	00004900 	sll	t1,zero,0x4
 518:	fb010100 	sdc2	$1,256(t8)
 51c:	01000a0e 	0x1000a0e
 520:	00010101 	0x10101
 524:	2e010000 	sltiu	at,s0,0
 528:	2f2e2e2f 	sltiu	t6,t9,11823
 52c:	2e2f2e2e 	sltiu	t7,s1,11822
 530:	2e2e2f2e 	sltiu	t6,s1,12078
 534:	636e692f 	0x636e692f
 538:	6564756c 	0x6564756c
 53c:	62696c2f 	0x62696c2f
 540:	79732f63 	0x79732f63
 544:	63000073 	0x63000073
 548:	65627472 	0x65627472
 54c:	316e6967 	andi	t6,t3,0x6967
 550:	0000632e 	0x632e
 554:	79740000 	0x79740000
 558:	2e736570 	sltiu	s3,s3,25968
 55c:	00010068 	0x10068
 560:	05000000 	bltz	t0,564 <_init-0x5ffffa9c>
 564:	002b8802 	ror	s1,t3,0x0
 568:	011d0360 	0x11d0360
 56c:	01000802 	0x1000802
 570:	00015401 	0x15401
 574:	d6000200 	ldc1	$f0,512(s0)
 578:	01000000 	0x1000000
 57c:	0a0efb01 	j	83bec04 <_init-0x57c413fc>
 580:	01010100 	0x1010100
 584:	00000001 	movf	zero,zero,$fcc0
 588:	2e2f2e01 	sltiu	t7,s1,11777
 58c:	2e2e2f2e 	sltiu	t6,s1,12078
 590:	2f2e2e2f 	sltiu	t6,t9,11823
 594:	6c2f2e2e 	0x6c2f2e2e
 598:	72736269 	0x72736269
 59c:	696c2f63 	0x696c2f63
 5a0:	672f6362 	0x672f6362
 5a4:	72656e65 	0x72656e65
 5a8:	2f2f6c61 	sltiu	t7,t9,27745
 5ac:	6c636e69 	0x6c636e69
 5b0:	00656475 	0x656475
 5b4:	2e2e2f2e 	sltiu	t6,s1,12078
 5b8:	2f2e2e2f 	sltiu	t6,t9,11823
 5bc:	2e2f2e2e 	sltiu	t7,s1,11822
 5c0:	6e692f2e 	0x6e692f2e
 5c4:	64756c63 	0x64756c63
 5c8:	696c2f65 	0x696c2f65
 5cc:	732f6362 	0x732f6362
 5d0:	2e007379 	sltiu	zero,s0,29561
 5d4:	2f2e2e2f 	sltiu	t6,t9,11823
 5d8:	2e2f2e2e 	sltiu	t7,s1,11822
 5dc:	2e2e2f2e 	sltiu	t6,s1,12078
 5e0:	636e692f 	0x636e692f
 5e4:	6564756c 	0x6564756c
 5e8:	6f63752f 	0x6f63752f
 5ec:	2e2e2f73 	sltiu	t6,s1,12147
 5f0:	62696c2f 	0x62696c2f
 5f4:	63000063 	0x63000063
 5f8:	6e657472 	0x6e657472
 5fc:	632e3164 	0x632e3164
 600:	00000000 	nop
 604:	636f7270 	0x636f7270
 608:	5f737365 	0x5f737365
 60c:	682e6469 	0x682e6469
 610:	00000100 	sll	zero,zero,0x4
 614:	65707974 	0x65707974
 618:	00682e73 	tltu	v1,t0,0xb9
 61c:	6c000002 	0x6c000002
 620:	5f636269 	0x5f636269
 624:	65707974 	0x65707974
 628:	00682e73 	tltu	v1,t0,0xb9
 62c:	72000001 	maddu	s0,zero
 630:	746e6565 	jalx	1b99594 <_init-0x5e466a6c>
 634:	0200682e 	0x200682e
 638:	63730000 	0x63730000
 63c:	2e646568 	sltiu	a0,s3,25960
 640:	00020068 	0x20068
 644:	70797400 	0x70797400
 648:	682e7365 	0x682e7365
 64c:	00000300 	sll	zero,zero,0xc
 650:	02050000 	0x2050000
 654:	60002b90 	0x60002b90
 658:	81012903 	lb	at,10499(t0)
 65c:	ad087608 	sw	t0,30216(t0)
 660:	e1080a03 	sc	t0,2563(t0)
 664:	4b84f0f5 	c2	0x184f0f5
 668:	ad0881b8 	sw	t0,-32328(t0)
 66c:	ba873908 	swr	a3,14600(s4)
 670:	08760380 	j	1d80e00 <_init-0x5e27f200>
 674:	08817f71 	j	205fdc4 <_init-0x5dfa023c>
 678:	7f6a03e5 	0x7f6a03e5
 67c:	03103402 	0x3103402
 680:	39087f1d 	xori	t0,t0,0x7f1d
 684:	808082be 	lb	zero,-32066(a0)
 688:	087f0903 	j	1fc240c <_init-0x5e03dbf4>
 68c:	3b08853c 	xori	t0,t8,0x853c
 690:	81868083 	lb	a2,-32637(t4)
 694:	b9bab880 	swr	k0,-18304(t5)
 698:	08484680 	j	1211a00 <_init-0x5edee600>
 69c:	8180473a 	lb	zero,18234(t4)
 6a0:	873a0882 	lh	k0,2178(t9)
 6a4:	10340280 	beq	at,s4,10a8 <_init-0x5fffef58>
 6a8:	ef7a0386 	swc3	$26,902(k1)
 6ac:	ee817d4d 	swc3	$1,32077(s4)
 6b0:	7fbf0348 	0x7fbf0348
 6b4:	0239037f 	0x239037f
 6b8:	86800124 	lh	zero,292(s4)
 6bc:	037f5803 	0x37f5803
 6c0:	01300228 	0x1300228
 6c4:	01000802 	0x1000802
 6c8:	Address 0x6c8 is out of bounds.

Disassembly of section .debug_frame:

00000000 <.debug_frame>:
   0:	0000000c 	syscall
   4:	ffffffff 	sdc3	$31,-1(ra)
   8:	04010001 	b	10 <_init-0x5ffffff0>
   c:	001d0c1f 	0x1d0c1f
  10:	0000001c 	0x1c
  14:	00000000 	nop
  18:	60000020 	0x60000020
  1c:	00000074 	teq	zero,zero,0x1
  20:	4c280e44 	0x4c280e44
  24:	117c1011 	beq	t3,gp,406c <_init-0x5fffbf94>
  28:	1f117d1e 	0x1f117d1e
  2c:	1e0d447e 	0x1e0d447e
  30:	0000001c 	0x1c
  34:	00000000 	nop
  38:	60000094 	0x60000094
  3c:	00000050 	0x50
  40:	48180e44 	0x48180e44
  44:	117e1e11 	beq	t3,s8,788c <_init-0x5fff8774>
  48:	0d447f1f 	jal	511fc7c <_init-0x5aee0384>
  4c:	0000001e 	0x1e
  50:	0000001c 	0x1c
  54:	00000000 	nop
  58:	600000e4 	0x600000e4
  5c:	00000134 	teq	zero,zero,0x4
  60:	4c300e44 	0x4c300e44
  64:	117c1011 	beq	t3,gp,40ac <_init-0x5fffbf54>
  68:	1f117d1e 	0x1f117d1e
  6c:	1e0d447e 	0x1e0d447e
  70:	0000001c 	0x1c
  74:	00000000 	nop
  78:	60000218 	0x60000218
  7c:	00000068 	0x68
  80:	48180e44 	0x48180e44
  84:	117e1e11 	beq	t3,s8,78cc <_init-0x5fff8734>
  88:	0d447f1f 	jal	511fc7c <_init-0x5aee0384>
  8c:	0000001e 	0x1e
  90:	0000001c 	0x1c
  94:	00000000 	nop
  98:	60000280 	0x60000280
  9c:	00000114 	0x114
  a0:	4c280e44 	0x4c280e44
  a4:	117c1011 	beq	t3,gp,40ec <_init-0x5fffbf14>
  a8:	1f117d1e 	0x1f117d1e
  ac:	1e0d447e 	0x1e0d447e
  b0:	0000001c 	0x1c
  b4:	00000000 	nop
  b8:	60000394 	0x60000394
  bc:	00000084 	0x84
  c0:	48180e44 	0x48180e44
  c4:	117e1e11 	beq	t3,s8,790c <_init-0x5fff86f4>
  c8:	0d447f1f 	jal	511fc7c <_init-0x5aee0384>
  cc:	0000001e 	0x1e
  d0:	0000001c 	0x1c
  d4:	00000000 	nop
  d8:	60000418 	0x60000418
  dc:	00000050 	0x50
  e0:	48180e44 	0x48180e44
  e4:	117e1e11 	beq	t3,s8,792c <_init-0x5fff86d4>
  e8:	0d447f1f 	jal	511fc7c <_init-0x5aee0384>
  ec:	0000001e 	0x1e
  f0:	0000001c 	0x1c
  f4:	00000000 	nop
  f8:	60000468 	0x60000468
  fc:	00000110 	0x110
 100:	48580e44 	0x48580e44
 104:	117e1e11 	beq	t3,s8,794c <_init-0x5fff86b4>
 108:	0d447f1f 	jal	511fc7c <_init-0x5aee0384>
 10c:	0000001e 	0x1e
 110:	0000001c 	0x1c
 114:	00000000 	nop
 118:	60000578 	0x60000578
 11c:	00000128 	0x128
 120:	08a00e44 	j	2803910 <_init-0x5d7fc6f0>
 124:	7e1e1148 	0x7e1e1148
 128:	447f1f11 	0x447f1f11
 12c:	00001e0d 	break	0x0,0x78
 130:	0000001c 	0x1c
 134:	00000000 	nop
 138:	600006a0 	0x600006a0
 13c:	0000010c 	syscall	0x4
 140:	48580e44 	0x48580e44
 144:	117e1e11 	beq	t3,s8,798c <_init-0x5fff8674>
 148:	0d447f1f 	jal	511fc7c <_init-0x5aee0384>
 14c:	0000001e 	0x1e
 150:	0000001c 	0x1c
 154:	00000000 	nop
 158:	600007ac 	0x600007ac
 15c:	00000178 	0x178
 160:	48300e44 	0x48300e44
 164:	117e1e11 	beq	t3,s8,79ac <_init-0x5fff8654>
 168:	0d447f1f 	jal	511fc7c <_init-0x5aee0384>
 16c:	0000001e 	0x1e
 170:	0000001c 	0x1c
 174:	00000000 	nop
 178:	60000924 	0x60000924
 17c:	00000354 	0x354
 180:	4c500e44 	0x4c500e44
 184:	117c1011 	beq	t3,gp,41cc <_init-0x5fffbe34>
 188:	1f117d1e 	0x1f117d1e
 18c:	1e0d447e 	0x1e0d447e
 190:	0000001c 	0x1c
 194:	00000000 	nop
 198:	60000c78 	0x60000c78
 19c:	00000064 	0x64
 1a0:	48180e44 	0x48180e44
 1a4:	117e1e11 	beq	t3,s8,79ec <_init-0x5fff8614>
 1a8:	0d447f1f 	jal	511fc7c <_init-0x5aee0384>
 1ac:	0000001e 	0x1e
 1b0:	00000018 	mult	zero,zero
 1b4:	00000000 	nop
 1b8:	60000cdc 	0x60000cdc
 1bc:	00000040 	ssnop
 1c0:	44080e44 	0x44080e44
 1c4:	447e1e11 	0x447e1e11
 1c8:	00001e0d 	break	0x0,0x78
 1cc:	0000001c 	0x1c
 1d0:	00000000 	nop
 1d4:	60000d1c 	0x60000d1c
 1d8:	000001bc 	0x1bc
 1dc:	08b00e44 	j	2c03910 <_init-0x5d3fc6f0>
 1e0:	7e1e1148 	0x7e1e1148
 1e4:	447f1f11 	0x447f1f11
 1e8:	00001e0d 	break	0x0,0x78
 1ec:	0000001c 	0x1c
 1f0:	00000000 	nop
 1f4:	60000ed8 	0x60000ed8
 1f8:	000000f8 	0xf8
 1fc:	08b00e44 	j	2c03910 <_init-0x5d3fc6f0>
 200:	7e1e1148 	0x7e1e1148
 204:	447f1f11 	0x447f1f11
 208:	00001e0d 	break	0x0,0x78
 20c:	0000001c 	0x1c
 210:	00000000 	nop
 214:	60000fd0 	0x60000fd0
 218:	00000594 	0x594
 21c:	30e80e44 	andi	t0,a3,0xe44
 220:	7e1e1148 	0x7e1e1148
 224:	447f1f11 	0x447f1f11
 228:	00001e0d 	break	0x0,0x78
 22c:	00000020 	add	zero,zero,zero
 230:	00000000 	nop
 234:	60001564 	0x60001564
 238:	00000280 	sll	zero,zero,0xa
 23c:	15d80e44 	bne	t6,t8,3b50 <_init-0x5fffc4b0>
 240:	7c10114c 	0x7c10114c
 244:	117d1e11 	beq	t3,sp,7a8c <_init-0x5fff8574>
 248:	0d447e1f 	jal	511f87c <_init-0x5aee0784>
 24c:	0000001e 	0x1e
 250:	0000001c 	0x1c
 254:	00000000 	nop
 258:	600017e4 	0x600017e4
 25c:	00000048 	0x48
 260:	48180e44 	0x48180e44
 264:	117e1e11 	beq	t3,s8,7aac <_init-0x5fff8554>
 268:	0d447f1f 	jal	511fc7c <_init-0x5aee0384>
 26c:	0000001e 	0x1e
 270:	00000018 	mult	zero,zero
 274:	00000000 	nop
 278:	6000182c 	0x6000182c
 27c:	0000005c 	0x5c
 280:	44080e44 	0x44080e44
 284:	447e1e11 	0x447e1e11
 288:	00001e0d 	break	0x0,0x78
 28c:	00000020 	add	zero,zero,zero
 290:	00000000 	nop
 294:	60001888 	0x60001888
 298:	0000035c 	0x35c
 29c:	08c80e44 	j	3203910 <_init-0x5cdfc6f0>
 2a0:	7c10114c 	0x7c10114c
 2a4:	117d1e11 	beq	t3,sp,7aec <_init-0x5fff8514>
 2a8:	0d447e1f 	jal	511f87c <_init-0x5aee0784>
 2ac:	0000001e 	0x1e
 2b0:	0000001c 	0x1c
 2b4:	00000000 	nop
 2b8:	60001be4 	0x60001be4
 2bc:	000000a4 	0xa4
 2c0:	48200e44 	0x48200e44
 2c4:	117e1e11 	beq	t3,s8,7b0c <_init-0x5fff84f4>
 2c8:	0d447f1f 	jal	511fc7c <_init-0x5aee0384>
 2cc:	0000001e 	0x1e
 2d0:	0000001c 	0x1c
 2d4:	00000000 	nop
 2d8:	60001c88 	0x60001c88
 2dc:	000003f8 	0x3f8
 2e0:	4c300e44 	0x4c300e44
 2e4:	117c1011 	beq	t3,gp,432c <_init-0x5fffbcd4>
 2e8:	1f117d1e 	0x1f117d1e
 2ec:	1e0d447e 	0x1e0d447e
 2f0:	0000001c 	0x1c
 2f4:	00000000 	nop
 2f8:	60002080 	0x60002080
 2fc:	000000a8 	0xa8
 300:	48200e44 	0x48200e44
 304:	117e1e11 	beq	t3,s8,7b4c <_init-0x5fff84b4>
 308:	0d447f1f 	jal	511fc7c <_init-0x5aee0384>
 30c:	0000001e 	0x1e
 310:	0000001c 	0x1c
 314:	00000000 	nop
 318:	60002128 	0x60002128
 31c:	0000009c 	0x9c
 320:	48200e44 	0x48200e44
 324:	117e1e11 	beq	t3,s8,7b6c <_init-0x5fff8494>
 328:	0d447f1f 	jal	511fc7c <_init-0x5aee0384>
 32c:	0000001e 	0x1e
 330:	0000001c 	0x1c
 334:	00000000 	nop
 338:	600021c4 	0x600021c4
 33c:	00000164 	0x164
 340:	4c480e44 	0x4c480e44
 344:	117c1011 	beq	t3,gp,438c <_init-0x5fffbc74>
 348:	1f117d1e 	0x1f117d1e
 34c:	1e0d447e 	0x1e0d447e
 350:	0000001c 	0x1c
 354:	00000000 	nop
 358:	60002328 	0x60002328
 35c:	000000bc 	0xbc
 360:	48300e44 	0x48300e44
 364:	117e1e11 	beq	t3,s8,7bac <_init-0x5fff8454>
 368:	0d447f1f 	jal	511fc7c <_init-0x5aee0384>
 36c:	0000001e 	0x1e
 370:	00000020 	add	zero,zero,zero
 374:	00000000 	nop
 378:	600023e4 	0x600023e4
 37c:	00000194 	0x194
 380:	08b80e44 	j	2e03910 <_init-0x5d1fc6f0>
 384:	7c10114c 	0x7c10114c
 388:	117d1e11 	beq	t3,sp,7bd0 <_init-0x5fff8430>
 38c:	0d447e1f 	jal	511f87c <_init-0x5aee0784>
 390:	0000001e 	0x1e
 394:	0000001c 	0x1c
 398:	00000000 	nop
 39c:	60002578 	0x60002578
 3a0:	00000154 	0x154
 3a4:	4c300e44 	0x4c300e44
 3a8:	117c1011 	beq	t3,gp,43f0 <_init-0x5fffbc10>
 3ac:	1f117d1e 	0x1f117d1e
 3b0:	1e0d447e 	0x1e0d447e
 3b4:	0000001c 	0x1c
 3b8:	00000000 	nop
 3bc:	600026cc 	0x600026cc
 3c0:	0000026c 	0x26c
 3c4:	08b00e44 	j	2c03910 <_init-0x5d3fc6f0>
 3c8:	7e1e1148 	0x7e1e1148
 3cc:	447f1f11 	0x447f1f11
 3d0:	00001e0d 	break	0x0,0x78
 3d4:	00000018 	mult	zero,zero
 3d8:	00000000 	nop
 3dc:	60002938 	0x60002938
 3e0:	00000028 	0x28
 3e4:	44080e44 	0x44080e44
 3e8:	447e1e11 	0x447e1e11
 3ec:	00001e0d 	break	0x0,0x78
 3f0:	0000001c 	0x1c
 3f4:	00000000 	nop
 3f8:	60002960 	0x60002960
 3fc:	000000ac 	0xac
 400:	48200e44 	0x48200e44
 404:	117e1e11 	beq	t3,s8,7c4c <_init-0x5fff83b4>
 408:	0d447f1f 	jal	511fc7c <_init-0x5aee0384>
 40c:	0000001e 	0x1e
 410:	0000000c 	syscall
 414:	ffffffff 	sdc3	$31,-1(ra)
 418:	04010001 	b	420 <_init-0x5ffffbe0>
 41c:	001d0c1f 	0x1d0c1f
 420:	0000000c 	syscall
 424:	00000410 	0x410
 428:	60002b88 	0x60002b88
 42c:	00000008 	jr	zero
 430:	0000000c 	syscall
 434:	ffffffff 	sdc3	$31,-1(ra)
 438:	04010001 	b	440 <_init-0x5ffffbc0>
 43c:	001d0c1f 	0x1d0c1f
 440:	0000000c 	syscall
 444:	00000430 	tge	zero,zero,0x10
 448:	60002b90 	0x60002b90
 44c:	0000005c 	0x5c
 450:	0000001c 	0x1c
 454:	00000430 	tge	zero,zero,0x10
 458:	60002bec 	0x60002bec
 45c:	00000118 	0x118
 460:	4c200e44 	0x4c200e44
 464:	117c1011 	beq	t3,gp,44ac <_init-0x5fffbb54>
 468:	11117e12 	beq	t0,s1,1fcb4 <_init-0x5ffe034c>
 46c:	7f1f117d 	0x7f1f117d
 470:	0000001c 	0x1c
 474:	00000430 	tge	zero,zero,0x10
 478:	60002d04 	0x60002d04
 47c:	00000210 	0x210
 480:	50500e44 	beql	v0,s0,3d94 <_init-0x5fffc26c>
 484:	117c1011 	beq	t3,gp,44cc <_init-0x5fffbb34>
 488:	12117d11 	beq	s0,s1,1f8d0 <_init-0x5ffe0730>
 48c:	7f1f117e 	0x7f1f117e
Disassembly of section .debug_pubnames:

00000000 <.debug_pubnames>:
   0:	000000d6 	0xd6
   4:	00000002 	srl	zero,zero,0x0
   8:	2c270000 	sltiu	a3,at,0
   c:	29d10000 	slti	s1,t6,0
  10:	616d0000 	0x616d0000
  14:	0f006e69 	jal	c01b9a4 <_init-0x53fe465c>
  18:	7000002a 	0x7000002a
  1c:	65726874 	0x65726874
  20:	6d5f6461 	0x6d5f6461
  24:	78657475 	0x78657475
  28:	7079745f 	udi15	v1,t9,t6,0x11
  2c:	00745f65 	0x745f65
  30:	00002a32 	tlt	zero,zero,0xa8
  34:	72687470 	0x72687470
  38:	5f646165 	0x5f646165
  3c:	72616873 	0x72616873
  40:	79745f65 	0x79745f65
  44:	745f6570 	jalx	17d95c0 <_init-0x5e826a40>
  48:	002a5500 	0x2a5500
  4c:	69757100 	0x69757100
  50:	70615f74 	0x70615f74
  54:	6e695f70 	0x6e695f70
  58:	71006f66 	0x71006f66
  5c:	6900002a 	0x6900002a
  60:	6b6f766e 	0x6b6f766e
  64:	696c5f65 	0x696c5f65
  68:	8b007473 	lwl	zero,29811(t8)
  6c:	6d00002a 	0x6d00002a
  70:	63697375 	0x63697375
  74:	74756d5f 	jalx	1d5b57c <_init-0x5e2a4a84>
  78:	6c5f7865 	0x6c5f7865
  7c:	00747369 	0x747369
  80:	00002aaa 	0x2aaa
  84:	69646172 	0x69646172
  88:	756d5f6f 	jalx	5b57dbc <_init-0x5a4a8244>
  8c:	5f786574 	0x5f786574
  90:	7473696c 	jalx	1cda5b0 <_init-0x5e325a50>
  94:	002ac900 	0x2ac900
  98:	70706100 	0x70706100
  9c:	73696c5f 	udi15	k1,t1,t5,0x11
  a0:	2adb0074 	slti	k1,s6,116
  a4:	70610000 	madd	v1,at
  a8:	61705f70 	0x61705f70
  ac:	695f6874 	0x695f6874
  b0:	5f6f666e 	0x5f6f666e
  b4:	7473696c 	jalx	1cda5b0 <_init-0x5e325a50>
  b8:	002b2100 	0x2b2100
  bc:	5f6f6e00 	0x5f6f6e00
  c0:	6c6c696b 	0x6c6c696b
  c4:	79735f73 	0x79735f73
  c8:	6d657473 	0x6d657473
  cc:	002b4f00 	0x2b4f00
  d0:	67726100 	0x67726100
  d4:	00000073 	tltu	zero,zero,0x1
  d8:	00510000 	0x510000
  dc:	00020000 	sll	zero,v0,0x0
  e0:	00002c27 	0x2c27
  e4:	000000fe 	0xfe
  e8:	000000b0 	tge	zero,zero,0x2
  ec:	63657865 	0x63657865
  f0:	6c65725f 	0x6c65725f
  f4:	65736165 	0x65736165
  f8:	0000d900 	sll	k1,zero,0x4
  fc:	68747000 	0x68747000
 100:	64616572 	0x64616572
 104:	74756d5f 	jalx	1d5b57c <_init-0x5e2a4a84>
 108:	745f7865 	jalx	17de194 <_init-0x5e821e6c>
 10c:	5f657079 	0x5f657079
 110:	00eb0074 	teq	a3,t3,0x1
 114:	74700000 	jalx	1c00000 <_init-0x5e400000>
 118:	61657268 	0x61657268
 11c:	68735f64 	0x68735f64
 120:	5f657261 	0x5f657261
 124:	65707974 	0x65707974
 128:	0000745f 	0x745f
 12c:	6b000000 	0x6b000000
 130:	02000000 	0x2000000
 134:	002d2500 	0x2d2500
 138:	0007d200 	sll	k0,a3,0x8
 13c:	0005a100 	sll	s4,a1,0x4
 140:	6d756400 	0x6d756400
 144:	67726170 	0x67726170
 148:	05eb0076 	tltiu	t7,118
 14c:	72700000 	madd	s3,s0
 150:	7365636f 	0x7365636f
 154:	74735f73 	jalx	1cd7dcc <_init-0x5e328234>
 158:	00747261 	0x747261
 15c:	000006a3 	0x6a3
 160:	74735f5f 	jalx	1cd7d7c <_init-0x5e328284>
 164:	00747261 	0x747261
 168:	000007ad 	0x7ad
 16c:	72687470 	0x72687470
 170:	5f646165 	0x5f646165
 174:	6574756d 	0x6574756d
 178:	79745f78 	0x79745f78
 17c:	745f6570 	jalx	17d95c0 <_init-0x5e826a40>
 180:	0007bf00 	sll	s7,a3,0x1c
 184:	68747000 	0x68747000
 188:	64616572 	0x64616572
 18c:	6168735f 	0x6168735f
 190:	745f6572 	jalx	17d95c8 <_init-0x5e826a38>
 194:	5f657079 	0x5f657079
 198:	00000074 	teq	zero,zero,0x1
	...
Disassembly of section .debug_aranges:

00000000 <.debug_aranges>:
   0:	0000001c 	0x1c
   4:	00000002 	srl	zero,zero,0x0
   8:	00040000 	sll	zero,a0,0x0
   c:	00000000 	nop
  10:	60000020 	0x60000020
  14:	000029ec 	0x29ec
	...
  20:	0000001c 	0x1c
  24:	2c270002 	sltiu	a3,at,2
  28:	00040000 	sll	zero,a0,0x0
  2c:	00000000 	nop
  30:	60002b88 	0x60002b88
  34:	00000008 	jr	zero
  38:	00000000 	nop
  3c:	00000000 	nop
  40:	0000001c 	0x1c
  44:	2d250002 	sltiu	a1,t1,2
  48:	00040000 	sll	zero,a0,0x0
  4c:	00000000 	nop
  50:	60002b90 	0x60002b90
  54:	00000384 	0x384
	...
Disassembly of section .debug_str:

00000000 <.debug_str>:
   0:	676e6f6c 	0x676e6f6c
   4:	736e7520 	0x736e7520
   8:	656e6769 	0x656e6769
   c:	6e692064 	0x6e692064
  10:	70610074 	0x70610074
  14:	696c5f70 	0x696c5f70
  18:	62007473 	0x62007473
  1c:	766e695f 	jalx	9b9a57c <_init-0x56465a84>
  20:	72656b6f 	0x72656b6f
  24:	746f6e5f 	jalx	1bdb97c <_init-0x5e424684>
  28:	65696669 	0x65696669
  2c:	70610064 	0x70610064
  30:	616e5f70 	0x616e5f70
  34:	5f00656d 	bgtzl	t8,195ec <_init-0x5ffe6a14>
  38:	74706d5f 	jalx	1c1b57c <_init-0x5e3e4a84>
  3c:	616d0072 	0x616d0072
  40:	6567616e 	0x6567616e
  44:	74615f72 	jalx	1857dc8 <_init-0x5e7a8238>
  48:	72007274 	0x72007274
  4c:	796c7065 	0x796c7065
  50:	69786500 	0x69786500
  54:	70615f74 	0x70615f74
  58:	616e5f70 	0x616e5f70
  5c:	5f00656d 	bgtzl	t8,19614 <_init-0x5ffe69ec>
  60:	6e75665f 	0x6e75665f
  64:	005f5f63 	0x5f5f63
  68:	5f707061 	0x5f707061
  6c:	73697865 	0x73697865
  70:	736f0074 	0x736f0074
  74:	6576655f 	0x6576655f
  78:	655f746e 	0x655f746e
  7c:	705f7478 	0x705f7478
  80:	63007274 	0x63007274
  84:	65746e6f 	0x65746e6f
  88:	7300746e 	0x7300746e
  8c:	65646e65 	0x65646e65
  90:	616e5f72 	0x616e5f72
  94:	6100656d 	0x6100656d
  98:	705f7070 	0x705f7070
  9c:	00687461 	0x687461
  a0:	6779632f 	0x6779632f
  a4:	76697264 	jalx	9a5c990 <_init-0x565a3670>
  a8:	2f652f65 	sltiu	a1,k1,12133
  ac:	565f4343 	bnel	s2,ra,10dbc <_init-0x5ffef244>
  b0:	5f574549 	0x5f574549
  b4:	544f4f52 	bnel	v0,t7,13e00 <_init-0x5ffec200>
  b8:	776d682f 	jalx	db5a0bc <_init-0x524a5f44>
  bc:	755f6965 	jalx	57da594 <_init-0x5a825a6c>
  c0:	33313273 	andi	s1,t9,0x3273
  c4:	6e695f66 	0x6e695f66
  c8:	76752f74 	jalx	9d4bdd0 <_init-0x562b4230>
  cc:	662f626f 	0x662f626f
  d0:	2f707377 	sltiu	s0,k1,29559
  d4:	7362696c 	0x7362696c
  d8:	6c2f6372 	0x6c2f6372
  dc:	2f636269 	sltiu	v1,k1,25193
  e0:	656e6567 	0x656e6567
  e4:	2f6c6172 	sltiu	t4,k1,24946
  e8:	726f7463 	0x726f7463
  ec:	48545000 	cfc2	s4,$10
  f0:	44414552 	0x44414552
  f4:	4f52505f 	c3	0x152505f
  f8:	53534543 	beql	k0,s3,11608 <_init-0x5ffee9f8>
  fc:	4952505f 	0x4952505f
 100:	45544156 	0x45544156
 104:	554e4700 	bnel	t2,t6,11d08 <_init-0x5ffee2f8>
 108:	33204320 	andi	zero,t9,0x4320
 10c:	342e342e 	ori	t6,at,0x342e
 110:	70696d20 	0x70696d20
 114:	65647373 	0x65647373
 118:	302e362d 	andi	t6,at,0x362d
 11c:	31302e36 	andi	s0,t1,0x2e36
 120:	3030322d 	andi	s0,at,0x322d
 124:	32343037 	andi	s4,s1,0x3037
 128:	6f6c0030 	0x6f6c0030
 12c:	6c20676e 	0x6c20676e
 130:	20676e6f 	addi	a3,v1,28271
 134:	69736e75 	0x69736e75
 138:	64656e67 	0x64656e67
 13c:	746e6920 	jalx	1b9a480 <_init-0x5e465b80>
 140:	48545000 	cfc2	s4,$10
 144:	44414552 	0x44414552
 148:	54554d5f 	bnel	v0,s5,136c8 <_init-0x5ffec938>
 14c:	525f5845 	beql	s2,ra,16264 <_init-0x5ffe9d9c>
 150:	52554345 	beql	s2,s5,10e68 <_init-0x5ffef198>
 154:	45564953 	0x45564953
 158:	65786500 	0x65786500
 15c:	65725f63 	0x65725f63
 160:	7361656c 	0x7361656c
 164:	72630065 	0x72630065
 168:	67656274 	0x67656274
 16c:	2e316e69 	sltiu	s1,s1,28265
 170:	54500063 	bnel	v0,s0,300 <_init-0x5ffffd00>
 174:	41455248 	0x41455248
 178:	554d5f44 	bnel	t2,t5,17e8c <_init-0x5ffe8174>
 17c:	5f584554 	0x5f584554
 180:	4f525245 	c3	0x1525245
 184:	45484352 	0x45484352
 188:	6c004b43 	0x6c004b43
 18c:	20676e6f 	addi	a3,v1,28271
 190:	676e6f6c 	0x676e6f6c
 194:	746e6920 	jalx	1b9a480 <_init-0x5e465b80>
 198:	48545000 	cfc2	s4,$10
 19c:	44414552 	0x44414552
 1a0:	4f52505f 	c3	0x152505f
 1a4:	53534543 	beql	k0,s3,116b4 <_init-0x5ffee94c>
 1a8:	4148535f 	0x4148535f
 1ac:	00444552 	0x444552
 1b0:	52485450 	beql	s2,t0,152f4 <_init-0x5ffead0c>
 1b4:	5f444145 	0x5f444145
 1b8:	4554554d 	0x4554554d
 1bc:	4f4e5f58 	c3	0x14e5f58
 1c0:	4c414d52 	0x4c414d52
 1c4:	61647000 	0x61647000
 1c8:	50006174 	beqzl	zero,1879c <_init-0x5ffe7864>
 1cc:	45524854 	0x45524854
 1d0:	4d5f4441 	0x4d5f4441
 1d4:	58455455 	0x58455455
 1d8:	564e495f 	bnel	s2,t6,12758 <_init-0x5ffed8a8>
 1dc:	44494c41 	0x44494c41
 1e0:	6f687300 	0x6f687300
 1e4:	69207472 	0x69207472
 1e8:	7000746e 	0x7000746e
 1ec:	65726874 	0x65726874
 1f0:	6d5f6461 	0x6d5f6461
 1f4:	78657475 	0x78657475
 1f8:	7079745f 	udi15	v1,t9,t6,0x11
 1fc:	00745f65 	0x745f65
 200:	69736e75 	0x69736e75
 204:	64656e67 	0x64656e67
 208:	61686320 	0x61686320
 20c:	74700072 	jalx	1c001c8 <_init-0x5e3ffe38>
 210:	61657268 	0x61657268
 214:	68735f64 	0x68735f64
 218:	5f657261 	0x5f657261
 21c:	65707974 	0x65707974
 220:	7300745f 	udi15	t8,zero,t6,0x11
 224:	74726f68 	jalx	1c9bda0 <_init-0x5e364260>
 228:	736e7520 	0x736e7520
 22c:	656e6769 	0x656e6769
 230:	6e692064 	0x6e692064
 234:	54500074 	bnel	v0,s0,408 <_init-0x5ffffbf8>
 238:	41455248 	0x41455248
 23c:	554d5f44 	bnel	t2,t5,17f50 <_init-0x5ffe80b0>
 240:	5f584554 	0x5f584554
 244:	41464544 	0x41464544
 248:	00544c55 	0x544c55
 24c:	72687470 	0x72687470
 250:	5f646165 	0x5f646165
 254:	63736564 	0x63736564
 258:	61700072 	0x61700072
 25c:	70006874 	0x70006874
 260:	735f6469 	0x735f6469
 264:	00657661 	0x657661
 268:	69745f70 	0x69745f70
 26c:	69760064 	0x69760064
 270:	6c626973 	0x6c626973
 274:	68745f65 	0x68745f65
 278:	64616572 	0x64616572
 27c:	6d756e5f 	0x6d756e5f
 280:	68747000 	0x68747000
 284:	64616572 	0x64616572
 288:	7000745f 	udi15	zero,zero,t6,0x11
 28c:	65726874 	0x65726874
 290:	6b5f6461 	0x6b5f6461
 294:	735f7965 	0x735f7965
 298:	63757274 	0x63757274
 29c:	65720074 	0x65720074
 2a0:	746c7573 	jalx	1b1d5cc <_init-0x5e4e2a34>
 2a4:	73656400 	0x73656400
 2a8:	685f7263 	0x685f7263
 2ac:	00646165 	0x646165
 2b0:	70766e65 	0x70766e65
 2b4:	62757300 	0x62757300
 2b8:	6469705f 	0x6469705f
 2bc:	7272615f 	udi15	s3,s2,t4,0x5
 2c0:	5f007961 	bgtzl	t8,1e848 <_init-0x5ffe17b8>
 2c4:	6772615f 	0x6772615f
 2c8:	746e6900 	jalx	1b9a400 <_init-0x5e465c00>
 2cc:	0064695f 	0x64695f
 2d0:	65725f70 	0x65725f70
 2d4:	00746e65 	0x746e65
 2d8:	746e6f63 	jalx	1b9bd8c <_init-0x5e464274>
 2dc:	69746e65 	0x69746e65
 2e0:	63736e6f 	0x63736e6f
 2e4:	0065706f 	0x65706f
 2e8:	6c635f70 	0x6c635f70
 2ec:	756e6165 	jalx	5b98594 <_init-0x5a467a6c>
 2f0:	63730070 	0x63730070
 2f4:	70646568 	0x70646568
 2f8:	6d617261 	0x6d617261
 2fc:	465f5f00 	c1	0x5f5f00
 300:	54434e55 	bnel	v0,v1,13c58 <_init-0x5ffec3a8>
 304:	5f4e4f49 	0x5f4e4f49
 308:	6e69005f 	0x6e69005f
 30c:	69726568 	0x69726568
 310:	68637374 	0x68637374
 314:	65006465 	0x65006465
 318:	5f746978 	0x5f746978
 31c:	65636e6f 	0x65636e6f
 320:	6f727000 	0x6f727000
 324:	73736563 	0x73736563
 328:	6174735f 	0x6174735f
 32c:	70007472 	0x70007472
 330:	6570735f 	0x6570735f
 334:	69666963 	0x69666963
 338:	69660063 	0x69660063
 33c:	6100656c 	0x6100656c
 340:	69786574 	0x69786574
 344:	75665f74 	jalx	5997dd0 <_init-0x5a668230>
 348:	7300636e 	0x7300636e
 34c:	64656863 	0x64656863
 350:	7261705f 	udi15	s3,at,t6,0x1
 354:	50006d61 	beqzl	zero,1b8dc <_init-0x5ffe4724>
 358:	45524854 	0x45524854
 35c:	435f4441 	c0	0x15f4441
 360:	54414552 	bnel	v0,at,118ac <_init-0x5ffee754>
 364:	4f4a5f45 	c3	0x14a5f45
 368:	42414e49 	c0	0x414e49
 36c:	7000454c 	0x7000454c
 370:	65636f72 	0x65636f72
 374:	695f7373 	0x695f7373
 378:	70630064 	0x70630064
 37c:	72735f75 	0x72735f75
 380:	69786500 	0x69786500
 384:	68745f74 	0x68745f74
 388:	64616572 	0x64616572
 38c:	6500745f 	0x6500745f
 390:	5f746978 	0x5f746978
 394:	006c6176 	tne	v1,t4,0x185
 398:	666c6573 	0x666c6573
 39c:	69786500 	0x69786500
 3a0:	68745f74 	0x68745f74
 3a4:	64616572 	0x64616572
 3a8:	6d756e5f 	0x6d756e5f
 3ac:	6e696c00 	0x6e696c00
 3b0:	655f0065 	0x655f0065
 3b4:	6f6e7272 	0x6f6e7272
 3b8:	735f7000 	0x735f7000
 3bc:	6b636174 	0x6b636174
 3c0:	68745f00 	0x68745f00
 3c4:	64616572 	0x64616572
 3c8:	5f64695f 	0x5f64695f
 3cc:	5f700074 	0x5f700074
 3d0:	6e696f6a 	0x6e696f6a
 3d4:	00676e69 	0x676e69
 3d8:	63677261 	0x63677261
 3dc:	74656400 	jalx	1959000 <_init-0x5e6a7000>
 3e0:	73686361 	0x73686361
 3e4:	65746174 	0x65746174
 3e8:	48545000 	cfc2	s4,$10
 3ec:	44414552 	0x44414552
 3f0:	4552435f 	0x4552435f
 3f4:	5f455441 	0x5f455441
 3f8:	41544544 	0x41544544
 3fc:	44454843 	0x44454843
 400:	62757300 	0x62757300
 404:	6469705f 	0x6469705f
 408:	6d756e5f 	0x6d756e5f
 40c:	68747000 	0x68747000
 410:	64616572 	0x64616572
 414:	636e6f5f 	0x636e6f5f
 418:	00745f65 	0x745f65
 41c:	636e6f63 	0x636e6f63
 420:	65727275 	0x65727275
 424:	6c79636e 	0x6c79636e
 428:	6c657665 	0x6c657665
 42c:	61756700 	0x61756700
 430:	69736472 	0x69736472
 434:	7000657a 	0x7000657a
 438:	65726874 	0x65726874
 43c:	735f6461 	0x735f6461
 440:	74726174 	jalx	1c985d0 <_init-0x5e367a30>
 444:	6772615f 	0x6772615f
 448:	5f700073 	0x5f700073
 44c:	74697865 	jalx	1a5e194 <_init-0x5e5a1e6c>
 450:	70006465 	0x70006465
 454:	65726874 	0x65726874
 458:	615f6461 	0x615f6461
 45c:	5f727474 	0x5f727474
 460:	69700074 	0x69700074
 464:	00745f64 	0x745f64
 468:	6f725f5f 	0x6f725f5f
 46c:	6e697475 	0x6e697475
 470:	74730065 	jalx	1cc0194 <_init-0x5e33fe6c>
 474:	736b6361 	0x736b6361
 478:	00657a69 	0x657a69
 47c:	65725f70 	0x65725f70
 480:	6c617674 	0x6c617674
 484:	5f736900 	0x5f736900
 488:	64657375 	0x64657375
 48c:	65746100 	0x65746100
 490:	5f746978 	0x5f746978
 494:	636e7566 	0x636e7566
 498:	006d756e 	0x6d756e
 49c:	65686373 	0x65686373
 4a0:	72705f64 	0x72705f64
 4a4:	69726f69 	0x69726f69
 4a8:	5f007974 	bgtzl	t8,1ea7c <_init-0x5ffe1584>
 4ac:	72687470 	0x72687470
 4b0:	5f646165 	0x5f646165
 4b4:	63736564 	0x63736564
 4b8:	74735f72 	jalx	1cd7dc8 <_init-0x5e328238>
 4bc:	74637572 	jalx	18dd5c8 <_init-0x5e722a38>
 4c0:	6d756400 	0x6d756400
 4c4:	67726170 	0x67726170
 4c8:	5f700076 	0x5f700076
 4cc:	63657073 	0x63657073
 4d0:	63696669 	0x63696669
 4d4:	6e6f635f 	0x6e6f635f
 4d8:	746e6574 	jalx	1b995d0 <_init-0x5e466a30>
 4dc:	6f727000 	0x6f727000
 4e0:	73736563 	0x73736563
 4e4:	7274735f 	udi15	s3,s4,t6,0xd
 4e8:	00746375 	0x746375
 4ec:	6874705f 	0x6874705f
 4f0:	64616572 	0x64616572
 4f4:	656c635f 	0x656c635f
 4f8:	70756e61 	0x70756e61
 4fc:	6675625f 	0x6675625f
 500:	00726566 	0x726566
 504:	72687470 	0x72687470
 508:	5f646165 	0x5f646165
 50c:	72747461 	0x72747461
 510:	74656400 	jalx	1959000 <_init-0x5e6a7000>
 514:	5f686361 	0x5f686361
 518:	72747461 	0x72747461
 51c:	6500745f 	0x6500745f
 520:	5f746978 	0x5f746978
 524:	65726874 	0x65726874
 528:	615f6461 	0x615f6461
 52c:	79617272 	0x79617272
 530:	72705f00 	0x72705f00
 534:	7365636f 	0x7365636f
 538:	6c635f73 	0x6c635f73
 53c:	756e6165 	jalx	5b98594 <_init-0x5a467a6c>
 540:	75625f70 	jalx	5897dc0 <_init-0x5a768240>
 544:	72656666 	0x72656666
 548:	735f5f00 	0x735f5f00
 54c:	74726174 	jalx	1c985d0 <_init-0x5e367a30>
 550:	61747300 	0x61747300
 554:	64616b63 	0x64616b63
 558:	63007264 	0x63007264
 55c:	6e657472 	0x6e657472
 560:	632e3164 	0x632e3164
 564:	735f7000 	0x735f7000
 568:	74726174 	jalx	1c985d0 <_init-0x5e367a30>
 56c:	6772615f 	0x6772615f
 570:	72700073 	0x72700073
 574:	7365636f 	0x7365636f
 578:	74735f73 	jalx	1cd7dcc <_init-0x5e328234>
 57c:	74637572 	jalx	18dd5c8 <_init-0x5e722a38>
 580:	6400745f 	0x6400745f
 584:	72747365 	0x72747365
 588:	6f746375 	0x6f746375
 58c:	74730072 	jalx	1cc01c8 <_init-0x5e33fe38>
 590:	5f747261 	0x5f747261
 594:	74756f72 	jalx	1d5bdc8 <_init-0x5e2a4238>
 598:	00656e69 	0x656e69
 59c:	65745f70 	0x65745f70
 5a0:	6e696d72 	0x6e696d72
 5a4:	64657461 	0x64657461
 5a8:	67616d00 	0x67616d00
 5ac:	6e006369 	0x6e006369
 5b0:	00747865 	0x747865
 5b4:	75727473 	jalx	5c9d1cc <_init-0x5a362e34>
 5b8:	695f7463 	0x695f7463
 5bc:	63730064 	0x63730064
 5c0:	70646568 	0x70646568
 5c4:	63696c6f 	0x63696c6f
 5c8:	Address 0x5c8 is out of bounds.

Disassembly of section .comment:

00000000 <.comment>:
   0:	43434700 	c0	0x1434700
   4:	4728203a 	c1	0x128203a
   8:	2029554e 	addi	t1,at,21838
   c:	2e342e33 	sltiu	s4,s1,11827
  10:	696d2034 	0x696d2034
  14:	64737370 	0x64737370
  18:	2e362d65 	sltiu	s6,s1,11621
  1c:	302e3630 	andi	t6,at,0x3630
  20:	30322d31 	andi	s2,at,0x2d31
  24:	34303730 	ori	s0,at,0x3730
  28:	00003032 	tlt	zero,zero,0xc0
  2c:	3a434347 	xori	v1,s2,0x4347
  30:	4e472820 	madd.s	$f0,$f18,$f5,$f7
  34:	33202955 	andi	zero,t9,0x2955
  38:	342e342e 	ori	t6,at,0x342e
  3c:	70696d20 	0x70696d20
  40:	65647373 	0x65647373
  44:	302e362d 	andi	t6,at,0x362d
  48:	31302e36 	andi	s0,t1,0x2e36
  4c:	3030322d 	andi	s0,at,0x322d
  50:	32343037 	andi	s4,s1,0x3037
  54:	47000030 	c1	0x1000030
  58:	203a4343 	addi	k0,at,17219
  5c:	554e4728 	bnel	t2,t6,11d00 <_init-0x5ffee300>
  60:	2e332029 	sltiu	s3,s1,8233
  64:	20342e34 	addi	s4,at,11828
  68:	7370696d 	0x7370696d
  6c:	2d656473 	sltiu	a1,t3,25715
  70:	36302e36 	ori	s0,s1,0x2e36
  74:	2d31302e 	sltiu	s1,t1,12334
  78:	37303032 	ori	s0,t9,0x3032
  7c:	30323430 	andi	s2,at,0x3430
  80:	43470000 	c0	0x1470000
  84:	28203a43 	slti	zero,at,14915
  88:	29554e47 	slti	s5,t2,20039
  8c:	342e3320 	ori	t6,at,0x3320
  90:	6d20342e 	0x6d20342e
  94:	73737069 	0x73737069
  98:	362d6564 	ori	t5,s1,0x6564
  9c:	2e36302e 	sltiu	s6,s1,12334
  a0:	322d3130 	andi	t5,s1,0x3130
  a4:	30373030 	andi	s7,at,0x3030
  a8:	00303234 	teq	at,s0,0xc8
  ac:	43434700 	c0	0x1434700
  b0:	4728203a 	c1	0x128203a
  b4:	2029554e 	addi	t1,at,21838
  b8:	2e342e33 	sltiu	s4,s1,11827
  bc:	696d2034 	0x696d2034
  c0:	64737370 	0x64737370
  c4:	2e362d65 	sltiu	s6,s1,11621
  c8:	302e3630 	andi	t6,at,0x3630
  cc:	30322d31 	andi	s2,at,0x2d31
  d0:	34303730 	ori	s0,at,0x3730
  d4:	00003032 	tlt	zero,zero,0xc0
  d8:	3a434347 	xori	v1,s2,0x4347
  dc:	4e472820 	madd.s	$f0,$f18,$f5,$f7
  e0:	33202955 	andi	zero,t9,0x2955
  e4:	342e342e 	ori	t6,at,0x342e
  e8:	70696d20 	0x70696d20
  ec:	65647373 	0x65647373
  f0:	302e362d 	andi	t6,at,0x362d
  f4:	31302e36 	andi	s0,t1,0x2e36
  f8:	3030322d 	andi	s0,at,0x322d
  fc:	32343037 	andi	s4,s1,0x3037
 100:	47000030 	c1	0x1000030
 104:	203a4343 	addi	k0,at,17219
 108:	554e4728 	bnel	t2,t6,11dac <_init-0x5ffee254>
 10c:	2e332029 	sltiu	s3,s1,8233
 110:	20342e34 	addi	s4,at,11828
 114:	7370696d 	0x7370696d
 118:	2d656473 	sltiu	a1,t3,25715
 11c:	36302e36 	ori	s0,s1,0x2e36
 120:	2d31302e 	sltiu	s1,t1,12334
 124:	37303032 	ori	s0,t9,0x3032
 128:	30323430 	andi	s2,at,0x3430
 12c:	43470000 	c0	0x1470000
 130:	28203a43 	slti	zero,at,14915
 134:	29554e47 	slti	s5,t2,20039
 138:	342e3320 	ori	t6,at,0x3320
 13c:	6d20342e 	0x6d20342e
 140:	73737069 	0x73737069
 144:	362d6564 	ori	t5,s1,0x6564
 148:	2e36302e 	sltiu	s6,s1,12334
 14c:	322d3130 	andi	t5,s1,0x3130
 150:	30373030 	andi	s7,at,0x3030
 154:	00303234 	teq	at,s0,0xc8
 158:	43434700 	c0	0x1434700
 15c:	4728203a 	c1	0x128203a
 160:	2029554e 	addi	t1,at,21838
 164:	2e342e33 	sltiu	s4,s1,11827
 168:	696d2034 	0x696d2034
 16c:	64737370 	0x64737370
 170:	2e362d65 	sltiu	s6,s1,11621
 174:	302e3630 	andi	t6,at,0x3630
 178:	30322d31 	andi	s2,at,0x2d31
 17c:	34303730 	ori	s0,at,0x3730
 180:	00003032 	tlt	zero,zero,0xc0
 184:	3a434347 	xori	v1,s2,0x4347
 188:	4e472820 	madd.s	$f0,$f18,$f5,$f7
 18c:	33202955 	andi	zero,t9,0x2955
 190:	342e342e 	ori	t6,at,0x342e
 194:	70696d20 	0x70696d20
 198:	65647373 	0x65647373
 19c:	302e362d 	andi	t6,at,0x362d
 1a0:	31302e36 	andi	s0,t1,0x2e36
 1a4:	3030322d 	andi	s0,at,0x322d
 1a8:	32343037 	andi	s4,s1,0x3037
 1ac:	47000030 	c1	0x1000030
 1b0:	203a4343 	addi	k0,at,17219
 1b4:	554e4728 	bnel	t2,t6,11e58 <_init-0x5ffee1a8>
 1b8:	2e332029 	sltiu	s3,s1,8233
 1bc:	20342e34 	addi	s4,at,11828
 1c0:	7370696d 	0x7370696d
 1c4:	2d656473 	sltiu	a1,t3,25715
 1c8:	36302e36 	ori	s0,s1,0x2e36
 1cc:	2d31302e 	sltiu	s1,t1,12334
 1d0:	37303032 	ori	s0,t9,0x3032
 1d4:	30323430 	andi	s2,at,0x3430
 1d8:	43470000 	c0	0x1470000
 1dc:	28203a43 	slti	zero,at,14915
 1e0:	29554e47 	slti	s5,t2,20039
 1e4:	342e3320 	ori	t6,at,0x3320
 1e8:	6d20342e 	0x6d20342e
 1ec:	73737069 	0x73737069
 1f0:	362d6564 	ori	t5,s1,0x6564
 1f4:	2e36302e 	sltiu	s6,s1,12334
 1f8:	322d3130 	andi	t5,s1,0x3130
 1fc:	30373030 	andi	s7,at,0x3030
 200:	00303234 	teq	at,s0,0xc8
 204:	43434700 	c0	0x1434700
 208:	4728203a 	c1	0x128203a
 20c:	2029554e 	addi	t1,at,21838
 210:	2e342e33 	sltiu	s4,s1,11827
 214:	696d2034 	0x696d2034
 218:	64737370 	0x64737370
 21c:	2e362d65 	sltiu	s6,s1,11621
 220:	302e3630 	andi	t6,at,0x3630
 224:	30322d31 	andi	s2,at,0x2d31
 228:	34303730 	ori	s0,at,0x3730
 22c:	Address 0x22c is out of bounds.

Disassembly of section .debug_ranges:

00000000 <.debug_ranges>:
   0:	000001ec 	0x1ec
   4:	0000028c 	syscall	0xa
   8:	0000034c 	syscall	0xd
   c:	00000384 	0x384
	...
  18:	00000294 	0x294
  1c:	000002c8 	0x2c8
  20:	00000334 	teq	zero,zero,0xc
  24:	0000033c 	0x33c
	...
