
./../../../../case/images/apps/emulator/emulator.app:     file format elf32-tradlittlemips

Disassembly of section .init:

68800000 <_init>:
68800000:	27bdffe0 	addiu	sp,sp,-32
68800004:	afbf0014 	sw	ra,20(sp)
68800008:	0e201477 	jal	688051dc <__do_global_ctors_aux>
6880000c:	00000000 	nop
68800010:	8fbf0014 	lw	ra,20(sp)
68800014:	27bd0020 	addiu	sp,sp,32
68800018:	03e00008 	jr	ra
6880001c:	00000000 	nop
Disassembly of section .text:

68800020 <em_mount_drv>:
68800020:	3c026880 	lui	v0,0x6880
68800024:	27bdffe8 	addiu	sp,sp,-24
68800028:	24446320 	addiu	a0,v0,25376
6880002c:	afbf0010 	sw	ra,16(sp)
68800030:	0e201811 	jal	68806044 <insmod>
68800034:	00002821 	move	a1,zero
68800038:	3c046880 	lui	a0,0x6880
6880003c:	8fbf0010 	lw	ra,16(sp)
68800040:	2484632c 	addiu	a0,a0,25388
68800044:	24052000 	li	a1,8192
68800048:	3406fb00 	li	a2,0xfb00
6880004c:	0a20180e 	j	68806038 <sys_mknod>
68800050:	27bd0018 	addiu	sp,sp,24

68800054 <em_umount_drv>:
68800054:	3c046880 	lui	a0,0x6880
68800058:	24846320 	addiu	a0,a0,25376
6880005c:	0a201814 	j	68806050 <rmmod>
68800060:	00002821 	move	a1,zero

68800064 <em_dirlist_enter>:
68800064:	27bdffc8 	addiu	sp,sp,-56
68800068:	afbf0030 	sw	ra,48(sp)
6880006c:	afb1002c 	sw	s1,44(sp)
68800070:	afb00028 	sw	s0,40(sp)
68800074:	3c026880 	lui	v0,0x6880
68800078:	8c45735c 	lw	a1,29532(v0)
6880007c:	27b00020 	addiu	s0,sp,32
68800080:	02003021 	move	a2,s0
68800084:	00808821 	move	s1,a0
68800088:	0e201304 	jal	68804c10 <fusion_get_config>
6880008c:	24040001 	li	a0,1
68800090:	02002021 	move	a0,s0
68800094:	0e201307 	jal	68804c1c <fusion_set_effect>
68800098:	3c106880 	lui	s0,0x6880
6880009c:	8e037358 	lw	v1,29528(s0)
688000a0:	0e201034 	jal	688040d0 <scene_fusion_set_first_frame>
688000a4:	8c640000 	lw	a0,0(v1)
688000a8:	8e22007c 	lw	v0,124(s1)
688000ac:	3c056880 	lui	a1,0x6880
688000b0:	24a50188 	addiu	a1,a1,392
688000b4:	14400015 	bnez	v0,6880010c <em_dirlist_enter+0xa8>
688000b8:	27a40010 	addiu	a0,sp,16
688000bc:	24090001 	li	t1,1
688000c0:	3c076881 	lui	a3,0x6881
688000c4:	24080004 	li	t0,4
688000c8:	24e681f0 	addiu	a2,a3,-32272
688000cc:	ae290098 	sw	t1,152(s1)
688000d0:	afa80010 	sw	t0,16(sp)
688000d4:	afa60014 	sw	a2,20(sp)
688000d8:	afa00018 	sw	zero,24(sp)
688000dc:	0e201268 	jal	688049a0 <dirlist_create>
688000e0:	afa0001c 	sw	zero,28(sp)
688000e4:	00402021 	move	a0,v0
688000e8:	ae22007c 	sw	v0,124(s1)
688000ec:	1440000a 	bnez	v0,68800118 <em_dirlist_enter+0xb4>
688000f0:	00001821 	move	v1,zero
688000f4:	8fbf0030 	lw	ra,48(sp)
688000f8:	8fb1002c 	lw	s1,44(sp)
688000fc:	8fb00028 	lw	s0,40(sp)
68800100:	00601021 	move	v0,v1
68800104:	03e00008 	jr	ra
68800108:	27bd0038 	addiu	sp,sp,56
6880010c:	0e20127d 	jal	688049f4 <dirlist_show>
68800110:	00402021 	move	a0,v0
68800114:	8e24007c 	lw	a0,124(s1)
68800118:	0e201271 	jal	688049c4 <dirlist_paint>
6880011c:	00000000 	nop
68800120:	8e0a7358 	lw	t2,29528(s0)
68800124:	0e201051 	jal	68804144 <scene_fusion_set_last_frame>
68800128:	8d440000 	lw	a0,0(t2)
6880012c:	0e201301 	jal	68804c04 <fusion_display>
68800130:	00002021 	move	a0,zero
68800134:	24030001 	li	v1,1
68800138:	8fbf0030 	lw	ra,48(sp)
6880013c:	8fb1002c 	lw	s1,44(sp)
68800140:	8fb00028 	lw	s0,40(sp)
68800144:	00601021 	move	v0,v1
68800148:	03e00008 	jr	ra
6880014c:	27bd0038 	addiu	sp,sp,56

68800150 <em_dirlist_exit>:
68800150:	27bdffe8 	addiu	sp,sp,-24
68800154:	afbf0010 	sw	ra,16(sp)
68800158:	10800007 	beqz	a0,68800178 <em_dirlist_exit+0x28>
6880015c:	24050001 	li	a1,1
68800160:	0e20126e 	jal	688049b8 <dirlist_delete>
68800164:	00000000 	nop
68800168:	00402821 	move	a1,v0
6880016c:	3c026880 	lui	v0,0x6880
68800170:	8c437358 	lw	v1,29528(v0)
68800174:	ac60007c 	sw	zero,124(v1)
68800178:	8fbf0010 	lw	ra,16(sp)
6880017c:	00a01021 	move	v0,a1
68800180:	03e00008 	jr	ra
68800184:	27bd0018 	addiu	sp,sp,24

68800188 <_em_dirlist_cb>:
68800188:	27bdffe0 	addiu	sp,sp,-32
6880018c:	3c026880 	lui	v0,0x6880
68800190:	afb20018 	sw	s2,24(sp)
68800194:	2452776c 	addiu	s2,v0,30572
68800198:	afb10014 	sw	s1,20(sp)
6880019c:	afbf001c 	sw	ra,28(sp)
688001a0:	00808821 	move	s1,a0
688001a4:	afb00010 	sw	s0,16(sp)
688001a8:	24060200 	li	a2,512
688001ac:	10a00009 	beqz	a1,688001d4 <_em_dirlist_cb+0x4c>
688001b0:	02402021 	move	a0,s2
688001b4:	24040001 	li	a0,1
688001b8:	10a4002a 	beq	a1,a0,68800264 <_em_dirlist_cb+0xdc>
688001bc:	8fbf001c 	lw	ra,28(sp)
688001c0:	8fb20018 	lw	s2,24(sp)
688001c4:	8fb10014 	lw	s1,20(sp)
688001c8:	8fb00010 	lw	s0,16(sp)
688001cc:	03e00008 	jr	ra
688001d0:	27bd0020 	addiu	sp,sp,32
688001d4:	0e201782 	jal	68805e08 <memset>
688001d8:	00000000 	nop
688001dc:	3c096880 	lui	t1,0x6880
688001e0:	2530736c 	addiu	s0,t1,29548
688001e4:	02402021 	move	a0,s2
688001e8:	0e2017b1 	jal	68805ec4 <strcpy>
688001ec:	02002821 	move	a1,s0
688001f0:	02002021 	move	a0,s0
688001f4:	00002821 	move	a1,zero
688001f8:	0e201782 	jal	68805e08 <memset>
688001fc:	24060200 	li	a2,512
68800200:	8e260018 	lw	a2,24(s1)
68800204:	8e27001c 	lw	a3,28(s1)
68800208:	3c086880 	lui	t0,0x6880
6880020c:	25056338 	addiu	a1,t0,25400
68800210:	0e2014e5 	jal	68805394 <sprintf>
68800214:	02002021 	move	a0,s0
68800218:	0e201280 	jal	68804a00 <dirlist_hide>
6880021c:	02202021 	move	a0,s1
68800220:	3c076880 	lui	a3,0x6880
68800224:	24e47b6c 	addiu	a0,a3,31596
68800228:	00002821 	move	a1,zero
6880022c:	0e201782 	jal	68805e08 <memset>
68800230:	24060400 	li	a2,1024
68800234:	3c066880 	lui	a2,0x6880
68800238:	8cc47358 	lw	a0,29528(a2)
6880023c:	3c056881 	lui	a1,0x6881
68800240:	3c036880 	lui	v1,0x6880
68800244:	8fbf001c 	lw	ra,28(sp)
68800248:	8fb20018 	lw	s2,24(sp)
6880024c:	8fb10014 	lw	s1,20(sp)
68800250:	8fb00010 	lw	s0,16(sp)
68800254:	27bd0020 	addiu	sp,sp,32
68800258:	aca08278 	sw	zero,-32136(a1)
6880025c:	0a20032f 	j	68800cbc <em_second_level_menu_enter>
68800260:	ac60733c 	sw	zero,29500(v1)
68800264:	0e200b72 	jal	68802dc8 <emu_exit>
68800268:	00000000 	nop
6880026c:	0e2014dc 	jal	68805370 <sleep>
68800270:	24040001 	li	a0,1
68800274:	8fbf001c 	lw	ra,28(sp)
68800278:	8fb20018 	lw	s2,24(sp)
6880027c:	8fb10014 	lw	s1,20(sp)
68800280:	8fb00010 	lw	s0,16(sp)
68800284:	0a200f45 	j	68803d14 <emulator_scene_quit>
68800288:	27bd0020 	addiu	sp,sp,32

6880028c <_em_fourth_level_menu_exit>:
6880028c:	27bdffe0 	addiu	sp,sp,-32
68800290:	afb10014 	sw	s1,20(sp)
68800294:	afb00010 	sw	s0,16(sp)
68800298:	afbf0018 	sw	ra,24(sp)
6880029c:	3c116880 	lui	s1,0x6880
688002a0:	8e227358 	lw	v0,29528(s1)
688002a4:	3c106880 	lui	s0,0x6880
688002a8:	0e2012bc 	jal	68804af0 <menuview_hide>
688002ac:	8c44006c 	lw	a0,108(v0)
688002b0:	8e037018 	lw	v1,28696(s0)
688002b4:	1460000b 	bnez	v1,688002e4 <_em_fourth_level_menu_exit+0x58>
688002b8:	00602021 	move	a0,v1
688002bc:	8e267358 	lw	a2,29528(s1)
688002c0:	00002821 	move	a1,zero
688002c4:	0e2012bf 	jal	68804afc <menuview_set_menu>
688002c8:	8cc4006c 	lw	a0,108(a2)
688002cc:	8fbf0018 	lw	ra,24(sp)
688002d0:	8fb10014 	lw	s1,20(sp)
688002d4:	8fb00010 	lw	s0,16(sp)
688002d8:	24020001 	li	v0,1
688002dc:	03e00008 	jr	ra
688002e0:	27bd0020 	addiu	sp,sp,32
688002e4:	0e20129b 	jal	68804a6c <menu_delete>
688002e8:	00000000 	nop
688002ec:	8e267358 	lw	a2,29528(s1)
688002f0:	00002821 	move	a1,zero
688002f4:	8cc4006c 	lw	a0,108(a2)
688002f8:	0e2012bf 	jal	68804afc <menuview_set_menu>
688002fc:	ae007018 	sw	zero,28696(s0)
68800300:	8fbf0018 	lw	ra,24(sp)
68800304:	8fb10014 	lw	s1,20(sp)
68800308:	8fb00010 	lw	s0,16(sp)
6880030c:	24020001 	li	v0,1
68800310:	03e00008 	jr	ra
68800314:	27bd0020 	addiu	sp,sp,32

68800318 <_menuitem_callback>:
68800318:	03e00008 	jr	ra
6880031c:	00001021 	move	v0,zero

68800320 <_get_key_name_from_keymap>:
68800320:	24020020 	li	v0,32
68800324:	1082001a 	beq	a0,v0,68800390 <_get_key_name_from_keymap+0x70>
68800328:	28830021 	slti	v1,a0,33
6880032c:	1060000d 	beqz	v1,68800364 <_get_key_name_from_keymap+0x44>
68800330:	240b0200 	li	t3,512
68800334:	24060002 	li	a2,2
68800338:	10860023 	beq	a0,a2,688003c8 <_get_key_name_from_keymap+0xa8>
6880033c:	28870003 	slti	a3,a0,3
68800340:	14e00017 	bnez	a3,688003a0 <_get_key_name_from_keymap+0x80>
68800344:	24080001 	li	t0,1
68800348:	24090008 	li	t1,8
6880034c:	10890026 	beq	a0,t1,688003e8 <_get_key_name_from_keymap+0xc8>
68800350:	240a0010 	li	t2,16
68800354:	508a0033 	beql	a0,t2,68800424 <_get_key_name_from_keymap+0x104>
68800358:	3c066880 	lui	a2,0x6880
6880035c:	03e00008 	jr	ra
68800360:	00000000 	nop
68800364:	108b001c 	beq	a0,t3,688003d8 <_get_key_name_from_keymap+0xb8>
68800368:	288c0201 	slti	t4,a0,513
6880036c:	11800010 	beqz	t4,688003b0 <_get_key_name_from_keymap+0x90>
68800370:	240f0400 	li	t7,1024
68800374:	240d0040 	li	t5,64
68800378:	108d001f 	beq	a0,t5,688003f8 <_get_key_name_from_keymap+0xd8>
6880037c:	240e0100 	li	t6,256
68800380:	508e002b 	beql	a0,t6,68800430 <_get_key_name_from_keymap+0x110>
68800384:	00a02021 	move	a0,a1
68800388:	03e00008 	jr	ra
6880038c:	00000000 	nop
68800390:	3c026880 	lui	v0,0x6880
68800394:	00a02021 	move	a0,a1
68800398:	0a2017b1 	j	68805ec4 <strcpy>
6880039c:	24456348 	addiu	a1,v0,25416
688003a0:	5088001d 	beql	a0,t0,68800418 <_get_key_name_from_keymap+0xf8>
688003a4:	3c086880 	lui	t0,0x6880
688003a8:	03e00008 	jr	ra
688003ac:	00000000 	nop
688003b0:	108f0015 	beq	a0,t7,68800408 <_get_key_name_from_keymap+0xe8>
688003b4:	24180800 	li	t8,2048
688003b8:	10980020 	beq	a0,t8,6880043c <_get_key_name_from_keymap+0x11c>
688003bc:	3c0a6880 	lui	t2,0x6880
688003c0:	03e00008 	jr	ra
688003c4:	00000000 	nop
688003c8:	3c096880 	lui	t1,0x6880
688003cc:	00a02021 	move	a0,a1
688003d0:	0a2017b1 	j	68805ec4 <strcpy>
688003d4:	25256360 	addiu	a1,t1,25440
688003d8:	3c196880 	lui	t9,0x6880
688003dc:	00a02021 	move	a0,a1
688003e0:	0a2017b1 	j	68805ec4 <strcpy>
688003e4:	27256368 	addiu	a1,t9,25448
688003e8:	3c076880 	lui	a3,0x6880
688003ec:	00a02021 	move	a0,a1
688003f0:	0a2017b1 	j	68805ec4 <strcpy>
688003f4:	24e56370 	addiu	a1,a3,25456
688003f8:	3c036880 	lui	v1,0x6880
688003fc:	00a02021 	move	a0,a1
68800400:	0a2017b1 	j	68805ec4 <strcpy>
68800404:	24656378 	addiu	a1,v1,25464
68800408:	3c0b6880 	lui	t3,0x6880
6880040c:	00a02021 	move	a0,a1
68800410:	0a2017b1 	j	68805ec4 <strcpy>
68800414:	2565637c 	addiu	a1,t3,25468
68800418:	00a02021 	move	a0,a1
6880041c:	0a2017b1 	j	68805ec4 <strcpy>
68800420:	25056350 	addiu	a1,t0,25424
68800424:	00a02021 	move	a0,a1
68800428:	0a2017b1 	j	68805ec4 <strcpy>
6880042c:	24c56340 	addiu	a1,a2,25408
68800430:	3c056880 	lui	a1,0x6880
68800434:	0a2017b1 	j	68805ec4 <strcpy>
68800438:	24a56388 	addiu	a1,a1,25480
6880043c:	00a02021 	move	a0,a1
68800440:	0a2017b1 	j	68805ec4 <strcpy>
68800444:	25456358 	addiu	a1,t2,25432

68800448 <em_fourth_level_menu_enter>:
68800448:	3c066880 	lui	a2,0x6880
6880044c:	27bdffb0 	addiu	sp,sp,-80
68800450:	8cc5735c 	lw	a1,29532(a2)
68800454:	afb40038 	sw	s4,56(sp)
68800458:	27a60010 	addiu	a2,sp,16
6880045c:	0080a021 	move	s4,a0
68800460:	24040001 	li	a0,1
68800464:	afbf0048 	sw	ra,72(sp)
68800468:	afb70044 	sw	s7,68(sp)
6880046c:	afb5003c 	sw	s5,60(sp)
68800470:	afb60040 	sw	s6,64(sp)
68800474:	afb30034 	sw	s3,52(sp)
68800478:	afb20030 	sw	s2,48(sp)
6880047c:	afb1002c 	sw	s1,44(sp)
68800480:	afb00028 	sw	s0,40(sp)
68800484:	0e201304 	jal	68804c10 <fusion_get_config>
68800488:	3c176880 	lui	s7,0x6880
6880048c:	0e201307 	jal	68804c1c <fusion_set_effect>
68800490:	27a40010 	addiu	a0,sp,16
68800494:	8ee37358 	lw	v1,29528(s7)
68800498:	3c156880 	lui	s5,0x6880
6880049c:	0e201034 	jal	688040d0 <scene_fusion_set_first_frame>
688004a0:	8c640000 	lw	a0,0(v1)
688004a4:	8ea57018 	lw	a1,28696(s5)
688004a8:	24020004 	li	v0,4
688004ac:	10a0001b 	beqz	a1,6880051c <em_fourth_level_menu_enter+0xd4>
688004b0:	ae820098 	sw	v0,152(s4)
688004b4:	0e2012bf 	jal	68804afc <menuview_set_menu>
688004b8:	8e84006c 	lw	a0,108(s4)
688004bc:	8e84006c 	lw	a0,108(s4)
688004c0:	0e2012b3 	jal	68804acc <menuview_load_style>
688004c4:	24050002 	li	a1,2
688004c8:	0e2012b9 	jal	68804ae4 <menuview_show>
688004cc:	8e84006c 	lw	a0,108(s4)
688004d0:	0e2012ad 	jal	68804ab4 <menuview_paint>
688004d4:	8e84006c 	lw	a0,108(s4)
688004d8:	8ef47358 	lw	s4,29528(s7)
688004dc:	0e201051 	jal	68804144 <scene_fusion_set_last_frame>
688004e0:	8e840000 	lw	a0,0(s4)
688004e4:	0e201301 	jal	68804c04 <fusion_display>
688004e8:	00002021 	move	a0,zero
688004ec:	8fbf0048 	lw	ra,72(sp)
688004f0:	8fb70044 	lw	s7,68(sp)
688004f4:	8fb60040 	lw	s6,64(sp)
688004f8:	8fb5003c 	lw	s5,60(sp)
688004fc:	8fb40038 	lw	s4,56(sp)
68800500:	8fb30034 	lw	s3,52(sp)
68800504:	8fb20030 	lw	s2,48(sp)
68800508:	8fb1002c 	lw	s1,44(sp)
6880050c:	8fb00028 	lw	s0,40(sp)
68800510:	24020001 	li	v0,1
68800514:	03e00008 	jr	ra
68800518:	27bd0050 	addiu	sp,sp,80
6880051c:	0e201366 	jal	68804d98 <sty_get_app_scene>
68800520:	00000000 	nop
68800524:	1040ffe3 	beqz	v0,688004b4 <em_fourth_level_menu_enter+0x6c>
68800528:	00002821 	move	a1,zero
6880052c:	3c046880 	lui	a0,0x6880
68800530:	24967f8c 	addiu	s6,a0,32652
68800534:	24060144 	li	a2,324
68800538:	02c02021 	move	a0,s6
6880053c:	0e201782 	jal	68805e08 <memset>
68800540:	3c126881 	lui	s2,0x6881
68800544:	27b00018 	addiu	s0,sp,24
68800548:	8e44827c 	lw	a0,-32132(s2)
6880054c:	0e2000c8 	jal	68800320 <_get_key_name_from_keymap>
68800550:	02002821 	move	a1,s0
68800554:	3c136880 	lui	s3,0x6880
68800558:	3c066880 	lui	a2,0x6880
6880055c:	3c036880 	lui	v1,0x6880
68800560:	24d16390 	addiu	s1,a2,25488
68800564:	2673701c 	addiu	s3,s3,28700
68800568:	2466639c 	addiu	a2,v1,25500
6880056c:	2652827c 	addiu	s2,s2,-32132
68800570:	02003821 	move	a3,s0
68800574:	02602021 	move	a0,s3
68800578:	0e2014e5 	jal	68805394 <sprintf>
6880057c:	02202821 	move	a1,s1
68800580:	8e440004 	lw	a0,4(s2)
68800584:	0e2000c8 	jal	68800320 <_get_key_name_from_keymap>
68800588:	02002821 	move	a1,s0
6880058c:	3c1f6880 	lui	ra,0x6880
68800590:	3c026880 	lui	v0,0x6880
68800594:	27e4704e 	addiu	a0,ra,28750
68800598:	244663a0 	addiu	a2,v0,25504
6880059c:	02003821 	move	a3,s0
688005a0:	0e2014e5 	jal	68805394 <sprintf>
688005a4:	02202821 	move	a1,s1
688005a8:	8e440008 	lw	a0,8(s2)
688005ac:	0e2000c8 	jal	68800320 <_get_key_name_from_keymap>
688005b0:	02002821 	move	a1,s0
688005b4:	3c196880 	lui	t9,0x6880
688005b8:	3c186880 	lui	t8,0x6880
688005bc:	272663a4 	addiu	a2,t9,25508
688005c0:	27047080 	addiu	a0,t8,28800
688005c4:	02003821 	move	a3,s0
688005c8:	0e2014e5 	jal	68805394 <sprintf>
688005cc:	02202821 	move	a1,s1
688005d0:	8e44000c 	lw	a0,12(s2)
688005d4:	0e2000c8 	jal	68800320 <_get_key_name_from_keymap>
688005d8:	02002821 	move	a1,s0
688005dc:	3c0f6880 	lui	t7,0x6880
688005e0:	3c0e6880 	lui	t6,0x6880
688005e4:	25e663ac 	addiu	a2,t7,25516
688005e8:	25c470b2 	addiu	a0,t6,28850
688005ec:	02003821 	move	a3,s0
688005f0:	0e2014e5 	jal	68805394 <sprintf>
688005f4:	02202821 	move	a1,s1
688005f8:	8e440010 	lw	a0,16(s2)
688005fc:	0e2000c8 	jal	68800320 <_get_key_name_from_keymap>
68800600:	02002821 	move	a1,s0
68800604:	3c0d6880 	lui	t5,0x6880
68800608:	3c0c6880 	lui	t4,0x6880
6880060c:	25a663b4 	addiu	a2,t5,25524
68800610:	258470e4 	addiu	a0,t4,28900
68800614:	02003821 	move	a3,s0
68800618:	0e2014e5 	jal	68805394 <sprintf>
6880061c:	02202821 	move	a1,s1
68800620:	8e440014 	lw	a0,20(s2)
68800624:	0e2000c8 	jal	68800320 <_get_key_name_from_keymap>
68800628:	02002821 	move	a1,s0
6880062c:	3c0b6880 	lui	t3,0x6880
68800630:	3c0a6880 	lui	t2,0x6880
68800634:	256663bc 	addiu	a2,t3,25532
68800638:	25447116 	addiu	a0,t2,28950
6880063c:	02003821 	move	a3,s0
68800640:	0e2014e5 	jal	68805394 <sprintf>
68800644:	02202821 	move	a1,s1
68800648:	8e440018 	lw	a0,24(s2)
6880064c:	0e2000c8 	jal	68800320 <_get_key_name_from_keymap>
68800650:	02002821 	move	a1,s0
68800654:	3c096880 	lui	t1,0x6880
68800658:	3c086880 	lui	t0,0x6880
6880065c:	252663c4 	addiu	a2,t1,25540
68800660:	25047148 	addiu	a0,t0,29000
68800664:	02003821 	move	a3,s0
68800668:	0e2014e5 	jal	68805394 <sprintf>
6880066c:	02202821 	move	a1,s1
68800670:	8e44001c 	lw	a0,28(s2)
68800674:	0e2000c8 	jal	68800320 <_get_key_name_from_keymap>
68800678:	02002821 	move	a1,s0
6880067c:	3c056880 	lui	a1,0x6880
68800680:	3c076880 	lui	a3,0x6880
68800684:	24a4717a 	addiu	a0,a1,29050
68800688:	24e663c8 	addiu	a2,a3,25544
6880068c:	02202821 	move	a1,s1
68800690:	0e2014e5 	jal	68805394 <sprintf>
68800694:	02003821 	move	a3,s0
68800698:	3c046880 	lui	a0,0x6880
6880069c:	24830318 	addiu	v1,a0,792
688006a0:	02c01021 	move	v0,s6
688006a4:	24040007 	li	a0,7
688006a8:	2484ffff 	addiu	a0,a0,-1
688006ac:	ac530014 	sw	s3,20(v0)
688006b0:	ac40000c 	sw	zero,12(v0)
688006b4:	ac430010 	sw	v1,16(v0)
688006b8:	26730032 	addiu	s3,s3,50
688006bc:	0481fffa 	bgez	a0,688006a8 <em_fourth_level_menu_enter+0x260>
688006c0:	24420024 	addiu	v0,v0,36
688006c4:	3c076880 	lui	a3,0x6880
688006c8:	24f063d0 	addiu	s0,a3,25552
688006cc:	aed00134 	sw	s0,308(s6)
688006d0:	aec30130 	sw	v1,304(s6)
688006d4:	0e201298 	jal	68804a60 <menu_create>
688006d8:	aec0012c 	sw	zero,300(s6)
688006dc:	aea27018 	sw	v0,28696(s5)
688006e0:	00002821 	move	a1,zero
688006e4:	1040ff73 	beqz	v0,688004b4 <em_fourth_level_menu_enter+0x6c>
688006e8:	00008021 	move	s0,zero
688006ec:	001048c0 	sll	t1,s0,0x3
688006f0:	01304021 	addu	t0,t1,s0
688006f4:	00082880 	sll	a1,t0,0x2
688006f8:	26100001 	addiu	s0,s0,1
688006fc:	00402021 	move	a0,v0
68800700:	00b62821 	addu	a1,a1,s6
68800704:	0e2012a4 	jal	68804a90 <menu_append_item>
68800708:	2a110009 	slti	s1,s0,9
6880070c:	1620fff7 	bnez	s1,688006ec <em_fourth_level_menu_enter+0x2a4>
68800710:	8ea27018 	lw	v0,28696(s5)
68800714:	8ea47018 	lw	a0,28696(s5)
68800718:	24160009 	li	s6,9
6880071c:	00002821 	move	a1,zero
68800720:	ac960008 	sw	s6,8(a0)
68800724:	ac800000 	sw	zero,0(a0)
68800728:	0e20129e 	jal	68804a78 <menu_set_cur_index>
6880072c:	ac800004 	sw	zero,4(a0)
68800730:	1000ff60 	b	688004b4 <em_fourth_level_menu_enter+0x6c>
68800734:	8ea57018 	lw	a1,28696(s5)

68800738 <set_keymap_proc_key>:
68800738:	27bdff98 	addiu	sp,sp,-104
6880073c:	afb5005c 	sw	s5,92(sp)
68800740:	afb20050 	sw	s2,80(sp)
68800744:	0080a821 	move	s5,a0
68800748:	00002821 	move	a1,zero
6880074c:	27a40010 	addiu	a0,sp,16
68800750:	2406000a 	li	a2,10
68800754:	27b20020 	addiu	s2,sp,32
68800758:	afbf0060 	sw	ra,96(sp)
6880075c:	afb40058 	sw	s4,88(sp)
68800760:	afb30054 	sw	s3,84(sp)
68800764:	afb1004c 	sw	s1,76(sp)
68800768:	0e201782 	jal	68805e08 <memset>
6880076c:	afb00048 	sw	s0,72(sp)
68800770:	02402021 	move	a0,s2
68800774:	00002821 	move	a1,zero
68800778:	0e201782 	jal	68805e08 <memset>
6880077c:	24060014 	li	a2,20
68800780:	8ea40004 	lw	a0,4(s5)
68800784:	3c090400 	lui	t1,0x400
68800788:	3c080200 	lui	t0,0x200
6880078c:	00893826 	xor	a3,a0,t1
68800790:	00883026 	xor	a2,a0,t0
68800794:	2ce50001 	sltiu	a1,a3,1
68800798:	2cc30001 	sltiu	v1,a2,1
6880079c:	00a31025 	or	v0,a1,v1
688007a0:	5440000f 	bnezl	v0,688007e0 <set_keymap_proc_key+0xa8>
688007a4:	8ea30000 	lw	v1,0(s5)
688007a8:	3c0a0100 	lui	t2,0x100
688007ac:	508a000c 	beql	a0,t2,688007e0 <set_keymap_proc_key+0xa8>
688007b0:	8ea30000 	lw	v1,0(s5)
688007b4:	24050001 	li	a1,1
688007b8:	8fbf0060 	lw	ra,96(sp)
688007bc:	8fb5005c 	lw	s5,92(sp)
688007c0:	8fb40058 	lw	s4,88(sp)
688007c4:	8fb30054 	lw	s3,84(sp)
688007c8:	8fb20050 	lw	s2,80(sp)
688007cc:	8fb1004c 	lw	s1,76(sp)
688007d0:	8fb00048 	lw	s0,72(sp)
688007d4:	00a01021 	move	v0,a1
688007d8:	03e00008 	jr	ra
688007dc:	27bd0068 	addiu	sp,sp,104
688007e0:	24040080 	li	a0,128
688007e4:	10640093 	beq	v1,a0,68800a34 <set_keymap_proc_key+0x2fc>
688007e8:	3c146880 	lui	s4,0x6880
688007ec:	8e847018 	lw	a0,28696(s4)
688007f0:	8c8d0004 	lw	t5,4(a0)
688007f4:	29ac0008 	slti	t4,t5,8
688007f8:	1180001b 	beqz	t4,68800868 <set_keymap_proc_key+0x130>
688007fc:	240e0040 	li	t6,64
68800800:	240f0020 	li	t7,32
68800804:	106f00a6 	beq	v1,t7,68800aa0 <set_keymap_proc_key+0x368>
68800808:	2c700021 	sltiu	s0,v1,33
6880080c:	12000022 	beqz	s0,68800898 <set_keymap_proc_key+0x160>
68800810:	24020200 	li	v0,512
68800814:	24110002 	li	s1,2
68800818:	107100d1 	beq	v1,s1,68800b60 <set_keymap_proc_key+0x428>
6880081c:	2c730003 	sltiu	s3,v1,3
68800820:	1260008b 	beqz	s3,68800a50 <set_keymap_proc_key+0x318>
68800824:	24190008 	li	t9,8
68800828:	24180001 	li	t8,1
6880082c:	507800dd 	beql	v1,t8,68800ba4 <set_keymap_proc_key+0x46c>
68800830:	3c046880 	lui	a0,0x6880
68800834:	8c910004 	lw	s1,4(a0)
68800838:	2a330008 	slti	s3,s1,8
6880083c:	1260002b 	beqz	s3,688008ec <set_keymap_proc_key+0x1b4>
68800840:	26220001 	addiu	v0,s1,1
68800844:	2e380008 	sltiu	t8,s1,8
68800848:	13000053 	beqz	t8,68800998 <set_keymap_proc_key+0x260>
6880084c:	00119880 	sll	s3,s1,0x2
68800850:	3c056880 	lui	a1,0x6880
68800854:	24a26088 	addiu	v0,a1,24712
68800858:	0262f821 	addu	ra,s3,v0
6880085c:	8ff90000 	lw	t9,0(ra)
68800860:	03200008 	jr	t9
68800864:	00000000 	nop
68800868:	106effe5 	beq	v1,t6,68800800 <set_keymap_proc_key+0xc8>
6880086c:	00002821 	move	a1,zero
68800870:	8fbf0060 	lw	ra,96(sp)
68800874:	8fb5005c 	lw	s5,92(sp)
68800878:	8fb40058 	lw	s4,88(sp)
6880087c:	8fb30054 	lw	s3,84(sp)
68800880:	8fb20050 	lw	s2,80(sp)
68800884:	8fb1004c 	lw	s1,76(sp)
68800888:	8fb00048 	lw	s0,72(sp)
6880088c:	00a01021 	move	v0,a1
68800890:	03e00008 	jr	ra
68800894:	27bd0068 	addiu	sp,sp,104
68800898:	106200b7 	beq	v1,v0,68800b78 <set_keymap_proc_key+0x440>
6880089c:	3c0e6880 	lui	t6,0x6880
688008a0:	2c650201 	sltiu	a1,v1,513
688008a4:	10a00074 	beqz	a1,68800a78 <set_keymap_proc_key+0x340>
688008a8:	24080400 	li	t0,1024
688008ac:	24060040 	li	a2,64
688008b0:	106600b6 	beq	v1,a2,68800b8c <set_keymap_proc_key+0x454>
688008b4:	24070100 	li	a3,256
688008b8:	5467ffdf 	bnel	v1,a3,68800838 <set_keymap_proc_key+0x100>
688008bc:	8c910004 	lw	s1,4(a0)
688008c0:	3c0f6880 	lui	t7,0x6880
688008c4:	27a40010 	addiu	a0,sp,16
688008c8:	0e2017b1 	jal	68805ec4 <strcpy>
688008cc:	25e56388 	addiu	a1,t7,25480
688008d0:	8e847018 	lw	a0,28696(s4)
688008d4:	8c910004 	lw	s1,4(a0)
688008d8:	2a330008 	slti	s3,s1,8
688008dc:	1660ffda 	bnez	s3,68800848 <set_keymap_proc_key+0x110>
688008e0:	2e380008 	sltiu	t8,s1,8
688008e4:	8c910004 	lw	s1,4(a0)
688008e8:	26220001 	addiu	v0,s1,1
688008ec:	28540009 	slti	s4,v0,9
688008f0:	16800002 	bnez	s4,688008fc <set_keymap_proc_key+0x1c4>
688008f4:	00803021 	move	a2,a0
688008f8:	24020009 	li	v0,9
688008fc:	acc20004 	sw	v0,4(a2)
68800900:	8c850004 	lw	a1,4(a0)
68800904:	28b30009 	slti	s3,a1,9
68800908:	16600040 	bnez	s3,68800a0c <set_keymap_proc_key+0x2d4>
6880090c:	00000000 	nop
68800910:	24120009 	li	s2,9
68800914:	14b2ffa8 	bne	a1,s2,688007b8 <set_keymap_proc_key+0x80>
68800918:	24050001 	li	a1,1
6880091c:	8eac0000 	lw	t4,0(s5)
68800920:	24150040 	li	s5,64
68800924:	1595ffa4 	bne	t4,s5,688007b8 <set_keymap_proc_key+0x80>
68800928:	acc00004 	sw	zero,4(a2)
6880092c:	3c106880 	lui	s0,0x6880
68800930:	8e147358 	lw	s4,29528(s0)
68800934:	afa00038 	sw	zero,56(sp)
68800938:	8e820054 	lw	v0,84(s4)
6880093c:	3c0f6880 	lui	t7,0x6880
68800940:	905f001e 	lbu	ra,30(v0)
68800944:	9059001d 	lbu	t9,29(v0)
68800948:	001fc200 	sll	t8,ra,0x8
6880094c:	03197025 	or	t6,t8,t9
68800950:	27a40038 	addiu	a0,sp,56
68800954:	25e50c48 	addiu	a1,t7,3144
68800958:	0e20125f 	jal	6880497c <dialog_create>
6880095c:	a7ae003c 	sh	t6,60(sp)
68800960:	8e0d7358 	lw	t5,29528(s0)
68800964:	ae820078 	sw	v0,120(s4)
68800968:	8da40078 	lw	a0,120(t5)
6880096c:	5080ff92 	beqzl	a0,688007b8 <set_keymap_proc_key+0x80>
68800970:	24050001 	li	a1,1
68800974:	24050002 	li	a1,2
68800978:	0e201259 	jal	68804964 <dialog_paint>
6880097c:	ac85000c 	sw	a1,12(a0)
68800980:	1000ff8d 	b	688007b8 <set_keymap_proc_key+0x80>
68800984:	24050001 	li	a1,1
68800988:	3c066880 	lui	a2,0x6880
6880098c:	24c5639c 	addiu	a1,a2,25500
68800990:	0e2017b1 	jal	68805ec4 <strcpy>
68800994:	02402021 	move	a0,s2
68800998:	24090032 	li	t1,50
6880099c:	72294002 	mul	t0,s1,t1
688009a0:	3c036880 	lui	v1,0x6880
688009a4:	246771ac 	addiu	a3,v1,29100
688009a8:	01078021 	addu	s0,t0,a3
688009ac:	3c066880 	lui	a2,0x6880
688009b0:	24c56390 	addiu	a1,a2,25488
688009b4:	02002021 	move	a0,s0
688009b8:	02403021 	move	a2,s2
688009bc:	0e2014e5 	jal	68805394 <sprintf>
688009c0:	27a70010 	addiu	a3,sp,16
688009c4:	001128c0 	sll	a1,s1,0x3
688009c8:	00b11021 	addu	v0,a1,s1
688009cc:	3c1f6880 	lui	ra,0x6880
688009d0:	0002c080 	sll	t8,v0,0x2
688009d4:	27f97f8c 	addiu	t9,ra,32652
688009d8:	03197821 	addu	t7,t8,t9
688009dc:	8e847018 	lw	a0,28696(s4)
688009e0:	02202821 	move	a1,s1
688009e4:	01e03021 	move	a2,t7
688009e8:	0e2012a1 	jal	68804a84 <menu_set_item>
688009ec:	adf00014 	sw	s0,20(t7)
688009f0:	3c0e6880 	lui	t6,0x6880
688009f4:	8eac0000 	lw	t4,0(s5)
688009f8:	25cd7f6c 	addiu	t5,t6,32620
688009fc:	8e847018 	lw	a0,28696(s4)
68800a00:	026d9021 	addu	s2,s3,t5
68800a04:	1000ffb7 	b	688008e4 <set_keymap_proc_key+0x1ac>
68800a08:	ae4c0000 	sw	t4,0(s2)
68800a0c:	0e20129e 	jal	68804a78 <menu_set_cur_index>
68800a10:	24120009 	li	s2,9
68800a14:	3c046880 	lui	a0,0x6880
68800a18:	8c8b7358 	lw	t3,29528(a0)
68800a1c:	0e2012ad 	jal	68804ab4 <menuview_paint>
68800a20:	8d64006c 	lw	a0,108(t3)
68800a24:	3c0a6880 	lui	t2,0x6880
68800a28:	8d467018 	lw	a2,28696(t2)
68800a2c:	1000ffb9 	b	68800914 <set_keymap_proc_key+0x1dc>
68800a30:	8cc50004 	lw	a1,4(a2)
68800a34:	0e2000a3 	jal	6880028c <_em_fourth_level_menu_exit>
68800a38:	00000000 	nop
68800a3c:	3c0b6880 	lui	t3,0x6880
68800a40:	0e200541 	jal	68801504 <em_third_level_menu_enter>
68800a44:	8d647358 	lw	a0,29528(t3)
68800a48:	1000ff5b 	b	688007b8 <set_keymap_proc_key+0x80>
68800a4c:	00002821 	move	a1,zero
68800a50:	1079005f 	beq	v1,t9,68800bd0 <set_keymap_proc_key+0x498>
68800a54:	241f0010 	li	ra,16
68800a58:	547fff77 	bnel	v1,ra,68800838 <set_keymap_proc_key+0x100>
68800a5c:	8c910004 	lw	s1,4(a0)
68800a60:	3c036880 	lui	v1,0x6880
68800a64:	27a40010 	addiu	a0,sp,16
68800a68:	0e2017b1 	jal	68805ec4 <strcpy>
68800a6c:	24656340 	addiu	a1,v1,25408
68800a70:	1000ff98 	b	688008d4 <set_keymap_proc_key+0x19c>
68800a74:	8e847018 	lw	a0,28696(s4)
68800a78:	1068004f 	beq	v1,t0,68800bb8 <set_keymap_proc_key+0x480>
68800a7c:	24090800 	li	t1,2048
68800a80:	5469ff6d 	bnel	v1,t1,68800838 <set_keymap_proc_key+0x100>
68800a84:	8c910004 	lw	s1,4(a0)
68800a88:	3c106880 	lui	s0,0x6880
68800a8c:	27a40010 	addiu	a0,sp,16
68800a90:	0e2017b1 	jal	68805ec4 <strcpy>
68800a94:	260563e4 	addiu	a1,s0,25572
68800a98:	1000ff8e 	b	688008d4 <set_keymap_proc_key+0x19c>
68800a9c:	8e847018 	lw	a0,28696(s4)
68800aa0:	3c0d6880 	lui	t5,0x6880
68800aa4:	27a40010 	addiu	a0,sp,16
68800aa8:	0e2017b1 	jal	68805ec4 <strcpy>
68800aac:	25a56348 	addiu	a1,t5,25416
68800ab0:	1000ff88 	b	688008d4 <set_keymap_proc_key+0x19c>
68800ab4:	8e847018 	lw	a0,28696(s4)
68800ab8:	3c0b6880 	lui	t3,0x6880
68800abc:	256563c8 	addiu	a1,t3,25544
68800ac0:	0e2017b1 	jal	68805ec4 <strcpy>
68800ac4:	02402021 	move	a0,s2
68800ac8:	1000ffb4 	b	6880099c <set_keymap_proc_key+0x264>
68800acc:	24090032 	li	t1,50
68800ad0:	3c046880 	lui	a0,0x6880
68800ad4:	248563c4 	addiu	a1,a0,25540
68800ad8:	0e2017b1 	jal	68805ec4 <strcpy>
68800adc:	02402021 	move	a0,s2
68800ae0:	1000ffae 	b	6880099c <set_keymap_proc_key+0x264>
68800ae4:	24090032 	li	t1,50
68800ae8:	3c0a6880 	lui	t2,0x6880
68800aec:	254563bc 	addiu	a1,t2,25532
68800af0:	0e2017b1 	jal	68805ec4 <strcpy>
68800af4:	02402021 	move	a0,s2
68800af8:	1000ffa8 	b	6880099c <set_keymap_proc_key+0x264>
68800afc:	24090032 	li	t1,50
68800b00:	3c036880 	lui	v1,0x6880
68800b04:	246563b4 	addiu	a1,v1,25524
68800b08:	0e2017b1 	jal	68805ec4 <strcpy>
68800b0c:	02402021 	move	a0,s2
68800b10:	1000ffa2 	b	6880099c <set_keymap_proc_key+0x264>
68800b14:	24090032 	li	t1,50
68800b18:	3c096880 	lui	t1,0x6880
68800b1c:	252563ac 	addiu	a1,t1,25516
68800b20:	0e2017b1 	jal	68805ec4 <strcpy>
68800b24:	02402021 	move	a0,s2
68800b28:	1000ff9c 	b	6880099c <set_keymap_proc_key+0x264>
68800b2c:	24090032 	li	t1,50
68800b30:	3c086880 	lui	t0,0x6880
68800b34:	250563a4 	addiu	a1,t0,25508
68800b38:	0e2017b1 	jal	68805ec4 <strcpy>
68800b3c:	02402021 	move	a0,s2
68800b40:	1000ff96 	b	6880099c <set_keymap_proc_key+0x264>
68800b44:	24090032 	li	t1,50
68800b48:	3c076880 	lui	a3,0x6880
68800b4c:	24e563a0 	addiu	a1,a3,25504
68800b50:	0e2017b1 	jal	68805ec4 <strcpy>
68800b54:	02402021 	move	a0,s2
68800b58:	1000ff90 	b	6880099c <set_keymap_proc_key+0x264>
68800b5c:	24090032 	li	t1,50
68800b60:	3c0b6880 	lui	t3,0x6880
68800b64:	27a40010 	addiu	a0,sp,16
68800b68:	0e2017b1 	jal	68805ec4 <strcpy>
68800b6c:	25656360 	addiu	a1,t3,25440
68800b70:	1000ff58 	b	688008d4 <set_keymap_proc_key+0x19c>
68800b74:	8e847018 	lw	a0,28696(s4)
68800b78:	27a40010 	addiu	a0,sp,16
68800b7c:	0e2017b1 	jal	68805ec4 <strcpy>
68800b80:	25c56368 	addiu	a1,t6,25448
68800b84:	1000ff53 	b	688008d4 <set_keymap_proc_key+0x19c>
68800b88:	8e847018 	lw	a0,28696(s4)
68800b8c:	3c0c6880 	lui	t4,0x6880
68800b90:	27a40010 	addiu	a0,sp,16
68800b94:	0e2017b1 	jal	68805ec4 <strcpy>
68800b98:	25856378 	addiu	a1,t4,25464
68800b9c:	1000ff4d 	b	688008d4 <set_keymap_proc_key+0x19c>
68800ba0:	8e847018 	lw	a0,28696(s4)
68800ba4:	248563dc 	addiu	a1,a0,25564
68800ba8:	0e2017b1 	jal	68805ec4 <strcpy>
68800bac:	27a40010 	addiu	a0,sp,16
68800bb0:	1000ff48 	b	688008d4 <set_keymap_proc_key+0x19c>
68800bb4:	8e847018 	lw	a0,28696(s4)
68800bb8:	3c116880 	lui	s1,0x6880
68800bbc:	27a40010 	addiu	a0,sp,16
68800bc0:	0e2017b1 	jal	68805ec4 <strcpy>
68800bc4:	262563ec 	addiu	a1,s1,25580
68800bc8:	1000ff42 	b	688008d4 <set_keymap_proc_key+0x19c>
68800bcc:	8e847018 	lw	a0,28696(s4)
68800bd0:	3c0a6880 	lui	t2,0x6880
68800bd4:	27a40010 	addiu	a0,sp,16
68800bd8:	0e2017b1 	jal	68805ec4 <strcpy>
68800bdc:	25456370 	addiu	a1,t2,25456
68800be0:	1000ff3c 	b	688008d4 <set_keymap_proc_key+0x19c>
68800be4:	8e847018 	lw	a0,28696(s4)

68800be8 <_dlg_common_exit>:
68800be8:	27bdffe8 	addiu	sp,sp,-24
68800bec:	afb00010 	sw	s0,16(sp)
68800bf0:	afbf0014 	sw	ra,20(sp)
68800bf4:	3c106880 	lui	s0,0x6880
68800bf8:	8e037358 	lw	v1,29528(s0)
68800bfc:	24050001 	li	a1,1
68800c00:	8c620078 	lw	v0,120(v1)
68800c04:	14400006 	bnez	v0,68800c20 <_dlg_common_exit+0x38>
68800c08:	00402021 	move	a0,v0
68800c0c:	8fbf0014 	lw	ra,20(sp)
68800c10:	8fb00010 	lw	s0,16(sp)
68800c14:	00a01021 	move	v0,a1
68800c18:	03e00008 	jr	ra
68800c1c:	27bd0018 	addiu	sp,sp,24
68800c20:	0e201262 	jal	68804988 <dialog_delete>
68800c24:	00000000 	nop
68800c28:	00402821 	move	a1,v0
68800c2c:	8e047358 	lw	a0,29528(s0)
68800c30:	8fbf0014 	lw	ra,20(sp)
68800c34:	8fb00010 	lw	s0,16(sp)
68800c38:	00a01021 	move	v0,a1
68800c3c:	27bd0018 	addiu	sp,sp,24
68800c40:	03e00008 	jr	ra
68800c44:	ac800078 	sw	zero,120(a0)

68800c48 <_sure_modify_dlg_cb>:
68800c48:	27bdffe8 	addiu	sp,sp,-24
68800c4c:	14a00012 	bnez	a1,68800c98 <_sure_modify_dlg_cb+0x50>
68800c50:	afbf0010 	sw	ra,16(sp)
68800c54:	0e2002fa 	jal	68800be8 <_dlg_common_exit>
68800c58:	00000000 	nop
68800c5c:	3c046881 	lui	a0,0x6881
68800c60:	3c056880 	lui	a1,0x6880
68800c64:	2484827c 	addiu	a0,a0,-32132
68800c68:	24a57f6c 	addiu	a1,a1,32620
68800c6c:	0e20176e 	jal	68805db8 <memcpy>
68800c70:	24060020 	li	a2,32
68800c74:	0e200c0f 	jal	6880303c <emu_set_keymap>
68800c78:	00000000 	nop
68800c7c:	0e2000a3 	jal	6880028c <_em_fourth_level_menu_exit>
68800c80:	00000000 	nop
68800c84:	3c036880 	lui	v1,0x6880
68800c88:	8c647358 	lw	a0,29528(v1)
68800c8c:	8fbf0010 	lw	ra,16(sp)
68800c90:	0a200541 	j	68801504 <em_third_level_menu_enter>
68800c94:	27bd0018 	addiu	sp,sp,24
68800c98:	0e2002fa 	jal	68800be8 <_dlg_common_exit>
68800c9c:	00000000 	nop
68800ca0:	0e2000a3 	jal	6880028c <_em_fourth_level_menu_exit>
68800ca4:	00000000 	nop
68800ca8:	3c036880 	lui	v1,0x6880
68800cac:	8c647358 	lw	a0,29528(v1)
68800cb0:	8fbf0010 	lw	ra,16(sp)
68800cb4:	0a200541 	j	68801504 <em_third_level_menu_enter>
68800cb8:	27bd0018 	addiu	sp,sp,24

68800cbc <em_second_level_menu_enter>:
68800cbc:	3c066880 	lui	a2,0x6880
68800cc0:	27bdffc8 	addiu	sp,sp,-56
68800cc4:	8cc5735c 	lw	a1,29532(a2)
68800cc8:	afb20020 	sw	s2,32(sp)
68800ccc:	27a60010 	addiu	a2,sp,16
68800cd0:	00809021 	move	s2,a0
68800cd4:	24040001 	li	a0,1
68800cd8:	afbf0030 	sw	ra,48(sp)
68800cdc:	afb40028 	sw	s4,40(sp)
68800ce0:	afb30024 	sw	s3,36(sp)
68800ce4:	afb5002c 	sw	s5,44(sp)
68800ce8:	afb1001c 	sw	s1,28(sp)
68800cec:	afb00018 	sw	s0,24(sp)
68800cf0:	0e201304 	jal	68804c10 <fusion_get_config>
68800cf4:	3c146880 	lui	s4,0x6880
68800cf8:	0e201307 	jal	68804c1c <fusion_set_effect>
68800cfc:	27a40010 	addiu	a0,sp,16
68800d00:	8e837358 	lw	v1,29528(s4)
68800d04:	3c136880 	lui	s3,0x6880
68800d08:	0e201034 	jal	688040d0 <scene_fusion_set_first_frame>
68800d0c:	8c640000 	lw	a0,0(v1)
68800d10:	8e657340 	lw	a1,29504(s3)
68800d14:	24020002 	li	v0,2
68800d18:	10a0001d 	beqz	a1,68800d90 <em_second_level_menu_enter+0xd4>
68800d1c:	ae420098 	sw	v0,152(s2)
68800d20:	0e2012bf 	jal	68804afc <menuview_set_menu>
68800d24:	8e44006c 	lw	a0,108(s2)
68800d28:	8e44006c 	lw	a0,108(s2)
68800d2c:	0e2012b3 	jal	68804acc <menuview_load_style>
68800d30:	24050002 	li	a1,2
68800d34:	0e2012b9 	jal	68804ae4 <menuview_show>
68800d38:	8e44006c 	lw	a0,108(s2)
68800d3c:	0e2012ad 	jal	68804ab4 <menuview_paint>
68800d40:	8e44006c 	lw	a0,108(s2)
68800d44:	8e937358 	lw	s3,29528(s4)
68800d48:	0e201051 	jal	68804144 <scene_fusion_set_last_frame>
68800d4c:	8e640000 	lw	a0,0(s3)
68800d50:	0e201301 	jal	68804c04 <fusion_display>
68800d54:	00002021 	move	a0,zero
68800d58:	0e200ac2 	jal	68802b08 <emu_init>
68800d5c:	00000000 	nop
68800d60:	0e2012ad 	jal	68804ab4 <menuview_paint>
68800d64:	8e44006c 	lw	a0,108(s2)
68800d68:	8fbf0030 	lw	ra,48(sp)
68800d6c:	8fb5002c 	lw	s5,44(sp)
68800d70:	8fb40028 	lw	s4,40(sp)
68800d74:	8fb30024 	lw	s3,36(sp)
68800d78:	8fb20020 	lw	s2,32(sp)
68800d7c:	8fb1001c 	lw	s1,28(sp)
68800d80:	8fb00018 	lw	s0,24(sp)
68800d84:	24020001 	li	v0,1
68800d88:	03e00008 	jr	ra
68800d8c:	27bd0038 	addiu	sp,sp,56
68800d90:	0e201366 	jal	68804d98 <sty_get_app_scene>
68800d94:	00000000 	nop
68800d98:	1040ffe1 	beqz	v0,68800d20 <em_second_level_menu_enter+0x64>
68800d9c:	00002821 	move	a1,zero
68800da0:	3c196881 	lui	t9,0x6881
68800da4:	273080d0 	addiu	s0,t9,-32560
68800da8:	02002021 	move	a0,s0
68800dac:	0e201782 	jal	68805e08 <memset>
68800db0:	240600b4 	li	a2,180
68800db4:	8e867358 	lw	a2,29528(s4)
68800db8:	3c0d6880 	lui	t5,0x6880
68800dbc:	8cd8002c 	lw	t8,44(a2)
68800dc0:	8cc50030 	lw	a1,48(a2)
68800dc4:	9315001e 	lbu	s5,30(t8)
68800dc8:	9311001d 	lbu	s1,29(t8)
68800dcc:	00157a00 	sll	t7,s5,0x8
68800dd0:	01f17025 	or	t6,t7,s1
68800dd4:	25ac143c 	addiu	t4,t5,5180
68800dd8:	ae0e0008 	sw	t6,8(s0)
68800ddc:	ae0c0010 	sw	t4,16(s0)
68800de0:	ae00000c 	sw	zero,12(s0)
68800de4:	90ab001e 	lbu	t3,30(a1)
68800de8:	90aa001d 	lbu	t2,29(a1)
68800dec:	3c156880 	lui	s5,0x6880
68800df0:	000b3a00 	sll	a3,t3,0x8
68800df4:	8ea5733c 	lw	a1,29500(s5)
68800df8:	3c086880 	lui	t0,0x6880
68800dfc:	00ea4825 	or	t1,a3,t2
68800e00:	25041338 	addiu	a0,t0,4920
68800e04:	24070001 	li	a3,1
68800e08:	ae09002c 	sw	t1,44(s0)
68800e0c:	ae040034 	sw	a0,52(s0)
68800e10:	10a7003f 	beq	a1,a3,68800f10 <em_second_level_menu_enter+0x254>
68800e14:	ae000030 	sw	zero,48(s0)
68800e18:	8cc40038 	lw	a0,56(a2)
68800e1c:	000550c0 	sll	t2,a1,0x3
68800e20:	9089001e 	lbu	t1,30(a0)
68800e24:	9088001d 	lbu	t0,29(a0)
68800e28:	01451821 	addu	v1,t2,a1
68800e2c:	0003f880 	sll	ra,v1,0x2
68800e30:	00091200 	sll	v0,t1,0x8
68800e34:	3c186880 	lui	t8,0x6880
68800e38:	03f05821 	addu	t3,ra,s0
68800e3c:	8ccf003c 	lw	t7,60(a2)
68800e40:	0048c825 	or	t9,v0,t0
68800e44:	27111138 	addiu	s1,t8,4408
68800e48:	ad670054 	sw	a3,84(t3)
68800e4c:	ad790050 	sw	t9,80(t3)
68800e50:	ad710058 	sw	s1,88(t3)
68800e54:	91ee001e 	lbu	t6,30(t7)
68800e58:	91ed001d 	lbu	t5,29(t7)
68800e5c:	3c056880 	lui	a1,0x6880
68800e60:	000e6200 	sll	t4,t6,0x8
68800e64:	24a710e4 	addiu	a3,a1,4324
68800e68:	018d3025 	or	a2,t4,t5
68800e6c:	ad67007c 	sw	a3,124(t3)
68800e70:	ad660074 	sw	a2,116(t3)
68800e74:	0e201298 	jal	68804a60 <menu_create>
68800e78:	ad600078 	sw	zero,120(t3)
68800e7c:	ae627340 	sw	v0,29504(s3)
68800e80:	1040ffa7 	beqz	v0,68800d20 <em_second_level_menu_enter+0x64>
68800e84:	00002821 	move	a1,zero
68800e88:	8ea6733c 	lw	a2,29500(s5)
68800e8c:	24cb0004 	addiu	t3,a2,4
68800e90:	1960002f 	blez	t3,68800f50 <em_second_level_menu_enter+0x294>
68800e94:	00008821 	move	s1,zero
68800e98:	8e647340 	lw	a0,29504(s3)
68800e9c:	0e2012a4 	jal	68804a90 <menu_append_item>
68800ea0:	02002821 	move	a1,s0
68800ea4:	8ea4733c 	lw	a0,29500(s5)
68800ea8:	26310001 	addiu	s1,s1,1
68800eac:	24850004 	addiu	a1,a0,4
68800eb0:	0225382a 	slt	a3,s1,a1
68800eb4:	14e0fff8 	bnez	a3,68800e98 <em_second_level_menu_enter+0x1dc>
68800eb8:	26100024 	addiu	s0,s0,36
68800ebc:	8e6c7340 	lw	t4,29504(s3)
68800ec0:	248d0004 	addiu	t5,a0,4
68800ec4:	3c156880 	lui	s5,0x6880
68800ec8:	3c106880 	lui	s0,0x6880
68800ecc:	ad8d0008 	sw	t5,8(t4)
68800ed0:	ad800000 	sw	zero,0(t4)
68800ed4:	26a4776c 	addiu	a0,s5,30572
68800ed8:	0e201793 	jal	68805e4c <strcmp>
68800edc:	2605736c 	addiu	a1,s0,29548
68800ee0:	10400016 	beqz	v0,68800f3c <em_second_level_menu_enter+0x280>
68800ee4:	8e827358 	lw	v0,29528(s4)
68800ee8:	3c0f6881 	lui	t7,0x6881
68800eec:	8dee8278 	lw	t6,-32136(t7)
68800ef0:	15c00013 	bnez	t6,68800f40 <em_second_level_menu_enter+0x284>
68800ef4:	8e647340 	lw	a0,29504(s3)
68800ef8:	8e827358 	lw	v0,29528(s4)
68800efc:	ac400090 	sw	zero,144(v0)
68800f00:	0e20129e 	jal	68804a78 <menu_set_cur_index>
68800f04:	8c450090 	lw	a1,144(v0)
68800f08:	1000ff85 	b	68800d20 <em_second_level_menu_enter+0x64>
68800f0c:	8e657340 	lw	a1,29504(s3)
68800f10:	8cca0034 	lw	t2,52(a2)
68800f14:	3c026880 	lui	v0,0x6880
68800f18:	9149001e 	lbu	t1,30(t2)
68800f1c:	9144001d 	lbu	a0,29(t2)
68800f20:	00094200 	sll	t0,t1,0x8
68800f24:	01041825 	or	v1,t0,a0
68800f28:	245f11b0 	addiu	ra,v0,4528
68800f2c:	ae030050 	sw	v1,80(s0)
68800f30:	ae1f0058 	sw	ra,88(s0)
68800f34:	1000ffb8 	b	68800e18 <em_second_level_menu_enter+0x15c>
68800f38:	ae000054 	sw	zero,84(s0)
68800f3c:	8e647340 	lw	a0,29504(s3)
68800f40:	0e20129e 	jal	68804a78 <menu_set_cur_index>
68800f44:	8c450090 	lw	a1,144(v0)
68800f48:	1000ff75 	b	68800d20 <em_second_level_menu_enter+0x64>
68800f4c:	8e657340 	lw	a1,29504(s3)
68800f50:	1000ffda 	b	68800ebc <em_second_level_menu_enter+0x200>
68800f54:	8ea4733c 	lw	a0,29500(s5)

68800f58 <em_second_level_menu_exit>:
68800f58:	27bdffe0 	addiu	sp,sp,-32
68800f5c:	afb10014 	sw	s1,20(sp)
68800f60:	afb00010 	sw	s0,16(sp)
68800f64:	afbf0018 	sw	ra,24(sp)
68800f68:	3c106880 	lui	s0,0x6880
68800f6c:	8e027340 	lw	v0,29504(s0)
68800f70:	3c116880 	lui	s1,0x6880
68800f74:	8e267358 	lw	a2,29528(s1)
68800f78:	8c450004 	lw	a1,4(v0)
68800f7c:	8cc4006c 	lw	a0,108(a2)
68800f80:	0e2012bc 	jal	68804af0 <menuview_hide>
68800f84:	acc50090 	sw	a1,144(a2)
68800f88:	8e037340 	lw	v1,29504(s0)
68800f8c:	1460000b 	bnez	v1,68800fbc <em_second_level_menu_exit+0x64>
68800f90:	00602021 	move	a0,v1
68800f94:	8e277358 	lw	a3,29528(s1)
68800f98:	00002821 	move	a1,zero
68800f9c:	0e2012bf 	jal	68804afc <menuview_set_menu>
68800fa0:	8ce4006c 	lw	a0,108(a3)
68800fa4:	8fbf0018 	lw	ra,24(sp)
68800fa8:	8fb10014 	lw	s1,20(sp)
68800fac:	8fb00010 	lw	s0,16(sp)
68800fb0:	24020001 	li	v0,1
68800fb4:	03e00008 	jr	ra
68800fb8:	27bd0020 	addiu	sp,sp,32
68800fbc:	0e20129b 	jal	68804a6c <menu_delete>
68800fc0:	00000000 	nop
68800fc4:	8e277358 	lw	a3,29528(s1)
68800fc8:	00002821 	move	a1,zero
68800fcc:	8ce4006c 	lw	a0,108(a3)
68800fd0:	0e2012bf 	jal	68804afc <menuview_set_menu>
68800fd4:	ae007340 	sw	zero,29504(s0)
68800fd8:	8fbf0018 	lw	ra,24(sp)
68800fdc:	8fb10014 	lw	s1,20(sp)
68800fe0:	8fb00010 	lw	s0,16(sp)
68800fe4:	24020001 	li	v0,1
68800fe8:	03e00008 	jr	ra
68800fec:	27bd0020 	addiu	sp,sp,32

68800ff0 <_has_saved_dlg_cb>:
68800ff0:	27bdffe8 	addiu	sp,sp,-24
68800ff4:	afb00010 	sw	s0,16(sp)
68800ff8:	afbf0014 	sw	ra,20(sp)
68800ffc:	3c106880 	lui	s0,0x6880
68801000:	8e027358 	lw	v0,29528(s0)
68801004:	8c430078 	lw	v1,120(v0)
68801008:	14600005 	bnez	v1,68801020 <_has_saved_dlg_cb+0x30>
6880100c:	00602021 	move	a0,v1
68801010:	8fbf0014 	lw	ra,20(sp)
68801014:	8fb00010 	lw	s0,16(sp)
68801018:	03e00008 	jr	ra
6880101c:	27bd0018 	addiu	sp,sp,24
68801020:	0e201262 	jal	68804988 <dialog_delete>
68801024:	00000000 	nop
68801028:	8e047358 	lw	a0,29528(s0)
6880102c:	8fbf0014 	lw	ra,20(sp)
68801030:	8fb00010 	lw	s0,16(sp)
68801034:	27bd0018 	addiu	sp,sp,24
68801038:	03e00008 	jr	ra
6880103c:	ac800078 	sw	zero,120(a0)

68801040 <_continue_game>:
68801040:	3c046881 	lui	a0,0x6881
68801044:	8c838278 	lw	v1,-32136(a0)
68801048:	27bdffe8 	addiu	sp,sp,-24
6880104c:	24020002 	li	v0,2
68801050:	afbf0010 	sw	ra,16(sp)
68801054:	10620005 	beq	v1,v0,6880106c <_continue_game+0x2c>
68801058:	00002021 	move	a0,zero
6880105c:	8fbf0010 	lw	ra,16(sp)
68801060:	00801021 	move	v0,a0
68801064:	03e00008 	jr	ra
68801068:	27bd0018 	addiu	sp,sp,24
6880106c:	0e200a88 	jal	68802a20 <return_to_game_wiodows>
68801070:	00000000 	nop
68801074:	0e200af9 	jal	68802be4 <emu_continue>
68801078:	00000000 	nop
6880107c:	24040001 	li	a0,1
68801080:	8fbf0010 	lw	ra,16(sp)
68801084:	00801021 	move	v0,a0
68801088:	03e00008 	jr	ra
6880108c:	27bd0018 	addiu	sp,sp,24

68801090 <_quit_game_app>:
68801090:	27bdffe8 	addiu	sp,sp,-24
68801094:	afbf0010 	sw	ra,16(sp)
68801098:	3c026880 	lui	v0,0x6880
6880109c:	8c437348 	lw	v1,29512(v0)
688010a0:	14600009 	bnez	v1,688010c8 <_quit_game_app+0x38>
688010a4:	00000000 	nop
688010a8:	0e2003d6 	jal	68800f58 <em_second_level_menu_exit>
688010ac:	00000000 	nop
688010b0:	3c056880 	lui	a1,0x6880
688010b4:	8ca47358 	lw	a0,29528(a1)
688010b8:	8fbf0010 	lw	ra,16(sp)
688010bc:	24050001 	li	a1,1
688010c0:	0a200019 	j	68800064 <em_dirlist_enter>
688010c4:	27bd0018 	addiu	sp,sp,24
688010c8:	0e200b72 	jal	68802dc8 <emu_exit>
688010cc:	00000000 	nop
688010d0:	0e2003d6 	jal	68800f58 <em_second_level_menu_exit>
688010d4:	00000000 	nop
688010d8:	8fbf0010 	lw	ra,16(sp)
688010dc:	0a200f45 	j	68803d14 <emulator_scene_quit>
688010e0:	27bd0018 	addiu	sp,sp,24

688010e4 <_item_quit_proc>:
688010e4:	27bdffe8 	addiu	sp,sp,-24
688010e8:	24020002 	li	v0,2
688010ec:	10a2000c 	beq	a1,v0,68801120 <_item_quit_proc+0x3c>
688010f0:	afbf0010 	sw	ra,16(sp)
688010f4:	24030003 	li	v1,3
688010f8:	10a30004 	beq	a1,v1,6880110c <_item_quit_proc+0x28>
688010fc:	8fbf0010 	lw	ra,16(sp)
68801100:	00001021 	move	v0,zero
68801104:	03e00008 	jr	ra
68801108:	27bd0018 	addiu	sp,sp,24
6880110c:	0e200410 	jal	68801040 <_continue_game>
68801110:	00000000 	nop
68801114:	24040001 	li	a0,1
68801118:	1044fff9 	beq	v0,a0,68801100 <_item_quit_proc+0x1c>
6880111c:	8fbf0010 	lw	ra,16(sp)
68801120:	0e200424 	jal	68801090 <_quit_game_app>
68801124:	00000000 	nop
68801128:	8fbf0010 	lw	ra,16(sp)
6880112c:	00001021 	move	v0,zero
68801130:	03e00008 	jr	ra
68801134:	27bd0018 	addiu	sp,sp,24

68801138 <_item_setting_proc>:
68801138:	27bdffe8 	addiu	sp,sp,-24
6880113c:	24020002 	li	v0,2
68801140:	10a20012 	beq	a1,v0,6880118c <_item_setting_proc+0x54>
68801144:	afbf0010 	sw	ra,16(sp)
68801148:	24030003 	li	v1,3
6880114c:	10a30004 	beq	a1,v1,68801160 <_item_setting_proc+0x28>
68801150:	8fbf0010 	lw	ra,16(sp)
68801154:	00001021 	move	v0,zero
68801158:	03e00008 	jr	ra
6880115c:	27bd0018 	addiu	sp,sp,24
68801160:	0e200410 	jal	68801040 <_continue_game>
68801164:	00000000 	nop
68801168:	24040001 	li	a0,1
6880116c:	1044fff9 	beq	v0,a0,68801154 <_item_setting_proc+0x1c>
68801170:	8fbf0010 	lw	ra,16(sp)
68801174:	0e200424 	jal	68801090 <_quit_game_app>
68801178:	00000000 	nop
6880117c:	8fbf0010 	lw	ra,16(sp)
68801180:	00001021 	move	v0,zero
68801184:	03e00008 	jr	ra
68801188:	27bd0018 	addiu	sp,sp,24
6880118c:	0e2003d6 	jal	68800f58 <em_second_level_menu_exit>
68801190:	00000000 	nop
68801194:	3c056880 	lui	a1,0x6880
68801198:	0e200541 	jal	68801504 <em_third_level_menu_enter>
6880119c:	8ca47358 	lw	a0,29528(a1)
688011a0:	8fbf0010 	lw	ra,16(sp)
688011a4:	00001021 	move	v0,zero
688011a8:	03e00008 	jr	ra
688011ac:	27bd0018 	addiu	sp,sp,24

688011b0 <_item_save_proc>:
688011b0:	27bdffc8 	addiu	sp,sp,-56
688011b4:	24020002 	li	v0,2
688011b8:	afbf0030 	sw	ra,48(sp)
688011bc:	afb1002c 	sw	s1,44(sp)
688011c0:	10a20009 	beq	a1,v0,688011e8 <_item_save_proc+0x38>
688011c4:	afb00028 	sw	s0,40(sp)
688011c8:	24030003 	li	v1,3
688011cc:	10a30033 	beq	a1,v1,6880129c <_item_save_proc+0xec>
688011d0:	8fbf0030 	lw	ra,48(sp)
688011d4:	8fb1002c 	lw	s1,44(sp)
688011d8:	8fb00028 	lw	s0,40(sp)
688011dc:	00001021 	move	v0,zero
688011e0:	03e00008 	jr	ra
688011e4:	27bd0038 	addiu	sp,sp,56
688011e8:	3c116880 	lui	s1,0x6880
688011ec:	8e257358 	lw	a1,29528(s1)
688011f0:	8ca40078 	lw	a0,120(a1)
688011f4:	1480fff7 	bnez	a0,688011d4 <_item_save_proc+0x24>
688011f8:	8fbf0030 	lw	ra,48(sp)
688011fc:	0e200b65 	jal	68802d94 <emu_save>
68801200:	00000000 	nop
68801204:	1440002d 	bnez	v0,688012bc <_item_save_proc+0x10c>
68801208:	8e2c7358 	lw	t4,29528(s1)
6880120c:	8e247358 	lw	a0,29528(s1)
68801210:	3c026880 	lui	v0,0x6880
68801214:	8c83004c 	lw	v1,76(a0)
68801218:	24507b6c 	addiu	s0,v0,31596
6880121c:	907f001e 	lbu	ra,30(v1)
68801220:	9079001d 	lbu	t9,29(v1)
68801224:	001fc200 	sll	t8,ra,0x8
68801228:	3c0f6880 	lui	t7,0x6880
6880122c:	03197025 	or	t6,t8,t9
68801230:	25e5736c 	addiu	a1,t7,29548
68801234:	02002021 	move	a0,s0
68801238:	0e2017b1 	jal	68805ec4 <strcpy>
6880123c:	a7ae001c 	sh	t6,28(sp)
68801240:	3c0d6880 	lui	t5,0x6880
68801244:	25a463f8 	addiu	a0,t5,25592
68801248:	02002821 	move	a1,s0
6880124c:	0e2017f8 	jal	68805fe0 <set_config>
68801250:	24060400 	li	a2,1024
68801254:	04400026 	bltz	v0,688012f0 <_item_save_proc+0x140>
68801258:	00000000 	nop
6880125c:	3c0c6880 	lui	t4,0x6880
68801260:	25850ff0 	addiu	a1,t4,4080
68801264:	8e307358 	lw	s0,29528(s1)
68801268:	27a40018 	addiu	a0,sp,24
6880126c:	240b0003 	li	t3,3
68801270:	0e20125f 	jal	6880497c <dialog_create>
68801274:	afab0018 	sw	t3,24(sp)
68801278:	8e257358 	lw	a1,29528(s1)
6880127c:	ae020078 	sw	v0,120(s0)
68801280:	8ca40078 	lw	a0,120(a1)
68801284:	5080ffd3 	beqzl	a0,688011d4 <_item_save_proc+0x24>
68801288:	8fbf0030 	lw	ra,48(sp)
6880128c:	0e201259 	jal	68804964 <dialog_paint>
68801290:	00000000 	nop
68801294:	1000ffcf 	b	688011d4 <_item_save_proc+0x24>
68801298:	8fbf0030 	lw	ra,48(sp)
6880129c:	0e200410 	jal	68801040 <_continue_game>
688012a0:	24110001 	li	s1,1
688012a4:	5051ffcb 	beql	v0,s1,688011d4 <_item_save_proc+0x24>
688012a8:	8fbf0030 	lw	ra,48(sp)
688012ac:	0e200424 	jal	68801090 <_quit_game_app>
688012b0:	00000000 	nop
688012b4:	1000ffc7 	b	688011d4 <_item_save_proc+0x24>
688012b8:	8fbf0030 	lw	ra,48(sp)
688012bc:	3c0b6880 	lui	t3,0x6880
688012c0:	8d8a0050 	lw	t2,80(t4)
688012c4:	25647b6c 	addiu	a0,t3,31596
688012c8:	9149001e 	lbu	t1,30(t2)
688012cc:	9148001d 	lbu	t0,29(t2)
688012d0:	00093200 	sll	a2,t1,0x8
688012d4:	00c83825 	or	a3,a2,t0
688012d8:	00002821 	move	a1,zero
688012dc:	24060400 	li	a2,1024
688012e0:	0e201782 	jal	68805e08 <memset>
688012e4:	a7a7001c 	sh	a3,28(sp)
688012e8:	1000ffdd 	b	68801260 <_item_save_proc+0xb0>
688012ec:	3c0c6880 	lui	t4,0x6880
688012f0:	0e2014a6 	jal	68805298 <__errno>
688012f4:	00000000 	nop
688012f8:	0e201497 	jal	6880525c <getpid>
688012fc:	00408021 	move	s0,v0
68801300:	8e050000 	lw	a1,0(s0)
68801304:	3c066880 	lui	a2,0x6880
68801308:	3c096880 	lui	t1,0x6880
6880130c:	3c076880 	lui	a3,0x6880
68801310:	24c4640c 	addiu	a0,a2,25612
68801314:	240a0131 	li	t2,305
68801318:	252860a8 	addiu	t0,t1,24744
6880131c:	00403021 	move	a2,v0
68801320:	24e7645c 	addiu	a3,a3,25692
68801324:	afaa0010 	sw	t2,16(sp)
68801328:	0e201805 	jal	68806014 <printf>
6880132c:	afa80014 	sw	t0,20(sp)
68801330:	1000ffcb 	b	68801260 <_item_save_proc+0xb0>
68801334:	3c0c6880 	lui	t4,0x6880

68801338 <_item_load_proc>:
68801338:	27bdffd0 	addiu	sp,sp,-48
6880133c:	3c036880 	lui	v1,0x6880
68801340:	afb00020 	sw	s0,32(sp)
68801344:	3c046880 	lui	a0,0x6880
68801348:	24707b6c 	addiu	s0,v1,31596
6880134c:	24020002 	li	v0,2
68801350:	00a01821 	move	v1,a1
68801354:	afbf0028 	sw	ra,40(sp)
68801358:	afb10024 	sw	s1,36(sp)
6880135c:	248463f8 	addiu	a0,a0,25592
68801360:	24060400 	li	a2,1024
68801364:	1062000a 	beq	v1,v0,68801390 <_item_load_proc+0x58>
68801368:	02002821 	move	a1,s0
6880136c:	24050003 	li	a1,3
68801370:	10650024 	beq	v1,a1,68801404 <_item_load_proc+0xcc>
68801374:	00000000 	nop
68801378:	8fbf0028 	lw	ra,40(sp)
6880137c:	8fb10024 	lw	s1,36(sp)
68801380:	8fb00020 	lw	s0,32(sp)
68801384:	00001021 	move	v0,zero
68801388:	03e00008 	jr	ra
6880138c:	27bd0030 	addiu	sp,sp,48
68801390:	0e2017fc 	jal	68805ff0 <get_config>
68801394:	3c116880 	lui	s1,0x6880
68801398:	3c076880 	lui	a3,0x6880
6880139c:	02002021 	move	a0,s0
688013a0:	0e201793 	jal	68805e4c <strcmp>
688013a4:	24e560b8 	addiu	a1,a3,24760
688013a8:	3c066880 	lui	a2,0x6880
688013ac:	24c514b4 	addiu	a1,a2,5300
688013b0:	1440001c 	bnez	v0,68801424 <_item_load_proc+0xec>
688013b4:	27a40010 	addiu	a0,sp,16
688013b8:	8e307358 	lw	s0,29528(s1)
688013bc:	240f0004 	li	t7,4
688013c0:	8e0e0058 	lw	t6,88(s0)
688013c4:	afaf0010 	sw	t7,16(sp)
688013c8:	91cd001e 	lbu	t5,30(t6)
688013cc:	91cc001d 	lbu	t4,29(t6)
688013d0:	000d5a00 	sll	t3,t5,0x8
688013d4:	016c5025 	or	t2,t3,t4
688013d8:	0e20125f 	jal	6880497c <dialog_create>
688013dc:	a7aa0014 	sh	t2,20(sp)
688013e0:	8e297358 	lw	t1,29528(s1)
688013e4:	ae020078 	sw	v0,120(s0)
688013e8:	8d280078 	lw	t0,120(t1)
688013ec:	1100ffe2 	beqz	t0,68801378 <_item_load_proc+0x40>
688013f0:	01002021 	move	a0,t0
688013f4:	0e201259 	jal	68804964 <dialog_paint>
688013f8:	00000000 	nop
688013fc:	1000ffdf 	b	6880137c <_item_load_proc+0x44>
68801400:	8fbf0028 	lw	ra,40(sp)
68801404:	0e200410 	jal	68801040 <_continue_game>
68801408:	24110001 	li	s1,1
6880140c:	5051ffdb 	beql	v0,s1,6880137c <_item_load_proc+0x44>
68801410:	8fbf0028 	lw	ra,40(sp)
68801414:	0e200424 	jal	68801090 <_quit_game_app>
68801418:	00000000 	nop
6880141c:	1000ffd7 	b	6880137c <_item_load_proc+0x44>
68801420:	8fbf0028 	lw	ra,40(sp)
68801424:	0e200a88 	jal	68802a20 <return_to_game_wiodows>
68801428:	00000000 	nop
6880142c:	0e200b14 	jal	68802c50 <emu_load>
68801430:	00000000 	nop
68801434:	1000ffd1 	b	6880137c <_item_load_proc+0x44>
68801438:	8fbf0028 	lw	ra,40(sp)

6880143c <_item_restart_proc>:
6880143c:	27bdffe8 	addiu	sp,sp,-24
68801440:	24020002 	li	v0,2
68801444:	10a20012 	beq	a1,v0,68801490 <_item_restart_proc+0x54>
68801448:	afbf0010 	sw	ra,16(sp)
6880144c:	24030003 	li	v1,3
68801450:	10a30004 	beq	a1,v1,68801464 <_item_restart_proc+0x28>
68801454:	8fbf0010 	lw	ra,16(sp)
68801458:	00001021 	move	v0,zero
6880145c:	03e00008 	jr	ra
68801460:	27bd0018 	addiu	sp,sp,24
68801464:	0e200410 	jal	68801040 <_continue_game>
68801468:	00000000 	nop
6880146c:	24050001 	li	a1,1
68801470:	1045fff9 	beq	v0,a1,68801458 <_item_restart_proc+0x1c>
68801474:	8fbf0010 	lw	ra,16(sp)
68801478:	0e200424 	jal	68801090 <_quit_game_app>
6880147c:	00000000 	nop
68801480:	8fbf0010 	lw	ra,16(sp)
68801484:	00001021 	move	v0,zero
68801488:	03e00008 	jr	ra
6880148c:	27bd0018 	addiu	sp,sp,24
68801490:	0e200a88 	jal	68802a20 <return_to_game_wiodows>
68801494:	00000000 	nop
68801498:	3c046880 	lui	a0,0x6880
6880149c:	0e200b30 	jal	68802cc0 <emu_play>
688014a0:	2484736c 	addiu	a0,a0,29548
688014a4:	8fbf0010 	lw	ra,16(sp)
688014a8:	00001021 	move	v0,zero
688014ac:	03e00008 	jr	ra
688014b0:	27bd0018 	addiu	sp,sp,24

688014b4 <_err_info_dlg_cb>:
688014b4:	27bdffe8 	addiu	sp,sp,-24
688014b8:	afb00010 	sw	s0,16(sp)
688014bc:	afbf0014 	sw	ra,20(sp)
688014c0:	3c106880 	lui	s0,0x6880
688014c4:	8e027358 	lw	v0,29528(s0)
688014c8:	8c430078 	lw	v1,120(v0)
688014cc:	14600005 	bnez	v1,688014e4 <_err_info_dlg_cb+0x30>
688014d0:	00602021 	move	a0,v1
688014d4:	8fbf0014 	lw	ra,20(sp)
688014d8:	8fb00010 	lw	s0,16(sp)
688014dc:	03e00008 	jr	ra
688014e0:	27bd0018 	addiu	sp,sp,24
688014e4:	0e201262 	jal	68804988 <dialog_delete>
688014e8:	00000000 	nop
688014ec:	8e047358 	lw	a0,29528(s0)
688014f0:	8fbf0014 	lw	ra,20(sp)
688014f4:	8fb00010 	lw	s0,16(sp)
688014f8:	27bd0018 	addiu	sp,sp,24
688014fc:	03e00008 	jr	ra
68801500:	ac800078 	sw	zero,120(a0)

68801504 <em_third_level_menu_enter>:
68801504:	3c066880 	lui	a2,0x6880
68801508:	27bdffd0 	addiu	sp,sp,-48
6880150c:	8cc5735c 	lw	a1,29532(a2)
68801510:	afb20020 	sw	s2,32(sp)
68801514:	27a60010 	addiu	a2,sp,16
68801518:	00809021 	move	s2,a0
6880151c:	24040001 	li	a0,1
68801520:	afbf002c 	sw	ra,44(sp)
68801524:	afb40028 	sw	s4,40(sp)
68801528:	afb30024 	sw	s3,36(sp)
6880152c:	afb1001c 	sw	s1,28(sp)
68801530:	afb00018 	sw	s0,24(sp)
68801534:	0e201304 	jal	68804c10 <fusion_get_config>
68801538:	3c136880 	lui	s3,0x6880
6880153c:	0e201307 	jal	68804c1c <fusion_set_effect>
68801540:	27a40010 	addiu	a0,sp,16
68801544:	8e637358 	lw	v1,29528(s3)
68801548:	3c146880 	lui	s4,0x6880
6880154c:	0e201034 	jal	688040d0 <scene_fusion_set_first_frame>
68801550:	8c640000 	lw	a0,0(v1)
68801554:	8e857344 	lw	a1,29508(s4)
68801558:	24020003 	li	v0,3
6880155c:	10a00018 	beqz	a1,688015c0 <em_third_level_menu_enter+0xbc>
68801560:	ae420098 	sw	v0,152(s2)
68801564:	0e2012bf 	jal	68804afc <menuview_set_menu>
68801568:	8e44006c 	lw	a0,108(s2)
6880156c:	8e44006c 	lw	a0,108(s2)
68801570:	0e2012b3 	jal	68804acc <menuview_load_style>
68801574:	24050004 	li	a1,4
68801578:	0e2012b9 	jal	68804ae4 <menuview_show>
6880157c:	8e44006c 	lw	a0,108(s2)
68801580:	0e2012ad 	jal	68804ab4 <menuview_paint>
68801584:	8e44006c 	lw	a0,108(s2)
68801588:	8e727358 	lw	s2,29528(s3)
6880158c:	0e201051 	jal	68804144 <scene_fusion_set_last_frame>
68801590:	8e440000 	lw	a0,0(s2)
68801594:	0e201301 	jal	68804c04 <fusion_display>
68801598:	00002021 	move	a0,zero
6880159c:	8fbf002c 	lw	ra,44(sp)
688015a0:	8fb40028 	lw	s4,40(sp)
688015a4:	8fb30024 	lw	s3,36(sp)
688015a8:	8fb20020 	lw	s2,32(sp)
688015ac:	8fb1001c 	lw	s1,28(sp)
688015b0:	8fb00018 	lw	s0,24(sp)
688015b4:	24020001 	li	v0,1
688015b8:	03e00008 	jr	ra
688015bc:	27bd0030 	addiu	sp,sp,48
688015c0:	0e201366 	jal	68804d98 <sty_get_app_scene>
688015c4:	00000000 	nop
688015c8:	1040ffe6 	beqz	v0,68801564 <em_third_level_menu_enter+0x60>
688015cc:	00002821 	move	a1,zero
688015d0:	3c106881 	lui	s0,0x6881
688015d4:	26118184 	addiu	s1,s0,-32380
688015d8:	02202021 	move	a0,s1
688015dc:	0e201782 	jal	68805e08 <memset>
688015e0:	2406006c 	li	a2,108
688015e4:	8e6f7358 	lw	t7,29528(s3)
688015e8:	3c0e6881 	lui	t6,0x6881
688015ec:	8ded0040 	lw	t5,64(t7)
688015f0:	25c6827c 	addiu	a2,t6,-32132
688015f4:	91ac001e 	lbu	t4,30(t5)
688015f8:	91ab001d 	lbu	t3,29(t5)
688015fc:	000c5200 	sll	t2,t4,0x8
68801600:	8cc40024 	lw	a0,36(a2)
68801604:	3c086880 	lui	t0,0x6880
68801608:	014b4825 	or	t1,t2,t3
6880160c:	25071968 	addiu	a3,t0,6504
68801610:	3c056880 	lui	a1,0x6880
68801614:	ae290008 	sw	t1,8(s1)
68801618:	ae270010 	sw	a3,16(s1)
6880161c:	ae20000c 	sw	zero,12(s1)
68801620:	10800003 	beqz	a0,68801630 <em_third_level_menu_enter+0x12c>
68801624:	24a26474 	addiu	v0,a1,25716
68801628:	3c186880 	lui	t8,0x6880
6880162c:	27026478 	addiu	v0,t8,25720
68801630:	8e707358 	lw	s0,29528(s3)
68801634:	ae220018 	sw	v0,24(s1)
68801638:	8e0f0044 	lw	t7,68(s0)
6880163c:	3c0a6880 	lui	t2,0x6880
68801640:	91ee001e 	lbu	t6,30(t7)
68801644:	91ed001d 	lbu	t5,29(t7)
68801648:	000e6200 	sll	t4,t6,0x8
6880164c:	8e050048 	lw	a1,72(s0)
68801650:	018d5825 	or	t3,t4,t5
68801654:	254917d0 	addiu	t1,t2,6096
68801658:	ae2b002c 	sw	t3,44(s1)
6880165c:	ae290034 	sw	t1,52(s1)
68801660:	ae200030 	sw	zero,48(s1)
68801664:	90a8001e 	lbu	t0,30(a1)
68801668:	90a7001d 	lbu	a3,29(a1)
6880166c:	8cdf0020 	lw	ra,32(a2)
68801670:	00082200 	sll	a0,t0,0x8
68801674:	3c036880 	lui	v1,0x6880
68801678:	00873025 	or	a2,a0,a3
6880167c:	24621840 	addiu	v0,v1,6208
68801680:	24190001 	li	t9,1
68801684:	ae260050 	sw	a2,80(s1)
68801688:	ae220058 	sw	v0,88(s1)
6880168c:	13f90027 	beq	ra,t9,6880172c <em_third_level_menu_enter+0x228>
68801690:	ae200054 	sw	zero,84(s1)
68801694:	3c196880 	lui	t9,0x6880
68801698:	2722647c 	addiu	v0,t9,25724
6880169c:	0e201298 	jal	68804a60 <menu_create>
688016a0:	ae220060 	sw	v0,96(s1)
688016a4:	ae827344 	sw	v0,29508(s4)
688016a8:	00002821 	move	a1,zero
688016ac:	1040ffad 	beqz	v0,68801564 <em_third_level_menu_enter+0x60>
688016b0:	00008021 	move	s0,zero
688016b4:	001020c0 	sll	a0,s0,0x3
688016b8:	00903021 	addu	a2,a0,s0
688016bc:	00061880 	sll	v1,a2,0x2
688016c0:	00402021 	move	a0,v0
688016c4:	00712821 	addu	a1,v1,s1
688016c8:	0e2012a4 	jal	68804a90 <menu_append_item>
688016cc:	26100001 	addiu	s0,s0,1
688016d0:	2a1f0003 	slti	ra,s0,3
688016d4:	13e0000d 	beqz	ra,6880170c <em_third_level_menu_enter+0x208>
688016d8:	8e847344 	lw	a0,29508(s4)
688016dc:	001020c0 	sll	a0,s0,0x3
688016e0:	00903021 	addu	a2,a0,s0
688016e4:	8e827344 	lw	v0,29508(s4)
688016e8:	00061880 	sll	v1,a2,0x2
688016ec:	00402021 	move	a0,v0
688016f0:	00712821 	addu	a1,v1,s1
688016f4:	0e2012a4 	jal	68804a90 <menu_append_item>
688016f8:	26100001 	addiu	s0,s0,1
688016fc:	2a1f0003 	slti	ra,s0,3
68801700:	57e0fff7 	bnezl	ra,688016e0 <em_third_level_menu_enter+0x1dc>
68801704:	001020c0 	sll	a0,s0,0x3
68801708:	8e847344 	lw	a0,29508(s4)
6880170c:	8e717358 	lw	s1,29528(s3)
68801710:	24020003 	li	v0,3
68801714:	ac820008 	sw	v0,8(a0)
68801718:	ac800000 	sw	zero,0(a0)
6880171c:	0e20129e 	jal	68804a78 <menu_set_cur_index>
68801720:	8e250094 	lw	a1,148(s1)
68801724:	1000ff8f 	b	68801564 <em_third_level_menu_enter+0x60>
68801728:	8e857344 	lw	a1,29508(s4)
6880172c:	3c186880 	lui	t8,0x6880
68801730:	1000ffda 	b	6880169c <em_third_level_menu_enter+0x198>
68801734:	27026484 	addiu	v0,t8,25732

68801738 <_em_third_level_menu_exit>:
68801738:	27bdffe0 	addiu	sp,sp,-32
6880173c:	afb10014 	sw	s1,20(sp)
68801740:	afb00010 	sw	s0,16(sp)
68801744:	afbf0018 	sw	ra,24(sp)
68801748:	3c106880 	lui	s0,0x6880
6880174c:	8e027344 	lw	v0,29508(s0)
68801750:	3c116880 	lui	s1,0x6880
68801754:	8e267358 	lw	a2,29528(s1)
68801758:	8c450004 	lw	a1,4(v0)
6880175c:	8cc4006c 	lw	a0,108(a2)
68801760:	0e2012bc 	jal	68804af0 <menuview_hide>
68801764:	acc50094 	sw	a1,148(a2)
68801768:	8e037344 	lw	v1,29508(s0)
6880176c:	1460000b 	bnez	v1,6880179c <_em_third_level_menu_exit+0x64>
68801770:	00602021 	move	a0,v1
68801774:	8e277358 	lw	a3,29528(s1)
68801778:	00002821 	move	a1,zero
6880177c:	0e2012bf 	jal	68804afc <menuview_set_menu>
68801780:	8ce4006c 	lw	a0,108(a3)
68801784:	8fbf0018 	lw	ra,24(sp)
68801788:	8fb10014 	lw	s1,20(sp)
6880178c:	8fb00010 	lw	s0,16(sp)
68801790:	24020001 	li	v0,1
68801794:	03e00008 	jr	ra
68801798:	27bd0020 	addiu	sp,sp,32
6880179c:	0e20129b 	jal	68804a6c <menu_delete>
688017a0:	00000000 	nop
688017a4:	8e277358 	lw	a3,29528(s1)
688017a8:	00002821 	move	a1,zero
688017ac:	8ce4006c 	lw	a0,108(a3)
688017b0:	0e2012bf 	jal	68804afc <menuview_set_menu>
688017b4:	ae007344 	sw	zero,29508(s0)
688017b8:	8fbf0018 	lw	ra,24(sp)
688017bc:	8fb10014 	lw	s1,20(sp)
688017c0:	8fb00010 	lw	s0,16(sp)
688017c4:	24020001 	li	v0,1
688017c8:	03e00008 	jr	ra
688017cc:	27bd0020 	addiu	sp,sp,32

688017d0 <_item_keymap_proc>:
688017d0:	27bdffe8 	addiu	sp,sp,-24
688017d4:	24020002 	li	v0,2
688017d8:	10a20010 	beq	a1,v0,6880181c <_item_keymap_proc+0x4c>
688017dc:	afbf0010 	sw	ra,16(sp)
688017e0:	24030003 	li	v1,3
688017e4:	10a30004 	beq	a1,v1,688017f8 <_item_keymap_proc+0x28>
688017e8:	8fbf0010 	lw	ra,16(sp)
688017ec:	00001021 	move	v0,zero
688017f0:	03e00008 	jr	ra
688017f4:	27bd0018 	addiu	sp,sp,24
688017f8:	0e2005ce 	jal	68801738 <_em_third_level_menu_exit>
688017fc:	00000000 	nop
68801800:	3c066880 	lui	a2,0x6880
68801804:	0e20032f 	jal	68800cbc <em_second_level_menu_enter>
68801808:	8cc47358 	lw	a0,29528(a2)
6880180c:	8fbf0010 	lw	ra,16(sp)
68801810:	00001021 	move	v0,zero
68801814:	03e00008 	jr	ra
68801818:	27bd0018 	addiu	sp,sp,24
6880181c:	0e2005ce 	jal	68801738 <_em_third_level_menu_exit>
68801820:	00000000 	nop
68801824:	3c056880 	lui	a1,0x6880
68801828:	0e200112 	jal	68800448 <em_fourth_level_menu_enter>
6880182c:	8ca47358 	lw	a0,29528(a1)
68801830:	8fbf0010 	lw	ra,16(sp)
68801834:	00001021 	move	v0,zero
68801838:	03e00008 	jr	ra
6880183c:	27bd0018 	addiu	sp,sp,24

68801840 <_item_disp_mode_proc>:
68801840:	27bdffd0 	addiu	sp,sp,-48
68801844:	24020002 	li	v0,2
68801848:	afb10024 	sw	s1,36(sp)
6880184c:	afbf0028 	sw	ra,40(sp)
68801850:	afb00020 	sw	s0,32(sp)
68801854:	10a2000a 	beq	a1,v0,68801880 <_item_disp_mode_proc+0x40>
68801858:	3c116880 	lui	s1,0x6880
6880185c:	24030003 	li	v1,3
68801860:	10a30032 	beq	a1,v1,6880192c <_item_disp_mode_proc+0xec>
68801864:	00000000 	nop
68801868:	8fbf0028 	lw	ra,40(sp)
6880186c:	8fb10024 	lw	s1,36(sp)
68801870:	8fb00020 	lw	s0,32(sp)
68801874:	00001021 	move	v0,zero
68801878:	03e00008 	jr	ra
6880187c:	27bd0030 	addiu	sp,sp,48
68801880:	8e307358 	lw	s0,29528(s1)
68801884:	3c066880 	lui	a2,0x6880
68801888:	8e070070 	lw	a3,112(s0)
6880188c:	24c61bd8 	addiu	a2,a2,7128
68801890:	27a40018 	addiu	a0,sp,24
68801894:	24050001 	li	a1,1
68801898:	afa00018 	sw	zero,24(sp)
6880189c:	14e0fff2 	bnez	a3,68801868 <_item_disp_mode_proc+0x28>
688018a0:	afa0001c 	sw	zero,28(sp)
688018a4:	8e0f0068 	lw	t7,104(s0)
688018a8:	3c186881 	lui	t8,0x6881
688018ac:	91ee001e 	lbu	t6,30(t7)
688018b0:	8f0d829c 	lw	t5,-32100(t8)
688018b4:	91ec001d 	lbu	t4,29(t7)
688018b8:	000e5a00 	sll	t3,t6,0x8
688018bc:	39aa0001 	xori	t2,t5,0x1
688018c0:	016c4825 	or	t1,t3,t4
688018c4:	000a402b 	sltu	t0,zero,t2
688018c8:	afa90018 	sw	t1,24(sp)
688018cc:	0e20126b 	jal	688049ac <adjust_create>
688018d0:	afa8001c 	sw	t0,28(sp)
688018d4:	8e247358 	lw	a0,29528(s1)
688018d8:	ae020070 	sw	v0,112(s0)
688018dc:	8c850070 	lw	a1,112(a0)
688018e0:	14a0001d 	bnez	a1,68801958 <_item_disp_mode_proc+0x118>
688018e4:	00a02021 	move	a0,a1
688018e8:	0e2014a6 	jal	68805298 <__errno>
688018ec:	3c116880 	lui	s1,0x6880
688018f0:	0e201497 	jal	6880525c <getpid>
688018f4:	00408021 	move	s0,v0
688018f8:	8e050000 	lw	a1,0(s0)
688018fc:	3c036880 	lui	v1,0x6880
68801900:	3c1f6880 	lui	ra,0x6880
68801904:	24190158 	li	t9,344
68801908:	263060bc 	addiu	s0,s1,24764
6880190c:	2464648c 	addiu	a0,v1,25740
68801910:	00403021 	move	a2,v0
68801914:	27e764c8 	addiu	a3,ra,25800
68801918:	afb90010 	sw	t9,16(sp)
6880191c:	0e201805 	jal	68806014 <printf>
68801920:	afb00014 	sw	s0,20(sp)
68801924:	1000ffd1 	b	6880186c <_item_disp_mode_proc+0x2c>
68801928:	8fbf0028 	lw	ra,40(sp)
6880192c:	0e2005ce 	jal	68801738 <_em_third_level_menu_exit>
68801930:	00000000 	nop
68801934:	3c026880 	lui	v0,0x6880
68801938:	0e20032f 	jal	68800cbc <em_second_level_menu_enter>
6880193c:	8c447358 	lw	a0,29528(v0)
68801940:	8fbf0028 	lw	ra,40(sp)
68801944:	8fb10024 	lw	s1,36(sp)
68801948:	8fb00020 	lw	s0,32(sp)
6880194c:	00001021 	move	v0,zero
68801950:	03e00008 	jr	ra
68801954:	27bd0030 	addiu	sp,sp,48
68801958:	0e201295 	jal	68804a54 <adjust_paint>
6880195c:	00000000 	nop
68801960:	1000ffc2 	b	6880186c <_item_disp_mode_proc+0x2c>
68801964:	8fbf0028 	lw	ra,40(sp)

68801968 <_item_sound_proc>:
68801968:	27bdffd0 	addiu	sp,sp,-48
6880196c:	24020002 	li	v0,2
68801970:	afb10024 	sw	s1,36(sp)
68801974:	afbf0028 	sw	ra,40(sp)
68801978:	afb00020 	sw	s0,32(sp)
6880197c:	10a2000a 	beq	a1,v0,688019a8 <_item_sound_proc+0x40>
68801980:	3c116880 	lui	s1,0x6880
68801984:	24030003 	li	v1,3
68801988:	10a30032 	beq	a1,v1,68801a54 <_item_sound_proc+0xec>
6880198c:	00000000 	nop
68801990:	8fbf0028 	lw	ra,40(sp)
68801994:	8fb10024 	lw	s1,36(sp)
68801998:	8fb00020 	lw	s0,32(sp)
6880199c:	00001021 	move	v0,zero
688019a0:	03e00008 	jr	ra
688019a4:	27bd0030 	addiu	sp,sp,48
688019a8:	8e307358 	lw	s0,29528(s1)
688019ac:	3c066880 	lui	a2,0x6880
688019b0:	8e070070 	lw	a3,112(s0)
688019b4:	24c61ae8 	addiu	a2,a2,6888
688019b8:	27a40018 	addiu	a0,sp,24
688019bc:	24050001 	li	a1,1
688019c0:	afa00018 	sw	zero,24(sp)
688019c4:	14e0fff2 	bnez	a3,68801990 <_item_sound_proc+0x28>
688019c8:	afa0001c 	sw	zero,28(sp)
688019cc:	8e0f0040 	lw	t7,64(s0)
688019d0:	3c186881 	lui	t8,0x6881
688019d4:	91ee001e 	lbu	t6,30(t7)
688019d8:	8f0d82a0 	lw	t5,-32096(t8)
688019dc:	91ec001d 	lbu	t4,29(t7)
688019e0:	000e5a00 	sll	t3,t6,0x8
688019e4:	39aa0001 	xori	t2,t5,0x1
688019e8:	016c4825 	or	t1,t3,t4
688019ec:	000a402b 	sltu	t0,zero,t2
688019f0:	afa90018 	sw	t1,24(sp)
688019f4:	0e20126b 	jal	688049ac <adjust_create>
688019f8:	afa8001c 	sw	t0,28(sp)
688019fc:	8e247358 	lw	a0,29528(s1)
68801a00:	ae020070 	sw	v0,112(s0)
68801a04:	8c850070 	lw	a1,112(a0)
68801a08:	14a0001d 	bnez	a1,68801a80 <_item_sound_proc+0x118>
68801a0c:	00a02021 	move	a0,a1
68801a10:	0e2014a6 	jal	68805298 <__errno>
68801a14:	3c116880 	lui	s1,0x6880
68801a18:	0e201497 	jal	6880525c <getpid>
68801a1c:	00408021 	move	s0,v0
68801a20:	8e050000 	lw	a1,0(s0)
68801a24:	3c036880 	lui	v1,0x6880
68801a28:	3c1f6880 	lui	ra,0x6880
68801a2c:	24190101 	li	t9,257
68801a30:	263060dc 	addiu	s0,s1,24796
68801a34:	2464648c 	addiu	a0,v1,25740
68801a38:	00403021 	move	a2,v0
68801a3c:	27e764c8 	addiu	a3,ra,25800
68801a40:	afb90010 	sw	t9,16(sp)
68801a44:	0e201805 	jal	68806014 <printf>
68801a48:	afb00014 	sw	s0,20(sp)
68801a4c:	1000ffd1 	b	68801994 <_item_sound_proc+0x2c>
68801a50:	8fbf0028 	lw	ra,40(sp)
68801a54:	0e2005ce 	jal	68801738 <_em_third_level_menu_exit>
68801a58:	00000000 	nop
68801a5c:	3c026880 	lui	v0,0x6880
68801a60:	0e20032f 	jal	68800cbc <em_second_level_menu_enter>
68801a64:	8c447358 	lw	a0,29528(v0)
68801a68:	8fbf0028 	lw	ra,40(sp)
68801a6c:	8fb10024 	lw	s1,36(sp)
68801a70:	8fb00020 	lw	s0,32(sp)
68801a74:	00001021 	move	v0,zero
68801a78:	03e00008 	jr	ra
68801a7c:	27bd0030 	addiu	sp,sp,48
68801a80:	0e201295 	jal	68804a54 <adjust_paint>
68801a84:	00000000 	nop
68801a88:	1000ffc2 	b	68801994 <_item_sound_proc+0x2c>
68801a8c:	8fbf0028 	lw	ra,40(sp)

68801a90 <_delete_adjust_widget>:
68801a90:	27bdffe8 	addiu	sp,sp,-24
68801a94:	afb00010 	sw	s0,16(sp)
68801a98:	afbf0014 	sw	ra,20(sp)
68801a9c:	3c106880 	lui	s0,0x6880
68801aa0:	8e027358 	lw	v0,29528(s0)
68801aa4:	8c430070 	lw	v1,112(v0)
68801aa8:	14600006 	bnez	v1,68801ac4 <_delete_adjust_widget+0x34>
68801aac:	00602021 	move	a0,v1
68801ab0:	8fbf0014 	lw	ra,20(sp)
68801ab4:	8fb00010 	lw	s0,16(sp)
68801ab8:	24020001 	li	v0,1
68801abc:	03e00008 	jr	ra
68801ac0:	27bd0018 	addiu	sp,sp,24
68801ac4:	0e201286 	jal	68804a18 <adjust_delete>
68801ac8:	00000000 	nop
68801acc:	8e047358 	lw	a0,29528(s0)
68801ad0:	8fbf0014 	lw	ra,20(sp)
68801ad4:	8fb00010 	lw	s0,16(sp)
68801ad8:	24020001 	li	v0,1
68801adc:	27bd0018 	addiu	sp,sp,24
68801ae0:	03e00008 	jr	ra
68801ae4:	ac800070 	sw	zero,112(a0)

68801ae8 <_sound_output_adjust_widget_cb>:
68801ae8:	27bdffe0 	addiu	sp,sp,-32
68801aec:	afbf001c 	sw	ra,28(sp)
68801af0:	10a00007 	beqz	a1,68801b10 <_sound_output_adjust_widget_cb+0x28>
68801af4:	afb00018 	sw	s0,24(sp)
68801af8:	24020001 	li	v0,1
68801afc:	10a20018 	beq	a1,v0,68801b60 <_sound_output_adjust_widget_cb+0x78>
68801b00:	8fbf001c 	lw	ra,28(sp)
68801b04:	8fb00018 	lw	s0,24(sp)
68801b08:	03e00008 	jr	ra
68801b0c:	27bd0020 	addiu	sp,sp,32
68801b10:	0e2012b6 	jal	68804ad8 <adjust_get_switch_status>
68801b14:	27a40010 	addiu	a0,sp,16
68801b18:	8fa30010 	lw	v1,16(sp)
68801b1c:	10600016 	beqz	v1,68801b78 <_sound_output_adjust_widget_cb+0x90>
68801b20:	3c066881 	lui	a2,0x6881
68801b24:	3c0d6881 	lui	t5,0x6881
68801b28:	25b0827c 	addiu	s0,t5,-32132
68801b2c:	8e0b0024 	lw	t3,36(s0)
68801b30:	3c0c6881 	lui	t4,0x6881
68801b34:	240a0001 	li	t2,1
68801b38:	116a001e 	beq	t3,t2,68801bb4 <_sound_output_adjust_widget_cb+0xcc>
68801b3c:	25868184 	addiu	a2,t4,-32380
68801b40:	3c196880 	lui	t9,0x6880
68801b44:	8f247344 	lw	a0,29508(t9)
68801b48:	0e2012a1 	jal	68804a84 <menu_set_item>
68801b4c:	00002821 	move	a1,zero
68801b50:	3c186880 	lui	t8,0x6880
68801b54:	8f107358 	lw	s0,29528(t8)
68801b58:	0e2012ad 	jal	68804ab4 <menuview_paint>
68801b5c:	8e04006c 	lw	a0,108(s0)
68801b60:	0e2006a4 	jal	68801a90 <_delete_adjust_widget>
68801b64:	00000000 	nop
68801b68:	8fbf001c 	lw	ra,28(sp)
68801b6c:	8fb00018 	lw	s0,24(sp)
68801b70:	03e00008 	jr	ra
68801b74:	27bd0020 	addiu	sp,sp,32
68801b78:	24d0827c 	addiu	s0,a2,-32132
68801b7c:	8e040024 	lw	a0,36(s0)
68801b80:	3c056881 	lui	a1,0x6881
68801b84:	1480ffee 	bnez	a0,68801b40 <_sound_output_adjust_widget_cb+0x58>
68801b88:	24a68184 	addiu	a2,a1,-32380
68801b8c:	0e200bab 	jal	68802eac <emu_set_sound>
68801b90:	24040001 	li	a0,1
68801b94:	3c096881 	lui	t1,0x6881
68801b98:	3c076880 	lui	a3,0x6880
68801b9c:	25268184 	addiu	a2,t1,-32380
68801ba0:	24080001 	li	t0,1
68801ba4:	24e26478 	addiu	v0,a3,25720
68801ba8:	ae080024 	sw	t0,36(s0)
68801bac:	1000ffe4 	b	68801b40 <_sound_output_adjust_widget_cb+0x58>
68801bb0:	acc20018 	sw	v0,24(a2)
68801bb4:	0e200bab 	jal	68802eac <emu_set_sound>
68801bb8:	00002021 	move	a0,zero
68801bbc:	3c0f6881 	lui	t7,0x6881
68801bc0:	3c0e6880 	lui	t6,0x6880
68801bc4:	25e68184 	addiu	a2,t7,-32380
68801bc8:	25c26474 	addiu	v0,t6,25716
68801bcc:	ae000024 	sw	zero,36(s0)
68801bd0:	1000ffdb 	b	68801b40 <_sound_output_adjust_widget_cb+0x58>
68801bd4:	acc20018 	sw	v0,24(a2)

68801bd8 <_disp_mode_adjust_widget_cb>:
68801bd8:	27bdffe0 	addiu	sp,sp,-32
68801bdc:	afbf001c 	sw	ra,28(sp)
68801be0:	10a00007 	beqz	a1,68801c00 <_disp_mode_adjust_widget_cb+0x28>
68801be4:	afb00018 	sw	s0,24(sp)
68801be8:	24020001 	li	v0,1
68801bec:	10a20019 	beq	a1,v0,68801c54 <_disp_mode_adjust_widget_cb+0x7c>
68801bf0:	8fbf001c 	lw	ra,28(sp)
68801bf4:	8fb00018 	lw	s0,24(sp)
68801bf8:	03e00008 	jr	ra
68801bfc:	27bd0020 	addiu	sp,sp,32
68801c00:	0e2012b6 	jal	68804ad8 <adjust_get_switch_status>
68801c04:	27a40010 	addiu	a0,sp,16
68801c08:	8fa30010 	lw	v1,16(sp)
68801c0c:	10600017 	beqz	v1,68801c6c <_disp_mode_adjust_widget_cb+0x94>
68801c10:	3c056881 	lui	a1,0x6881
68801c14:	3c0c6881 	lui	t4,0x6881
68801c18:	2590827c 	addiu	s0,t4,-32132
68801c1c:	8e0b0020 	lw	t3,32(s0)
68801c20:	240a0001 	li	t2,1
68801c24:	116a001e 	beq	t3,t2,68801ca0 <_disp_mode_adjust_widget_cb+0xc8>
68801c28:	00000000 	nop
68801c2c:	3c1f6880 	lui	ra,0x6880
68801c30:	8fe47344 	lw	a0,29508(ra)
68801c34:	3c196881 	lui	t9,0x6881
68801c38:	272681cc 	addiu	a2,t9,-32308
68801c3c:	0e2012a1 	jal	68804a84 <menu_set_item>
68801c40:	24050002 	li	a1,2
68801c44:	3c186880 	lui	t8,0x6880
68801c48:	8f107358 	lw	s0,29528(t8)
68801c4c:	0e2012ad 	jal	68804ab4 <menuview_paint>
68801c50:	8e04006c 	lw	a0,108(s0)
68801c54:	0e2006a4 	jal	68801a90 <_delete_adjust_widget>
68801c58:	00000000 	nop
68801c5c:	8fbf001c 	lw	ra,28(sp)
68801c60:	8fb00018 	lw	s0,24(sp)
68801c64:	03e00008 	jr	ra
68801c68:	27bd0020 	addiu	sp,sp,32
68801c6c:	24b0827c 	addiu	s0,a1,-32132
68801c70:	8e040020 	lw	a0,32(s0)
68801c74:	1480ffee 	bnez	a0,68801c30 <_disp_mode_adjust_widget_cb+0x58>
68801c78:	3c1f6880 	lui	ra,0x6880
68801c7c:	0e200bdd 	jal	68802f74 <emu_set_disp_mode>
68801c80:	24040001 	li	a0,1
68801c84:	3c086880 	lui	t0,0x6880
68801c88:	24090001 	li	t1,1
68801c8c:	25076484 	addiu	a3,t0,25732
68801c90:	3c066881 	lui	a2,0x6881
68801c94:	ae090020 	sw	t1,32(s0)
68801c98:	1000ffe4 	b	68801c2c <_disp_mode_adjust_widget_cb+0x54>
68801c9c:	acc781e4 	sw	a3,-32284(a2)
68801ca0:	0e200bdd 	jal	68802f74 <emu_set_disp_mode>
68801ca4:	00002021 	move	a0,zero
68801ca8:	3c0f6880 	lui	t7,0x6880
68801cac:	25ee647c 	addiu	t6,t7,25724
68801cb0:	3c0d6881 	lui	t5,0x6881
68801cb4:	adae81e4 	sw	t6,-32284(t5)
68801cb8:	1000ffdc 	b	68801c2c <_disp_mode_adjust_widget_cb+0x54>
68801cbc:	ae000020 	sw	zero,32(s0)

68801cc0 <_lib_deinit>:
68801cc0:	27bdffe8 	addiu	sp,sp,-24
68801cc4:	afb00010 	sw	s0,16(sp)
68801cc8:	afbf0014 	sw	ra,20(sp)
68801ccc:	00808021 	move	s0,a0
68801cd0:	8c840010 	lw	a0,16(a0)
68801cd4:	14800015 	bnez	a0,68801d2c <_lib_deinit+0x6c>
68801cd8:	00000000 	nop
68801cdc:	8e040014 	lw	a0,20(s0)
68801ce0:	14800017 	bnez	a0,68801d40 <_lib_deinit+0x80>
68801ce4:	00000000 	nop
68801ce8:	8e04000c 	lw	a0,12(s0)
68801cec:	14800019 	bnez	a0,68801d54 <_lib_deinit+0x94>
68801cf0:	00000000 	nop
68801cf4:	8e040000 	lw	a0,0(s0)
68801cf8:	1480001b 	bnez	a0,68801d68 <_lib_deinit+0xa8>
68801cfc:	00000000 	nop
68801d00:	8e040004 	lw	a0,4(s0)
68801d04:	1480001d 	bnez	a0,68801d7c <_lib_deinit+0xbc>
68801d08:	00000000 	nop
68801d0c:	8e040008 	lw	a0,8(s0)
68801d10:	1480001f 	bnez	a0,68801d90 <_lib_deinit+0xd0>
68801d14:	00000000 	nop
68801d18:	8fbf0014 	lw	ra,20(sp)
68801d1c:	8fb00010 	lw	s0,16(sp)
68801d20:	24020001 	li	v0,1
68801d24:	03e00008 	jr	ra
68801d28:	27bd0018 	addiu	sp,sp,24
68801d2c:	0e20181a 	jal	68806068 <dlclose>
68801d30:	00000000 	nop
68801d34:	8e040014 	lw	a0,20(s0)
68801d38:	1080ffeb 	beqz	a0,68801ce8 <_lib_deinit+0x28>
68801d3c:	ae000010 	sw	zero,16(s0)
68801d40:	0e20181a 	jal	68806068 <dlclose>
68801d44:	00000000 	nop
68801d48:	8e04000c 	lw	a0,12(s0)
68801d4c:	1080ffe9 	beqz	a0,68801cf4 <_lib_deinit+0x34>
68801d50:	ae000014 	sw	zero,20(s0)
68801d54:	0e20181a 	jal	68806068 <dlclose>
68801d58:	00000000 	nop
68801d5c:	8e040000 	lw	a0,0(s0)
68801d60:	1080ffe7 	beqz	a0,68801d00 <_lib_deinit+0x40>
68801d64:	ae00000c 	sw	zero,12(s0)
68801d68:	0e20181a 	jal	68806068 <dlclose>
68801d6c:	00000000 	nop
68801d70:	8e040004 	lw	a0,4(s0)
68801d74:	1080ffe5 	beqz	a0,68801d0c <_lib_deinit+0x4c>
68801d78:	ae000000 	sw	zero,0(s0)
68801d7c:	0e20181a 	jal	68806068 <dlclose>
68801d80:	00000000 	nop
68801d84:	8e040008 	lw	a0,8(s0)
68801d88:	1080ffe3 	beqz	a0,68801d18 <_lib_deinit+0x58>
68801d8c:	ae000004 	sw	zero,4(s0)
68801d90:	0e20181a 	jal	68806068 <dlclose>
68801d94:	00000000 	nop
68801d98:	ae000008 	sw	zero,8(s0)
68801d9c:	8fbf0014 	lw	ra,20(sp)
68801da0:	8fb00010 	lw	s0,16(sp)
68801da4:	24020001 	li	v0,1
68801da8:	03e00008 	jr	ra
68801dac:	27bd0018 	addiu	sp,sp,24

68801db0 <main>:
68801db0:	27bdfbb0 	addiu	sp,sp,-1104
68801db4:	afb20438 	sw	s2,1080(sp)
68801db8:	afb10434 	sw	s1,1076(sp)
68801dbc:	24060018 	li	a2,24
68801dc0:	00809021 	move	s2,a0
68801dc4:	00a08821 	move	s1,a1
68801dc8:	27a40018 	addiu	a0,sp,24
68801dcc:	00002821 	move	a1,zero
68801dd0:	afbf044c 	sw	ra,1100(sp)
68801dd4:	afb60448 	sw	s6,1096(sp)
68801dd8:	afb50444 	sw	s5,1092(sp)
68801ddc:	afb40440 	sw	s4,1088(sp)
68801de0:	afb3043c 	sw	s3,1084(sp)
68801de4:	0e201782 	jal	68805e08 <memset>
68801de8:	afb00430 	sw	s0,1072(sp)
68801dec:	3c046880 	lui	a0,0x6880
68801df0:	248464e0 	addiu	a0,a0,25824
68801df4:	0e201817 	jal	6880605c <dlopen>
68801df8:	24050001 	li	a1,1
68801dfc:	104000a7 	beqz	v0,6880209c <main+0x2ec>
68801e00:	afa20018 	sw	v0,24(sp)
68801e04:	3c026880 	lui	v0,0x6880
68801e08:	244464ec 	addiu	a0,v0,25836
68801e0c:	0e201817 	jal	6880605c <dlopen>
68801e10:	24050001 	li	a1,1
68801e14:	10400025 	beqz	v0,68801eac <main+0xfc>
68801e18:	afa2001c 	sw	v0,28(sp)
68801e1c:	3c056880 	lui	a1,0x6880
68801e20:	24a464f8 	addiu	a0,a1,25848
68801e24:	0e201817 	jal	6880605c <dlopen>
68801e28:	24050001 	li	a1,1
68801e2c:	104000e5 	beqz	v0,688021c4 <main+0x414>
68801e30:	afa20020 	sw	v0,32(sp)
68801e34:	3c0b6880 	lui	t3,0x6880
68801e38:	25646504 	addiu	a0,t3,25860
68801e3c:	0e201817 	jal	6880605c <dlopen>
68801e40:	24050001 	li	a1,1
68801e44:	104000eb 	beqz	v0,688021f4 <main+0x444>
68801e48:	afa20024 	sw	v0,36(sp)
68801e4c:	3c0e6880 	lui	t6,0x6880
68801e50:	25c4650c 	addiu	a0,t6,25868
68801e54:	0e201817 	jal	6880605c <dlopen>
68801e58:	24050001 	li	a1,1
68801e5c:	104000ce 	beqz	v0,68802198 <main+0x3e8>
68801e60:	afa20028 	sw	v0,40(sp)
68801e64:	3c186880 	lui	t8,0x6880
68801e68:	27046518 	addiu	a0,t8,25880
68801e6c:	0e201817 	jal	6880605c <dlopen>
68801e70:	24050001 	li	a1,1
68801e74:	1440001f 	bnez	v0,68801ef4 <main+0x144>
68801e78:	afa2002c 	sw	v0,44(sp)
68801e7c:	0e2014a6 	jal	68805298 <__errno>
68801e80:	00000000 	nop
68801e84:	0e201497 	jal	6880525c <getpid>
68801e88:	00409821 	move	s3,v0
68801e8c:	3c1f6880 	lui	ra,0x6880
68801e90:	3c196880 	lui	t9,0x6880
68801e94:	8e650000 	lw	a1,0(s3)
68801e98:	27e46524 	addiu	a0,ra,25892
68801e9c:	00403021 	move	a2,v0
68801ea0:	27276560 	addiu	a3,t9,25952
68801ea4:	1000000c 	b	68801ed8 <main+0x128>
68801ea8:	2403006f 	li	v1,111
68801eac:	0e2014a6 	jal	68805298 <__errno>
68801eb0:	00000000 	nop
68801eb4:	0e201497 	jal	6880525c <getpid>
68801eb8:	00409821 	move	s3,v0
68801ebc:	3c066880 	lui	a2,0x6880
68801ec0:	3c086880 	lui	t0,0x6880
68801ec4:	8e650000 	lw	a1,0(s3)
68801ec8:	24c46570 	addiu	a0,a2,25968
68801ecc:	25076560 	addiu	a3,t0,25952
68801ed0:	00403021 	move	a2,v0
68801ed4:	24030053 	li	v1,83
68801ed8:	3c026880 	lui	v0,0x6880
68801edc:	afa30010 	sw	v1,16(sp)
68801ee0:	24436110 	addiu	v1,v0,24848
68801ee4:	0e201805 	jal	68806014 <printf>
68801ee8:	afa30014 	sw	v1,20(sp)
68801eec:	0e200730 	jal	68801cc0 <_lib_deinit>
68801ef0:	27a40018 	addiu	a0,sp,24
68801ef4:	02402021 	move	a0,s2
68801ef8:	3c126880 	lui	s2,0x6880
68801efc:	02202821 	move	a1,s1
68801f00:	00003021 	move	a2,zero
68801f04:	0e20132d 	jal	68804cb4 <applib_init>
68801f08:	26556100 	addiu	s5,s2,24832
68801f0c:	0e201312 	jal	68804c48 <sys_pm_set_clk_domain>
68801f10:	02a02021 	move	a0,s5
68801f14:	3c046881 	lui	a0,0x6881
68801f18:	249281f0 	addiu	s2,a0,-32272
68801f1c:	02402021 	move	a0,s2
68801f20:	00002821 	move	a1,zero
68801f24:	0e201782 	jal	68805e08 <memset>
68801f28:	24060080 	li	a2,128
68801f2c:	3c076880 	lui	a3,0x6880
68801f30:	8e240004 	lw	a0,4(s1)
68801f34:	0e201793 	jal	68805e4c <strcmp>
68801f38:	24e565b0 	addiu	a1,a3,26032
68801f3c:	14400063 	bnez	v0,688020cc <main+0x31c>
68801f40:	3c146880 	lui	s4,0x6880
68801f44:	3c0b6880 	lui	t3,0x6880
68801f48:	3c0a6880 	lui	t2,0x6880
68801f4c:	269365b4 	addiu	s3,s4,26036
68801f50:	255665bc 	addiu	s6,t2,26044
68801f54:	257465b8 	addiu	s4,t3,26040
68801f58:	8e250004 	lw	a1,4(s1)
68801f5c:	0e2017b1 	jal	68805ec4 <strcpy>
68801f60:	02402021 	move	a0,s2
68801f64:	3c116880 	lui	s1,0x6880
68801f68:	240e0001 	li	t6,1
68801f6c:	02602821 	move	a1,s3
68801f70:	02402021 	move	a0,s2
68801f74:	02408021 	move	s0,s2
68801f78:	0e201793 	jal	68805e4c <strcmp>
68801f7c:	ae2e734c 	sw	t6,29516(s1)
68801f80:	10400069 	beqz	v0,68802128 <main+0x378>
68801f84:	3c186880 	lui	t8,0x6880
68801f88:	02802821 	move	a1,s4
68801f8c:	0e201793 	jal	68805e4c <strcmp>
68801f90:	02002021 	move	a0,s0
68801f94:	1040006f 	beqz	v0,68802154 <main+0x3a4>
68801f98:	3c1f6880 	lui	ra,0x6880
68801f9c:	02402021 	move	a0,s2
68801fa0:	0e201793 	jal	68805e4c <strcmp>
68801fa4:	02c02821 	move	a1,s6
68801fa8:	50400075 	beqzl	v0,68802180 <main+0x3d0>
68801fac:	02002021 	move	a0,s0
68801fb0:	0e200008 	jal	68800020 <em_mount_drv>
68801fb4:	3c126881 	lui	s2,0x6881
68801fb8:	0e20131b 	jal	68804c6c <sys_get_common_theme_res_dir>
68801fbc:	3c146881 	lui	s4,0x6881
68801fc0:	3c066880 	lui	a2,0x6880
68801fc4:	27b60030 	addiu	s6,sp,48
68801fc8:	24d065d0 	addiu	s0,a2,26064
68801fcc:	3c056880 	lui	a1,0x6880
68801fd0:	24a765dc 	addiu	a3,a1,26076
68801fd4:	00403021 	move	a2,v0
68801fd8:	02002821 	move	a1,s0
68801fdc:	0e2014e5 	jal	68805394 <sprintf>
68801fe0:	02c02021 	move	a0,s6
68801fe4:	0e2012f8 	jal	68804be0 <open_style_file>
68801fe8:	02c02021 	move	a0,s6
68801fec:	0e20137e 	jal	68804df8 <sys_get_app_theme_res_dir>
68801ff0:	ae428270 	sw	v0,-32144(s2)
68801ff4:	3c096880 	lui	t1,0x6880
68801ff8:	252765e8 	addiu	a3,t1,26088
68801ffc:	02002821 	move	a1,s0
68802000:	00403021 	move	a2,v0
68802004:	0e2014e5 	jal	68805394 <sprintf>
68802008:	02c02021 	move	a0,s6
6880200c:	0e2012f8 	jal	68804be0 <open_style_file>
68802010:	02c02021 	move	a0,s6
68802014:	0e20106e 	jal	688041b8 <emulator_scene>
68802018:	ae828274 	sw	v0,-32140(s4)
6880201c:	3c086880 	lui	t0,0x6880
68802020:	0e2014b8 	jal	688052e0 <mq_unlink>
68802024:	250465f4 	addiu	a0,t0,26100
68802028:	3c046880 	lui	a0,0x6880
6880202c:	0e2014b8 	jal	688052e0 <mq_unlink>
68802030:	24846614 	addiu	a0,a0,26132
68802034:	3c076880 	lui	a3,0x6880
68802038:	0e2014b8 	jal	688052e0 <mq_unlink>
6880203c:	24e46630 	addiu	a0,a3,26160
68802040:	0e2012e8 	jal	68804ba0 <close_style_file>
68802044:	8e448270 	lw	a0,-32144(s2)
68802048:	0e2012e8 	jal	68804ba0 <close_style_file>
6880204c:	8e848274 	lw	a0,-32140(s4)
68802050:	0e200015 	jal	68800054 <em_umount_drv>
68802054:	00000000 	nop
68802058:	0e201315 	jal	68804c54 <sys_pm_clear_clk_domain>
6880205c:	02a02021 	move	a0,s5
68802060:	0e201330 	jal	68804cc0 <applib_quit>
68802064:	00000000 	nop
68802068:	0e200730 	jal	68801cc0 <_lib_deinit>
6880206c:	27a40018 	addiu	a0,sp,24
68802070:	8fbf044c 	lw	ra,1100(sp)
68802074:	8fb60448 	lw	s6,1096(sp)
68802078:	8fb50444 	lw	s5,1092(sp)
6880207c:	8fb40440 	lw	s4,1088(sp)
68802080:	8fb3043c 	lw	s3,1084(sp)
68802084:	8fb20438 	lw	s2,1080(sp)
68802088:	8fb10434 	lw	s1,1076(sp)
6880208c:	8fb00430 	lw	s0,1072(sp)
68802090:	00001021 	move	v0,zero
68802094:	03e00008 	jr	ra
68802098:	27bd0450 	addiu	sp,sp,1104
6880209c:	0e2014a6 	jal	68805298 <__errno>
688020a0:	00000000 	nop
688020a4:	0e201497 	jal	6880525c <getpid>
688020a8:	00408021 	move	s0,v0
688020ac:	3c036880 	lui	v1,0x6880
688020b0:	3c076880 	lui	a3,0x6880
688020b4:	8e050000 	lw	a1,0(s0)
688020b8:	24646650 	addiu	a0,v1,26192
688020bc:	00403021 	move	a2,v0
688020c0:	24e76560 	addiu	a3,a3,25952
688020c4:	1000ff84 	b	68801ed8 <main+0x128>
688020c8:	2403004c 	li	v1,76
688020cc:	3c086880 	lui	t0,0x6880
688020d0:	251365b4 	addiu	s3,t0,26036
688020d4:	8e240004 	lw	a0,4(s1)
688020d8:	0e201793 	jal	68805e4c <strcmp>
688020dc:	02602821 	move	a1,s3
688020e0:	14400050 	bnez	v0,68802224 <main+0x474>
688020e4:	3c0d6880 	lui	t5,0x6880
688020e8:	8e250004 	lw	a1,4(s1)
688020ec:	3c0c6880 	lui	t4,0x6880
688020f0:	02402021 	move	a0,s2
688020f4:	25b465b8 	addiu	s4,t5,26040
688020f8:	259665bc 	addiu	s6,t4,26044
688020fc:	0e2017b1 	jal	68805ec4 <strcpy>
68802100:	3c116880 	lui	s1,0x6880
68802104:	240e0001 	li	t6,1
68802108:	02602821 	move	a1,s3
6880210c:	02402021 	move	a0,s2
68802110:	02408021 	move	s0,s2
68802114:	0e201793 	jal	68805e4c <strcmp>
68802118:	ae2e734c 	sw	t6,29516(s1)
6880211c:	1440ff9b 	bnez	v0,68801f8c <main+0x1dc>
68802120:	02802821 	move	a1,s4
68802124:	3c186880 	lui	t8,0x6880
68802128:	270565c0 	addiu	a1,t8,26048
6880212c:	0e2017b1 	jal	68805ec4 <strcpy>
68802130:	02402021 	move	a0,s2
68802134:	240f0003 	li	t7,3
68802138:	02802821 	move	a1,s4
6880213c:	02002021 	move	a0,s0
68802140:	0e201793 	jal	68805e4c <strcmp>
68802144:	ae2f734c 	sw	t7,29516(s1)
68802148:	1440ff95 	bnez	v0,68801fa0 <main+0x1f0>
6880214c:	02402021 	move	a0,s2
68802150:	3c1f6880 	lui	ra,0x6880
68802154:	27e565c8 	addiu	a1,ra,26056
68802158:	0e2017b1 	jal	68805ec4 <strcpy>
6880215c:	02002021 	move	a0,s0
68802160:	24190002 	li	t9,2
68802164:	02402021 	move	a0,s2
68802168:	02c02821 	move	a1,s6
6880216c:	0e201793 	jal	68805e4c <strcmp>
68802170:	ae39734c 	sw	t9,29516(s1)
68802174:	1440ff8e 	bnez	v0,68801fb0 <main+0x200>
68802178:	00000000 	nop
6880217c:	02002021 	move	a0,s0
68802180:	3c106880 	lui	s0,0x6880
68802184:	0e2017b1 	jal	68805ec4 <strcpy>
68802188:	26056688 	addiu	a1,s0,26248
6880218c:	24160004 	li	s6,4
68802190:	1000ff87 	b	68801fb0 <main+0x200>
68802194:	ae36734c 	sw	s6,29516(s1)
68802198:	0e2014a6 	jal	68805298 <__errno>
6880219c:	3c166880 	lui	s6,0x6880
688021a0:	0e201497 	jal	6880525c <getpid>
688021a4:	00408021 	move	s0,v0
688021a8:	3c0f6880 	lui	t7,0x6880
688021ac:	8e050000 	lw	a1,0(s0)
688021b0:	26c46694 	addiu	a0,s6,26260
688021b4:	00403021 	move	a2,v0
688021b8:	25e76560 	addiu	a3,t7,25952
688021bc:	1000ff46 	b	68801ed8 <main+0x128>
688021c0:	24030068 	li	v1,104
688021c4:	0e2014a6 	jal	68805298 <__errno>
688021c8:	00000000 	nop
688021cc:	0e201497 	jal	6880525c <getpid>
688021d0:	0040a021 	move	s4,v0
688021d4:	3c0a6880 	lui	t2,0x6880
688021d8:	3c096880 	lui	t1,0x6880
688021dc:	8e850000 	lw	a1,0(s4)
688021e0:	254466d0 	addiu	a0,t2,26320
688021e4:	00403021 	move	a2,v0
688021e8:	25276560 	addiu	a3,t1,25952
688021ec:	1000ff3a 	b	68801ed8 <main+0x128>
688021f0:	2403005a 	li	v1,90
688021f4:	0e2014a6 	jal	68805298 <__errno>
688021f8:	00000000 	nop
688021fc:	0e201497 	jal	6880525c <getpid>
68802200:	0040a821 	move	s5,v0
68802204:	3c0d6880 	lui	t5,0x6880
68802208:	3c0c6880 	lui	t4,0x6880
6880220c:	8ea50000 	lw	a1,0(s5)
68802210:	25a4670c 	addiu	a0,t5,26380
68802214:	00403021 	move	a2,v0
68802218:	25876560 	addiu	a3,t4,25952
6880221c:	1000ff2e 	b	68801ed8 <main+0x128>
68802220:	24030061 	li	v1,97
68802224:	3c056880 	lui	a1,0x6880
68802228:	24b465b8 	addiu	s4,a1,26040
6880222c:	8e240004 	lw	a0,4(s1)
68802230:	0e201793 	jal	68805e4c <strcmp>
68802234:	02802821 	move	a1,s4
68802238:	3c066880 	lui	a2,0x6880
6880223c:	1040ff46 	beqz	v0,68801f58 <main+0x1a8>
68802240:	24d665bc 	addiu	s6,a2,26044
68802244:	8e240004 	lw	a0,4(s1)
68802248:	0e201793 	jal	68805e4c <strcmp>
6880224c:	02c02821 	move	a1,s6
68802250:	5040ff42 	beqzl	v0,68801f5c <main+0x1ac>
68802254:	8e250004 	lw	a1,4(s1)
68802258:	3c096880 	lui	t1,0x6880
6880225c:	8e240004 	lw	a0,4(s1)
68802260:	0e201793 	jal	68805e4c <strcmp>
68802264:	25256744 	addiu	a1,t1,26436
68802268:	5040ff3c 	beqzl	v0,68801f5c <main+0x1ac>
6880226c:	8e250004 	lw	a1,4(s1)
68802270:	3c136880 	lui	s3,0x6880
68802274:	8e240004 	lw	a0,4(s1)
68802278:	0e201793 	jal	68805e4c <strcmp>
6880227c:	2665674c 	addiu	a1,s3,26444
68802280:	1440ff75 	bnez	v0,68802058 <main+0x2a8>
68802284:	3c026880 	lui	v0,0x6880
68802288:	8e250008 	lw	a1,8(s1)
6880228c:	24030001 	li	v1,1
68802290:	3c116880 	lui	s1,0x6880
68802294:	2444736c 	addiu	a0,v0,29548
68802298:	0e2017b1 	jal	68805ec4 <strcpy>
6880229c:	ae237348 	sw	v1,29512(s1)
688022a0:	1000ff43 	b	68801fb0 <main+0x200>
688022a4:	00000000 	nop

688022a8 <_init_msgchannel>:
688022a8:	3c076881 	lui	a3,0x6881
688022ac:	3c066880 	lui	a2,0x6880
688022b0:	27bdffe8 	addiu	sp,sp,-24
688022b4:	24e482a4 	addiu	a0,a3,-32092
688022b8:	afbf0010 	sw	ra,16(sp)
688022bc:	0e201227 	jal	6880489c <emutest_mq_create>
688022c0:	24c565f4 	addiu	a1,a2,26100
688022c4:	3c036881 	lui	v1,0x6881
688022c8:	3c026880 	lui	v0,0x6880
688022cc:	246482a8 	addiu	a0,v1,-32088
688022d0:	0e201227 	jal	6880489c <emutest_mq_create>
688022d4:	24456614 	addiu	a1,v0,26132
688022d8:	3c046881 	lui	a0,0x6881
688022dc:	3c056880 	lui	a1,0x6880
688022e0:	248482ac 	addiu	a0,a0,-32084
688022e4:	0e201227 	jal	6880489c <emutest_mq_create>
688022e8:	24a56630 	addiu	a1,a1,26160
688022ec:	8fbf0010 	lw	ra,16(sp)
688022f0:	24020001 	li	v0,1
688022f4:	03e00008 	jr	ra
688022f8:	27bd0018 	addiu	sp,sp,24

688022fc <_deinit_msgchannel>:
688022fc:	3c036881 	lui	v1,0x6881
68802300:	27bdffe8 	addiu	sp,sp,-24
68802304:	afbf0010 	sw	ra,16(sp)
68802308:	0e201204 	jal	68804810 <emutest_mq_destroy>
6880230c:	246482a4 	addiu	a0,v1,-32092
68802310:	3c026881 	lui	v0,0x6881
68802314:	0e201204 	jal	68804810 <emutest_mq_destroy>
68802318:	244482a8 	addiu	a0,v0,-32088
6880231c:	3c046881 	lui	a0,0x6881
68802320:	0e201204 	jal	68804810 <emutest_mq_destroy>
68802324:	248482ac 	addiu	a0,a0,-32084
68802328:	8fbf0010 	lw	ra,16(sp)
6880232c:	24020001 	li	v0,1
68802330:	03e00008 	jr	ra
68802334:	27bd0018 	addiu	sp,sp,24

68802338 <_get_key_value_from_name>:
68802338:	3c056880 	lui	a1,0x6880
6880233c:	27bdffe8 	addiu	sp,sp,-24
68802340:	24a56754 	addiu	a1,a1,26452
68802344:	afb00010 	sw	s0,16(sp)
68802348:	afbf0014 	sw	ra,20(sp)
6880234c:	0e201793 	jal	68805e4c <strcmp>
68802350:	00808021 	move	s0,a0
68802354:	10400025 	beqz	v0,688023ec <_get_key_value_from_name+0xb4>
68802358:	24030100 	li	v1,256
6880235c:	3c026880 	lui	v0,0x6880
68802360:	24456760 	addiu	a1,v0,26464
68802364:	0e201793 	jal	68805e4c <strcmp>
68802368:	02002021 	move	a0,s0
6880236c:	1040001f 	beqz	v0,688023ec <_get_key_value_from_name+0xb4>
68802370:	24030200 	li	v1,512
68802374:	3c036880 	lui	v1,0x6880
68802378:	2465676c 	addiu	a1,v1,26476
6880237c:	0e201793 	jal	68805e4c <strcmp>
68802380:	02002021 	move	a0,s0
68802384:	10400019 	beqz	v0,688023ec <_get_key_value_from_name+0xb4>
68802388:	24030020 	li	v1,32
6880238c:	3c046880 	lui	a0,0x6880
68802390:	24856778 	addiu	a1,a0,26488
68802394:	0e201793 	jal	68805e4c <strcmp>
68802398:	02002021 	move	a0,s0
6880239c:	10400013 	beqz	v0,688023ec <_get_key_value_from_name+0xb4>
688023a0:	24030040 	li	v1,64
688023a4:	3c066880 	lui	a2,0x6880
688023a8:	24c56780 	addiu	a1,a2,26496
688023ac:	0e201793 	jal	68805e4c <strcmp>
688023b0:	02002021 	move	a0,s0
688023b4:	1040000d 	beqz	v0,688023ec <_get_key_value_from_name+0xb4>
688023b8:	24030010 	li	v1,16
688023bc:	3c076880 	lui	a3,0x6880
688023c0:	24e5678c 	addiu	a1,a3,26508
688023c4:	0e201793 	jal	68805e4c <strcmp>
688023c8:	02002021 	move	a0,s0
688023cc:	10400007 	beqz	v0,688023ec <_get_key_value_from_name+0xb4>
688023d0:	24030008 	li	v1,8
688023d4:	3c086880 	lui	t0,0x6880
688023d8:	25056798 	addiu	a1,t0,26520
688023dc:	0e201793 	jal	68805e4c <strcmp>
688023e0:	02002021 	move	a0,s0
688023e4:	14400006 	bnez	v0,68802400 <_get_key_value_from_name+0xc8>
688023e8:	24030001 	li	v1,1
688023ec:	8fbf0014 	lw	ra,20(sp)
688023f0:	8fb00010 	lw	s0,16(sp)
688023f4:	00601021 	move	v0,v1
688023f8:	03e00008 	jr	ra
688023fc:	27bd0018 	addiu	sp,sp,24
68802400:	3c096880 	lui	t1,0x6880
68802404:	252567a4 	addiu	a1,t1,26532
68802408:	0e201793 	jal	68805e4c <strcmp>
6880240c:	02002021 	move	a0,s0
68802410:	1040fff6 	beqz	v0,688023ec <_get_key_value_from_name+0xb4>
68802414:	24030002 	li	v1,2
68802418:	3c0a6880 	lui	t2,0x6880
6880241c:	254567b0 	addiu	a1,t2,26544
68802420:	0e201793 	jal	68805e4c <strcmp>
68802424:	02002021 	move	a0,s0
68802428:	1040fff0 	beqz	v0,688023ec <_get_key_value_from_name+0xb4>
6880242c:	24030800 	li	v1,2048
68802430:	3c0b6880 	lui	t3,0x6880
68802434:	02002021 	move	a0,s0
68802438:	0e201793 	jal	68805e4c <strcmp>
6880243c:	256567bc 	addiu	a1,t3,26556
68802440:	24030400 	li	v1,1024
68802444:	0002180b 	movn	v1,zero,v0
68802448:	8fbf0014 	lw	ra,20(sp)
6880244c:	8fb00010 	lw	s0,16(sp)
68802450:	00601021 	move	v0,v1
68802454:	03e00008 	jr	ra
68802458:	27bd0018 	addiu	sp,sp,24

6880245c <_get_kayname_from_value>:
6880245c:	3c026880 	lui	v0,0x6880
68802460:	24030020 	li	v1,32
68802464:	10830014 	beq	a0,v1,688024b8 <_get_kayname_from_value+0x5c>
68802468:	2442676c 	addiu	v0,v0,26476
6880246c:	28850021 	slti	a1,a0,33
68802470:	10a00013 	beqz	a1,688024c0 <_get_kayname_from_value+0x64>
68802474:	3c0e6880 	lui	t6,0x6880
68802478:	3c076880 	lui	a3,0x6880
6880247c:	24060002 	li	a2,2
68802480:	1086000d 	beq	a0,a2,688024b8 <_get_kayname_from_value+0x5c>
68802484:	24e267a4 	addiu	v0,a3,26532
68802488:	28880003 	slti	t0,a0,3
6880248c:	1500001a 	bnez	t0,688024f8 <_get_kayname_from_value+0x9c>
68802490:	3c096880 	lui	t1,0x6880
68802494:	3c0b6880 	lui	t3,0x6880
68802498:	240a0008 	li	t2,8
6880249c:	108a0006 	beq	a0,t2,688024b8 <_get_kayname_from_value+0x5c>
688024a0:	2562678c 	addiu	v0,t3,26508
688024a4:	3c0c6880 	lui	t4,0x6880
688024a8:	25826780 	addiu	v0,t4,26496
688024ac:	24030010 	li	v1,16
688024b0:	54830001 	bnel	a0,v1,688024b8 <_get_kayname_from_value+0x5c>
688024b4:	00001021 	move	v0,zero
688024b8:	03e00008 	jr	ra
688024bc:	00000000 	nop
688024c0:	240d0200 	li	t5,512
688024c4:	108dfffc 	beq	a0,t5,688024b8 <_get_kayname_from_value+0x5c>
688024c8:	25c26760 	addiu	v0,t6,26464
688024cc:	288f0201 	slti	t7,a0,513
688024d0:	11e0000c 	beqz	t7,68802504 <_get_kayname_from_value+0xa8>
688024d4:	3c026880 	lui	v0,0x6880
688024d8:	3c196880 	lui	t9,0x6880
688024dc:	24180040 	li	t8,64
688024e0:	1098fff5 	beq	a0,t8,688024b8 <_get_kayname_from_value+0x5c>
688024e4:	27226778 	addiu	v0,t9,26488
688024e8:	3c036880 	lui	v1,0x6880
688024ec:	24626754 	addiu	v0,v1,26452
688024f0:	1000ffef 	b	688024b0 <_get_kayname_from_value+0x54>
688024f4:	24030100 	li	v1,256
688024f8:	25226798 	addiu	v0,t1,26520
688024fc:	1000ffec 	b	688024b0 <_get_kayname_from_value+0x54>
68802500:	24030001 	li	v1,1
68802504:	24050400 	li	a1,1024
68802508:	1085ffeb 	beq	a0,a1,688024b8 <_get_kayname_from_value+0x5c>
6880250c:	244267bc 	addiu	v0,v0,26556
68802510:	3c066880 	lui	a2,0x6880
68802514:	24c267b0 	addiu	v0,a2,26544
68802518:	1000ffe5 	b	688024b0 <_get_kayname_from_value+0x54>
6880251c:	24030800 	li	v1,2048

68802520 <engine_cmd>:
68802520:	27bdfbe0 	addiu	sp,sp,-1056
68802524:	afb00418 	sw	s0,1048(sp)
68802528:	3c066881 	lui	a2,0x6881
6880252c:	00808021 	move	s0,a0
68802530:	02002821 	move	a1,s0
68802534:	24c482a4 	addiu	a0,a2,-32092
68802538:	afbf041c 	sw	ra,1052(sp)
6880253c:	0e2011f9 	jal	688047e4 <emutest_mq_post>
68802540:	24060408 	li	a2,1032
68802544:	8e050000 	lw	a1,0(s0)
68802548:	3c046881 	lui	a0,0x6881
6880254c:	24a2ffff 	addiu	v0,a1,-1
68802550:	2c430002 	sltiu	v1,v0,2
68802554:	248482a8 	addiu	a0,a0,-32088
68802558:	27a50010 	addiu	a1,sp,16
6880255c:	24060408 	li	a2,1032
68802560:	10600005 	beqz	v1,68802578 <engine_cmd+0x58>
68802564:	00001021 	move	v0,zero
68802568:	8fbf041c 	lw	ra,1052(sp)
6880256c:	8fb00418 	lw	s0,1048(sp)
68802570:	03e00008 	jr	ra
68802574:	27bd0420 	addiu	sp,sp,1056
68802578:	0e2011be 	jal	688046f8 <emutest_mq_pend>
6880257c:	00000000 	nop
68802580:	97a20018 	lhu	v0,24(sp)
68802584:	8fbf041c 	lw	ra,1052(sp)
68802588:	8fb00418 	lw	s0,1048(sp)
6880258c:	03e00008 	jr	ra
68802590:	27bd0420 	addiu	sp,sp,1056

68802594 <open_emulator>:
68802594:	27bdfb90 	addiu	sp,sp,-1136
68802598:	afbf046c 	sw	ra,1132(sp)
6880259c:	afb20468 	sw	s2,1128(sp)
688025a0:	afb10464 	sw	s1,1124(sp)
688025a4:	0e2008aa 	jal	688022a8 <_init_msgchannel>
688025a8:	afb00460 	sw	s0,1120(sp)
688025ac:	3c066880 	lui	a2,0x6880
688025b0:	0e20149d 	jal	68805274 <putenv>
688025b4:	24c467cc 	addiu	a0,a2,26572
688025b8:	3c036880 	lui	v1,0x6880
688025bc:	3c056880 	lui	a1,0x6880
688025c0:	24a567f8 	addiu	a1,a1,26616
688025c4:	246467e0 	addiu	a0,v1,26592
688025c8:	0e201491 	jal	68805244 <execl>
688025cc:	00003021 	move	a2,zero
688025d0:	3c020003 	lui	v0,0x3
688025d4:	0e2014df 	jal	6880537c <usleep>
688025d8:	34440d40 	ori	a0,v0,0xd40
688025dc:	3c046880 	lui	a0,0x6880
688025e0:	24846808 	addiu	a0,a0,26632
688025e4:	27a50458 	addiu	a1,sp,1112
688025e8:	24060004 	li	a2,4
688025ec:	afa00458 	sw	zero,1112(sp)
688025f0:	afa00438 	sw	zero,1080(sp)
688025f4:	afa0043c 	sw	zero,1084(sp)
688025f8:	afa00440 	sw	zero,1088(sp)
688025fc:	afa00444 	sw	zero,1092(sp)
68802600:	afa00448 	sw	zero,1096(sp)
68802604:	afa0044c 	sw	zero,1100(sp)
68802608:	afa00450 	sw	zero,1104(sp)
6880260c:	0e2017fc 	jal	68805ff0 <get_config>
68802610:	afa00454 	sw	zero,1108(sp)
68802614:	04400076 	bltz	v0,688027f0 <open_emulator+0x25c>
68802618:	8faf0458 	lw	t7,1112(sp)
6880261c:	27a40018 	addiu	a0,sp,24
68802620:	24110008 	li	s1,8
68802624:	afb10018 	sw	s1,24(sp)
68802628:	0e200948 	jal	68802520 <engine_cmd>
6880262c:	a7af0020 	sh	t7,32(sp)
68802630:	3c0e6881 	lui	t6,0x6881
68802634:	8fac0458 	lw	t4,1112(sp)
68802638:	25d2827c 	addiu	s2,t6,-32132
6880263c:	3c0d6880 	lui	t5,0x6880
68802640:	25a46818 	addiu	a0,t5,26648
68802644:	27a50458 	addiu	a1,sp,1112
68802648:	24060004 	li	a2,4
6880264c:	0e2017fc 	jal	68805ff0 <get_config>
68802650:	ae4c0024 	sw	t4,36(s2)
68802654:	04400087 	bltz	v0,68802874 <open_emulator+0x2e0>
68802658:	00000000 	nop
6880265c:	8fb80458 	lw	t8,1112(sp)
68802660:	24190009 	li	t9,9
68802664:	27a40018 	addiu	a0,sp,24
68802668:	afb90018 	sw	t9,24(sp)
6880266c:	0e200948 	jal	68802520 <engine_cmd>
68802670:	a7b80020 	sh	t8,32(sp)
68802674:	8fae0458 	lw	t6,1112(sp)
68802678:	3c0f6880 	lui	t7,0x6880
6880267c:	27b00420 	addiu	s0,sp,1056
68802680:	25e46828 	addiu	a0,t7,26664
68802684:	ae4e0020 	sw	t6,32(s2)
68802688:	02002821 	move	a1,s0
6880268c:	0e2017fc 	jal	68805ff0 <get_config>
68802690:	24060014 	li	a2,20
68802694:	0e2008ce 	jal	68802338 <_get_key_value_from_name>
68802698:	02002021 	move	a0,s0
6880269c:	3c0d6880 	lui	t5,0x6880
688026a0:	25a46834 	addiu	a0,t5,26676
688026a4:	02002821 	move	a1,s0
688026a8:	24060014 	li	a2,20
688026ac:	0e2017fc 	jal	68805ff0 <get_config>
688026b0:	afa20438 	sw	v0,1080(sp)
688026b4:	0e2008ce 	jal	68802338 <_get_key_value_from_name>
688026b8:	02002021 	move	a0,s0
688026bc:	3c0c6880 	lui	t4,0x6880
688026c0:	25846840 	addiu	a0,t4,26688
688026c4:	02002821 	move	a1,s0
688026c8:	24060014 	li	a2,20
688026cc:	0e2017fc 	jal	68805ff0 <get_config>
688026d0:	afa2043c 	sw	v0,1084(sp)
688026d4:	0e2008ce 	jal	68802338 <_get_key_value_from_name>
688026d8:	02002021 	move	a0,s0
688026dc:	3c0b6880 	lui	t3,0x6880
688026e0:	25646850 	addiu	a0,t3,26704
688026e4:	02002821 	move	a1,s0
688026e8:	24060014 	li	a2,20
688026ec:	0e2017fc 	jal	68805ff0 <get_config>
688026f0:	afa20440 	sw	v0,1088(sp)
688026f4:	0e2008ce 	jal	68802338 <_get_key_value_from_name>
688026f8:	02002021 	move	a0,s0
688026fc:	3c076880 	lui	a3,0x6880
68802700:	24e46860 	addiu	a0,a3,26720
68802704:	02002821 	move	a1,s0
68802708:	24060014 	li	a2,20
6880270c:	0e2017fc 	jal	68805ff0 <get_config>
68802710:	afa20444 	sw	v0,1092(sp)
68802714:	0e2008ce 	jal	68802338 <_get_key_value_from_name>
68802718:	02002021 	move	a0,s0
6880271c:	3c0a6880 	lui	t2,0x6880
68802720:	25446870 	addiu	a0,t2,26736
68802724:	02002821 	move	a1,s0
68802728:	24060014 	li	a2,20
6880272c:	0e2017fc 	jal	68805ff0 <get_config>
68802730:	afa20448 	sw	v0,1096(sp)
68802734:	0e2008ce 	jal	68802338 <_get_key_value_from_name>
68802738:	02002021 	move	a0,s0
6880273c:	3c096880 	lui	t1,0x6880
68802740:	25246880 	addiu	a0,t1,26752
68802744:	02002821 	move	a1,s0
68802748:	24060014 	li	a2,20
6880274c:	0e2017fc 	jal	68805ff0 <get_config>
68802750:	afa2044c 	sw	v0,1100(sp)
68802754:	0e2008ce 	jal	68802338 <_get_key_value_from_name>
68802758:	02002021 	move	a0,s0
6880275c:	3c086880 	lui	t0,0x6880
68802760:	2504688c 	addiu	a0,t0,26764
68802764:	02002821 	move	a1,s0
68802768:	24060014 	li	a2,20
6880276c:	27b10438 	addiu	s1,sp,1080
68802770:	0e2017fc 	jal	68805ff0 <get_config>
68802774:	afa20450 	sw	v0,1104(sp)
68802778:	0e2008ce 	jal	68802338 <_get_key_value_from_name>
6880277c:	02002021 	move	a0,s0
68802780:	02202821 	move	a1,s1
68802784:	27a40020 	addiu	a0,sp,32
68802788:	24060020 	li	a2,32
6880278c:	0e20176e 	jal	68805db8 <memcpy>
68802790:	afa20454 	sw	v0,1108(sp)
68802794:	27a40018 	addiu	a0,sp,24
68802798:	2406000a 	li	a2,10
6880279c:	0e200948 	jal	68802520 <engine_cmd>
688027a0:	afa60018 	sw	a2,24(sp)
688027a4:	02402021 	move	a0,s2
688027a8:	02202821 	move	a1,s1
688027ac:	0e20176e 	jal	68805db8 <memcpy>
688027b0:	24060020 	li	a2,32
688027b4:	3c126881 	lui	s2,0x6881
688027b8:	27a40018 	addiu	a0,sp,24
688027bc:	2405000b 	li	a1,11
688027c0:	24030080 	li	v1,128
688027c4:	afa50018 	sw	a1,24(sp)
688027c8:	0e200948 	jal	68802520 <engine_cmd>
688027cc:	a7a30020 	sh	v1,32(sp)
688027d0:	ae408278 	sw	zero,-32136(s2)
688027d4:	8fbf046c 	lw	ra,1132(sp)
688027d8:	8fb20468 	lw	s2,1128(sp)
688027dc:	8fb10464 	lw	s1,1124(sp)
688027e0:	8fb00460 	lw	s0,1120(sp)
688027e4:	24020001 	li	v0,1
688027e8:	03e00008 	jr	ra
688027ec:	27bd0470 	addiu	sp,sp,1136
688027f0:	0e2014a6 	jal	68805298 <__errno>
688027f4:	24110008 	li	s1,8
688027f8:	0e201497 	jal	6880525c <getpid>
688027fc:	00408021 	move	s0,v0
68802800:	8e050000 	lw	a1,0(s0)
68802804:	3c0b6880 	lui	t3,0x6880
68802808:	3c096880 	lui	t1,0x6880
6880280c:	3c076880 	lui	a3,0x6880
68802810:	2564689c 	addiu	a0,t3,26780
68802814:	00403021 	move	a2,v0
68802818:	240a00c8 	li	t2,200
6880281c:	25286134 	addiu	t0,t1,24884
68802820:	24e768e8 	addiu	a3,a3,26856
68802824:	afaa0010 	sw	t2,16(sp)
68802828:	0e201805 	jal	68806014 <printf>
6880282c:	afa80014 	sw	t0,20(sp)
68802830:	afa00458 	sw	zero,1112(sp)
68802834:	8faf0458 	lw	t7,1112(sp)
68802838:	27a40018 	addiu	a0,sp,24
6880283c:	afb10018 	sw	s1,24(sp)
68802840:	0e200948 	jal	68802520 <engine_cmd>
68802844:	a7af0020 	sh	t7,32(sp)
68802848:	3c0e6881 	lui	t6,0x6881
6880284c:	8fac0458 	lw	t4,1112(sp)
68802850:	25d2827c 	addiu	s2,t6,-32132
68802854:	3c0d6880 	lui	t5,0x6880
68802858:	25a46818 	addiu	a0,t5,26648
6880285c:	27a50458 	addiu	a1,sp,1112
68802860:	24060004 	li	a2,4
68802864:	0e2017fc 	jal	68805ff0 <get_config>
68802868:	ae4c0024 	sw	t4,36(s2)
6880286c:	0441ff7c 	bgez	v0,68802660 <open_emulator+0xcc>
68802870:	8fb80458 	lw	t8,1112(sp)
68802874:	0e2014a6 	jal	68805298 <__errno>
68802878:	00000000 	nop
6880287c:	0e201497 	jal	6880525c <getpid>
68802880:	00408021 	move	s0,v0
68802884:	00403021 	move	a2,v0
68802888:	8e050000 	lw	a1,0(s0)
6880288c:	3c026880 	lui	v0,0x6880
68802890:	3c196880 	lui	t9,0x6880
68802894:	3c046880 	lui	a0,0x6880
68802898:	241f00d3 	li	ra,211
6880289c:	27386134 	addiu	t8,t9,24884
688028a0:	248468f8 	addiu	a0,a0,26872
688028a4:	244768e8 	addiu	a3,v0,26856
688028a8:	afbf0010 	sw	ra,16(sp)
688028ac:	0e201805 	jal	68806014 <printf>
688028b0:	afb80014 	sw	t8,20(sp)
688028b4:	1000ff69 	b	6880265c <open_emulator+0xc8>
688028b8:	afa00458 	sw	zero,1112(sp)

688028bc <msg_key_server_enable>:
688028bc:	27bdf7d0 	addiu	sp,sp,-2096
688028c0:	24030001 	li	v1,1
688028c4:	afa40830 	sw	a0,2096(sp)
688028c8:	00002821 	move	a1,zero
688028cc:	27a40010 	addiu	a0,sp,16
688028d0:	24060408 	li	a2,1032
688028d4:	afbf0828 	sw	ra,2088(sp)
688028d8:	afa30418 	sw	v1,1048(sp)
688028dc:	0e201782 	jal	68805e08 <memset>
688028e0:	afa0041c 	sw	zero,1052(sp)
688028e4:	27a40014 	addiu	a0,sp,20
688028e8:	27a50830 	addiu	a1,sp,2096
688028ec:	24060004 	li	a2,4
688028f0:	24020fba 	li	v0,4026
688028f4:	0e20176e 	jal	68805db8 <memcpy>
688028f8:	afa20010 	sw	v0,16(sp)
688028fc:	3c046880 	lui	a0,0x6880
68802900:	27a50010 	addiu	a1,sp,16
68802904:	27a60420 	addiu	a2,sp,1056
68802908:	27a70418 	addiu	a3,sp,1048
6880290c:	0e201336 	jal	68804cd8 <send_sync_msg>
68802910:	24846944 	addiu	a0,a0,26948
68802914:	8fbf0828 	lw	ra,2088(sp)
68802918:	03e00008 	jr	ra
6880291c:	27bd0830 	addiu	sp,sp,2096

68802920 <return_to_ui_wiodows>:
68802920:	3c060001 	lui	a2,0x1
68802924:	27bdfbd8 	addiu	sp,sp,-1064
68802928:	34c486a0 	ori	a0,a2,0x86a0
6880292c:	afbf0424 	sw	ra,1060(sp)
68802930:	0e2014df 	jal	6880537c <usleep>
68802934:	afb00420 	sw	s0,1056(sp)
68802938:	0e201378 	jal	68804de0 <sty_get_view_rotation>
6880293c:	3c106880 	lui	s0,0x6880
68802940:	0e20137b 	jal	68804dec <sty_set_screen_rotation>
68802944:	00402021 	move	a0,v0
68802948:	0e200cdf 	jal	6880337c <em_create_headbar>
6880294c:	00000000 	nop
68802950:	0e200d95 	jal	68803654 <em_create_menuview>
68802954:	00000000 	nop
68802958:	8e037358 	lw	v1,29528(s0)
6880295c:	00003821 	move	a3,zero
68802960:	8c650088 	lw	a1,136(v1)
68802964:	8c640014 	lw	a0,20(v1)
68802968:	0e20136f 	jal	68804dbc <sty_draw_bitmap>
6880296c:	00003021 	move	a2,zero
68802970:	0e20032f 	jal	68800cbc <em_second_level_menu_enter>
68802974:	8e047358 	lw	a0,29528(s0)
68802978:	0e2017da 	jal	68805f68 <gui_screen_update>
6880297c:	00000000 	nop
68802980:	0e20130c 	jal	68804c30 <sys_forbid_auto_standby>
68802984:	00002021 	move	a0,zero
68802988:	0e201309 	jal	68804c24 <sys_forbid_screensaver>
6880298c:	00002021 	move	a0,zero
68802990:	3c056880 	lui	a1,0x6880
68802994:	8ca3734c 	lw	v1,29516(a1)
68802998:	3c046880 	lui	a0,0x6880
6880299c:	24020001 	li	v0,1
688029a0:	10620007 	beq	v1,v0,688029c0 <return_to_ui_wiodows+0xa0>
688029a4:	2484612c 	addiu	a0,a0,24876
688029a8:	3c086880 	lui	t0,0x6880
688029ac:	24070003 	li	a3,3
688029b0:	10670003 	beq	v1,a3,688029c0 <return_to_ui_wiodows+0xa0>
688029b4:	25046124 	addiu	a0,t0,24868
688029b8:	3c096880 	lui	t1,0x6880
688029bc:	2524611c 	addiu	a0,t1,24860
688029c0:	0e201315 	jal	68804c54 <sys_pm_clear_clk_domain>
688029c4:	00000000 	nop
688029c8:	27a40010 	addiu	a0,sp,16
688029cc:	00002821 	move	a1,zero
688029d0:	0e201782 	jal	68805e08 <memset>
688029d4:	24060408 	li	a2,1032
688029d8:	240c0faf 	li	t4,4015
688029dc:	240b0001 	li	t3,1
688029e0:	27a40014 	addiu	a0,sp,20
688029e4:	27a50418 	addiu	a1,sp,1048
688029e8:	24060004 	li	a2,4
688029ec:	afac0010 	sw	t4,16(sp)
688029f0:	0e20176e 	jal	68805db8 <memcpy>
688029f4:	afab0418 	sw	t3,1048(sp)
688029f8:	3c0a6880 	lui	t2,0x6880
688029fc:	25446944 	addiu	a0,t2,26948
68802a00:	0e20133c 	jal	68804cf0 <send_async_msg>
68802a04:	27a50010 	addiu	a1,sp,16
68802a08:	0e200a2f 	jal	688028bc <msg_key_server_enable>
68802a0c:	24040001 	li	a0,1
68802a10:	8fbf0424 	lw	ra,1060(sp)
68802a14:	8fb00420 	lw	s0,1056(sp)
68802a18:	03e00008 	jr	ra
68802a1c:	27bd0428 	addiu	sp,sp,1064

68802a20 <return_to_game_wiodows>:
68802a20:	3c056880 	lui	a1,0x6880
68802a24:	8ca3734c 	lw	v1,29516(a1)
68802a28:	27bdfbd8 	addiu	sp,sp,-1064
68802a2c:	3c046880 	lui	a0,0x6880
68802a30:	24020001 	li	v0,1
68802a34:	afbf0424 	sw	ra,1060(sp)
68802a38:	afb00420 	sw	s0,1056(sp)
68802a3c:	10620007 	beq	v1,v0,68802a5c <return_to_game_wiodows+0x3c>
68802a40:	2484612c 	addiu	a0,a0,24876
68802a44:	3c076880 	lui	a3,0x6880
68802a48:	24060003 	li	a2,3
68802a4c:	10660003 	beq	v1,a2,68802a5c <return_to_game_wiodows+0x3c>
68802a50:	24e46124 	addiu	a0,a3,24868
68802a54:	3c036880 	lui	v1,0x6880
68802a58:	2464611c 	addiu	a0,v1,24860
68802a5c:	0e201312 	jal	68804c48 <sys_pm_set_clk_domain>
68802a60:	00000000 	nop
68802a64:	0e200d0b 	jal	6880342c <em_delete_headbar>
68802a68:	00000000 	nop
68802a6c:	0e2003d6 	jal	68800f58 <em_second_level_menu_exit>
68802a70:	00000000 	nop
68802a74:	0e200db3 	jal	688036cc <em_delete_menuview>
68802a78:	00000000 	nop
68802a7c:	3c0b6880 	lui	t3,0x6880
68802a80:	8d6a7358 	lw	t2,29528(t3)
68802a84:	00002821 	move	a1,zero
68802a88:	8d500014 	lw	s0,20(t2)
68802a8c:	0e2017f2 	jal	68805fc8 <gui_dc_set_background_color>
68802a90:	02002021 	move	a0,s0
68802a94:	0e2017f5 	jal	68805fd4 <gui_dc_clear>
68802a98:	02002021 	move	a0,s0
68802a9c:	0e20137b 	jal	68804dec <sty_set_screen_rotation>
68802aa0:	00002021 	move	a0,zero
68802aa4:	0e20130c 	jal	68804c30 <sys_forbid_auto_standby>
68802aa8:	24040001 	li	a0,1
68802aac:	0e201309 	jal	68804c24 <sys_forbid_screensaver>
68802ab0:	24040001 	li	a0,1
68802ab4:	27a40010 	addiu	a0,sp,16
68802ab8:	00002821 	move	a1,zero
68802abc:	0e201782 	jal	68805e08 <memset>
68802ac0:	24060408 	li	a2,1032
68802ac4:	24090faf 	li	t1,4015
68802ac8:	27a40014 	addiu	a0,sp,20
68802acc:	27a50418 	addiu	a1,sp,1048
68802ad0:	24060004 	li	a2,4
68802ad4:	afa90010 	sw	t1,16(sp)
68802ad8:	0e20176e 	jal	68805db8 <memcpy>
68802adc:	afa00418 	sw	zero,1048(sp)
68802ae0:	3c086880 	lui	t0,0x6880
68802ae4:	25046944 	addiu	a0,t0,26948
68802ae8:	0e20133c 	jal	68804cf0 <send_async_msg>
68802aec:	27a50010 	addiu	a1,sp,16
68802af0:	0e200a2f 	jal	688028bc <msg_key_server_enable>
68802af4:	00002021 	move	a0,zero
68802af8:	8fbf0424 	lw	ra,1060(sp)
68802afc:	8fb00420 	lw	s0,1056(sp)
68802b00:	03e00008 	jr	ra
68802b04:	27bd0428 	addiu	sp,sp,1064

68802b08 <emu_init>:
68802b08:	27bdffe8 	addiu	sp,sp,-24
68802b0c:	afb00010 	sw	s0,16(sp)
68802b10:	afbf0014 	sw	ra,20(sp)
68802b14:	3c106880 	lui	s0,0x6880
68802b18:	8e027358 	lw	v0,29528(s0)
68802b1c:	8c43009c 	lw	v1,156(v0)
68802b20:	10600009 	beqz	v1,68802b48 <emu_init+0x40>
68802b24:	00000000 	nop
68802b28:	0e2008bf 	jal	688022fc <_deinit_msgchannel>
68802b2c:	00000000 	nop
68802b30:	0e2014df 	jal	6880537c <usleep>
68802b34:	240403e8 	li	a0,1000
68802b38:	8fbf0014 	lw	ra,20(sp)
68802b3c:	8fb00010 	lw	s0,16(sp)
68802b40:	0a2008aa 	j	688022a8 <_init_msgchannel>
68802b44:	27bd0018 	addiu	sp,sp,24
68802b48:	0e200965 	jal	68802594 <open_emulator>
68802b4c:	00000000 	nop
68802b50:	8e097358 	lw	t1,29528(s0)
68802b54:	240a0001 	li	t2,1
68802b58:	0e201378 	jal	68804de0 <sty_get_view_rotation>
68802b5c:	ad2a009c 	sw	t2,156(t1)
68802b60:	3844010e 	xori	a0,v0,0x10e
68802b64:	3848005a 	xori	t0,v0,0x5a
68802b68:	2c870001 	sltiu	a3,a0,1
68802b6c:	2d060001 	sltiu	a2,t0,1
68802b70:	00c72825 	or	a1,a2,a3
68802b74:	10a0000e 	beqz	a1,68802bb0 <emu_init+0xa8>
68802b78:	2404005a 	li	a0,90
68802b7c:	0e20137b 	jal	68804dec <sty_set_screen_rotation>
68802b80:	00000000 	nop
68802b84:	3c0c6880 	lui	t4,0x6880
68802b88:	2404001e 	li	a0,30
68802b8c:	25853210 	addiu	a1,t4,12816
68802b90:	0e201318 	jal	68804c60 <set_timer>
68802b94:	00003021 	move	a2,zero
68802b98:	8fbf0014 	lw	ra,20(sp)
68802b9c:	8fb00010 	lw	s0,16(sp)
68802ba0:	3c0b6880 	lui	t3,0x6880
68802ba4:	27bd0018 	addiu	sp,sp,24
68802ba8:	03e00008 	jr	ra
68802bac:	ad627350 	sw	v0,29520(t3)
68802bb0:	0e20137b 	jal	68804dec <sty_set_screen_rotation>
68802bb4:	00002021 	move	a0,zero
68802bb8:	3c0c6880 	lui	t4,0x6880
68802bbc:	2404001e 	li	a0,30
68802bc0:	25853210 	addiu	a1,t4,12816
68802bc4:	0e201318 	jal	68804c60 <set_timer>
68802bc8:	00003021 	move	a2,zero
68802bcc:	8fbf0014 	lw	ra,20(sp)
68802bd0:	8fb00010 	lw	s0,16(sp)
68802bd4:	3c0b6880 	lui	t3,0x6880
68802bd8:	27bd0018 	addiu	sp,sp,24
68802bdc:	03e00008 	jr	ra
68802be0:	ad627350 	sw	v0,29520(t3)

68802be4 <emu_continue>:
68802be4:	27bdfbe0 	addiu	sp,sp,-1056
68802be8:	27a40010 	addiu	a0,sp,16
68802bec:	24020002 	li	v0,2
68802bf0:	afbf0418 	sw	ra,1048(sp)
68802bf4:	afa20010 	sw	v0,16(sp)
68802bf8:	0e200948 	jal	68802520 <engine_cmd>
68802bfc:	afa00014 	sw	zero,20(sp)
68802c00:	8fbf0418 	lw	ra,1048(sp)
68802c04:	24040001 	li	a0,1
68802c08:	3c036881 	lui	v1,0x6881
68802c0c:	27bd0420 	addiu	sp,sp,1056
68802c10:	03e00008 	jr	ra
68802c14:	ac648278 	sw	a0,-32136(v1)

68802c18 <emu_reset>:
68802c18:	27bdfbe0 	addiu	sp,sp,-1056
68802c1c:	24020003 	li	v0,3
68802c20:	27a40010 	addiu	a0,sp,16
68802c24:	afbf0418 	sw	ra,1048(sp)
68802c28:	afa20010 	sw	v0,16(sp)
68802c2c:	0e200948 	jal	68802520 <engine_cmd>
68802c30:	afa00014 	sw	zero,20(sp)
68802c34:	14400004 	bnez	v0,68802c48 <emu_reset+0x30>
68802c38:	8fbf0418 	lw	ra,1048(sp)
68802c3c:	24040001 	li	a0,1
68802c40:	3c036881 	lui	v1,0x6881
68802c44:	ac648278 	sw	a0,-32136(v1)
68802c48:	03e00008 	jr	ra
68802c4c:	27bd0420 	addiu	sp,sp,1056

68802c50 <emu_load>:
68802c50:	27bdfbe0 	addiu	sp,sp,-1056
68802c54:	afb00418 	sw	s0,1048(sp)
68802c58:	afbf041c 	sw	ra,1052(sp)
68802c5c:	3c036880 	lui	v1,0x6880
68802c60:	8c62733c 	lw	v0,29500(v1)
68802c64:	24060408 	li	a2,1032
68802c68:	27a40010 	addiu	a0,sp,16
68802c6c:	00002821 	move	a1,zero
68802c70:	14400003 	bnez	v0,68802c80 <emu_load+0x30>
68802c74:	24100001 	li	s0,1
68802c78:	24070001 	li	a3,1
68802c7c:	ac67733c 	sw	a3,29500(v1)
68802c80:	0e201782 	jal	68805e08 <memset>
68802c84:	00000000 	nop
68802c88:	3c056880 	lui	a1,0x6880
68802c8c:	27a40018 	addiu	a0,sp,24
68802c90:	0e2017b1 	jal	68805ec4 <strcpy>
68802c94:	24a5736c 	addiu	a1,a1,29548
68802c98:	27a40010 	addiu	a0,sp,16
68802c9c:	afb00010 	sw	s0,16(sp)
68802ca0:	0e200948 	jal	68802520 <engine_cmd>
68802ca4:	afb00014 	sw	s0,20(sp)
68802ca8:	3c036881 	lui	v1,0x6881
68802cac:	ac708278 	sw	s0,-32136(v1)
68802cb0:	8fbf041c 	lw	ra,1052(sp)
68802cb4:	8fb00418 	lw	s0,1048(sp)
68802cb8:	03e00008 	jr	ra
68802cbc:	27bd0420 	addiu	sp,sp,1056

68802cc0 <emu_play>:
68802cc0:	27bdfbd8 	addiu	sp,sp,-1064
68802cc4:	afb1041c 	sw	s1,1052(sp)
68802cc8:	afb00418 	sw	s0,1048(sp)
68802ccc:	afbf0420 	sw	ra,1056(sp)
68802cd0:	3c036880 	lui	v1,0x6880
68802cd4:	8c62733c 	lw	v0,29500(v1)
68802cd8:	00808021 	move	s0,a0
68802cdc:	24110001 	li	s1,1
68802ce0:	00002821 	move	a1,zero
68802ce4:	24060408 	li	a2,1032
68802ce8:	14400003 	bnez	v0,68802cf8 <emu_play+0x38>
68802cec:	27a40010 	addiu	a0,sp,16
68802cf0:	24070001 	li	a3,1
68802cf4:	ac67733c 	sw	a3,29500(v1)
68802cf8:	3c036881 	lui	v1,0x6881
68802cfc:	0e201782 	jal	68805e08 <memset>
68802d00:	ac718278 	sw	s1,-32136(v1)
68802d04:	02002821 	move	a1,s0
68802d08:	0e2017b1 	jal	68805ec4 <strcpy>
68802d0c:	27a40018 	addiu	a0,sp,24
68802d10:	27a40010 	addiu	a0,sp,16
68802d14:	afb10010 	sw	s1,16(sp)
68802d18:	0e200948 	jal	68802520 <engine_cmd>
68802d1c:	afa00014 	sw	zero,20(sp)
68802d20:	8fbf0420 	lw	ra,1056(sp)
68802d24:	8fb1041c 	lw	s1,1052(sp)
68802d28:	8fb00418 	lw	s0,1048(sp)
68802d2c:	03e00008 	jr	ra
68802d30:	27bd0428 	addiu	sp,sp,1064

68802d34 <emu_pause>:
68802d34:	27bdf7d8 	addiu	sp,sp,-2088
68802d38:	3c056881 	lui	a1,0x6881
68802d3c:	24a482ac 	addiu	a0,a1,-32084
68802d40:	24080005 	li	t0,5
68802d44:	27a50010 	addiu	a1,sp,16
68802d48:	24070080 	li	a3,128
68802d4c:	24060408 	li	a2,1032
68802d50:	afbf0820 	sw	ra,2080(sp)
68802d54:	afa80010 	sw	t0,16(sp)
68802d58:	a7a70018 	sh	a3,24(sp)
68802d5c:	0e2011f9 	jal	688047e4 <emutest_mq_post>
68802d60:	a7a0001a 	sh	zero,26(sp)
68802d64:	3c046881 	lui	a0,0x6881
68802d68:	27a50418 	addiu	a1,sp,1048
68802d6c:	248482a8 	addiu	a0,a0,-32088
68802d70:	0e2011be 	jal	688046f8 <emutest_mq_pend>
68802d74:	24060408 	li	a2,1032
68802d78:	3c026881 	lui	v0,0x6881
68802d7c:	24030002 	li	v1,2
68802d80:	ac438278 	sw	v1,-32136(v0)
68802d84:	8fbf0820 	lw	ra,2080(sp)
68802d88:	97a20420 	lhu	v0,1056(sp)
68802d8c:	03e00008 	jr	ra
68802d90:	27bd0828 	addiu	sp,sp,2088

68802d94 <emu_save>:
68802d94:	27bdfbe0 	addiu	sp,sp,-1056
68802d98:	27a40010 	addiu	a0,sp,16
68802d9c:	00002821 	move	a1,zero
68802da0:	afbf0418 	sw	ra,1048(sp)
68802da4:	0e201782 	jal	68805e08 <memset>
68802da8:	24060408 	li	a2,1032
68802dac:	27a40010 	addiu	a0,sp,16
68802db0:	24020007 	li	v0,7
68802db4:	0e200948 	jal	68802520 <engine_cmd>
68802db8:	afa20010 	sw	v0,16(sp)
68802dbc:	8fbf0418 	lw	ra,1048(sp)
68802dc0:	03e00008 	jr	ra
68802dc4:	27bd0420 	addiu	sp,sp,1056

68802dc8 <emu_exit>:
68802dc8:	27bdfbd0 	addiu	sp,sp,-1072
68802dcc:	afb10424 	sw	s1,1060(sp)
68802dd0:	afb00420 	sw	s0,1056(sp)
68802dd4:	afbf042c 	sw	ra,1068(sp)
68802dd8:	afb20428 	sw	s2,1064(sp)
68802ddc:	3c116880 	lui	s1,0x6880
68802de0:	8e247358 	lw	a0,29528(s1)
68802de4:	24020001 	li	v0,1
68802de8:	8c83009c 	lw	v1,156(a0)
68802dec:	10620008 	beq	v1,v0,68802e10 <emu_exit+0x48>
68802df0:	00008021 	move	s0,zero
68802df4:	02001021 	move	v0,s0
68802df8:	8fbf042c 	lw	ra,1068(sp)
68802dfc:	8fb20428 	lw	s2,1064(sp)
68802e00:	8fb10424 	lw	s1,1060(sp)
68802e04:	8fb00420 	lw	s0,1056(sp)
68802e08:	03e00008 	jr	ra
68802e0c:	27bd0430 	addiu	sp,sp,1072
68802e10:	3c126881 	lui	s2,0x6881
68802e14:	8e458278 	lw	a1,-32136(s2)
68802e18:	10a30020 	beq	a1,v1,68802e9c <emu_exit+0xd4>
68802e1c:	00000000 	nop
68802e20:	27a40010 	addiu	a0,sp,16
68802e24:	00002821 	move	a1,zero
68802e28:	0e201782 	jal	68805e08 <memset>
68802e2c:	24060408 	li	a2,1032
68802e30:	24060004 	li	a2,4
68802e34:	27a40010 	addiu	a0,sp,16
68802e38:	0e200948 	jal	68802520 <engine_cmd>
68802e3c:	afa60010 	sw	a2,16(sp)
68802e40:	8e237358 	lw	v1,29528(s1)
68802e44:	00408021 	move	s0,v0
68802e48:	ae408278 	sw	zero,-32136(s2)
68802e4c:	10000003 	b	68802e5c <emu_exit+0x94>
68802e50:	ac60009c 	sw	zero,156(v1)
68802e54:	0e2014df 	jal	6880537c <usleep>
68802e58:	00000000 	nop
68802e5c:	0e20149a 	jal	68805268 <wait>
68802e60:	27a40418 	addiu	a0,sp,1048
68802e64:	1840fffb 	blez	v0,68802e54 <emu_exit+0x8c>
68802e68:	24042710 	li	a0,10000
68802e6c:	3c076880 	lui	a3,0x6880
68802e70:	0e201327 	jal	68804c9c <kill_timer>
68802e74:	8ce47350 	lw	a0,29520(a3)
68802e78:	0e2008bf 	jal	688022fc <_deinit_msgchannel>
68802e7c:	00000000 	nop
68802e80:	02001021 	move	v0,s0
68802e84:	8fbf042c 	lw	ra,1068(sp)
68802e88:	8fb20428 	lw	s2,1064(sp)
68802e8c:	8fb10424 	lw	s1,1060(sp)
68802e90:	8fb00420 	lw	s0,1056(sp)
68802e94:	03e00008 	jr	ra
68802e98:	27bd0430 	addiu	sp,sp,1072
68802e9c:	0e200b4d 	jal	68802d34 <emu_pause>
68802ea0:	00000000 	nop
68802ea4:	1000ffdf 	b	68802e24 <emu_exit+0x5c>
68802ea8:	27a40010 	addiu	a0,sp,16

68802eac <emu_set_sound>:
68802eac:	27bdfbd0 	addiu	sp,sp,-1072
68802eb0:	00002821 	move	a1,zero
68802eb4:	24060408 	li	a2,1032
68802eb8:	afa40430 	sw	a0,1072(sp)
68802ebc:	27a40018 	addiu	a0,sp,24
68802ec0:	afbf0428 	sw	ra,1064(sp)
68802ec4:	afb10424 	sw	s1,1060(sp)
68802ec8:	0e201782 	jal	68805e08 <memset>
68802ecc:	afb00420 	sw	s0,1056(sp)
68802ed0:	8fa30430 	lw	v1,1072(sp)
68802ed4:	27a40018 	addiu	a0,sp,24
68802ed8:	24020008 	li	v0,8
68802edc:	afa20018 	sw	v0,24(sp)
68802ee0:	0e200948 	jal	68802520 <engine_cmd>
68802ee4:	a7a30020 	sh	v1,32(sp)
68802ee8:	3c046880 	lui	a0,0x6880
68802eec:	24846808 	addiu	a0,a0,26632
68802ef0:	27a50430 	addiu	a1,sp,1072
68802ef4:	24060004 	li	a2,4
68802ef8:	0e2017f8 	jal	68805fe0 <set_config>
68802efc:	00408821 	move	s1,v0
68802f00:	04400006 	bltz	v0,68802f1c <emu_set_sound+0x70>
68802f04:	02201021 	move	v0,s1
68802f08:	8fbf0428 	lw	ra,1064(sp)
68802f0c:	8fb10424 	lw	s1,1060(sp)
68802f10:	8fb00420 	lw	s0,1056(sp)
68802f14:	03e00008 	jr	ra
68802f18:	27bd0430 	addiu	sp,sp,1072
68802f1c:	0e2014a6 	jal	68805298 <__errno>
68802f20:	00000000 	nop
68802f24:	0e201497 	jal	6880525c <getpid>
68802f28:	00408021 	move	s0,v0
68802f2c:	8e050000 	lw	a1,0(s0)
68802f30:	3c066880 	lui	a2,0x6880
68802f34:	3c096880 	lui	t1,0x6880
68802f38:	3c076880 	lui	a3,0x6880
68802f3c:	24c46964 	addiu	a0,a2,26980
68802f40:	240a02d1 	li	t2,721
68802f44:	25286150 	addiu	t0,t1,24912
68802f48:	00403021 	move	a2,v0
68802f4c:	24e768e8 	addiu	a3,a3,26856
68802f50:	afaa0010 	sw	t2,16(sp)
68802f54:	0e201805 	jal	68806014 <printf>
68802f58:	afa80014 	sw	t0,20(sp)
68802f5c:	02201021 	move	v0,s1
68802f60:	8fbf0428 	lw	ra,1064(sp)
68802f64:	8fb10424 	lw	s1,1060(sp)
68802f68:	8fb00420 	lw	s0,1056(sp)
68802f6c:	03e00008 	jr	ra
68802f70:	27bd0430 	addiu	sp,sp,1072

68802f74 <emu_set_disp_mode>:
68802f74:	27bdfbd0 	addiu	sp,sp,-1072
68802f78:	00002821 	move	a1,zero
68802f7c:	24060408 	li	a2,1032
68802f80:	afa40430 	sw	a0,1072(sp)
68802f84:	27a40018 	addiu	a0,sp,24
68802f88:	afbf0428 	sw	ra,1064(sp)
68802f8c:	afb10424 	sw	s1,1060(sp)
68802f90:	0e201782 	jal	68805e08 <memset>
68802f94:	afb00420 	sw	s0,1056(sp)
68802f98:	8fa30430 	lw	v1,1072(sp)
68802f9c:	27a40018 	addiu	a0,sp,24
68802fa0:	24020009 	li	v0,9
68802fa4:	afa20018 	sw	v0,24(sp)
68802fa8:	0e200948 	jal	68802520 <engine_cmd>
68802fac:	a7a30020 	sh	v1,32(sp)
68802fb0:	3c046880 	lui	a0,0x6880
68802fb4:	24846818 	addiu	a0,a0,26648
68802fb8:	27a50430 	addiu	a1,sp,1072
68802fbc:	24060004 	li	a2,4
68802fc0:	0e2017f8 	jal	68805fe0 <set_config>
68802fc4:	00408821 	move	s1,v0
68802fc8:	04400006 	bltz	v0,68802fe4 <emu_set_disp_mode+0x70>
68802fcc:	02201021 	move	v0,s1
68802fd0:	8fbf0428 	lw	ra,1064(sp)
68802fd4:	8fb10424 	lw	s1,1060(sp)
68802fd8:	8fb00420 	lw	s0,1056(sp)
68802fdc:	03e00008 	jr	ra
68802fe0:	27bd0430 	addiu	sp,sp,1072
68802fe4:	0e2014a6 	jal	68805298 <__errno>
68802fe8:	00000000 	nop
68802fec:	0e201497 	jal	6880525c <getpid>
68802ff0:	00408021 	move	s0,v0
68802ff4:	8e050000 	lw	a1,0(s0)
68802ff8:	3c066880 	lui	a2,0x6880
68802ffc:	3c096880 	lui	t1,0x6880
68803000:	3c076880 	lui	a3,0x6880
68803004:	24c469b0 	addiu	a0,a2,27056
68803008:	240a02e6 	li	t2,742
6880300c:	25286160 	addiu	t0,t1,24928
68803010:	00403021 	move	a2,v0
68803014:	24e768e8 	addiu	a3,a3,26856
68803018:	afaa0010 	sw	t2,16(sp)
6880301c:	0e201805 	jal	68806014 <printf>
68803020:	afa80014 	sw	t0,20(sp)
68803024:	02201021 	move	v0,s1
68803028:	8fbf0428 	lw	ra,1064(sp)
6880302c:	8fb10424 	lw	s1,1060(sp)
68803030:	8fb00420 	lw	s0,1056(sp)
68803034:	03e00008 	jr	ra
68803038:	27bd0430 	addiu	sp,sp,1072

6880303c <emu_set_keymap>:
6880303c:	27bdfbd8 	addiu	sp,sp,-1064
68803040:	afb1041c 	sw	s1,1052(sp)
68803044:	3c116881 	lui	s1,0x6881
68803048:	afb00418 	sw	s0,1048(sp)
6880304c:	27a40010 	addiu	a0,sp,16
68803050:	2630827c 	addiu	s0,s1,-32132
68803054:	00002821 	move	a1,zero
68803058:	24060408 	li	a2,1032
6880305c:	afbf0424 	sw	ra,1060(sp)
68803060:	0e201782 	jal	68805e08 <memset>
68803064:	afb20420 	sw	s2,1056(sp)
68803068:	24060020 	li	a2,32
6880306c:	02002821 	move	a1,s0
68803070:	0e20176e 	jal	68805db8 <memcpy>
68803074:	27a40018 	addiu	a0,sp,24
68803078:	2405000a 	li	a1,10
6880307c:	27a40010 	addiu	a0,sp,16
68803080:	0e200948 	jal	68802520 <engine_cmd>
68803084:	afa50010 	sw	a1,16(sp)
68803088:	8e24827c 	lw	a0,-32132(s1)
6880308c:	0e200917 	jal	6880245c <_get_kayname_from_value>
68803090:	00409021 	move	s2,v0
68803094:	3c0a6880 	lui	t2,0x6880
68803098:	25446828 	addiu	a0,t2,26664
6880309c:	00402821 	move	a1,v0
688030a0:	0e2017f8 	jal	68805fe0 <set_config>
688030a4:	24060014 	li	a2,20
688030a8:	0e200917 	jal	6880245c <_get_kayname_from_value>
688030ac:	8e040004 	lw	a0,4(s0)
688030b0:	3c096880 	lui	t1,0x6880
688030b4:	25246834 	addiu	a0,t1,26676
688030b8:	00402821 	move	a1,v0
688030bc:	0e2017f8 	jal	68805fe0 <set_config>
688030c0:	24060014 	li	a2,20
688030c4:	0e200917 	jal	6880245c <_get_kayname_from_value>
688030c8:	8e040008 	lw	a0,8(s0)
688030cc:	3c086880 	lui	t0,0x6880
688030d0:	25046840 	addiu	a0,t0,26688
688030d4:	00402821 	move	a1,v0
688030d8:	0e2017f8 	jal	68805fe0 <set_config>
688030dc:	24060014 	li	a2,20
688030e0:	0e200917 	jal	6880245c <_get_kayname_from_value>
688030e4:	8e04000c 	lw	a0,12(s0)
688030e8:	3c076880 	lui	a3,0x6880
688030ec:	24e46850 	addiu	a0,a3,26704
688030f0:	00402821 	move	a1,v0
688030f4:	0e2017f8 	jal	68805fe0 <set_config>
688030f8:	24060014 	li	a2,20
688030fc:	0e200917 	jal	6880245c <_get_kayname_from_value>
68803100:	8e040010 	lw	a0,16(s0)
68803104:	3c066880 	lui	a2,0x6880
68803108:	00402821 	move	a1,v0
6880310c:	24c46860 	addiu	a0,a2,26720
68803110:	0e2017f8 	jal	68805fe0 <set_config>
68803114:	24060014 	li	a2,20
68803118:	0e200917 	jal	6880245c <_get_kayname_from_value>
6880311c:	8e040014 	lw	a0,20(s0)
68803120:	3c036880 	lui	v1,0x6880
68803124:	24646870 	addiu	a0,v1,26736
68803128:	00402821 	move	a1,v0
6880312c:	0e2017f8 	jal	68805fe0 <set_config>
68803130:	24060014 	li	a2,20
68803134:	0e200917 	jal	6880245c <_get_kayname_from_value>
68803138:	8e040018 	lw	a0,24(s0)
6880313c:	00402821 	move	a1,v0
68803140:	3c026880 	lui	v0,0x6880
68803144:	24060014 	li	a2,20
68803148:	0e2017f8 	jal	68805fe0 <set_config>
6880314c:	24446880 	addiu	a0,v0,26752
68803150:	0e200917 	jal	6880245c <_get_kayname_from_value>
68803154:	8e04001c 	lw	a0,28(s0)
68803158:	3c046880 	lui	a0,0x6880
6880315c:	2484688c 	addiu	a0,a0,26764
68803160:	00402821 	move	a1,v0
68803164:	0e2017f8 	jal	68805fe0 <set_config>
68803168:	24060014 	li	a2,20
6880316c:	02401021 	move	v0,s2
68803170:	8fbf0424 	lw	ra,1060(sp)
68803174:	8fb20420 	lw	s2,1056(sp)
68803178:	8fb1041c 	lw	s1,1052(sp)
6880317c:	8fb00418 	lw	s0,1048(sp)
68803180:	03e00008 	jr	ra
68803184:	27bd0428 	addiu	sp,sp,1064

68803188 <_err_info_dlg>:
68803188:	27bdffd0 	addiu	sp,sp,-48
6880318c:	afb00020 	sw	s0,32(sp)
68803190:	afbf0028 	sw	ra,40(sp)
68803194:	afb10024 	sw	s1,36(sp)
68803198:	9089001e 	lbu	t1,30(a0)
6880319c:	9088001d 	lbu	t0,29(a0)
688031a0:	3c106880 	lui	s0,0x6880
688031a4:	00092200 	sll	a0,t1,0x8
688031a8:	3c056880 	lui	a1,0x6880
688031ac:	00883025 	or	a2,a0,t0
688031b0:	8e117358 	lw	s1,29528(s0)
688031b4:	27a40010 	addiu	a0,sp,16
688031b8:	24070004 	li	a3,4
688031bc:	24a532f8 	addiu	a1,a1,13048
688031c0:	afa70010 	sw	a3,16(sp)
688031c4:	0e20125f 	jal	6880497c <dialog_create>
688031c8:	a7a60014 	sh	a2,20(sp)
688031cc:	8e037358 	lw	v1,29528(s0)
688031d0:	ae220078 	sw	v0,120(s1)
688031d4:	8c620078 	lw	v0,120(v1)
688031d8:	14400006 	bnez	v0,688031f4 <_err_info_dlg+0x6c>
688031dc:	00402021 	move	a0,v0
688031e0:	8fbf0028 	lw	ra,40(sp)
688031e4:	8fb10024 	lw	s1,36(sp)
688031e8:	8fb00020 	lw	s0,32(sp)
688031ec:	03e00008 	jr	ra
688031f0:	27bd0030 	addiu	sp,sp,48
688031f4:	0e201259 	jal	68804964 <dialog_paint>
688031f8:	00000000 	nop
688031fc:	8fbf0028 	lw	ra,40(sp)
68803200:	8fb10024 	lw	s1,36(sp)
68803204:	8fb00020 	lw	s0,32(sp)
68803208:	03e00008 	jr	ra
6880320c:	27bd0030 	addiu	sp,sp,48

68803210 <onTimer>:
68803210:	27bdfbd8 	addiu	sp,sp,-1064
68803214:	afb1041c 	sw	s1,1052(sp)
68803218:	3c116881 	lui	s1,0x6881
6880321c:	afb00418 	sw	s0,1048(sp)
68803220:	8e308278 	lw	s0,-32136(s1)
68803224:	24020001 	li	v0,1
68803228:	12020007 	beq	s0,v0,68803248 <onTimer+0x38>
6880322c:	afbf0420 	sw	ra,1056(sp)
68803230:	8fbf0420 	lw	ra,1056(sp)
68803234:	8fb1041c 	lw	s1,1052(sp)
68803238:	8fb00418 	lw	s0,1048(sp)
6880323c:	00001021 	move	v0,zero
68803240:	03e00008 	jr	ra
68803244:	27bd0428 	addiu	sp,sp,1064
68803248:	3c046881 	lui	a0,0x6881
6880324c:	248482a8 	addiu	a0,a0,-32088
68803250:	27a50010 	addiu	a1,sp,16
68803254:	24060408 	li	a2,1032
68803258:	0e2011d4 	jal	68804750 <emutest_mq_pend_timeout>
6880325c:	24070064 	li	a3,100
68803260:	2403ffff 	li	v1,-1
68803264:	1043fff2 	beq	v0,v1,68803230 <onTimer+0x20>
68803268:	97a30018 	lhu	v1,24(sp)
6880326c:	1060fff1 	beqz	v1,68803234 <onTimer+0x24>
68803270:	8fbf0420 	lw	ra,1056(sp)
68803274:	24050003 	li	a1,3
68803278:	10650013 	beq	v1,a1,688032c8 <onTimer+0xb8>
6880327c:	3c0a6880 	lui	t2,0x6880
68803280:	0e200a48 	jal	68802920 <return_to_ui_wiodows>
68803284:	ad40733c 	sw	zero,29500(t2)
68803288:	97a90018 	lhu	t1,24(sp)
6880328c:	24080002 	li	t0,2
68803290:	11280015 	beq	t1,t0,688032e8 <onTimer+0xd8>
68803294:	3c0e6880 	lui	t6,0x6880
68803298:	8dcd7358 	lw	t5,29528(t6)
6880329c:	8da4005c 	lw	a0,92(t5)
688032a0:	0e200c62 	jal	68803188 <_err_info_dlg>
688032a4:	00000000 	nop
688032a8:	0e2008bf 	jal	688022fc <_deinit_msgchannel>
688032ac:	00000000 	nop
688032b0:	0e2014df 	jal	6880537c <usleep>
688032b4:	240403e8 	li	a0,1000
688032b8:	0e2008aa 	jal	688022a8 <_init_msgchannel>
688032bc:	00000000 	nop
688032c0:	1000ffdb 	b	68803230 <onTimer+0x20>
688032c4:	ae208278 	sw	zero,-32136(s1)
688032c8:	8e268278 	lw	a2,-32136(s1)
688032cc:	54d0ffd9 	bnel	a2,s0,68803234 <onTimer+0x24>
688032d0:	8fbf0420 	lw	ra,1056(sp)
688032d4:	24070002 	li	a3,2
688032d8:	0e200a48 	jal	68802920 <return_to_ui_wiodows>
688032dc:	ae278278 	sw	a3,-32136(s1)
688032e0:	1000ffd4 	b	68803234 <onTimer+0x24>
688032e4:	8fbf0420 	lw	ra,1056(sp)
688032e8:	3c0c6880 	lui	t4,0x6880
688032ec:	8d8b7358 	lw	t3,29528(t4)
688032f0:	1000ffeb 	b	688032a0 <onTimer+0x90>
688032f4:	8d640064 	lw	a0,100(t3)

688032f8 <_err_info_dlg_cb>:
688032f8:	27bdffe8 	addiu	sp,sp,-24
688032fc:	afb00010 	sw	s0,16(sp)
68803300:	afbf0014 	sw	ra,20(sp)
68803304:	3c106880 	lui	s0,0x6880
68803308:	8e027358 	lw	v0,29528(s0)
6880330c:	8c430078 	lw	v1,120(v0)
68803310:	14600005 	bnez	v1,68803328 <_err_info_dlg_cb+0x30>
68803314:	00602021 	move	a0,v1
68803318:	8fbf0014 	lw	ra,20(sp)
6880331c:	8fb00010 	lw	s0,16(sp)
68803320:	03e00008 	jr	ra
68803324:	27bd0018 	addiu	sp,sp,24
68803328:	0e201262 	jal	68804988 <dialog_delete>
6880332c:	00000000 	nop
68803330:	8e047358 	lw	a0,29528(s0)
68803334:	8fbf0014 	lw	ra,20(sp)
68803338:	8fb00010 	lw	s0,16(sp)
6880333c:	27bd0018 	addiu	sp,sp,24
68803340:	03e00008 	jr	ra
68803344:	ac800078 	sw	zero,120(a0)

68803348 <_emulator_scene_init_paint>:
68803348:	27bdffe8 	addiu	sp,sp,-24
6880334c:	afbf0010 	sw	ra,16(sp)
68803350:	8c850088 	lw	a1,136(a0)
68803354:	8c840014 	lw	a0,20(a0)
68803358:	00003021 	move	a2,zero
6880335c:	0e20136f 	jal	68804dbc <sty_draw_bitmap>
68803360:	00003821 	move	a3,zero
68803364:	8fbf0010 	lw	ra,16(sp)
68803368:	24020001 	li	v0,1
6880336c:	03e00008 	jr	ra
68803370:	27bd0018 	addiu	sp,sp,24

68803374 <_headbar_cb>:
68803374:	03e00008 	jr	ra
68803378:	00000000 	nop

6880337c <em_create_headbar>:
6880337c:	27bdffd8 	addiu	sp,sp,-40
68803380:	afb1001c 	sw	s1,28(sp)
68803384:	afbf0020 	sw	ra,32(sp)
68803388:	afb00018 	sw	s0,24(sp)
6880338c:	3c116880 	lui	s1,0x6880
68803390:	8e307358 	lw	s0,29528(s1)
68803394:	afa00010 	sw	zero,16(sp)
68803398:	8e0e0028 	lw	t6,40(s0)
6880339c:	8e090024 	lw	t1,36(s0)
688033a0:	91cd001e 	lbu	t5,30(t6)
688033a4:	91cc001d 	lbu	t4,29(t6)
688033a8:	000d5a00 	sll	t3,t5,0x8
688033ac:	016c5025 	or	t2,t3,t4
688033b0:	a7aa0016 	sh	t2,22(sp)
688033b4:	91280013 	lbu	t0,19(t1)
688033b8:	91270012 	lbu	a3,18(t1)
688033bc:	00082200 	sll	a0,t0,0x8
688033c0:	3c056880 	lui	a1,0x6880
688033c4:	00873025 	or	a2,a0,a3
688033c8:	24a53374 	addiu	a1,a1,13172
688033cc:	27a40010 	addiu	a0,sp,16
688033d0:	0e20128f 	jal	68804a3c <headbar_create>
688033d4:	a7a60014 	sh	a2,20(sp)
688033d8:	8e237358 	lw	v1,29528(s1)
688033dc:	ae020074 	sw	v0,116(s0)
688033e0:	8c620074 	lw	v0,116(v1)
688033e4:	00001821 	move	v1,zero
688033e8:	14400007 	bnez	v0,68803408 <em_create_headbar+0x8c>
688033ec:	00402021 	move	a0,v0
688033f0:	8fbf0020 	lw	ra,32(sp)
688033f4:	8fb1001c 	lw	s1,28(sp)
688033f8:	8fb00018 	lw	s0,24(sp)
688033fc:	00601021 	move	v0,v1
68803400:	03e00008 	jr	ra
68803404:	27bd0028 	addiu	sp,sp,40
68803408:	0e20128c 	jal	68804a30 <headbar_paint>
6880340c:	00000000 	nop
68803410:	24030001 	li	v1,1
68803414:	8fbf0020 	lw	ra,32(sp)
68803418:	8fb1001c 	lw	s1,28(sp)
6880341c:	8fb00018 	lw	s0,24(sp)
68803420:	00601021 	move	v0,v1
68803424:	03e00008 	jr	ra
68803428:	27bd0028 	addiu	sp,sp,40

6880342c <em_delete_headbar>:
6880342c:	27bdffe8 	addiu	sp,sp,-24
68803430:	afb00010 	sw	s0,16(sp)
68803434:	afbf0014 	sw	ra,20(sp)
68803438:	3c106880 	lui	s0,0x6880
6880343c:	8e037358 	lw	v1,29528(s0)
68803440:	24050001 	li	a1,1
68803444:	8c620074 	lw	v0,116(v1)
68803448:	14400006 	bnez	v0,68803464 <em_delete_headbar+0x38>
6880344c:	00402021 	move	a0,v0
68803450:	8fbf0014 	lw	ra,20(sp)
68803454:	8fb00010 	lw	s0,16(sp)
68803458:	00a01021 	move	v0,a1
6880345c:	03e00008 	jr	ra
68803460:	27bd0018 	addiu	sp,sp,24
68803464:	0e201292 	jal	68804a48 <headbar_delete>
68803468:	00000000 	nop
6880346c:	00402821 	move	a1,v0
68803470:	8e047358 	lw	a0,29528(s0)
68803474:	8fbf0014 	lw	ra,20(sp)
68803478:	8fb00010 	lw	s0,16(sp)
6880347c:	00a01021 	move	v0,a1
68803480:	27bd0018 	addiu	sp,sp,24
68803484:	03e00008 	jr	ra
68803488:	ac800074 	sw	zero,116(a0)

6880348c <_msgbox_cb>:
6880348c:	27bdffe8 	addiu	sp,sp,-24
68803490:	afbf0014 	sw	ra,20(sp)
68803494:	10a00008 	beqz	a1,688034b8 <_msgbox_cb+0x2c>
68803498:	afb00010 	sw	s0,16(sp)
6880349c:	24020001 	li	v0,1
688034a0:	10a20017 	beq	a1,v0,68803500 <_msgbox_cb+0x74>
688034a4:	3c096880 	lui	t1,0x6880
688034a8:	8fbf0014 	lw	ra,20(sp)
688034ac:	8fb00010 	lw	s0,16(sp)
688034b0:	03e00008 	jr	ra
688034b4:	27bd0018 	addiu	sp,sp,24
688034b8:	3c056880 	lui	a1,0x6880
688034bc:	8ca37358 	lw	v1,29528(a1)
688034c0:	24040001 	li	a0,1
688034c4:	8c63009c 	lw	v1,156(v1)
688034c8:	1464fff8 	bne	v1,a0,688034ac <_msgbox_cb+0x20>
688034cc:	8fbf0014 	lw	ra,20(sp)
688034d0:	3c066881 	lui	a2,0x6881
688034d4:	8cd08278 	lw	s0,-32136(a2)
688034d8:	5603fff5 	bnel	s0,v1,688034b0 <_msgbox_cb+0x24>
688034dc:	8fb00010 	lw	s0,16(sp)
688034e0:	0e200b4d 	jal	68802d34 <emu_pause>
688034e4:	00000000 	nop
688034e8:	3c076880 	lui	a3,0x6880
688034ec:	acf07354 	sw	s0,29524(a3)
688034f0:	8fbf0014 	lw	ra,20(sp)
688034f4:	8fb00010 	lw	s0,16(sp)
688034f8:	03e00008 	jr	ra
688034fc:	27bd0018 	addiu	sp,sp,24
68803500:	8d287358 	lw	t0,29528(t1)
68803504:	8d06009c 	lw	a2,156(t0)
68803508:	14c5ffe8 	bne	a2,a1,688034ac <_msgbox_cb+0x20>
6880350c:	8fbf0014 	lw	ra,20(sp)
68803510:	3c0c6881 	lui	t4,0x6881
68803514:	8d8b8278 	lw	t3,-32136(t4)
68803518:	240a0002 	li	t2,2
6880351c:	156affe4 	bne	t3,t2,688034b0 <_msgbox_cb+0x24>
68803520:	8fb00010 	lw	s0,16(sp)
68803524:	3c036880 	lui	v1,0x6880
68803528:	8c6d7354 	lw	t5,29524(v1)
6880352c:	15a6ffe0 	bne	t5,a2,688034b0 <_msgbox_cb+0x24>
68803530:	00000000 	nop
68803534:	0e200af9 	jal	68802be4 <emu_continue>
68803538:	ac607354 	sw	zero,29524(v1)
6880353c:	8fbf0014 	lw	ra,20(sp)
68803540:	8fb00010 	lw	s0,16(sp)
68803544:	00002021 	move	a0,zero
68803548:	0a200a2f 	j	688028bc <msg_key_server_enable>
6880354c:	27bd0018 	addiu	sp,sp,24

68803550 <_create_volumebar>:
68803550:	27bdffe0 	addiu	sp,sp,-32
68803554:	afb10014 	sw	s1,20(sp)
68803558:	afbf0018 	sw	ra,24(sp)
6880355c:	afb00010 	sw	s0,16(sp)
68803560:	3c116880 	lui	s1,0x6880
68803564:	8e307358 	lw	s0,29528(s1)
68803568:	3c056880 	lui	a1,0x6880
6880356c:	8e020084 	lw	v0,132(s0)
68803570:	24a53638 	addiu	a1,a1,13880
68803574:	00002021 	move	a0,zero
68803578:	10400007 	beqz	v0,68803598 <_create_volumebar+0x48>
6880357c:	00001821 	move	v1,zero
68803580:	8fbf0018 	lw	ra,24(sp)
68803584:	8fb10014 	lw	s1,20(sp)
68803588:	8fb00010 	lw	s0,16(sp)
6880358c:	00601021 	move	v0,v1
68803590:	03e00008 	jr	ra
68803594:	27bd0020 	addiu	sp,sp,32
68803598:	0e2012d9 	jal	68804b64 <volumebar_create>
6880359c:	00000000 	nop
688035a0:	8e237358 	lw	v1,29528(s1)
688035a4:	ae020084 	sw	v0,132(s0)
688035a8:	8c660084 	lw	a2,132(v1)
688035ac:	14c00008 	bnez	a2,688035d0 <_create_volumebar+0x80>
688035b0:	00c02021 	move	a0,a2
688035b4:	24030001 	li	v1,1
688035b8:	8fbf0018 	lw	ra,24(sp)
688035bc:	8fb10014 	lw	s1,20(sp)
688035c0:	8fb00010 	lw	s0,16(sp)
688035c4:	00601021 	move	v0,v1
688035c8:	03e00008 	jr	ra
688035cc:	27bd0020 	addiu	sp,sp,32
688035d0:	0e2012df 	jal	68804b7c <volumebar_paint>
688035d4:	00000000 	nop
688035d8:	1000fff7 	b	688035b8 <_create_volumebar+0x68>
688035dc:	24030001 	li	v1,1

688035e0 <_delete_volumebar>:
688035e0:	27bdffe8 	addiu	sp,sp,-24
688035e4:	afb00010 	sw	s0,16(sp)
688035e8:	afbf0014 	sw	ra,20(sp)
688035ec:	3c106880 	lui	s0,0x6880
688035f0:	8e027358 	lw	v0,29528(s0)
688035f4:	8c430084 	lw	v1,132(v0)
688035f8:	14600006 	bnez	v1,68803614 <_delete_volumebar+0x34>
688035fc:	00602021 	move	a0,v1
68803600:	8fbf0014 	lw	ra,20(sp)
68803604:	8fb00010 	lw	s0,16(sp)
68803608:	24020001 	li	v0,1
6880360c:	03e00008 	jr	ra
68803610:	27bd0018 	addiu	sp,sp,24
68803614:	0e2012dc 	jal	68804b70 <volumebar_delete>
68803618:	00000000 	nop
6880361c:	8e047358 	lw	a0,29528(s0)
68803620:	8fbf0014 	lw	ra,20(sp)
68803624:	8fb00010 	lw	s0,16(sp)
68803628:	24020001 	li	v0,1
6880362c:	27bd0018 	addiu	sp,sp,24
68803630:	03e00008 	jr	ra
68803634:	ac800084 	sw	zero,132(a0)

68803638 <_volumebar_cb>:
68803638:	24020001 	li	v0,1
6880363c:	10a20003 	beq	a1,v0,6880364c <_volumebar_cb+0x14>
68803640:	00000000 	nop
68803644:	03e00008 	jr	ra
68803648:	00000000 	nop
6880364c:	0a200d78 	j	688035e0 <_delete_volumebar>
68803650:	00000000 	nop

68803654 <em_create_menuview>:
68803654:	27bdffe0 	addiu	sp,sp,-32
68803658:	afb10014 	sw	s1,20(sp)
6880365c:	afbf0018 	sw	ra,24(sp)
68803660:	afb00010 	sw	s0,16(sp)
68803664:	3c116880 	lui	s1,0x6880
68803668:	8e307358 	lw	s0,29528(s1)
6880366c:	3c056880 	lui	a1,0x6880
68803670:	8e02006c 	lw	v0,108(s0)
68803674:	24a53730 	addiu	a1,a1,14128
68803678:	24040004 	li	a0,4
6880367c:	10400007 	beqz	v0,6880369c <em_create_menuview+0x48>
68803680:	00001821 	move	v1,zero
68803684:	8fbf0018 	lw	ra,24(sp)
68803688:	8fb10014 	lw	s1,20(sp)
6880368c:	8fb00010 	lw	s0,16(sp)
68803690:	00601021 	move	v0,v1
68803694:	03e00008 	jr	ra
68803698:	27bd0020 	addiu	sp,sp,32
6880369c:	0e2012a7 	jal	68804a9c <menuview_create>
688036a0:	00000000 	nop
688036a4:	8e237358 	lw	v1,29528(s1)
688036a8:	ae02006c 	sw	v0,108(s0)
688036ac:	8c64006c 	lw	a0,108(v1)
688036b0:	8fbf0018 	lw	ra,24(sp)
688036b4:	0004182b 	sltu	v1,zero,a0
688036b8:	8fb10014 	lw	s1,20(sp)
688036bc:	8fb00010 	lw	s0,16(sp)
688036c0:	00601021 	move	v0,v1
688036c4:	03e00008 	jr	ra
688036c8:	27bd0020 	addiu	sp,sp,32

688036cc <em_delete_menuview>:
688036cc:	27bdffe8 	addiu	sp,sp,-24
688036d0:	afb00010 	sw	s0,16(sp)
688036d4:	afbf0014 	sw	ra,20(sp)
688036d8:	3c106880 	lui	s0,0x6880
688036dc:	8e037358 	lw	v1,29528(s0)
688036e0:	24050001 	li	a1,1
688036e4:	8c62006c 	lw	v0,108(v1)
688036e8:	14400007 	bnez	v0,68803708 <em_delete_menuview+0x3c>
688036ec:	00402021 	move	a0,v0
688036f0:	8fbf0014 	lw	ra,20(sp)
688036f4:	8fb00010 	lw	s0,16(sp)
688036f8:	00a01021 	move	v0,a1
688036fc:	27bd0018 	addiu	sp,sp,24
68803700:	03e00008 	jr	ra
68803704:	ac60006c 	sw	zero,108(v1)
68803708:	0e2012aa 	jal	68804aa8 <menuview_delete>
6880370c:	00000000 	nop
68803710:	00402821 	move	a1,v0
68803714:	8e037358 	lw	v1,29528(s0)
68803718:	8fbf0014 	lw	ra,20(sp)
6880371c:	8fb00010 	lw	s0,16(sp)
68803720:	00a01021 	move	v0,a1
68803724:	27bd0018 	addiu	sp,sp,24
68803728:	03e00008 	jr	ra
6880372c:	ac60006c 	sw	zero,108(v1)

68803730 <_menuview_callback>:
68803730:	03e00008 	jr	ra
68803734:	00000000 	nop

68803738 <_emulator_scene_callback>:
68803738:	27bdffe0 	addiu	sp,sp,-32
6880373c:	afb10014 	sw	s1,20(sp)
68803740:	afb00010 	sw	s0,16(sp)
68803744:	afbf0018 	sw	ra,24(sp)
68803748:	3c116880 	lui	s1,0x6880
6880374c:	8e227358 	lw	v0,29528(s1)
68803750:	24050004 	li	a1,4
68803754:	8c430098 	lw	v1,152(v0)
68803758:	10650069 	beq	v1,a1,68803900 <_emulator_scene_callback+0x1c8>
6880375c:	00808021 	move	s0,a0
68803760:	8c890000 	lw	t1,0(a0)
68803764:	2408000d 	li	t0,13
68803768:	11280048 	beq	t1,t0,6880388c <_emulator_scene_callback+0x154>
6880376c:	3c0c6881 	lui	t4,0x6881
68803770:	0e201324 	jal	68804c90 <canvas_get_focus>
68803774:	02002021 	move	a0,s0
68803778:	8e237358 	lw	v1,29528(s1)
6880377c:	8c640070 	lw	a0,112(v1)
68803780:	14800039 	bnez	a0,68803868 <_emulator_scene_callback+0x130>
68803784:	00402821 	move	a1,v0
68803788:	8c640078 	lw	a0,120(v1)
6880378c:	50800005 	beqzl	a0,688037a4 <_emulator_scene_callback+0x6c>
68803790:	8c640084 	lw	a0,132(v1)
68803794:	8c820014 	lw	v0,20(a0)
68803798:	5045006a 	beql	v0,a1,68803944 <_emulator_scene_callback+0x20c>
6880379c:	02002821 	move	a1,s0
688037a0:	8c640084 	lw	a0,132(v1)
688037a4:	50800005 	beqzl	a0,688037bc <_emulator_scene_callback+0x84>
688037a8:	8c64006c 	lw	a0,108(v1)
688037ac:	8c860010 	lw	a2,16(a0)
688037b0:	50c50069 	beql	a2,a1,68803958 <_emulator_scene_callback+0x220>
688037b4:	02002821 	move	a1,s0
688037b8:	8c64006c 	lw	a0,108(v1)
688037bc:	50800005 	beqzl	a0,688037d4 <_emulator_scene_callback+0x9c>
688037c0:	8c64007c 	lw	a0,124(v1)
688037c4:	8c870004 	lw	a3,4(a0)
688037c8:	50e50068 	beql	a3,a1,6880396c <_emulator_scene_callback+0x234>
688037cc:	02002821 	move	a1,s0
688037d0:	8c64007c 	lw	a0,124(v1)
688037d4:	50800005 	beqzl	a0,688037ec <_emulator_scene_callback+0xb4>
688037d8:	8c640080 	lw	a0,128(v1)
688037dc:	8c880010 	lw	t0,16(a0)
688037e0:	51050067 	beql	t0,a1,68803980 <_emulator_scene_callback+0x248>
688037e4:	02002821 	move	a1,s0
688037e8:	8c640080 	lw	a0,128(v1)
688037ec:	50800005 	beqzl	a0,68803804 <_emulator_scene_callback+0xcc>
688037f0:	8e040000 	lw	a0,0(s0)
688037f4:	8c890000 	lw	t1,0(a0)
688037f8:	11250066 	beq	t1,a1,68803994 <_emulator_scene_callback+0x25c>
688037fc:	02002821 	move	a1,s0
68803800:	8e040000 	lw	a0,0(s0)
68803804:	24050003 	li	a1,3
68803808:	10850038 	beq	a0,a1,688038ec <_emulator_scene_callback+0x1b4>
6880380c:	240a000d 	li	t2,13
68803810:	148a0034 	bne	a0,t2,688038e4 <_emulator_scene_callback+0x1ac>
68803814:	24050001 	li	a1,1
68803818:	8c64009c 	lw	a0,156(v1)
6880381c:	10850033 	beq	a0,a1,688038ec <_emulator_scene_callback+0x1b4>
68803820:	3c0ddfff 	lui	t5,0xdfff
68803824:	8e180008 	lw	t8,8(s0)
68803828:	8f0f0004 	lw	t7,4(t8)
6880382c:	8f0e0000 	lw	t6,0(t8)
68803830:	35abfffc 	ori	t3,t5,0xfffc
68803834:	01cf6025 	or	t4,t6,t7
68803838:	018b1021 	addu	v0,t4,t3
6880383c:	2c50000d 	sltiu	s0,v0,13
68803840:	1200002b 	beqz	s0,688038f0 <_emulator_scene_callback+0x1b8>
68803844:	8fbf0018 	lw	ra,24(sp)
68803848:	0045f804 	sllv	ra,a1,v0
6880384c:	33f91011 	andi	t9,ra,0x1011
68803850:	53200027 	beqzl	t9,688038f0 <_emulator_scene_callback+0x1b8>
68803854:	8fbf0018 	lw	ra,24(sp)
68803858:	0e200d54 	jal	68803550 <_create_volumebar>
6880385c:	00000000 	nop
68803860:	10000023 	b	688038f0 <_emulator_scene_callback+0x1b8>
68803864:	8fbf0018 	lw	ra,24(sp)
68803868:	8c910000 	lw	s1,0(a0)
6880386c:	5622ffc7 	bnel	s1,v0,6880378c <_emulator_scene_callback+0x54>
68803870:	8c640078 	lw	a0,120(v1)
68803874:	02002821 	move	a1,s0
68803878:	8fbf0018 	lw	ra,24(sp)
6880387c:	8fb10014 	lw	s1,20(sp)
68803880:	8fb00010 	lw	s0,16(sp)
68803884:	0a2012c2 	j	68804b08 <adjust_proc_gui>
68803888:	27bd0020 	addiu	sp,sp,32
6880388c:	8d8b8278 	lw	t3,-32136(t4)
68803890:	240a0001 	li	t2,1
68803894:	116affb6 	beq	t3,t2,68803770 <_emulator_scene_callback+0x38>
68803898:	3c0d2000 	lui	t5,0x2000
6880389c:	8c840008 	lw	a0,8(a0)
688038a0:	8c8e0004 	lw	t6,4(a0)
688038a4:	15cdffb2 	bne	t6,t5,68803770 <_emulator_scene_callback+0x38>
688038a8:	00000000 	nop
688038ac:	8c840000 	lw	a0,0(a0)
688038b0:	38830010 	xori	v1,a0,0x10
688038b4:	389f0008 	xori	ra,a0,0x8
688038b8:	2c780001 	sltiu	t8,v1,1
688038bc:	2ff90001 	sltiu	t9,ra,1
688038c0:	03197825 	or	t7,t8,t9
688038c4:	15e00003 	bnez	t7,688038d4 <_emulator_scene_callback+0x19c>
688038c8:	00000000 	nop
688038cc:	1485ffa8 	bne	a0,a1,68803770 <_emulator_scene_callback+0x38>
688038d0:	00000000 	nop
688038d4:	0e200d54 	jal	68803550 <_create_volumebar>
688038d8:	00000000 	nop
688038dc:	1000ffa4 	b	68803770 <_emulator_scene_callback+0x38>
688038e0:	00000000 	nop
688038e4:	0e2017dd 	jal	68805f74 <gui_wm_default_callback>
688038e8:	02002021 	move	a0,s0
688038ec:	8fbf0018 	lw	ra,24(sp)
688038f0:	8fb10014 	lw	s1,20(sp)
688038f4:	8fb00010 	lw	s0,16(sp)
688038f8:	03e00008 	jr	ra
688038fc:	27bd0020 	addiu	sp,sp,32
68803900:	0e201324 	jal	68804c90 <canvas_get_focus>
68803904:	00000000 	nop
68803908:	8e257358 	lw	a1,29528(s1)
6880390c:	8ca40078 	lw	a0,120(a1)
68803910:	54800009 	bnezl	a0,68803938 <_emulator_scene_callback+0x200>
68803914:	8c860014 	lw	a2,20(a0)
68803918:	8e070000 	lw	a3,0(s0)
6880391c:	2404000d 	li	a0,13
68803920:	14e4fff0 	bne	a3,a0,688038e4 <_emulator_scene_callback+0x1ac>
68803924:	00000000 	nop
68803928:	0e2001ce 	jal	68800738 <set_keymap_proc_key>
6880392c:	8e040008 	lw	a0,8(s0)
68803930:	1000ffef 	b	688038f0 <_emulator_scene_callback+0x1b8>
68803934:	8fbf0018 	lw	ra,24(sp)
68803938:	54c2fff8 	bnel	a2,v0,6880391c <_emulator_scene_callback+0x1e4>
6880393c:	8e070000 	lw	a3,0(s0)
68803940:	02002821 	move	a1,s0
68803944:	8fbf0018 	lw	ra,24(sp)
68803948:	8fb10014 	lw	s1,20(sp)
6880394c:	8fb00010 	lw	s0,16(sp)
68803950:	0a20125c 	j	68804970 <dialog_proc_gui>
68803954:	27bd0020 	addiu	sp,sp,32
68803958:	8fbf0018 	lw	ra,24(sp)
6880395c:	8fb10014 	lw	s1,20(sp)
68803960:	8fb00010 	lw	s0,16(sp)
68803964:	0a2012d6 	j	68804b58 <volumebar_proc_gui>
68803968:	27bd0020 	addiu	sp,sp,32
6880396c:	8fbf0018 	lw	ra,24(sp)
68803970:	8fb10014 	lw	s1,20(sp)
68803974:	8fb00010 	lw	s0,16(sp)
68803978:	0a2012b0 	j	68804ac0 <menuview_proc_gui>
6880397c:	27bd0020 	addiu	sp,sp,32
68803980:	8fbf0018 	lw	ra,24(sp)
68803984:	8fb10014 	lw	s1,20(sp)
68803988:	8fb00010 	lw	s0,16(sp)
6880398c:	0a201274 	j	688049d0 <dirlist_proc_gui>
68803990:	27bd0020 	addiu	sp,sp,32
68803994:	8fbf0018 	lw	ra,24(sp)
68803998:	8fb10014 	lw	s1,20(sp)
6880399c:	8fb00010 	lw	s0,16(sp)
688039a0:	0a2012c4 	j	68804b10 <msgbox_proc_gui>
688039a4:	27bd0020 	addiu	sp,sp,32

688039a8 <_scene_emulator_load_resources>:
688039a8:	27bdffe8 	addiu	sp,sp,-24
688039ac:	3c046880 	lui	a0,0x6880
688039b0:	afb00010 	sw	s0,16(sp)
688039b4:	8c907358 	lw	s0,29528(a0)
688039b8:	afbf0014 	sw	ra,20(sp)
688039bc:	3c03d344 	lui	v1,0xd344
688039c0:	8e040000 	lw	a0,0(s0)
688039c4:	0e2012f4 	jal	68804bd0 <get_scene_child>
688039c8:	346592b2 	ori	a1,v1,0x92b2
688039cc:	ae020020 	sw	v0,32(s0)
688039d0:	8e040000 	lw	a0,0(s0)
688039d4:	3c0249fd 	lui	v0,0x49fd
688039d8:	0e2012f4 	jal	68804bd0 <get_scene_child>
688039dc:	3445cac0 	ori	a1,v0,0xcac0
688039e0:	8e040000 	lw	a0,0(s0)
688039e4:	3c0521ae 	lui	a1,0x21ae
688039e8:	ae020024 	sw	v0,36(s0)
688039ec:	0e2012f4 	jal	68804bd0 <get_scene_child>
688039f0:	34a5a382 	ori	a1,a1,0xa382
688039f4:	3c1fa998 	lui	ra,0xa998
688039f8:	8e040000 	lw	a0,0(s0)
688039fc:	37e564b9 	ori	a1,ra,0x64b9
68803a00:	0e2012f4 	jal	68804bd0 <get_scene_child>
68803a04:	ae020028 	sw	v0,40(s0)
68803a08:	3c19d408 	lui	t9,0xd408
68803a0c:	8e040000 	lw	a0,0(s0)
68803a10:	37256f24 	ori	a1,t9,0x6f24
68803a14:	0e2012f4 	jal	68804bd0 <get_scene_child>
68803a18:	ae02002c 	sw	v0,44(s0)
68803a1c:	3c1817ab 	lui	t8,0x17ab
68803a20:	8e040000 	lw	a0,0(s0)
68803a24:	37053bbf 	ori	a1,t8,0x3bbf
68803a28:	0e2012f4 	jal	68804bd0 <get_scene_child>
68803a2c:	ae020030 	sw	v0,48(s0)
68803a30:	3c0f7e6e 	lui	t7,0x7e6e
68803a34:	8e040000 	lw	a0,0(s0)
68803a38:	35e5fa53 	ori	a1,t7,0xfa53
68803a3c:	0e2012f4 	jal	68804bd0 <get_scene_child>
68803a40:	ae020034 	sw	v0,52(s0)
68803a44:	3c0e4232 	lui	t6,0x4232
68803a48:	8e040000 	lw	a0,0(s0)
68803a4c:	35c502f4 	ori	a1,t6,0x2f4
68803a50:	0e2012f4 	jal	68804bd0 <get_scene_child>
68803a54:	ae020050 	sw	v0,80(s0)
68803a58:	3c0d4382 	lui	t5,0x4382
68803a5c:	8e040000 	lw	a0,0(s0)
68803a60:	35a50655 	ori	a1,t5,0x655
68803a64:	0e2012f4 	jal	68804bd0 <get_scene_child>
68803a68:	ae020038 	sw	v0,56(s0)
68803a6c:	3c0cdd82 	lui	t4,0xdd82
68803a70:	8e040000 	lw	a0,0(s0)
68803a74:	3585c305 	ori	a1,t4,0xc305
68803a78:	0e2012f4 	jal	68804bd0 <get_scene_child>
68803a7c:	ae02003c 	sw	v0,60(s0)
68803a80:	3c0b332e 	lui	t3,0x332e
68803a84:	8e040000 	lw	a0,0(s0)
68803a88:	35656ef5 	ori	a1,t3,0x6ef5
68803a8c:	0e2012f4 	jal	68804bd0 <get_scene_child>
68803a90:	ae020040 	sw	v0,64(s0)
68803a94:	3c0a56b1 	lui	t2,0x56b1
68803a98:	8e040000 	lw	a0,0(s0)
68803a9c:	35450284 	ori	a1,t2,0x284
68803aa0:	0e2012f4 	jal	68804bd0 <get_scene_child>
68803aa4:	ae020044 	sw	v0,68(s0)
68803aa8:	3c09c5f6 	lui	t1,0xc5f6
68803aac:	8e040000 	lw	a0,0(s0)
68803ab0:	35251be2 	ori	a1,t1,0x1be2
68803ab4:	0e2012f4 	jal	68804bd0 <get_scene_child>
68803ab8:	ae020048 	sw	v0,72(s0)
68803abc:	3c08ca0c 	lui	t0,0xca0c
68803ac0:	8e040000 	lw	a0,0(s0)
68803ac4:	3505d6a6 	ori	a1,t0,0xd6a6
68803ac8:	0e2012f4 	jal	68804bd0 <get_scene_child>
68803acc:	ae020064 	sw	v0,100(s0)
68803ad0:	3c0753a8 	lui	a3,0x53a8
68803ad4:	8e040000 	lw	a0,0(s0)
68803ad8:	34e5673c 	ori	a1,a3,0x673c
68803adc:	0e2012f4 	jal	68804bd0 <get_scene_child>
68803ae0:	ae020068 	sw	v0,104(s0)
68803ae4:	3c061b6d 	lui	a2,0x1b6d
68803ae8:	8e040000 	lw	a0,0(s0)
68803aec:	34c58cdc 	ori	a1,a2,0x8cdc
68803af0:	0e2012f4 	jal	68804bd0 <get_scene_child>
68803af4:	ae02004c 	sw	v0,76(s0)
68803af8:	3c031132 	lui	v1,0x1132
68803afc:	8e040000 	lw	a0,0(s0)
68803b00:	3465efcf 	ori	a1,v1,0xefcf
68803b04:	0e2012f4 	jal	68804bd0 <get_scene_child>
68803b08:	ae020054 	sw	v0,84(s0)
68803b0c:	ae020058 	sw	v0,88(s0)
68803b10:	8e040000 	lw	a0,0(s0)
68803b14:	3c02cbb1 	lui	v0,0xcbb1
68803b18:	0e2012f4 	jal	68804bd0 <get_scene_child>
68803b1c:	34456669 	ori	a1,v0,0x6669
68803b20:	8e040000 	lw	a0,0(s0)
68803b24:	3c059c62 	lui	a1,0x9c62
68803b28:	ae02005c 	sw	v0,92(s0)
68803b2c:	0e2012f4 	jal	68804bd0 <get_scene_child>
68803b30:	34a5efca 	ori	a1,a1,0xefca
68803b34:	ae020060 	sw	v0,96(s0)
68803b38:	8fbf0014 	lw	ra,20(sp)
68803b3c:	8fb00010 	lw	s0,16(sp)
68803b40:	24020001 	li	v0,1
68803b44:	03e00008 	jr	ra
68803b48:	27bd0018 	addiu	sp,sp,24

68803b4c <_scene_emulator_open_theme>:
68803b4c:	27bdfde0 	addiu	sp,sp,-544
68803b50:	afbf0218 	sw	ra,536(sp)
68803b54:	afb10214 	sw	s1,532(sp)
68803b58:	0e201378 	jal	68804de0 <sty_get_view_rotation>
68803b5c:	afb00210 	sw	s0,528(sp)
68803b60:	00408021 	move	s0,v0
68803b64:	0e20137b 	jal	68804dec <sty_set_screen_rotation>
68803b68:	00402021 	move	a0,v0
68803b6c:	3a0400b4 	xori	a0,s0,0xb4
68803b70:	2c820001 	sltiu	v0,a0,1
68803b74:	2e030001 	sltiu	v1,s0,1
68803b78:	3c055b65 	lui	a1,0x5b65
68803b7c:	00628025 	or	s0,v1,v0
68803b80:	3c116880 	lui	s1,0x6880
68803b84:	1200001a 	beqz	s0,68803bf0 <_scene_emulator_open_theme+0xa4>
68803b88:	34a592b2 	ori	a1,a1,0x92b2
68803b8c:	3c086881 	lui	t0,0x6881
68803b90:	8d048270 	lw	a0,-32144(t0)
68803b94:	0e2012ec 	jal	68804bb0 <load_scene>
68803b98:	8e307358 	lw	s0,29528(s1)
68803b9c:	3c076881 	lui	a3,0x6881
68803ba0:	3c0648aa 	lui	a2,0x48aa
68803ba4:	8ce48274 	lw	a0,-32140(a3)
68803ba8:	ae020004 	sw	v0,4(s0)
68803bac:	34c50402 	ori	a1,a2,0x402
68803bb0:	0e2012ec 	jal	68804bb0 <load_scene>
68803bb4:	8e307358 	lw	s0,29528(s1)
68803bb8:	ae020000 	sw	v0,0(s0)
68803bbc:	8e227358 	lw	v0,29528(s1)
68803bc0:	8c440004 	lw	a0,4(v0)
68803bc4:	10800004 	beqz	a0,68803bd8 <_scene_emulator_open_theme+0x8c>
68803bc8:	00001821 	move	v1,zero
68803bcc:	8c4d0000 	lw	t5,0(v0)
68803bd0:	15a00013 	bnez	t5,68803c20 <_scene_emulator_open_theme+0xd4>
68803bd4:	00000000 	nop
68803bd8:	8fbf0218 	lw	ra,536(sp)
68803bdc:	8fb10214 	lw	s1,532(sp)
68803be0:	8fb00210 	lw	s0,528(sp)
68803be4:	00601021 	move	v0,v1
68803be8:	03e00008 	jr	ra
68803bec:	27bd0220 	addiu	sp,sp,544
68803bf0:	3c0c6881 	lui	t4,0x6881
68803bf4:	8d848270 	lw	a0,-32144(t4)
68803bf8:	3c0b220f 	lui	t3,0x220f
68803bfc:	3565bd5a 	ori	a1,t3,0xbd5a
68803c00:	0e2012ec 	jal	68804bb0 <load_scene>
68803c04:	8e307358 	lw	s0,29528(s1)
68803c08:	3c0a6881 	lui	t2,0x6881
68803c0c:	3c093539 	lui	t1,0x3539
68803c10:	8d448274 	lw	a0,-32140(t2)
68803c14:	3525faea 	ori	a1,t1,0xfaea
68803c18:	1000ffe5 	b	68803bb0 <_scene_emulator_open_theme+0x64>
68803c1c:	ae020004 	sw	v0,4(s0)
68803c20:	0e201369 	jal	68804da4 <sty_set_common_scene>
68803c24:	00000000 	nop
68803c28:	3c186880 	lui	t8,0x6880
68803c2c:	8f117358 	lw	s1,29528(t8)
68803c30:	0e201363 	jal	68804d8c <sty_set_app_scene>
68803c34:	8e240000 	lw	a0,0(s1)
68803c38:	0e20131b 	jal	68804c6c <sys_get_common_theme_res_dir>
68803c3c:	00000000 	nop
68803c40:	3c0f6880 	lui	t7,0x6880
68803c44:	25f069fc 	addiu	s0,t7,27132
68803c48:	3c0e6880 	lui	t6,0x6880
68803c4c:	00403021 	move	a2,v0
68803c50:	25c765dc 	addiu	a3,t6,26076
68803c54:	02002821 	move	a1,s0
68803c58:	0e2014e5 	jal	68805394 <sprintf>
68803c5c:	27a40010 	addiu	a0,sp,16
68803c60:	0e20134b 	jal	68804d2c <sty_open_common_pic_res>
68803c64:	27a40010 	addiu	a0,sp,16
68803c68:	1040ffdb 	beqz	v0,68803bd8 <_scene_emulator_open_theme+0x8c>
68803c6c:	00001821 	move	v1,zero
68803c70:	0e20137e 	jal	68804df8 <sys_get_app_theme_res_dir>
68803c74:	00000000 	nop
68803c78:	3c196880 	lui	t9,0x6880
68803c7c:	00403021 	move	a2,v0
68803c80:	02002821 	move	a1,s0
68803c84:	27a40010 	addiu	a0,sp,16
68803c88:	0e2014e5 	jal	68805394 <sprintf>
68803c8c:	272765e8 	addiu	a3,t9,26088
68803c90:	0e201357 	jal	68804d5c <sty_open_app_pic_res>
68803c94:	27a40010 	addiu	a0,sp,16
68803c98:	1000ffcf 	b	68803bd8 <_scene_emulator_open_theme+0x8c>
68803c9c:	0002182b 	sltu	v1,zero,v0

68803ca0 <_scene_emulator_close_theme>:
68803ca0:	27bdffe8 	addiu	sp,sp,-24
68803ca4:	afbf0014 	sw	ra,20(sp)
68803ca8:	afb00010 	sw	s0,16(sp)
68803cac:	3c106880 	lui	s0,0x6880
68803cb0:	8e057358 	lw	a1,29528(s0)
68803cb4:	0e2012f0 	jal	68804bc0 <free_scene>
68803cb8:	8ca40000 	lw	a0,0(a1)
68803cbc:	8e037358 	lw	v1,29528(s0)
68803cc0:	8c640004 	lw	a0,4(v1)
68803cc4:	0e2012f0 	jal	68804bc0 <free_scene>
68803cc8:	ac600000 	sw	zero,0(v1)
68803ccc:	8e027358 	lw	v0,29528(s0)
68803cd0:	0e201351 	jal	68804d44 <sty_close_common_pic_res>
68803cd4:	ac400004 	sw	zero,4(v0)
68803cd8:	14400006 	bnez	v0,68803cf4 <_scene_emulator_close_theme+0x54>
68803cdc:	00001821 	move	v1,zero
68803ce0:	8fbf0014 	lw	ra,20(sp)
68803ce4:	8fb00010 	lw	s0,16(sp)
68803ce8:	00601021 	move	v0,v1
68803cec:	03e00008 	jr	ra
68803cf0:	27bd0018 	addiu	sp,sp,24
68803cf4:	0e20135d 	jal	68804d74 <sty_close_app_pic_res>
68803cf8:	00000000 	nop
68803cfc:	0002182b 	sltu	v1,zero,v0
68803d00:	8fbf0014 	lw	ra,20(sp)
68803d04:	8fb00010 	lw	s0,16(sp)
68803d08:	00601021 	move	v0,v1
68803d0c:	03e00008 	jr	ra
68803d10:	27bd0018 	addiu	sp,sp,24

68803d14 <emulator_scene_quit>:
68803d14:	27bdffe8 	addiu	sp,sp,-24
68803d18:	afbf0010 	sw	ra,16(sp)
68803d1c:	0e200a2f 	jal	688028bc <msg_key_server_enable>
68803d20:	24040001 	li	a0,1
68803d24:	0e201348 	jal	68804d20 <exit_msg_loop>
68803d28:	00000000 	nop
68803d2c:	3c026880 	lui	v0,0x6880
68803d30:	8c437358 	lw	v1,29528(v0)
68803d34:	8fbf0010 	lw	ra,16(sp)
68803d38:	27bd0018 	addiu	sp,sp,24
68803d3c:	03e00008 	jr	ra
68803d40:	ac600018 	sw	zero,24(v1)

68803d44 <_proc_sys_msg>:
68803d44:	27bdfbd0 	addiu	sp,sp,-1072
68803d48:	afb10424 	sw	s1,1060(sp)
68803d4c:	afbf042c 	sw	ra,1068(sp)
68803d50:	afb20428 	sw	s2,1064(sp)
68803d54:	afb00420 	sw	s0,1056(sp)
68803d58:	8c830000 	lw	v1,0(a0)
68803d5c:	240207da 	li	v0,2010
68803d60:	1062003d 	beq	v1,v0,68803e58 <_proc_sys_msg+0x114>
68803d64:	00808821 	move	s1,a0
68803d68:	2c6407db 	sltiu	a0,v1,2011
68803d6c:	14800013 	bnez	a0,68803dbc <_proc_sys_msg+0x78>
68803d70:	240503e9 	li	a1,1001
68803d74:	24060fb1 	li	a2,4017
68803d78:	10660042 	beq	v1,a2,68803e84 <_proc_sys_msg+0x140>
68803d7c:	3c0e6881 	lui	t6,0x6881
68803d80:	3c106880 	lui	s0,0x6880
68803d84:	8e027358 	lw	v0,29528(s0)
68803d88:	8c44007c 	lw	a0,124(v0)
68803d8c:	1480002e 	bnez	a0,68803e48 <_proc_sys_msg+0x104>
68803d90:	00000000 	nop
68803d94:	8c580080 	lw	t8,128(v0)
68803d98:	5700001c 	bnezl	t8,68803e0c <_proc_sys_msg+0xc8>
68803d9c:	8e220000 	lw	v0,0(s1)
68803da0:	8fbf042c 	lw	ra,1068(sp)
68803da4:	8fb20428 	lw	s2,1064(sp)
68803da8:	8fb10424 	lw	s1,1060(sp)
68803dac:	8fb00420 	lw	s0,1056(sp)
68803db0:	00001021 	move	v0,zero
68803db4:	03e00008 	jr	ra
68803db8:	27bd0430 	addiu	sp,sp,1072
68803dbc:	1465fff1 	bne	v1,a1,68803d84 <_proc_sys_msg+0x40>
68803dc0:	3c106880 	lui	s0,0x6880
68803dc4:	8e097358 	lw	t1,29528(s0)
68803dc8:	24070001 	li	a3,1
68803dcc:	8d28009c 	lw	t0,156(t1)
68803dd0:	11070087 	beq	t0,a3,68803ff0 <_proc_sys_msg+0x2ac>
68803dd4:	00000000 	nop
68803dd8:	0e200a2f 	jal	688028bc <msg_key_server_enable>
68803ddc:	24040001 	li	a0,1
68803de0:	0e201348 	jal	68804d20 <exit_msg_loop>
68803de4:	00000000 	nop
68803de8:	8e0b7358 	lw	t3,29528(s0)
68803dec:	8fbf042c 	lw	ra,1068(sp)
68803df0:	8fb20428 	lw	s2,1064(sp)
68803df4:	8fb10424 	lw	s1,1060(sp)
68803df8:	8fb00420 	lw	s0,1056(sp)
68803dfc:	00001021 	move	v0,zero
68803e00:	27bd0430 	addiu	sp,sp,1072
68803e04:	03e00008 	jr	ra
68803e08:	ad600018 	sw	zero,24(t3)
68803e0c:	3c1f6880 	lui	ra,0x6880
68803e10:	afe27360 	sw	v0,29536(ra)
68803e14:	0e200a2f 	jal	688028bc <msg_key_server_enable>
68803e18:	24040001 	li	a0,1
68803e1c:	8e197358 	lw	t9,29528(s0)
68803e20:	02202821 	move	a1,s1
68803e24:	0e2012c7 	jal	68804b1c <msgbox_proc_sys>
68803e28:	8f240080 	lw	a0,128(t9)
68803e2c:	8fbf042c 	lw	ra,1068(sp)
68803e30:	8fb20428 	lw	s2,1064(sp)
68803e34:	8fb10424 	lw	s1,1060(sp)
68803e38:	8fb00420 	lw	s0,1056(sp)
68803e3c:	00001021 	move	v0,zero
68803e40:	03e00008 	jr	ra
68803e44:	27bd0430 	addiu	sp,sp,1072
68803e48:	0e201277 	jal	688049dc <dirlist_proc_sys>
68803e4c:	02202821 	move	a1,s1
68803e50:	1000ffd0 	b	68803d94 <_proc_sys_msg+0x50>
68803e54:	8e027358 	lw	v0,29528(s0)
68803e58:	27a40010 	addiu	a0,sp,16
68803e5c:	24030001 	li	v1,1
68803e60:	0e201339 	jal	68804ce4 <reply_sync_msg>
68803e64:	afa30010 	sw	v1,16(sp)
68803e68:	8fbf042c 	lw	ra,1068(sp)
68803e6c:	8fb20428 	lw	s2,1064(sp)
68803e70:	8fb10424 	lw	s1,1060(sp)
68803e74:	8fb00420 	lw	s0,1056(sp)
68803e78:	00001021 	move	v0,zero
68803e7c:	03e00008 	jr	ra
68803e80:	27bd0430 	addiu	sp,sp,1072
68803e84:	8dcd8278 	lw	t5,-32136(t6)
68803e88:	240c0001 	li	t4,1
68803e8c:	afa00418 	sw	zero,1048(sp)
68803e90:	11acffc3 	beq	t5,t4,68803da0 <_proc_sys_msg+0x5c>
68803e94:	afa0041c 	sw	zero,1052(sp)
68803e98:	27b20418 	addiu	s2,sp,1048
68803e9c:	02403021 	move	a2,s2
68803ea0:	00002821 	move	a1,zero
68803ea4:	0e201304 	jal	68804c10 <fusion_get_config>
68803ea8:	24040004 	li	a0,4
68803eac:	0e201307 	jal	68804c1c <fusion_set_effect>
68803eb0:	02402021 	move	a0,s2
68803eb4:	3c126880 	lui	s2,0x6880
68803eb8:	0e2012fb 	jal	68804bec <fusion_set_first_frame>
68803ebc:	00002021 	move	a0,zero
68803ec0:	0e200f28 	jal	68803ca0 <_scene_emulator_close_theme>
68803ec4:	00000000 	nop
68803ec8:	0e200ed3 	jal	68803b4c <_scene_emulator_open_theme>
68803ecc:	00000000 	nop
68803ed0:	0e200e6a 	jal	688039a8 <_scene_emulator_load_resources>
68803ed4:	00000000 	nop
68803ed8:	8e457358 	lw	a1,29528(s2)
68803edc:	8ca20000 	lw	v0,0(a1)
68803ee0:	8ca40010 	lw	a0,16(a1)
68803ee4:	80590007 	lb	t9,7(v0)
68803ee8:	805f0005 	lb	ra,5(v0)
68803eec:	90500006 	lbu	s0,6(v0)
68803ef0:	90580004 	lbu	t8,4(v0)
68803ef4:	001f8a00 	sll	s1,ra,0x8
68803ef8:	00197a00 	sll	t7,t9,0x8
68803efc:	01f03025 	or	a2,t7,s0
68803f00:	0e2017e9 	jal	68805fa4 <gui_wm_set_size>
68803f04:	02382825 	or	a1,s1,t8
68803f08:	8e507358 	lw	s0,29528(s2)
68803f0c:	8e040088 	lw	a0,136(s0)
68803f10:	14800032 	bnez	a0,68803fdc <_proc_sys_msg+0x298>
68803f14:	00000000 	nop
68803f18:	3c066880 	lui	a2,0x6880
68803f1c:	0e20132a 	jal	68804ca8 <get_user_bg_pic>
68803f20:	24c46a08 	addiu	a0,a2,27144
68803f24:	8e517358 	lw	s1,29528(s2)
68803f28:	ae020088 	sw	v0,136(s0)
68803f2c:	8e240088 	lw	a0,136(s1)
68803f30:	1480000c 	bnez	a0,68803f64 <_proc_sys_msg+0x220>
68803f34:	00000000 	nop
68803f38:	8e2a0020 	lw	t2,32(s1)
68803f3c:	91490013 	lbu	t1,19(t2)
68803f40:	91480012 	lbu	t0,18(t2)
68803f44:	00093a00 	sll	a3,t1,0x8
68803f48:	0e201372 	jal	68804dc8 <sty_create_bitmap>
68803f4c:	00e82025 	or	a0,a3,t0
68803f50:	ae220088 	sw	v0,136(s1)
68803f54:	8e517358 	lw	s1,29528(s2)
68803f58:	8e230088 	lw	v1,136(s1)
68803f5c:	1060ff91 	beqz	v1,68803da4 <_proc_sys_msg+0x60>
68803f60:	8fbf042c 	lw	ra,1068(sp)
68803f64:	0e200cd2 	jal	68803348 <_emulator_scene_init_paint>
68803f68:	02202021 	move	a0,s1
68803f6c:	8e447358 	lw	a0,29528(s2)
68803f70:	8c820074 	lw	v0,116(a0)
68803f74:	1440004f 	bnez	v0,688040b4 <_proc_sys_msg+0x370>
68803f78:	00000000 	nop
68803f7c:	8c820084 	lw	v0,132(a0)
68803f80:	14400045 	bnez	v0,68804098 <_proc_sys_msg+0x354>
68803f84:	00000000 	nop
68803f88:	8c82007c 	lw	v0,124(a0)
68803f8c:	1440003b 	bnez	v0,6880407c <_proc_sys_msg+0x338>
68803f90:	00000000 	nop
68803f94:	8c820070 	lw	v0,112(a0)
68803f98:	14400031 	bnez	v0,68804060 <_proc_sys_msg+0x31c>
68803f9c:	00000000 	nop
68803fa0:	8c820078 	lw	v0,120(a0)
68803fa4:	14400027 	bnez	v0,68804044 <_proc_sys_msg+0x300>
68803fa8:	00000000 	nop
68803fac:	8c82006c 	lw	v0,108(a0)
68803fb0:	5440001d 	bnezl	v0,68804028 <_proc_sys_msg+0x2e4>
68803fb4:	00402021 	move	a0,v0
68803fb8:	8c840080 	lw	a0,128(a0)
68803fbc:	14800013 	bnez	a0,6880400c <_proc_sys_msg+0x2c8>
68803fc0:	00000000 	nop
68803fc4:	0e2012fe 	jal	68804bf8 <fusion_set_last_frame>
68803fc8:	00002021 	move	a0,zero
68803fcc:	0e201301 	jal	68804c04 <fusion_display>
68803fd0:	00002021 	move	a0,zero
68803fd4:	1000ff73 	b	68803da4 <_proc_sys_msg+0x60>
68803fd8:	8fbf042c 	lw	ra,1068(sp)
68803fdc:	0e201375 	jal	68804dd4 <sty_delete_bitmap>
68803fe0:	00000000 	nop
68803fe4:	8e507358 	lw	s0,29528(s2)
68803fe8:	1000ffcb 	b	68803f18 <_proc_sys_msg+0x1d4>
68803fec:	ae000088 	sw	zero,136(s0)
68803ff0:	0e200b72 	jal	68802dc8 <emu_exit>
68803ff4:	00000000 	nop
68803ff8:	3c0a0003 	lui	t2,0x3
68803ffc:	0e2014df 	jal	6880537c <usleep>
68804000:	35440d40 	ori	a0,t2,0xd40
68804004:	1000ff74 	b	68803dd8 <_proc_sys_msg+0x94>
68804008:	00000000 	nop
6880400c:	0e2012d3 	jal	68804b4c <msgbox_load_style>
68804010:	00000000 	nop
68804014:	8e517358 	lw	s1,29528(s2)
68804018:	0e2012cd 	jal	68804b34 <msgbox_paint>
6880401c:	8e240080 	lw	a0,128(s1)
68804020:	1000ffe8 	b	68803fc4 <_proc_sys_msg+0x280>
68804024:	00000000 	nop
68804028:	0e2012b3 	jal	68804acc <menuview_load_style>
6880402c:	24050002 	li	a1,2
68804030:	8e507358 	lw	s0,29528(s2)
68804034:	0e2012ad 	jal	68804ab4 <menuview_paint>
68804038:	8e04006c 	lw	a0,108(s0)
6880403c:	1000ffde 	b	68803fb8 <_proc_sys_msg+0x274>
68804040:	8e447358 	lw	a0,29528(s2)
68804044:	0e2012e5 	jal	68804b94 <dialog_load_style>
68804048:	00402021 	move	a0,v0
6880404c:	8e4f7358 	lw	t7,29528(s2)
68804050:	0e201259 	jal	68804964 <dialog_paint>
68804054:	8de40078 	lw	a0,120(t7)
68804058:	1000ffd4 	b	68803fac <_proc_sys_msg+0x268>
6880405c:	8e447358 	lw	a0,29528(s2)
68804060:	0e201283 	jal	68804a0c <adjust_load_style>
68804064:	00402021 	move	a0,v0
68804068:	8e4e7358 	lw	t6,29528(s2)
6880406c:	0e201295 	jal	68804a54 <adjust_paint>
68804070:	8dc40070 	lw	a0,112(t6)
68804074:	1000ffca 	b	68803fa0 <_proc_sys_msg+0x25c>
68804078:	8e447358 	lw	a0,29528(s2)
6880407c:	0e20127a 	jal	688049e8 <dirlist_load_style>
68804080:	00402021 	move	a0,v0
68804084:	8e4d7358 	lw	t5,29528(s2)
68804088:	0e201271 	jal	688049c4 <dirlist_paint>
6880408c:	8da4007c 	lw	a0,124(t5)
68804090:	1000ffc0 	b	68803f94 <_proc_sys_msg+0x250>
68804094:	8e447358 	lw	a0,29528(s2)
68804098:	0e2012e2 	jal	68804b88 <volumebar_load_style>
6880409c:	00402021 	move	a0,v0
688040a0:	8e4c7358 	lw	t4,29528(s2)
688040a4:	0e2012df 	jal	68804b7c <volumebar_paint>
688040a8:	8d840084 	lw	a0,132(t4)
688040ac:	1000ffb6 	b	68803f88 <_proc_sys_msg+0x244>
688040b0:	8e447358 	lw	a0,29528(s2)
688040b4:	0e201289 	jal	68804a24 <headbar_load_style>
688040b8:	00402021 	move	a0,v0
688040bc:	8e4b7358 	lw	t3,29528(s2)
688040c0:	0e20128c 	jal	68804a30 <headbar_paint>
688040c4:	8d640074 	lw	a0,116(t3)
688040c8:	1000ffac 	b	68803f7c <_proc_sys_msg+0x238>
688040cc:	8e447358 	lw	a0,29528(s2)

688040d0 <scene_fusion_set_first_frame>:
688040d0:	27bdffd8 	addiu	sp,sp,-40
688040d4:	afbf0020 	sw	ra,32(sp)
688040d8:	80990001 	lb	t9,1(a0)
688040dc:	80980003 	lb	t8,3(a0)
688040e0:	808f0005 	lb	t7,5(a0)
688040e4:	808e0007 	lb	t6,7(a0)
688040e8:	90870000 	lbu	a3,0(a0)
688040ec:	90880002 	lbu	t0,2(a0)
688040f0:	90890004 	lbu	t1,4(a0)
688040f4:	908a0006 	lbu	t2,6(a0)
688040f8:	00196a00 	sll	t5,t9,0x8
688040fc:	000e2200 	sll	a0,t6,0x8
68804100:	00186200 	sll	t4,t8,0x8
68804104:	000f5a00 	sll	t3,t7,0x8
68804108:	008a3025 	or	a2,a0,t2
6880410c:	01a71025 	or	v0,t5,a3
68804110:	01881825 	or	v1,t4,t0
68804114:	01692825 	or	a1,t3,t1
68804118:	27a40010 	addiu	a0,sp,16
6880411c:	a7a20010 	sh	v0,16(sp)
68804120:	a7a30012 	sh	v1,18(sp)
68804124:	a7a50014 	sh	a1,20(sp)
68804128:	a7a60016 	sh	a2,22(sp)
6880412c:	afa00018 	sw	zero,24(sp)
68804130:	0e2012fb 	jal	68804bec <fusion_set_first_frame>
68804134:	afa0001c 	sw	zero,28(sp)
68804138:	8fbf0020 	lw	ra,32(sp)
6880413c:	03e00008 	jr	ra
68804140:	27bd0028 	addiu	sp,sp,40

68804144 <scene_fusion_set_last_frame>:
68804144:	27bdffd8 	addiu	sp,sp,-40
68804148:	afbf0020 	sw	ra,32(sp)
6880414c:	80990001 	lb	t9,1(a0)
68804150:	80980003 	lb	t8,3(a0)
68804154:	808f0005 	lb	t7,5(a0)
68804158:	808e0007 	lb	t6,7(a0)
6880415c:	90870000 	lbu	a3,0(a0)
68804160:	90880002 	lbu	t0,2(a0)
68804164:	90890004 	lbu	t1,4(a0)
68804168:	908a0006 	lbu	t2,6(a0)
6880416c:	00196a00 	sll	t5,t9,0x8
68804170:	000e2200 	sll	a0,t6,0x8
68804174:	00186200 	sll	t4,t8,0x8
68804178:	000f5a00 	sll	t3,t7,0x8
6880417c:	008a3025 	or	a2,a0,t2
68804180:	01a71025 	or	v0,t5,a3
68804184:	01881825 	or	v1,t4,t0
68804188:	01692825 	or	a1,t3,t1
6880418c:	27a40010 	addiu	a0,sp,16
68804190:	a7a20010 	sh	v0,16(sp)
68804194:	a7a30012 	sh	v1,18(sp)
68804198:	a7a50014 	sh	a1,20(sp)
6880419c:	a7a60016 	sh	a2,22(sp)
688041a0:	afa00018 	sw	zero,24(sp)
688041a4:	0e2012fe 	jal	68804bf8 <fusion_set_last_frame>
688041a8:	afa0001c 	sw	zero,28(sp)
688041ac:	8fbf0020 	lw	ra,32(sp)
688041b0:	03e00008 	jr	ra
688041b4:	27bd0028 	addiu	sp,sp,40

688041b8 <emulator_scene>:
688041b8:	27bdf9a8 	addiu	sp,sp,-1624
688041bc:	afb30644 	sw	s3,1604(sp)
688041c0:	afb20640 	sw	s2,1600(sp)
688041c4:	afbf0650 	sw	ra,1616(sp)
688041c8:	afb5064c 	sw	s5,1612(sp)
688041cc:	afb40648 	sw	s4,1608(sp)
688041d0:	afb1063c 	sw	s1,1596(sp)
688041d4:	afb00638 	sw	s0,1592(sp)
688041d8:	3c126880 	lui	s2,0x6880
688041dc:	8e427358 	lw	v0,29528(s2)
688041e0:	10400064 	beqz	v0,68804374 <emulator_scene+0x1bc>
688041e4:	00409821 	move	s3,v0
688041e8:	0e200ed3 	jal	68803b4c <_scene_emulator_open_theme>
688041ec:	00000000 	nop
688041f0:	14400075 	bnez	v0,688043c8 <emulator_scene+0x210>
688041f4:	00000000 	nop
688041f8:	8e447358 	lw	a0,29528(s2)
688041fc:	24090001 	li	t1,1
68804200:	8c8a009c 	lw	t2,156(a0)
68804204:	114900bd 	beq	t2,t1,688044fc <emulator_scene+0x344>
68804208:	3c116880 	lui	s1,0x6880
6880420c:	8c840088 	lw	a0,136(a0)
68804210:	14800068 	bnez	a0,688043b4 <emulator_scene+0x1fc>
68804214:	00000000 	nop
68804218:	0e200d0b 	jal	6880342c <em_delete_headbar>
6880421c:	00000000 	nop
68804220:	0e200d78 	jal	688035e0 <_delete_volumebar>
68804224:	0002802b 	sltu	s0,zero,v0
68804228:	8e2c7358 	lw	t4,29528(s1)
6880422c:	8d840080 	lw	a0,128(t4)
68804230:	1480005a 	bnez	a0,6880439c <emulator_scene+0x1e4>
68804234:	0002800a 	movz	s0,zero,v0
68804238:	0e200f28 	jal	68803ca0 <_scene_emulator_close_theme>
6880423c:	00000000 	nop
68804240:	0e201354 	jal	68804d50 <sty_close_common_str_res>
68804244:	0002800a 	movz	s0,zero,v0
68804248:	14400025 	bnez	v0,688042e0 <emulator_scene+0x128>
6880424c:	00000000 	nop
68804250:	0e200db3 	jal	688036cc <em_delete_menuview>
68804254:	00008021 	move	s0,zero
68804258:	8e517358 	lw	s1,29528(s2)
6880425c:	8e24007c 	lw	a0,124(s1)
68804260:	0e200054 	jal	68800150 <em_dirlist_exit>
68804264:	0002800a 	movz	s0,zero,v0
68804268:	8e587358 	lw	t8,29528(s2)
6880426c:	3c116880 	lui	s1,0x6880
68804270:	0e2017e6 	jal	68805f98 <gui_wm_delete_window>
68804274:	8f040010 	lw	a0,16(t8)
68804278:	8e2e7358 	lw	t6,29528(s1)
6880427c:	284f0000 	slti	t7,v0,0
68804280:	8dc4001c 	lw	a0,28(t6)
68804284:	000f800b 	movn	s0,zero,t7
68804288:	18800029 	blez	a0,68804330 <emulator_scene+0x178>
6880428c:	adc00010 	sw	zero,16(t6)
68804290:	0e2017d7 	jal	68805f5c <gui_destroy_font>
68804294:	00000000 	nop
68804298:	8e397358 	lw	t9,29528(s1)
6880429c:	8e447358 	lw	a0,29528(s2)
688042a0:	0e20180b 	jal	6880602c <free>
688042a4:	af20001c 	sw	zero,28(t9)
688042a8:	0e20130f 	jal	68804c3c <sys_set_key_tone_enable>
688042ac:	24040001 	li	a0,1
688042b0:	2a120000 	slti	s2,s0,0
688042b4:	2402ffff 	li	v0,-1
688042b8:	0012100a 	movz	v0,zero,s2
688042bc:	8fbf0650 	lw	ra,1616(sp)
688042c0:	8fb5064c 	lw	s5,1612(sp)
688042c4:	8fb40648 	lw	s4,1608(sp)
688042c8:	8fb30644 	lw	s3,1604(sp)
688042cc:	8fb20640 	lw	s2,1600(sp)
688042d0:	8fb1063c 	lw	s1,1596(sp)
688042d4:	8fb00638 	lw	s0,1592(sp)
688042d8:	03e00008 	jr	ra
688042dc:	27bd0658 	addiu	sp,sp,1624
688042e0:	0e201360 	jal	68804d80 <sty_close_app_str_res>
688042e4:	00000000 	nop
688042e8:	1040ffd9 	beqz	v0,68804250 <emulator_scene+0x98>
688042ec:	00000000 	nop
688042f0:	0e200db3 	jal	688036cc <em_delete_menuview>
688042f4:	00000000 	nop
688042f8:	8e517358 	lw	s1,29528(s2)
688042fc:	0002800a 	movz	s0,zero,v0
68804300:	8e24007c 	lw	a0,124(s1)
68804304:	0e200054 	jal	68800150 <em_dirlist_exit>
68804308:	3c116880 	lui	s1,0x6880
6880430c:	8e587358 	lw	t8,29528(s2)
68804310:	0e2017e6 	jal	68805f98 <gui_wm_delete_window>
68804314:	8f040010 	lw	a0,16(t8)
68804318:	8e2e7358 	lw	t6,29528(s1)
6880431c:	284f0000 	slti	t7,v0,0
68804320:	8dc4001c 	lw	a0,28(t6)
68804324:	000f800b 	movn	s0,zero,t7
68804328:	1c80ffd9 	bgtz	a0,68804290 <emulator_scene+0xd8>
6880432c:	adc00010 	sw	zero,16(t6)
68804330:	8e447358 	lw	a0,29528(s2)
68804334:	0e20180b 	jal	6880602c <free>
68804338:	00008021 	move	s0,zero
6880433c:	0e20130f 	jal	68804c3c <sys_set_key_tone_enable>
68804340:	24040001 	li	a0,1
68804344:	2a120000 	slti	s2,s0,0
68804348:	2402ffff 	li	v0,-1
6880434c:	0012100a 	movz	v0,zero,s2
68804350:	8fbf0650 	lw	ra,1616(sp)
68804354:	8fb5064c 	lw	s5,1612(sp)
68804358:	8fb40648 	lw	s4,1608(sp)
6880435c:	8fb30644 	lw	s3,1604(sp)
68804360:	8fb20640 	lw	s2,1600(sp)
68804364:	8fb1063c 	lw	s1,1596(sp)
68804368:	8fb00638 	lw	s0,1592(sp)
6880436c:	03e00008 	jr	ra
68804370:	27bd0658 	addiu	sp,sp,1624
68804374:	0e201808 	jal	68806020 <malloc>
68804378:	240400a0 	li	a0,160
6880437c:	1040ff9e 	beqz	v0,688041f8 <emulator_scene+0x40>
68804380:	ae427358 	sw	v0,29528(s2)
68804384:	00402021 	move	a0,v0
68804388:	00002821 	move	a1,zero
6880438c:	0e201782 	jal	68805e08 <memset>
68804390:	240600a0 	li	a2,160
68804394:	1000ff94 	b	688041e8 <emulator_scene+0x30>
68804398:	8e537358 	lw	s3,29528(s2)
6880439c:	0e2012d0 	jal	68804b40 <msgbox_delete>
688043a0:	00000000 	nop
688043a4:	8e2d7358 	lw	t5,29528(s1)
688043a8:	0002800a 	movz	s0,zero,v0
688043ac:	1000ffa2 	b	68804238 <emulator_scene+0x80>
688043b0:	ada00080 	sw	zero,128(t5)
688043b4:	0e201375 	jal	68804dd4 <sty_delete_bitmap>
688043b8:	00000000 	nop
688043bc:	8e2b7358 	lw	t3,29528(s1)
688043c0:	1000ff95 	b	68804218 <emulator_scene+0x60>
688043c4:	ad600088 	sw	zero,136(t3)
688043c8:	0e20131e 	jal	68804c78 <sys_get_common_string_res_dir>
688043cc:	00000000 	nop
688043d0:	0e201384 	jal	68804e10 <sys_get_cur_language_codes>
688043d4:	00408021 	move	s0,v0
688043d8:	3c036880 	lui	v1,0x6880
688043dc:	24746a18 	addiu	s4,v1,27160
688043e0:	27b10438 	addiu	s1,sp,1080
688043e4:	3c076880 	lui	a3,0x6880
688043e8:	02202021 	move	a0,s1
688043ec:	02003021 	move	a2,s0
688043f0:	24e765dc 	addiu	a3,a3,26076
688043f4:	02802821 	move	a1,s4
688043f8:	0e2014e5 	jal	68805394 <sprintf>
688043fc:	afa20010 	sw	v0,16(sp)
68804400:	0e20134e 	jal	68804d38 <sty_open_common_str_res>
68804404:	02202021 	move	a0,s1
68804408:	5040ff7c 	beqzl	v0,688041fc <emulator_scene+0x44>
6880440c:	8e447358 	lw	a0,29528(s2)
68804410:	0e201381 	jal	68804e04 <sys_get_app_string_res_dir>
68804414:	00000000 	nop
68804418:	0e201384 	jal	68804e10 <sys_get_cur_language_codes>
6880441c:	0040a821 	move	s5,v0
68804420:	3c046880 	lui	a0,0x6880
68804424:	248765e8 	addiu	a3,a0,26088
68804428:	02802821 	move	a1,s4
6880442c:	02202021 	move	a0,s1
68804430:	02a03021 	move	a2,s5
68804434:	0e2014e5 	jal	68805394 <sprintf>
68804438:	afa20010 	sw	v0,16(sp)
6880443c:	0e20135a 	jal	68804d68 <sty_open_app_str_res>
68804440:	02202021 	move	a0,s1
68804444:	1040ff6d 	beqz	v0,688041fc <emulator_scene+0x44>
68804448:	8e447358 	lw	a0,29528(s2)
6880444c:	0e20136c 	jal	68804db0 <sty_set_text_encoding>
68804450:	24040001 	li	a0,1
68804454:	0e201387 	jal	68804e1c <sys_get_cur_language_id>
68804458:	3c146880 	lui	s4,0x6880
6880445c:	0e2017d1 	jal	68805f44 <gui_set_language_mode>
68804460:	00402021 	move	a0,v0
68804464:	8e507358 	lw	s0,29528(s2)
68804468:	8e05001c 	lw	a1,28(s0)
6880446c:	1ca0ff63 	bgtz	a1,688041fc <emulator_scene+0x44>
68804470:	8e447358 	lw	a0,29528(s2)
68804474:	0e20138a 	jal	68804e28 <sys_get_default_font_file>
68804478:	00000000 	nop
6880447c:	00402021 	move	a0,v0
68804480:	0e2017d4 	jal	68805f50 <gui_create_font>
68804484:	24050010 	li	a1,16
68804488:	8e867358 	lw	a2,29528(s4)
6880448c:	ae02001c 	sw	v0,28(s0)
68804490:	8cc4001c 	lw	a0,28(a2)
68804494:	0482ff59 	bltzl	a0,688041fc <emulator_scene+0x44>
68804498:	8e447358 	lw	a0,29528(s2)
6880449c:	0e2017ef 	jal	68805fbc <gui_dc_set_default_fontface>
688044a0:	00000000 	nop
688044a4:	0440ff55 	bltz	v0,688041fc <emulator_scene+0x44>
688044a8:	8e447358 	lw	a0,29528(s2)
688044ac:	0e200e6a 	jal	688039a8 <_scene_emulator_load_resources>
688044b0:	00000000 	nop
688044b4:	0e201321 	jal	68804c84 <sys_get_main_disk>
688044b8:	00000000 	nop
688044bc:	54400013 	bnezl	v0,6880450c <emulator_scene+0x354>
688044c0:	8e517358 	lw	s1,29528(s2)
688044c4:	8e640060 	lw	a0,96(s3)
688044c8:	5080ff4c 	beqzl	a0,688041fc <emulator_scene+0x44>
688044cc:	8e447358 	lw	a0,29528(s2)
688044d0:	240c0004 	li	t4,4
688044d4:	afac0428 	sw	t4,1064(sp)
688044d8:	908b001e 	lbu	t3,30(a0)
688044dc:	908a001d 	lbu	t2,29(a0)
688044e0:	000b4a00 	sll	t1,t3,0x8
688044e4:	012a4025 	or	t0,t1,t2
688044e8:	27a40428 	addiu	a0,sp,1064
688044ec:	0e201265 	jal	68804994 <dialog_modal>
688044f0:	a7a8042c 	sh	t0,1068(sp)
688044f4:	1000ff41 	b	688041fc <emulator_scene+0x44>
688044f8:	8e447358 	lw	a0,29528(s2)
688044fc:	0e200b72 	jal	68802dc8 <emu_exit>
68804500:	00000000 	nop
68804504:	1000ff41 	b	6880420c <emulator_scene+0x54>
68804508:	8e447358 	lw	a0,29528(s2)
6880450c:	3c0f6880 	lui	t7,0x6880
68804510:	8e2a0000 	lw	t2,0(s1)
68804514:	24180002 	li	t8,2
68804518:	81470007 	lb	a3,7(t2)
6880451c:	81450003 	lb	a1,3(t2)
68804520:	81460005 	lb	a2,5(t2)
68804524:	81490001 	lb	t1,1(t2)
68804528:	91430000 	lbu	v1,0(t2)
6880452c:	91480002 	lbu	t0,2(t2)
68804530:	91500004 	lbu	s0,4(t2)
68804534:	915f0006 	lbu	ra,6(t2)
68804538:	00092200 	sll	a0,t1,0x8
6880453c:	00061200 	sll	v0,a2,0x8
68804540:	0007ca00 	sll	t9,a3,0x8
68804544:	0005aa00 	sll	s5,a1,0x8
68804548:	00832025 	or	a0,a0,v1
6880454c:	25ee3738 	addiu	t6,t7,14136
68804550:	02a82825 	or	a1,s5,t0
68804554:	00503025 	or	a2,v0,s0
68804558:	033f3825 	or	a3,t9,ra
6880455c:	afb80010 	sw	t8,16(sp)
68804560:	afae0014 	sw	t6,20(sp)
68804564:	0e2017e0 	jal	68805f80 <gui_wm_create_window>
68804568:	afa00018 	sw	zero,24(sp)
6880456c:	8e4d7358 	lw	t5,29528(s2)
68804570:	ae220010 	sw	v0,16(s1)
68804574:	8da40010 	lw	a0,16(t5)
68804578:	5080ff20 	beqzl	a0,688041fc <emulator_scene+0x44>
6880457c:	8e447358 	lw	a0,29528(s2)
68804580:	0e2017e3 	jal	68805f8c <gui_wm_set_focus>
68804584:	00000000 	nop
68804588:	8e917358 	lw	s1,29528(s4)
6880458c:	0e2017ec 	jal	68805fb0 <gui_dc_get>
68804590:	96240010 	lhu	a0,16(s1)
68804594:	3c0c6880 	lui	t4,0x6880
68804598:	ae220014 	sw	v0,20(s1)
6880459c:	8e907358 	lw	s0,29528(s4)
688045a0:	0e20132a 	jal	68804ca8 <get_user_bg_pic>
688045a4:	25846a08 	addiu	a0,t4,27144
688045a8:	8e917358 	lw	s1,29528(s4)
688045ac:	ae020088 	sw	v0,136(s0)
688045b0:	8e2b0088 	lw	t3,136(s1)
688045b4:	1560000c 	bnez	t3,688045e8 <emulator_scene+0x430>
688045b8:	00000000 	nop
688045bc:	8e390020 	lw	t9,32(s1)
688045c0:	93380013 	lbu	t8,19(t9)
688045c4:	932f0012 	lbu	t7,18(t9)
688045c8:	00187200 	sll	t6,t8,0x8
688045cc:	0e201372 	jal	68804dc8 <sty_create_bitmap>
688045d0:	01cf2025 	or	a0,t6,t7
688045d4:	ae220088 	sw	v0,136(s1)
688045d8:	8e917358 	lw	s1,29528(s4)
688045dc:	8e2d0088 	lw	t5,136(s1)
688045e0:	11a0ff06 	beqz	t5,688041fc <emulator_scene+0x44>
688045e4:	8e447358 	lw	a0,29528(s2)
688045e8:	0e200cd2 	jal	68803348 <_emulator_scene_init_paint>
688045ec:	02202021 	move	a0,s1
688045f0:	0e200cdf 	jal	6880337c <em_create_headbar>
688045f4:	00000000 	nop
688045f8:	1040ff00 	beqz	v0,688041fc <emulator_scene+0x44>
688045fc:	8e447358 	lw	a0,29528(s2)
68804600:	0e200d95 	jal	68803654 <em_create_menuview>
68804604:	00000000 	nop
68804608:	1040fefc 	beqz	v0,688041fc <emulator_scene+0x44>
6880460c:	8e447358 	lw	a0,29528(s2)
68804610:	3c026880 	lui	v0,0x6880
68804614:	8e957358 	lw	s5,29528(s4)
68804618:	0e2012ca 	jal	68804b28 <msgbox_create>
6880461c:	2444348c 	addiu	a0,v0,13452
68804620:	8e9f7358 	lw	ra,29528(s4)
68804624:	aea20080 	sw	v0,128(s5)
68804628:	8ff40080 	lw	s4,128(ra)
6880462c:	1280fef3 	beqz	s4,688041fc <emulator_scene+0x44>
68804630:	8e447358 	lw	a0,29528(s2)
68804634:	24040001 	li	a0,1
68804638:	ae640098 	sw	a0,152(s3)
6880463c:	ae60008c 	sw	zero,140(s3)
68804640:	ae600090 	sw	zero,144(s3)
68804644:	ae600094 	sw	zero,148(s3)
68804648:	ae60009c 	sw	zero,156(s3)
6880464c:	3c066881 	lui	a2,0x6881
68804650:	3c076880 	lui	a3,0x6880
68804654:	3c036880 	lui	v1,0x6880
68804658:	00002021 	move	a0,zero
6880465c:	acc08278 	sw	zero,-32136(a2)
68804660:	ace0735c 	sw	zero,29532(a3)
68804664:	0e20130f 	jal	68804c3c <sys_set_key_tone_enable>
68804668:	ac607354 	sw	zero,29524(v1)
6880466c:	3c086880 	lui	t0,0x6880
68804670:	8d137348 	lw	s3,29512(t0)
68804674:	16600010 	bnez	s3,688046b8 <emulator_scene+0x500>
68804678:	00000000 	nop
6880467c:	8e447358 	lw	a0,29528(s2)
68804680:	0e200019 	jal	68800064 <em_dirlist_enter>
68804684:	00002821 	move	a1,zero
68804688:	3c056880 	lui	a1,0x6880
6880468c:	0e201342 	jal	68804d08 <register_sys_dispatcher>
68804690:	24a43d44 	addiu	a0,a1,15684
68804694:	24100001 	li	s0,1
68804698:	0e201333 	jal	68804ccc <get_msg>
6880469c:	27a40020 	addiu	a0,sp,32
688046a0:	14500009 	bne	v0,s0,688046c8 <emulator_scene+0x510>
688046a4:	27a40020 	addiu	a0,sp,32
688046a8:	0e20133f 	jal	68804cfc <dispatch_msg>
688046ac:	00000000 	nop
688046b0:	1000fff9 	b	68804698 <emulator_scene+0x4e0>
688046b4:	00000000 	nop
688046b8:	0e20032f 	jal	68800cbc <em_second_level_menu_enter>
688046bc:	8e447358 	lw	a0,29528(s2)
688046c0:	1000fff2 	b	6880468c <emulator_scene+0x4d4>
688046c4:	3c056880 	lui	a1,0x6880
688046c8:	0e201345 	jal	68804d14 <unregister_sys_dispatcher>
688046cc:	00000000 	nop
688046d0:	1000feca 	b	688041fc <emulator_scene+0x44>
688046d4:	8e447358 	lw	a0,29528(s2)

688046d8 <emutest_mq_accept>:
688046d8:	27bdffe0 	addiu	sp,sp,-32
688046dc:	afbf0018 	sw	ra,24(sp)
688046e0:	8c840000 	lw	a0,0(a0)
688046e4:	0e2014be 	jal	688052f8 <mq_receive>
688046e8:	27a70010 	addiu	a3,sp,16
688046ec:	8fbf0018 	lw	ra,24(sp)
688046f0:	03e00008 	jr	ra
688046f4:	27bd0020 	addiu	sp,sp,32

688046f8 <emutest_mq_pend>:
688046f8:	27bdffd8 	addiu	sp,sp,-40
688046fc:	afb20020 	sw	s2,32(sp)
68804700:	afb1001c 	sw	s1,28(sp)
68804704:	afb00018 	sw	s0,24(sp)
68804708:	afbf0024 	sw	ra,36(sp)
6880470c:	00809021 	move	s2,a0
68804710:	00a08821 	move	s1,a1
68804714:	00c08021 	move	s0,a2
68804718:	0e2014df 	jal	6880537c <usleep>
6880471c:	24042710 	li	a0,10000
68804720:	8e440000 	lw	a0,0(s2)
68804724:	02202821 	move	a1,s1
68804728:	02003021 	move	a2,s0
6880472c:	0e2014be 	jal	688052f8 <mq_receive>
68804730:	27a70010 	addiu	a3,sp,16
68804734:	1840fff8 	blez	v0,68804718 <emutest_mq_pend+0x20>
68804738:	8fbf0024 	lw	ra,36(sp)
6880473c:	8fb20020 	lw	s2,32(sp)
68804740:	8fb1001c 	lw	s1,28(sp)
68804744:	8fb00018 	lw	s0,24(sp)
68804748:	03e00008 	jr	ra
6880474c:	27bd0028 	addiu	sp,sp,40

68804750 <emutest_mq_pend_timeout>:
68804750:	27bdffc0 	addiu	sp,sp,-64
68804754:	afb30034 	sw	s3,52(sp)
68804758:	afb1002c 	sw	s1,44(sp)
6880475c:	00809821 	move	s3,a0
68804760:	00a08821 	move	s1,a1
68804764:	24040001 	li	a0,1
68804768:	27a50018 	addiu	a1,sp,24
6880476c:	afb20030 	sw	s2,48(sp)
68804770:	afb00028 	sw	s0,40(sp)
68804774:	00e09021 	move	s2,a3
68804778:	afbf0038 	sw	ra,56(sp)
6880477c:	0e2014e2 	jal	68805388 <clock_gettime>
68804780:	00c08021 	move	s0,a2
68804784:	02202821 	move	a1,s1
68804788:	02003021 	move	a2,s0
6880478c:	27a70020 	addiu	a3,sp,32
68804790:	1440000c 	bnez	v0,688047c4 <emutest_mq_pend_timeout+0x74>
68804794:	2403ffff 	li	v1,-1
68804798:	3c0b000f 	lui	t3,0xf
6880479c:	356a4240 	ori	t2,t3,0x4240
688047a0:	724a4002 	mul	t0,s2,t2
688047a4:	8fa9001c 	lw	t1,28(sp)
688047a8:	8e640000 	lw	a0,0(s3)
688047ac:	27a30018 	addiu	v1,sp,24
688047b0:	01091021 	addu	v0,t0,t1
688047b4:	afa30010 	sw	v1,16(sp)
688047b8:	0e2014c1 	jal	68805304 <mq_timedreceive>
688047bc:	afa2001c 	sw	v0,28(sp)
688047c0:	00401821 	move	v1,v0
688047c4:	8fbf0038 	lw	ra,56(sp)
688047c8:	8fb30034 	lw	s3,52(sp)
688047cc:	8fb20030 	lw	s2,48(sp)
688047d0:	8fb1002c 	lw	s1,44(sp)
688047d4:	8fb00028 	lw	s0,40(sp)
688047d8:	00601021 	move	v0,v1
688047dc:	03e00008 	jr	ra
688047e0:	27bd0040 	addiu	sp,sp,64

688047e4 <emutest_mq_post>:
688047e4:	27bdffe8 	addiu	sp,sp,-24
688047e8:	afbf0010 	sw	ra,16(sp)
688047ec:	8c840000 	lw	a0,0(a0)
688047f0:	0e2014bb 	jal	688052ec <mq_send>
688047f4:	24070001 	li	a3,1
688047f8:	00021827 	nor	v1,zero,v0
688047fc:	8fbf0010 	lw	ra,16(sp)
68804800:	2402ffff 	li	v0,-1
68804804:	0003100b 	movn	v0,zero,v1
68804808:	03e00008 	jr	ra
6880480c:	27bd0018 	addiu	sp,sp,24

68804810 <emutest_mq_destroy>:
68804810:	27bdffe8 	addiu	sp,sp,-24
68804814:	afbf0010 	sw	ra,16(sp)
68804818:	10800004 	beqz	a0,6880482c <emutest_mq_destroy+0x1c>
6880481c:	2402ffff 	li	v0,-1
68804820:	0e2014b5 	jal	688052d4 <mq_close>
68804824:	8c840000 	lw	a0,0(a0)
68804828:	00001021 	move	v0,zero
6880482c:	8fbf0010 	lw	ra,16(sp)
68804830:	03e00008 	jr	ra
68804834:	27bd0018 	addiu	sp,sp,24

68804838 <emutest_lib_load>:
68804838:	27bdffe8 	addiu	sp,sp,-24
6880483c:	afb00010 	sw	s0,16(sp)
68804840:	afbf0014 	sw	ra,20(sp)
68804844:	24050003 	li	a1,3
68804848:	00808021 	move	s0,a0
6880484c:	10800005 	beqz	a0,68804864 <emutest_lib_load+0x2c>
68804850:	2402ffff 	li	v0,-1
68804854:	0e201817 	jal	6880605c <dlopen>
68804858:	00000000 	nop
6880485c:	ae020200 	sw	v0,512(s0)
68804860:	00001021 	move	v0,zero
68804864:	8fbf0014 	lw	ra,20(sp)
68804868:	8fb00010 	lw	s0,16(sp)
6880486c:	03e00008 	jr	ra
68804870:	27bd0018 	addiu	sp,sp,24

68804874 <emutest_lib_close>:
68804874:	27bdffe8 	addiu	sp,sp,-24
68804878:	afbf0010 	sw	ra,16(sp)
6880487c:	10800004 	beqz	a0,68804890 <emutest_lib_close+0x1c>
68804880:	2402ffff 	li	v0,-1
68804884:	0e20181a 	jal	68806068 <dlclose>
68804888:	8c840200 	lw	a0,512(a0)
6880488c:	00001021 	move	v0,zero
68804890:	8fbf0010 	lw	ra,16(sp)
68804894:	03e00008 	jr	ra
68804898:	27bd0018 	addiu	sp,sp,24

6880489c <emutest_mq_create>:
6880489c:	27bdffd0 	addiu	sp,sp,-48
688048a0:	afb20028 	sw	s2,40(sp)
688048a4:	afb10024 	sw	s1,36(sp)
688048a8:	240601a4 	li	a2,420
688048ac:	2408001e 	li	t0,30
688048b0:	24030408 	li	v1,1032
688048b4:	00a08821 	move	s1,a1
688048b8:	00809021 	move	s2,a0
688048bc:	27a70010 	addiu	a3,sp,16
688048c0:	00a02021 	move	a0,a1
688048c4:	24050502 	li	a1,1282
688048c8:	afb00020 	sw	s0,32(sp)
688048cc:	afbf002c 	sw	ra,44(sp)
688048d0:	afa80014 	sw	t0,20(sp)
688048d4:	afa30018 	sw	v1,24(sp)
688048d8:	afa00010 	sw	zero,16(sp)
688048dc:	0e2014b2 	jal	688052c8 <mq_open>
688048e0:	afa0001c 	sw	zero,28(sp)
688048e4:	00408021 	move	s0,v0
688048e8:	00403021 	move	a2,v0
688048ec:	2402ffff 	li	v0,-1
688048f0:	12020009 	beq	s0,v0,68804918 <emutest_mq_create+0x7c>
688048f4:	00000000 	nop
688048f8:	ae460000 	sw	a2,0(s2)
688048fc:	8fbf002c 	lw	ra,44(sp)
68804900:	8fb20028 	lw	s2,40(sp)
68804904:	8fb10024 	lw	s1,36(sp)
68804908:	8fb00020 	lw	s0,32(sp)
6880490c:	00001021 	move	v0,zero
68804910:	03e00008 	jr	ra
68804914:	27bd0030 	addiu	sp,sp,48
68804918:	0e2014a6 	jal	68805298 <__errno>
6880491c:	00000000 	nop
68804920:	8c490000 	lw	t1,0(v0)
68804924:	24070011 	li	a3,17
68804928:	02202021 	move	a0,s1
6880492c:	24050082 	li	a1,130
68804930:	1527fff1 	bne	t1,a3,688048f8 <emutest_mq_create+0x5c>
68804934:	2406ffff 	li	a2,-1
68804938:	0e2014b2 	jal	688052c8 <mq_open>
6880493c:	00000000 	nop
68804940:	00408821 	move	s1,v0
68804944:	10500003 	beq	v0,s0,68804954 <emutest_mq_create+0xb8>
68804948:	2404ffff 	li	a0,-1
6880494c:	1000ffea 	b	688048f8 <emutest_mq_create+0x5c>
68804950:	02203021 	move	a2,s1
68804954:	0e2014d6 	jal	68805358 <exit>
68804958:	00000000 	nop
6880495c:	1000ffe6 	b	688048f8 <emutest_mq_create+0x5c>
68804960:	02203021 	move	a2,s1

68804964 <dialog_paint>:
68804964:	3c030013 	lui	v1,0x13
68804968:	3463000c 	ori	v1,v1,0xc
6880496c:	0000000c 	syscall

68804970 <dialog_proc_gui>:
68804970:	3c030013 	lui	v1,0x13
68804974:	3463000d 	ori	v1,v1,0xd
68804978:	0000000c 	syscall

6880497c <dialog_create>:
6880497c:	3c030013 	lui	v1,0x13
68804980:	3463000e 	ori	v1,v1,0xe
68804984:	0000000c 	syscall

68804988 <dialog_delete>:
68804988:	3c030013 	lui	v1,0x13
6880498c:	3463000f 	ori	v1,v1,0xf
68804990:	0000000c 	syscall

68804994 <dialog_modal>:
68804994:	3c030013 	lui	v1,0x13
68804998:	34630010 	ori	v1,v1,0x10
6880499c:	0000000c 	syscall

688049a0 <dirlist_create>:
688049a0:	3c030013 	lui	v1,0x13
688049a4:	34630011 	ori	v1,v1,0x11
688049a8:	0000000c 	syscall

688049ac <adjust_create>:
688049ac:	3c030013 	lui	v1,0x13
688049b0:	34630001 	ori	v1,v1,0x1
688049b4:	0000000c 	syscall

688049b8 <dirlist_delete>:
688049b8:	3c030013 	lui	v1,0x13
688049bc:	34630012 	ori	v1,v1,0x12
688049c0:	0000000c 	syscall

688049c4 <dirlist_paint>:
688049c4:	3c030013 	lui	v1,0x13
688049c8:	34630013 	ori	v1,v1,0x13
688049cc:	0000000c 	syscall

688049d0 <dirlist_proc_gui>:
688049d0:	3c030013 	lui	v1,0x13
688049d4:	34630014 	ori	v1,v1,0x14
688049d8:	0000000c 	syscall

688049dc <dirlist_proc_sys>:
688049dc:	3c030013 	lui	v1,0x13
688049e0:	34630015 	ori	v1,v1,0x15
688049e4:	0000000c 	syscall

688049e8 <dirlist_load_style>:
688049e8:	3c030013 	lui	v1,0x13
688049ec:	34630016 	ori	v1,v1,0x16
688049f0:	0000000c 	syscall

688049f4 <dirlist_show>:
688049f4:	3c030013 	lui	v1,0x13
688049f8:	34630017 	ori	v1,v1,0x17
688049fc:	0000000c 	syscall

68804a00 <dirlist_hide>:
68804a00:	3c030013 	lui	v1,0x13
68804a04:	34630018 	ori	v1,v1,0x18
68804a08:	0000000c 	syscall

68804a0c <adjust_load_style>:
68804a0c:	3c030013 	lui	v1,0x13
68804a10:	34630002 	ori	v1,v1,0x2
68804a14:	0000000c 	syscall

68804a18 <adjust_delete>:
68804a18:	3c030013 	lui	v1,0x13
68804a1c:	34630003 	ori	v1,v1,0x3
68804a20:	0000000c 	syscall

68804a24 <headbar_load_style>:
68804a24:	3c030013 	lui	v1,0x13
68804a28:	34630026 	ori	v1,v1,0x26
68804a2c:	0000000c 	syscall

68804a30 <headbar_paint>:
68804a30:	3c030013 	lui	v1,0x13
68804a34:	34630027 	ori	v1,v1,0x27
68804a38:	0000000c 	syscall

68804a3c <headbar_create>:
68804a3c:	3c030013 	lui	v1,0x13
68804a40:	34630029 	ori	v1,v1,0x29
68804a44:	0000000c 	syscall

68804a48 <headbar_delete>:
68804a48:	3c030013 	lui	v1,0x13
68804a4c:	3463002a 	ori	v1,v1,0x2a
68804a50:	0000000c 	syscall

68804a54 <adjust_paint>:
68804a54:	3c030013 	lui	v1,0x13
68804a58:	34630004 	ori	v1,v1,0x4
68804a5c:	0000000c 	syscall

68804a60 <menu_create>:
68804a60:	3c030013 	lui	v1,0x13
68804a64:	34630032 	ori	v1,v1,0x32
68804a68:	0000000c 	syscall

68804a6c <menu_delete>:
68804a6c:	3c030013 	lui	v1,0x13
68804a70:	34630033 	ori	v1,v1,0x33
68804a74:	0000000c 	syscall

68804a78 <menu_set_cur_index>:
68804a78:	3c030013 	lui	v1,0x13
68804a7c:	34630034 	ori	v1,v1,0x34
68804a80:	0000000c 	syscall

68804a84 <menu_set_item>:
68804a84:	3c030013 	lui	v1,0x13
68804a88:	3463003b 	ori	v1,v1,0x3b
68804a8c:	0000000c 	syscall

68804a90 <menu_append_item>:
68804a90:	3c030013 	lui	v1,0x13
68804a94:	3463003e 	ori	v1,v1,0x3e
68804a98:	0000000c 	syscall

68804a9c <menuview_create>:
68804a9c:	3c030013 	lui	v1,0x13
68804aa0:	34630048 	ori	v1,v1,0x48
68804aa4:	0000000c 	syscall

68804aa8 <menuview_delete>:
68804aa8:	3c030013 	lui	v1,0x13
68804aac:	34630049 	ori	v1,v1,0x49
68804ab0:	0000000c 	syscall

68804ab4 <menuview_paint>:
68804ab4:	3c030013 	lui	v1,0x13
68804ab8:	3463004a 	ori	v1,v1,0x4a
68804abc:	0000000c 	syscall

68804ac0 <menuview_proc_gui>:
68804ac0:	3c030013 	lui	v1,0x13
68804ac4:	3463004b 	ori	v1,v1,0x4b
68804ac8:	0000000c 	syscall

68804acc <menuview_load_style>:
68804acc:	3c030013 	lui	v1,0x13
68804ad0:	3463004c 	ori	v1,v1,0x4c
68804ad4:	0000000c 	syscall

68804ad8 <adjust_get_switch_status>:
68804ad8:	3c030013 	lui	v1,0x13
68804adc:	34630007 	ori	v1,v1,0x7
68804ae0:	0000000c 	syscall

68804ae4 <menuview_show>:
68804ae4:	3c030013 	lui	v1,0x13
68804ae8:	3463004d 	ori	v1,v1,0x4d
68804aec:	0000000c 	syscall

68804af0 <menuview_hide>:
68804af0:	3c030013 	lui	v1,0x13
68804af4:	3463004e 	ori	v1,v1,0x4e
68804af8:	0000000c 	syscall

68804afc <menuview_set_menu>:
68804afc:	3c030013 	lui	v1,0x13
68804b00:	3463004f 	ori	v1,v1,0x4f
68804b04:	0000000c 	syscall

68804b08 <adjust_proc_gui>:
68804b08:	3c030013 	lui	v1,0x13
68804b0c:	0000000c 	syscall

68804b10 <msgbox_proc_gui>:
68804b10:	3c030013 	lui	v1,0x13
68804b14:	34630056 	ori	v1,v1,0x56
68804b18:	0000000c 	syscall

68804b1c <msgbox_proc_sys>:
68804b1c:	3c030013 	lui	v1,0x13
68804b20:	34630057 	ori	v1,v1,0x57
68804b24:	0000000c 	syscall

68804b28 <msgbox_create>:
68804b28:	3c030013 	lui	v1,0x13
68804b2c:	34630058 	ori	v1,v1,0x58
68804b30:	0000000c 	syscall

68804b34 <msgbox_paint>:
68804b34:	3c030013 	lui	v1,0x13
68804b38:	34630059 	ori	v1,v1,0x59
68804b3c:	0000000c 	syscall

68804b40 <msgbox_delete>:
68804b40:	3c030013 	lui	v1,0x13
68804b44:	3463005a 	ori	v1,v1,0x5a
68804b48:	0000000c 	syscall

68804b4c <msgbox_load_style>:
68804b4c:	3c030013 	lui	v1,0x13
68804b50:	3463005b 	ori	v1,v1,0x5b
68804b54:	0000000c 	syscall

68804b58 <volumebar_proc_gui>:
68804b58:	3c030013 	lui	v1,0x13
68804b5c:	3463006b 	ori	v1,v1,0x6b
68804b60:	0000000c 	syscall

68804b64 <volumebar_create>:
68804b64:	3c030013 	lui	v1,0x13
68804b68:	3463006c 	ori	v1,v1,0x6c
68804b6c:	0000000c 	syscall

68804b70 <volumebar_delete>:
68804b70:	3c030013 	lui	v1,0x13
68804b74:	3463006d 	ori	v1,v1,0x6d
68804b78:	0000000c 	syscall

68804b7c <volumebar_paint>:
68804b7c:	3c030013 	lui	v1,0x13
68804b80:	3463006e 	ori	v1,v1,0x6e
68804b84:	0000000c 	syscall

68804b88 <volumebar_load_style>:
68804b88:	3c030013 	lui	v1,0x13
68804b8c:	3463006f 	ori	v1,v1,0x6f
68804b90:	0000000c 	syscall

68804b94 <dialog_load_style>:
68804b94:	3c030013 	lui	v1,0x13
68804b98:	3463000b 	ori	v1,v1,0xb
68804b9c:	0000000c 	syscall

68804ba0 <close_style_file>:
68804ba0:	3c03000d 	lui	v1,0xd
68804ba4:	34630001 	ori	v1,v1,0x1
68804ba8:	0000000c 	syscall
68804bac:	00000000 	nop

68804bb0 <load_scene>:
68804bb0:	3c03000d 	lui	v1,0xd
68804bb4:	34630002 	ori	v1,v1,0x2
68804bb8:	0000000c 	syscall
68804bbc:	00000000 	nop

68804bc0 <free_scene>:
68804bc0:	3c03000d 	lui	v1,0xd
68804bc4:	34630003 	ori	v1,v1,0x3
68804bc8:	0000000c 	syscall
68804bcc:	00000000 	nop

68804bd0 <get_scene_child>:
68804bd0:	3c03000d 	lui	v1,0xd
68804bd4:	34630004 	ori	v1,v1,0x4
68804bd8:	0000000c 	syscall
68804bdc:	00000000 	nop

68804be0 <open_style_file>:
68804be0:	3c03000d 	lui	v1,0xd
68804be4:	0000000c 	syscall
68804be8:	00000000 	nop

68804bec <fusion_set_first_frame>:
68804bec:	3c030017 	lui	v1,0x17
68804bf0:	34630001 	ori	v1,v1,0x1
68804bf4:	0000000c 	syscall

68804bf8 <fusion_set_last_frame>:
68804bf8:	3c030017 	lui	v1,0x17
68804bfc:	34630002 	ori	v1,v1,0x2
68804c00:	0000000c 	syscall

68804c04 <fusion_display>:
68804c04:	3c030017 	lui	v1,0x17
68804c08:	34630003 	ori	v1,v1,0x3
68804c0c:	0000000c 	syscall

68804c10 <fusion_get_config>:
68804c10:	3c030017 	lui	v1,0x17
68804c14:	34630005 	ori	v1,v1,0x5
68804c18:	0000000c 	syscall

68804c1c <fusion_set_effect>:
68804c1c:	3c030017 	lui	v1,0x17
68804c20:	0000000c 	syscall

68804c24 <sys_forbid_screensaver>:
68804c24:	3c030012 	lui	v1,0x12
68804c28:	3463007d 	ori	v1,v1,0x7d
68804c2c:	0000000c 	syscall

68804c30 <sys_forbid_auto_standby>:
68804c30:	3c030012 	lui	v1,0x12
68804c34:	34630080 	ori	v1,v1,0x80
68804c38:	0000000c 	syscall

68804c3c <sys_set_key_tone_enable>:
68804c3c:	3c030012 	lui	v1,0x12
68804c40:	3463008e 	ori	v1,v1,0x8e
68804c44:	0000000c 	syscall

68804c48 <sys_pm_set_clk_domain>:
68804c48:	3c030012 	lui	v1,0x12
68804c4c:	3463008f 	ori	v1,v1,0x8f
68804c50:	0000000c 	syscall

68804c54 <sys_pm_clear_clk_domain>:
68804c54:	3c030012 	lui	v1,0x12
68804c58:	34630090 	ori	v1,v1,0x90
68804c5c:	0000000c 	syscall

68804c60 <set_timer>:
68804c60:	3c030012 	lui	v1,0x12
68804c64:	3463000f 	ori	v1,v1,0xf
68804c68:	0000000c 	syscall

68804c6c <sys_get_common_theme_res_dir>:
68804c6c:	3c030012 	lui	v1,0x12
68804c70:	34630094 	ori	v1,v1,0x94
68804c74:	0000000c 	syscall

68804c78 <sys_get_common_string_res_dir>:
68804c78:	3c030012 	lui	v1,0x12
68804c7c:	34630095 	ori	v1,v1,0x95
68804c80:	0000000c 	syscall

68804c84 <sys_get_main_disk>:
68804c84:	3c030012 	lui	v1,0x12
68804c88:	3463009c 	ori	v1,v1,0x9c
68804c8c:	0000000c 	syscall

68804c90 <canvas_get_focus>:
68804c90:	3c030012 	lui	v1,0x12
68804c94:	3463009f 	ori	v1,v1,0x9f
68804c98:	0000000c 	syscall

68804c9c <kill_timer>:
68804c9c:	3c030012 	lui	v1,0x12
68804ca0:	34630014 	ori	v1,v1,0x14
68804ca4:	0000000c 	syscall

68804ca8 <get_user_bg_pic>:
68804ca8:	3c030012 	lui	v1,0x12
68804cac:	34630023 	ori	v1,v1,0x23
68804cb0:	0000000c 	syscall

68804cb4 <applib_init>:
68804cb4:	3c030012 	lui	v1,0x12
68804cb8:	34630036 	ori	v1,v1,0x36
68804cbc:	0000000c 	syscall

68804cc0 <applib_quit>:
68804cc0:	3c030012 	lui	v1,0x12
68804cc4:	34630037 	ori	v1,v1,0x37
68804cc8:	0000000c 	syscall

68804ccc <get_msg>:
68804ccc:	3c030012 	lui	v1,0x12
68804cd0:	34630038 	ori	v1,v1,0x38
68804cd4:	0000000c 	syscall

68804cd8 <send_sync_msg>:
68804cd8:	3c030012 	lui	v1,0x12
68804cdc:	34630039 	ori	v1,v1,0x39
68804ce0:	0000000c 	syscall

68804ce4 <reply_sync_msg>:
68804ce4:	3c030012 	lui	v1,0x12
68804ce8:	3463003a 	ori	v1,v1,0x3a
68804cec:	0000000c 	syscall

68804cf0 <send_async_msg>:
68804cf0:	3c030012 	lui	v1,0x12
68804cf4:	3463003b 	ori	v1,v1,0x3b
68804cf8:	0000000c 	syscall

68804cfc <dispatch_msg>:
68804cfc:	3c030012 	lui	v1,0x12
68804d00:	3463003d 	ori	v1,v1,0x3d
68804d04:	0000000c 	syscall

68804d08 <register_sys_dispatcher>:
68804d08:	3c030012 	lui	v1,0x12
68804d0c:	3463003e 	ori	v1,v1,0x3e
68804d10:	0000000c 	syscall

68804d14 <unregister_sys_dispatcher>:
68804d14:	3c030012 	lui	v1,0x12
68804d18:	3463003f 	ori	v1,v1,0x3f
68804d1c:	0000000c 	syscall

68804d20 <exit_msg_loop>:
68804d20:	3c030012 	lui	v1,0x12
68804d24:	34630040 	ori	v1,v1,0x40
68804d28:	0000000c 	syscall

68804d2c <sty_open_common_pic_res>:
68804d2c:	3c030012 	lui	v1,0x12
68804d30:	34630047 	ori	v1,v1,0x47
68804d34:	0000000c 	syscall

68804d38 <sty_open_common_str_res>:
68804d38:	3c030012 	lui	v1,0x12
68804d3c:	34630048 	ori	v1,v1,0x48
68804d40:	0000000c 	syscall

68804d44 <sty_close_common_pic_res>:
68804d44:	3c030012 	lui	v1,0x12
68804d48:	34630049 	ori	v1,v1,0x49
68804d4c:	0000000c 	syscall

68804d50 <sty_close_common_str_res>:
68804d50:	3c030012 	lui	v1,0x12
68804d54:	3463004a 	ori	v1,v1,0x4a
68804d58:	0000000c 	syscall

68804d5c <sty_open_app_pic_res>:
68804d5c:	3c030012 	lui	v1,0x12
68804d60:	3463004b 	ori	v1,v1,0x4b
68804d64:	0000000c 	syscall

68804d68 <sty_open_app_str_res>:
68804d68:	3c030012 	lui	v1,0x12
68804d6c:	3463004c 	ori	v1,v1,0x4c
68804d70:	0000000c 	syscall

68804d74 <sty_close_app_pic_res>:
68804d74:	3c030012 	lui	v1,0x12
68804d78:	3463004d 	ori	v1,v1,0x4d
68804d7c:	0000000c 	syscall

68804d80 <sty_close_app_str_res>:
68804d80:	3c030012 	lui	v1,0x12
68804d84:	3463004e 	ori	v1,v1,0x4e
68804d88:	0000000c 	syscall

68804d8c <sty_set_app_scene>:
68804d8c:	3c030012 	lui	v1,0x12
68804d90:	3463004f 	ori	v1,v1,0x4f
68804d94:	0000000c 	syscall

68804d98 <sty_get_app_scene>:
68804d98:	3c030012 	lui	v1,0x12
68804d9c:	34630050 	ori	v1,v1,0x50
68804da0:	0000000c 	syscall

68804da4 <sty_set_common_scene>:
68804da4:	3c030012 	lui	v1,0x12
68804da8:	34630051 	ori	v1,v1,0x51
68804dac:	0000000c 	syscall

68804db0 <sty_set_text_encoding>:
68804db0:	3c030012 	lui	v1,0x12
68804db4:	34630053 	ori	v1,v1,0x53
68804db8:	0000000c 	syscall

68804dbc <sty_draw_bitmap>:
68804dbc:	3c030012 	lui	v1,0x12
68804dc0:	34630066 	ori	v1,v1,0x66
68804dc4:	0000000c 	syscall

68804dc8 <sty_create_bitmap>:
68804dc8:	3c030012 	lui	v1,0x12
68804dcc:	34630068 	ori	v1,v1,0x68
68804dd0:	0000000c 	syscall

68804dd4 <sty_delete_bitmap>:
68804dd4:	3c030012 	lui	v1,0x12
68804dd8:	3463006a 	ori	v1,v1,0x6a
68804ddc:	0000000c 	syscall

68804de0 <sty_get_view_rotation>:
68804de0:	3c030012 	lui	v1,0x12
68804de4:	3463006d 	ori	v1,v1,0x6d
68804de8:	0000000c 	syscall

68804dec <sty_set_screen_rotation>:
68804dec:	3c030012 	lui	v1,0x12
68804df0:	3463006e 	ori	v1,v1,0x6e
68804df4:	0000000c 	syscall

68804df8 <sys_get_app_theme_res_dir>:
68804df8:	3c030012 	lui	v1,0x12
68804dfc:	34630072 	ori	v1,v1,0x72
68804e00:	0000000c 	syscall

68804e04 <sys_get_app_string_res_dir>:
68804e04:	3c030012 	lui	v1,0x12
68804e08:	34630074 	ori	v1,v1,0x74
68804e0c:	0000000c 	syscall

68804e10 <sys_get_cur_language_codes>:
68804e10:	3c030012 	lui	v1,0x12
68804e14:	34630075 	ori	v1,v1,0x75
68804e18:	0000000c 	syscall

68804e1c <sys_get_cur_language_id>:
68804e1c:	3c030012 	lui	v1,0x12
68804e20:	34630076 	ori	v1,v1,0x76
68804e24:	0000000c 	syscall

68804e28 <sys_get_default_font_file>:
68804e28:	3c030012 	lui	v1,0x12
68804e2c:	3463007b 	ori	v1,v1,0x7b
68804e30:	0000000c 	syscall

68804e34 <__do_global_dtors_aux>:
68804e34:	27bdffe0 	addiu	sp,sp,-32
68804e38:	afbf001c 	sw	ra,28(sp)
68804e3c:	afbe0018 	sw	s8,24(sp)
68804e40:	03a0f021 	move	s8,sp
68804e44:	3c026880 	lui	v0,0x6880
68804e48:	2442700c 	addiu	v0,v0,28684
68804e4c:	afc20010 	sw	v0,16(s8)
68804e50:	8fc20010 	lw	v0,16(s8)
68804e54:	8c420000 	lw	v0,0(v0)
68804e58:	1040000a 	beqz	v0,68804e84 <__do_global_dtors_aux+0x50>
68804e5c:	00000000 	nop
68804e60:	8fc20010 	lw	v0,16(s8)
68804e64:	8c420000 	lw	v0,0(v0)
68804e68:	0040f809 	jalr	v0
68804e6c:	00000000 	nop
68804e70:	8fc20010 	lw	v0,16(s8)
68804e74:	24420004 	addiu	v0,v0,4
68804e78:	afc20010 	sw	v0,16(s8)
68804e7c:	1000fff4 	b	68804e50 <__do_global_dtors_aux+0x1c>
68804e80:	00000000 	nop
68804e84:	03c0e821 	move	sp,s8
68804e88:	8fbf001c 	lw	ra,28(sp)
68804e8c:	8fbe0018 	lw	s8,24(sp)
68804e90:	27bd0020 	addiu	sp,sp,32
68804e94:	03e00008 	jr	ra
68804e98:	00000000 	nop

68804e9c <exec_release>:
68804e9c:	03e00008 	jr	ra
68804ea0:	00001021 	move	v0,zero

68804ea4 <dumpargv>:
68804ea4:	10800007 	beqz	a0,68804ec4 <dumpargv+0x20>
68804ea8:	00001821 	move	v1,zero
68804eac:	10000003 	b	68804ebc <dumpargv+0x18>
68804eb0:	8c820000 	lw	v0,0(a0)
68804eb4:	8c820000 	lw	v0,0(a0)
68804eb8:	24630001 	addiu	v1,v1,1
68804ebc:	1440fffd 	bnez	v0,68804eb4 <dumpargv+0x10>
68804ec0:	24840004 	addiu	a0,a0,4
68804ec4:	0003202a 	slt	a0,zero,v1
68804ec8:	1080000b 	beqz	a0,68804ef8 <dumpargv+0x54>
68804ecc:	00000000 	nop
68804ed0:	00601021 	move	v0,v1
68804ed4:	2442ffff 	addiu	v0,v0,-1
68804ed8:	5440ffff 	bnezl	v0,68804ed8 <dumpargv+0x34>
68804edc:	2442ffff 	addiu	v0,v0,-1
68804ee0:	10800005 	beqz	a0,68804ef8 <dumpargv+0x54>
68804ee4:	00000000 	nop
68804ee8:	00601021 	move	v0,v1
68804eec:	2442ffff 	addiu	v0,v0,-1
68804ef0:	5440ffff 	bnezl	v0,68804ef0 <dumpargv+0x4c>
68804ef4:	2442ffff 	addiu	v0,v0,-1
68804ef8:	03e00008 	jr	ra
68804efc:	00000000 	nop

68804f00 <process_start>:
68804f00:	27bdffe0 	addiu	sp,sp,-32
68804f04:	afbf0018 	sw	ra,24(sp)
68804f08:	afb00010 	sw	s0,16(sp)
68804f0c:	0e201497 	jal	6880525c <getpid>
68804f10:	afb10014 	sw	s1,20(sp)
68804f14:	0e2014a3 	jal	6880528c <__kernel_get_process_struct>
68804f18:	00402021 	move	a0,v0
68804f1c:	14400014 	bnez	v0,68804f70 <process_start+0x70>
68804f20:	00008021 	move	s0,zero
68804f24:	0e201820 	jal	68806080 <os_cpu_save_sr>
68804f28:	00000000 	nop
68804f2c:	0e201497 	jal	6880525c <getpid>
68804f30:	00408021 	move	s0,v0
68804f34:	3c066880 	lui	a2,0x6880
68804f38:	3c056880 	lui	a1,0x6880
68804f3c:	24c46a28 	addiu	a0,a2,27176
68804f40:	24a56174 	addiu	a1,a1,24948
68804f44:	00403821 	move	a3,v0
68804f48:	0e201805 	jal	68806014 <printf>
68804f4c:	24060048 	li	a2,72
68804f50:	0e20181d 	jal	68806074 <os_cpu_store_sr>
68804f54:	02002021 	move	a0,s0
68804f58:	8fbf0018 	lw	ra,24(sp)
68804f5c:	8fb10014 	lw	s1,20(sp)
68804f60:	8fb00010 	lw	s0,16(sp)
68804f64:	00001021 	move	v0,zero
68804f68:	03e00008 	jr	ra
68804f6c:	27bd0020 	addiu	sp,sp,32
68804f70:	8c510060 	lw	s1,96(v0)
68804f74:	2405004f 	li	a1,79
68804f78:	0e2013a9 	jal	68804ea4 <dumpargv>
68804f7c:	02202021 	move	a0,s1
68804f80:	12200004 	beqz	s1,68804f94 <process_start+0x94>
68804f84:	3c036880 	lui	v1,0x6880
68804f88:	8e220000 	lw	v0,0(s1)
68804f8c:	54400009 	bnezl	v0,68804fb4 <process_start+0xb4>
68804f90:	02201821 	move	v1,s1
68804f94:	24646a54 	addiu	a0,v1,27220
68804f98:	0e201817 	jal	6880605c <dlopen>
68804f9c:	24050002 	li	a1,2
68804fa0:	02002021 	move	a0,s0
68804fa4:	0e20076c 	jal	68801db0 <main>
68804fa8:	02202821 	move	a1,s1
68804fac:	0e2014d6 	jal	68805358 <exit>
68804fb0:	00002021 	move	a0,zero
68804fb4:	24630004 	addiu	v1,v1,4
68804fb8:	8c640000 	lw	a0,0(v1)
68804fbc:	1480fffd 	bnez	a0,68804fb4 <process_start+0xb4>
68804fc0:	26100001 	addiu	s0,s0,1
68804fc4:	1000fff3 	b	68804f94 <process_start+0x94>
68804fc8:	3c036880 	lui	v1,0x6880

68804fcc <__start>:
68804fcc:	27bdffb0 	addiu	sp,sp,-80
68804fd0:	afbf004c 	sw	ra,76(sp)
68804fd4:	afb20048 	sw	s2,72(sp)
68804fd8:	afb10044 	sw	s1,68(sp)
68804fdc:	afb00040 	sw	s0,64(sp)
68804fe0:	00808821 	move	s1,a0
68804fe4:	00a09021 	move	s2,a1
68804fe8:	00c08021 	move	s0,a2
68804fec:	0e200000 	jal	68800000 <_init>
68804ff0:	afa00038 	sw	zero,56(sp)
68804ff4:	0e2017ff 	jal	68805ffc <os_sched_lock>
68804ff8:	00000000 	nop
68804ffc:	0e2014c7 	jal	6880531c <__kernel_get_pid>
68805000:	27a40038 	addiu	a0,sp,56
68805004:	14400058 	bnez	v0,68805168 <__start+0x19c>
68805008:	00000000 	nop
6880500c:	0e2014a9 	jal	688052a4 <__current_pid>
68805010:	00000000 	nop
68805014:	8fa40038 	lw	a0,56(sp)
68805018:	0e2014ac 	jal	688052b0 <__kernel_insert_sub_to_parent>
6880501c:	00402821 	move	a1,v0
68805020:	0e2014a9 	jal	688052a4 <__current_pid>
68805024:	00000000 	nop
68805028:	8fa40038 	lw	a0,56(sp)
6880502c:	02202821 	move	a1,s1
68805030:	02003821 	move	a3,s0
68805034:	0e2014a0 	jal	68805280 <__kernel_set_envp>
68805038:	02403021 	move	a2,s2
6880503c:	14400029 	bnez	v0,688050e4 <__start+0x118>
68805040:	00408821 	move	s1,v0
68805044:	0e2014a3 	jal	6880528c <__kernel_get_process_struct>
68805048:	8fa40038 	lw	a0,56(sp)
6880504c:	10400055 	beqz	v0,688051a4 <__start+0x1d8>
68805050:	3c086880 	lui	t0,0x6880
68805054:	25074e9c 	addiu	a3,t0,20124
68805058:	ac470008 	sw	a3,8(v0)
6880505c:	0e2014ca 	jal	68805328 <pthread_attr_init>
68805060:	27a40010 	addiu	a0,sp,16
68805064:	27a40010 	addiu	a0,sp,16
68805068:	0e2014d0 	jal	68805340 <pthread_attr_setinheritsched>
6880506c:	24050002 	li	a1,2
68805070:	27a40010 	addiu	a0,sp,16
68805074:	0e2014d3 	jal	6880534c <pthread_attr_setdetachstate>
68805078:	00002821 	move	a1,zero
6880507c:	02402021 	move	a0,s2
68805080:	0e2013a9 	jal	68804ea4 <dumpargv>
68805084:	24050093 	li	a1,147
68805088:	0e2014d9 	jal	68805364 <_kernel_change_thread_pid>
6880508c:	8fa40038 	lw	a0,56(sp)
68805090:	3c066880 	lui	a2,0x6880
68805094:	00409021 	move	s2,v0
68805098:	24c64f00 	addiu	a2,a2,20224
6880509c:	27a4003c 	addiu	a0,sp,60
688050a0:	27a50010 	addiu	a1,sp,16
688050a4:	0e2014c4 	jal	68805310 <pthread_create>
688050a8:	00003821 	move	a3,zero
688050ac:	02402021 	move	a0,s2
688050b0:	0e2014d9 	jal	68805364 <_kernel_change_thread_pid>
688050b4:	00408821 	move	s1,v0
688050b8:	0e2014cd 	jal	68805334 <pthread_attr_destroy>
688050bc:	27a40010 	addiu	a0,sp,16
688050c0:	12200020 	beqz	s1,68805144 <__start+0x178>
688050c4:	00000000 	nop
688050c8:	0e2014a9 	jal	688052a4 <__current_pid>
688050cc:	00000000 	nop
688050d0:	8fa40038 	lw	a0,56(sp)
688050d4:	0e2014af 	jal	688052bc <__kernel_remove_sub_from_parent>
688050d8:	00402821 	move	a1,v0
688050dc:	0e201494 	jal	68805250 <__kernel_release_pid>
688050e0:	8fa40038 	lw	a0,56(sp)
688050e4:	0e2014a6 	jal	68805298 <__errno>
688050e8:	00000000 	nop
688050ec:	0e201820 	jal	68806080 <os_cpu_save_sr>
688050f0:	ac510000 	sw	s1,0(v0)
688050f4:	0e2014a6 	jal	68805298 <__errno>
688050f8:	00408021 	move	s0,v0
688050fc:	8c470000 	lw	a3,0(v0)
68805100:	3c0a6880 	lui	t2,0x6880
68805104:	3c096880 	lui	t1,0x6880
68805108:	25246a60 	addiu	a0,t1,27232
6880510c:	25456184 	addiu	a1,t2,24964
68805110:	0e201805 	jal	68806014 <printf>
68805114:	240600a7 	li	a2,167
68805118:	0e20181d 	jal	68806074 <os_cpu_store_sr>
6880511c:	02002021 	move	a0,s0
68805120:	0e201802 	jal	68806008 <os_sched_unlock>
68805124:	00000000 	nop
68805128:	8fbf004c 	lw	ra,76(sp)
6880512c:	8fb20048 	lw	s2,72(sp)
68805130:	8fb10044 	lw	s1,68(sp)
68805134:	8fb00040 	lw	s0,64(sp)
68805138:	2402ffff 	li	v0,-1
6880513c:	03e00008 	jr	ra
68805140:	27bd0050 	addiu	sp,sp,80
68805144:	0e201802 	jal	68806008 <os_sched_unlock>
68805148:	00000000 	nop
6880514c:	8fbf004c 	lw	ra,76(sp)
68805150:	8fb20048 	lw	s2,72(sp)
68805154:	8fb10044 	lw	s1,68(sp)
68805158:	8fb00040 	lw	s0,64(sp)
6880515c:	00001021 	move	v0,zero
68805160:	03e00008 	jr	ra
68805164:	27bd0050 	addiu	sp,sp,80
68805168:	0e201820 	jal	68806080 <os_cpu_save_sr>
6880516c:	00000000 	nop
68805170:	3c056880 	lui	a1,0x6880
68805174:	3c046880 	lui	a0,0x6880
68805178:	00408021 	move	s0,v0
6880517c:	24a56184 	addiu	a1,a1,24964
68805180:	2406006e 	li	a2,110
68805184:	0e201805 	jal	68806014 <printf>
68805188:	24846a84 	addiu	a0,a0,27268
6880518c:	0e20181d 	jal	68806074 <os_cpu_store_sr>
68805190:	02002021 	move	a0,s0
68805194:	0e201802 	jal	68806008 <os_sched_unlock>
68805198:	00000000 	nop
6880519c:	1000ffe3 	b	6880512c <__start+0x160>
688051a0:	8fbf004c 	lw	ra,76(sp)
688051a4:	0e201820 	jal	68806080 <os_cpu_save_sr>
688051a8:	00000000 	nop
688051ac:	00408021 	move	s0,v0
688051b0:	3c036880 	lui	v1,0x6880
688051b4:	8fa70038 	lw	a3,56(sp)
688051b8:	3c026880 	lui	v0,0x6880
688051bc:	24646a28 	addiu	a0,v1,27176
688051c0:	24456184 	addiu	a1,v0,24964
688051c4:	0e201805 	jal	68806014 <printf>
688051c8:	24060087 	li	a2,135
688051cc:	0e20181d 	jal	68806074 <os_cpu_store_sr>
688051d0:	02002021 	move	a0,s0
688051d4:	1000ffd5 	b	6880512c <__start+0x160>
688051d8:	8fbf004c 	lw	ra,76(sp)

688051dc <__do_global_ctors_aux>:
688051dc:	27bdffe0 	addiu	sp,sp,-32
688051e0:	afbf001c 	sw	ra,28(sp)
688051e4:	afbe0018 	sw	s8,24(sp)
688051e8:	03a0f021 	move	s8,sp
688051ec:	3c026880 	lui	v0,0x6880
688051f0:	24427004 	addiu	v0,v0,28676
688051f4:	afc20010 	sw	v0,16(s8)
688051f8:	8fc20010 	lw	v0,16(s8)
688051fc:	8c420000 	lw	v0,0(v0)
68805200:	1040000a 	beqz	v0,6880522c <__do_global_ctors_aux+0x50>
68805204:	00000000 	nop
68805208:	8fc20010 	lw	v0,16(s8)
6880520c:	8c420000 	lw	v0,0(v0)
68805210:	0040f809 	jalr	v0
68805214:	00000000 	nop
68805218:	8fc20010 	lw	v0,16(s8)
6880521c:	24420004 	addiu	v0,v0,4
68805220:	afc20010 	sw	v0,16(s8)
68805224:	1000fff4 	b	688051f8 <__do_global_ctors_aux+0x1c>
68805228:	00000000 	nop
6880522c:	03c0e821 	move	sp,s8
68805230:	8fbf001c 	lw	ra,28(sp)
68805234:	8fbe0018 	lw	s8,24(sp)
68805238:	27bd0020 	addiu	sp,sp,32
6880523c:	03e00008 	jr	ra
68805240:	00000000 	nop

68805244 <execl>:
68805244:	3c030007 	lui	v1,0x7
68805248:	34630010 	ori	v1,v1,0x10
6880524c:	0000000c 	syscall

68805250 <__kernel_release_pid>:
68805250:	3c030007 	lui	v1,0x7
68805254:	34630005 	ori	v1,v1,0x5
68805258:	0000000c 	syscall

6880525c <getpid>:
6880525c:	3c030007 	lui	v1,0x7
68805260:	34630016 	ori	v1,v1,0x16
68805264:	0000000c 	syscall

68805268 <wait>:
68805268:	3c030007 	lui	v1,0x7
6880526c:	34630017 	ori	v1,v1,0x17
68805270:	0000000c 	syscall

68805274 <putenv>:
68805274:	3c030007 	lui	v1,0x7
68805278:	3463001a 	ori	v1,v1,0x1a
6880527c:	0000000c 	syscall

68805280 <__kernel_set_envp>:
68805280:	3c030007 	lui	v1,0x7
68805284:	3463001d 	ori	v1,v1,0x1d
68805288:	0000000c 	syscall

6880528c <__kernel_get_process_struct>:
6880528c:	3c030007 	lui	v1,0x7
68805290:	34630006 	ori	v1,v1,0x6
68805294:	0000000c 	syscall

68805298 <__errno>:
68805298:	3c030007 	lui	v1,0x7
6880529c:	34630024 	ori	v1,v1,0x24
688052a0:	0000000c 	syscall

688052a4 <__current_pid>:
688052a4:	3c030007 	lui	v1,0x7
688052a8:	34630025 	ori	v1,v1,0x25
688052ac:	0000000c 	syscall

688052b0 <__kernel_insert_sub_to_parent>:
688052b0:	3c030007 	lui	v1,0x7
688052b4:	34630027 	ori	v1,v1,0x27
688052b8:	0000000c 	syscall

688052bc <__kernel_remove_sub_from_parent>:
688052bc:	3c030007 	lui	v1,0x7
688052c0:	34630028 	ori	v1,v1,0x28
688052c4:	0000000c 	syscall

688052c8 <mq_open>:
688052c8:	3c030007 	lui	v1,0x7
688052cc:	34630030 	ori	v1,v1,0x30
688052d0:	0000000c 	syscall

688052d4 <mq_close>:
688052d4:	3c030007 	lui	v1,0x7
688052d8:	34630031 	ori	v1,v1,0x31
688052dc:	0000000c 	syscall

688052e0 <mq_unlink>:
688052e0:	3c030007 	lui	v1,0x7
688052e4:	34630032 	ori	v1,v1,0x32
688052e8:	0000000c 	syscall

688052ec <mq_send>:
688052ec:	3c030007 	lui	v1,0x7
688052f0:	34630033 	ori	v1,v1,0x33
688052f4:	0000000c 	syscall

688052f8 <mq_receive>:
688052f8:	3c030007 	lui	v1,0x7
688052fc:	34630035 	ori	v1,v1,0x35
68805300:	0000000c 	syscall

68805304 <mq_timedreceive>:
68805304:	3c030007 	lui	v1,0x7
68805308:	34630036 	ori	v1,v1,0x36
6880530c:	0000000c 	syscall

68805310 <pthread_create>:
68805310:	3c030007 	lui	v1,0x7
68805314:	34630060 	ori	v1,v1,0x60
68805318:	0000000c 	syscall

6880531c <__kernel_get_pid>:
6880531c:	3c030007 	lui	v1,0x7
68805320:	34630004 	ori	v1,v1,0x4
68805324:	0000000c 	syscall

68805328 <pthread_attr_init>:
68805328:	3c030007 	lui	v1,0x7
6880532c:	34630070 	ori	v1,v1,0x70
68805330:	0000000c 	syscall

68805334 <pthread_attr_destroy>:
68805334:	3c030007 	lui	v1,0x7
68805338:	34630071 	ori	v1,v1,0x71
6880533c:	0000000c 	syscall

68805340 <pthread_attr_setinheritsched>:
68805340:	3c030007 	lui	v1,0x7
68805344:	34630072 	ori	v1,v1,0x72
68805348:	0000000c 	syscall

6880534c <pthread_attr_setdetachstate>:
6880534c:	3c030007 	lui	v1,0x7
68805350:	34630074 	ori	v1,v1,0x74
68805354:	0000000c 	syscall

68805358 <exit>:
68805358:	3c030007 	lui	v1,0x7
6880535c:	34630082 	ori	v1,v1,0x82
68805360:	0000000c 	syscall

68805364 <_kernel_change_thread_pid>:
68805364:	3c030007 	lui	v1,0x7
68805368:	3463000e 	ori	v1,v1,0xe
6880536c:	0000000c 	syscall

68805370 <sleep>:
68805370:	3c030007 	lui	v1,0x7
68805374:	34630083 	ori	v1,v1,0x83
68805378:	0000000c 	syscall

6880537c <usleep>:
6880537c:	3c030007 	lui	v1,0x7
68805380:	34630084 	ori	v1,v1,0x84
68805384:	0000000c 	syscall

68805388 <clock_gettime>:
68805388:	3c030007 	lui	v1,0x7
6880538c:	34630085 	ori	v1,v1,0x85
68805390:	0000000c 	syscall

68805394 <sprintf>:
68805394:	27bdffe8 	addiu	sp,sp,-24
68805398:	afa60020 	sw	a2,32(sp)
6880539c:	27a60020 	addiu	a2,sp,32
688053a0:	afbf0010 	sw	ra,16(sp)
688053a4:	afa70024 	sw	a3,36(sp)
688053a8:	0e20159f 	jal	6880567c <vsprintf>
688053ac:	afa5001c 	sw	a1,28(sp)
688053b0:	8fbf0010 	lw	ra,16(sp)
688053b4:	03e00008 	jr	ra
688053b8:	27bd0018 	addiu	sp,sp,24

688053bc <skip_atoi>:
688053bc:	8c870000 	lw	a3,0(a0)
688053c0:	00804821 	move	t1,a0
688053c4:	90e50000 	lbu	a1,0(a3)
688053c8:	00004021 	move	t0,zero
688053cc:	24a4ffd0 	addiu	a0,a1,-48
688053d0:	308300ff 	andi	v1,a0,0xff
688053d4:	2c62000a 	sltiu	v0,v1,10
688053d8:	1040000f 	beqz	v0,68805418 <skip_atoi+0x5c>
688053dc:	00e03021 	move	a2,a3
688053e0:	24c60001 	addiu	a2,a2,1
688053e4:	ad260000 	sw	a2,0(t1)
688053e8:	24e70001 	addiu	a3,a3,1
688053ec:	7c056c20 	seb	t5,a1
688053f0:	90e50000 	lbu	a1,0(a3)
688053f4:	0008c080 	sll	t8,t0,0x2
688053f8:	03087821 	addu	t7,t8,t0
688053fc:	24aeffd0 	addiu	t6,a1,-48
68805400:	31c800ff 	andi	t0,t6,0xff
68805404:	000f6040 	sll	t4,t7,0x1
68805408:	018d5821 	addu	t3,t4,t5
6880540c:	2d0a000a 	sltiu	t2,t0,10
68805410:	1540fff3 	bnez	t2,688053e0 <skip_atoi+0x24>
68805414:	2568ffd0 	addiu	t0,t3,-48
68805418:	03e00008 	jr	ra
6880541c:	01001021 	move	v0,t0

68805420 <number_signed>:
68805420:	27bdffb8 	addiu	sp,sp,-72
68805424:	8fab005c 	lw	t3,92(sp)
68805428:	3c026880 	lui	v0,0x6880
6880542c:	31630040 	andi	v1,t3,0x40
68805430:	00804021 	move	t0,a0
68805434:	244d6ab0 	addiu	t5,v0,27312
68805438:	10600003 	beqz	v1,68805448 <number_signed+0x28>
6880543c:	8fb80058 	lw	t8,88(sp)
68805440:	3c046880 	lui	a0,0x6880
68805444:	248d6ad8 	addiu	t5,a0,27352
68805448:	31690010 	andi	t1,t3,0x10
6880544c:	11200003 	beqz	t1,6880545c <number_signed+0x3c>
68805450:	24cefffe 	addiu	t6,a2,-2
68805454:	240afffe 	li	t2,-2
68805458:	016a5824 	and	t3,t3,t2
6880545c:	2dcc0023 	sltiu	t4,t6,35
68805460:	11800050 	beqz	t4,688055a4 <number_signed+0x184>
68805464:	00001821 	move	v1,zero
68805468:	240f0020 	li	t7,32
6880546c:	31630001 	andi	v1,t3,0x1
68805470:	240c0030 	li	t4,48
68805474:	31790002 	andi	t9,t3,0x2
68805478:	01e3600a 	movz	t4,t7,v1
6880547c:	17200064 	bnez	t9,68805610 <number_signed+0x1f0>
68805480:	00007821 	move	t7,zero
68805484:	316e0020 	andi	t6,t3,0x20
68805488:	11c00007 	beqz	t6,688054a8 <number_signed+0x88>
6880548c:	00005021 	move	t2,zero
68805490:	24090010 	li	t1,16
68805494:	10c9006e 	beq	a2,t1,68805650 <number_signed+0x230>
68805498:	38d90008 	xori	t9,a2,0x8
6880549c:	2f2a0001 	sltiu	t2,t9,1
688054a0:	00ea3823 	subu	a3,a3,t2
688054a4:	00005021 	move	t2,zero
688054a8:	14a00041 	bnez	a1,688055b0 <number_signed+0x190>
688054ac:	03a04821 	move	t1,sp
688054b0:	24050030 	li	a1,48
688054b4:	240a0001 	li	t2,1
688054b8:	a3a50000 	sb	a1,0(sp)
688054bc:	030a482a 	slt	t1,t8,t2
688054c0:	01402021 	move	a0,t2
688054c4:	0309200a 	movz	a0,t8,t1
688054c8:	31780011 	andi	t8,t3,0x11
688054cc:	17000008 	bnez	t8,688054f0 <number_signed+0xd0>
688054d0:	00e43823 	subu	a3,a3,a0
688054d4:	18e00006 	blez	a3,688054f0 <number_signed+0xd0>
688054d8:	00000000 	nop
688054dc:	24020020 	li	v0,32
688054e0:	24e7ffff 	addiu	a3,a3,-1
688054e4:	a1020000 	sb	v0,0(t0)
688054e8:	1ce0fffd 	bgtz	a3,688054e0 <number_signed+0xc0>
688054ec:	25080001 	addiu	t0,t0,1
688054f0:	11e00003 	beqz	t7,68805500 <number_signed+0xe0>
688054f4:	00000000 	nop
688054f8:	a10f0000 	sb	t7,0(t0)
688054fc:	25080001 	addiu	t0,t0,1
68805500:	51c00007 	beqzl	t6,68805520 <number_signed+0x100>
68805504:	316d0010 	andi	t5,t3,0x10
68805508:	240e0008 	li	t6,8
6880550c:	10ce004c 	beq	a2,t6,68805640 <number_signed+0x220>
68805510:	240f0010 	li	t7,16
68805514:	10cf0054 	beq	a2,t7,68805668 <number_signed+0x248>
68805518:	24030030 	li	v1,48
6880551c:	316d0010 	andi	t5,t3,0x10
68805520:	15a00008 	bnez	t5,68805544 <number_signed+0x124>
68805524:	0144582a 	slt	t3,t2,a0
68805528:	10000003 	b	68805538 <number_signed+0x118>
6880552c:	00000000 	nop
68805530:	24e7ffff 	addiu	a3,a3,-1
68805534:	25080001 	addiu	t0,t0,1
68805538:	5ce0fffd 	bgtzl	a3,68805530 <number_signed+0x110>
6880553c:	a10c0000 	sb	t4,0(t0)
68805540:	0144582a 	slt	t3,t2,a0
68805544:	11600007 	beqz	t3,68805564 <number_signed+0x144>
68805548:	00000000 	nop
6880554c:	24030030 	li	v1,48
68805550:	2484ffff 	addiu	a0,a0,-1
68805554:	0144602a 	slt	t4,t2,a0
68805558:	a1030000 	sb	v1,0(t0)
6880555c:	1580fffc 	bnez	t4,68805550 <number_signed+0x130>
68805560:	25080001 	addiu	t0,t0,1
68805564:	19400008 	blez	t2,68805588 <number_signed+0x168>
68805568:	00000000 	nop
6880556c:	015d1821 	addu	v1,t2,sp
68805570:	2463ffff 	addiu	v1,v1,-1
68805574:	90640000 	lbu	a0,0(v1)
68805578:	254affff 	addiu	t2,t2,-1
6880557c:	a1040000 	sb	a0,0(t0)
68805580:	1d40fffb 	bgtz	t2,68805570 <number_signed+0x150>
68805584:	25080001 	addiu	t0,t0,1
68805588:	18e00005 	blez	a3,688055a0 <number_signed+0x180>
6880558c:	24020020 	li	v0,32
68805590:	24e7ffff 	addiu	a3,a3,-1
68805594:	a1020000 	sb	v0,0(t0)
68805598:	1ce0fffd 	bgtz	a3,68805590 <number_signed+0x170>
6880559c:	25080001 	addiu	t0,t0,1
688055a0:	01001821 	move	v1,t0
688055a4:	00601021 	move	v0,v1
688055a8:	03e00008 	jr	ra
688055ac:	27bd0048 	addiu	sp,sp,72
688055b0:	00a6001a 	div	zero,a1,a2
688055b4:	00c001f4 	teq	a2,zero,0x7
688055b8:	254a0001 	addiu	t2,t2,1
688055bc:	0000c810 	mfhi	t9
688055c0:	00002012 	mflo	a0
688055c4:	032d1021 	addu	v0,t9,t5
688055c8:	90430000 	lbu	v1,0(v0)
688055cc:	00002812 	mflo	a1
688055d0:	a1230000 	sb	v1,0(t1)
688055d4:	1080ffb9 	beqz	a0,688054bc <number_signed+0x9c>
688055d8:	25290001 	addiu	t1,t1,1
688055dc:	00a6001a 	div	zero,a1,a2
688055e0:	00c001f4 	teq	a2,zero,0x7
688055e4:	254a0001 	addiu	t2,t2,1
688055e8:	0000c810 	mfhi	t9
688055ec:	00002012 	mflo	a0
688055f0:	032d1021 	addu	v0,t9,t5
688055f4:	90430000 	lbu	v1,0(v0)
688055f8:	00002812 	mflo	a1
688055fc:	a1230000 	sb	v1,0(t1)
68805600:	1480ffeb 	bnez	a0,688055b0 <number_signed+0x190>
68805604:	25290001 	addiu	t1,t1,1
68805608:	1000ffad 	b	688054c0 <number_signed+0xa0>
6880560c:	030a482a 	slt	t1,t8,t2
68805610:	04a00011 	bltz	a1,68805658 <number_signed+0x238>
68805614:	31620004 	andi	v0,t3,0x4
68805618:	54400007 	bnezl	v0,68805638 <number_signed+0x218>
6880561c:	24e7ffff 	addiu	a3,a3,-1
68805620:	31640008 	andi	a0,t3,0x8
68805624:	1080ff98 	beqz	a0,68805488 <number_signed+0x68>
68805628:	316e0020 	andi	t6,t3,0x20
6880562c:	24e7ffff 	addiu	a3,a3,-1
68805630:	1000ff95 	b	68805488 <number_signed+0x68>
68805634:	240f0020 	li	t7,32
68805638:	1000ff92 	b	68805484 <number_signed+0x64>
6880563c:	240f002b 	li	t7,43
68805640:	24060030 	li	a2,48
68805644:	a1060000 	sb	a2,0(t0)
68805648:	1000ffb4 	b	6880551c <number_signed+0xfc>
6880564c:	25080001 	addiu	t0,t0,1
68805650:	1000ff94 	b	688054a4 <number_signed+0x84>
68805654:	24e7fffe 	addiu	a3,a3,-2
68805658:	00052823 	negu	a1,a1
6880565c:	24e7ffff 	addiu	a3,a3,-1
68805660:	1000ff88 	b	68805484 <number_signed+0x64>
68805664:	240f002d 	li	t7,45
68805668:	a1030000 	sb	v1,0(t0)
6880566c:	91a50021 	lbu	a1,33(t5)
68805670:	a1050001 	sb	a1,1(t0)
68805674:	1000ffa9 	b	6880551c <number_signed+0xfc>
68805678:	25080002 	addiu	t0,t0,2

6880567c <vsprintf>:
6880567c:	27bdff80 	addiu	sp,sp,-128
68805680:	2ca20001 	sltiu	v0,a1,1
68805684:	afb40070 	sw	s4,112(sp)
68805688:	0080a021 	move	s4,a0
6880568c:	2c840001 	sltiu	a0,a0,1
68805690:	00821825 	or	v1,a0,v0
68805694:	afb3006c 	sw	s3,108(sp)
68805698:	afbf0078 	sw	ra,120(sp)
6880569c:	afb50074 	sw	s5,116(sp)
688056a0:	afb20068 	sw	s2,104(sp)
688056a4:	afb10064 	sw	s1,100(sp)
688056a8:	afb00060 	sw	s0,96(sp)
688056ac:	00a04021 	move	t0,a1
688056b0:	afa50084 	sw	a1,132(sp)
688056b4:	00c09821 	move	s3,a2
688056b8:	14600013 	bnez	v1,68805708 <vsprintf+0x8c>
688056bc:	00001021 	move	v0,zero
688056c0:	91040000 	lbu	a0,0(t0)
688056c4:	7c041c20 	seb	v1,a0
688056c8:	1060000d 	beqz	v1,68805700 <vsprintf+0x84>
688056cc:	02808021 	move	s0,s4
688056d0:	24050025 	li	a1,37
688056d4:	10650016 	beq	v1,a1,68805730 <vsprintf+0xb4>
688056d8:	00008821 	move	s1,zero
688056dc:	a2040000 	sb	a0,0(s0)
688056e0:	8fa80084 	lw	t0,132(sp)
688056e4:	26100001 	addiu	s0,s0,1
688056e8:	25080001 	addiu	t0,t0,1
688056ec:	afa80084 	sw	t0,132(sp)
688056f0:	91040000 	lbu	a0,0(t0)
688056f4:	7c041c20 	seb	v1,a0
688056f8:	1460fff6 	bnez	v1,688056d4 <vsprintf+0x58>
688056fc:	24050025 	li	a1,37
68805700:	02141023 	subu	v0,s0,s4
68805704:	a2000000 	sb	zero,0(s0)
68805708:	8fbf0078 	lw	ra,120(sp)
6880570c:	8fb50074 	lw	s5,116(sp)
68805710:	8fb40070 	lw	s4,112(sp)
68805714:	8fb3006c 	lw	s3,108(sp)
68805718:	8fb20068 	lw	s2,104(sp)
6880571c:	8fb10064 	lw	s1,100(sp)
68805720:	8fb00060 	lw	s0,96(sp)
68805724:	03e00008 	jr	ra
68805728:	27bd0080 	addiu	sp,sp,128
6880572c:	36310001 	ori	s1,s1,0x1
68805730:	25080001 	addiu	t0,t0,1
68805734:	afa80084 	sw	t0,132(sp)
68805738:	91070000 	lbu	a3,0(t0)
6880573c:	7c072420 	seb	a0,a3
68805740:	388d002d 	xori	t5,a0,0x2d
68805744:	388c002b 	xori	t4,a0,0x2b
68805748:	2daa0001 	sltiu	t2,t5,1
6880574c:	2d8b0001 	sltiu	t3,t4,1
68805750:	014b4825 	or	t1,t2,t3
68805754:	15200008 	bnez	t1,68805778 <vsprintf+0xfc>
68805758:	01003021 	move	a2,t0
6880575c:	240e0023 	li	t6,35
68805760:	108e0005 	beq	a0,t6,68805778 <vsprintf+0xfc>
68805764:	240f0030 	li	t7,48
68805768:	108f0003 	beq	a0,t7,68805778 <vsprintf+0xfc>
6880576c:	24120020 	li	s2,32
68805770:	14920015 	bne	a0,s2,688057c8 <vsprintf+0x14c>
68805774:	24eaffd0 	addiu	t2,a3,-48
68805778:	80c70000 	lb	a3,0(a2)
6880577c:	24e2ffe0 	addiu	v0,a3,-32
68805780:	2c460011 	sltiu	a2,v0,17
68805784:	50c0ffeb 	beqzl	a2,68805734 <vsprintf+0xb8>
68805788:	25080001 	addiu	t0,t0,1
6880578c:	3c046880 	lui	a0,0x6880
68805790:	0002f880 	sll	ra,v0,0x2
68805794:	2483618c 	addiu	v1,a0,24972
68805798:	03e3c821 	addu	t9,ra,v1
6880579c:	8f380000 	lw	t8,0(t9)
688057a0:	03000008 	jr	t8
688057a4:	00000000 	nop
688057a8:	1000ffe1 	b	68805730 <vsprintf+0xb4>
688057ac:	36310010 	ori	s1,s1,0x10
688057b0:	1000ffdf 	b	68805730 <vsprintf+0xb4>
688057b4:	36310004 	ori	s1,s1,0x4
688057b8:	1000ffdd 	b	68805730 <vsprintf+0xb4>
688057bc:	36310020 	ori	s1,s1,0x20
688057c0:	1000ffdb 	b	68805730 <vsprintf+0xb4>
688057c4:	36310008 	ori	s1,s1,0x8
688057c8:	314900ff 	andi	t1,t2,0xff
688057cc:	2d22000a 	sltiu	v0,t1,10
688057d0:	14400030 	bnez	v0,68805894 <vsprintf+0x218>
688057d4:	2412ffff 	li	s2,-1
688057d8:	240b002a 	li	t3,42
688057dc:	508b004b 	beql	a0,t3,6880590c <vsprintf+0x290>
688057e0:	26730004 	addiu	s3,s3,4
688057e4:	91050000 	lbu	a1,0(t0)
688057e8:	240d002e 	li	t5,46
688057ec:	7c057420 	seb	t6,a1
688057f0:	11cd0031 	beq	t6,t5,688058b8 <vsprintf+0x23c>
688057f4:	240cffff 	li	t4,-1
688057f8:	7c052420 	seb	a0,a1
688057fc:	38830068 	xori	v1,a0,0x68
68805800:	3889006c 	xori	t1,a0,0x6c
68805804:	2c7f0001 	sltiu	ra,v1,1
68805808:	2d220001 	sltiu	v0,t1,1
6880580c:	03e2c825 	or	t9,ra,v0
68805810:	17200010 	bnez	t9,68805854 <vsprintf+0x1d8>
68805814:	2407ffff 	li	a3,-1
68805818:	240a0071 	li	t2,113
6880581c:	108a000d 	beq	a0,t2,68805854 <vsprintf+0x1d8>
68805820:	2482ffdb 	addiu	v0,a0,-37
68805824:	2c450054 	sltiu	a1,v0,84
68805828:	14a00013 	bnez	a1,68805878 <vsprintf+0x1fc>
6880582c:	2406000a 	li	a2,10
68805830:	240a0025 	li	t2,37
68805834:	a20a0000 	sb	t2,0(s0)
68805838:	8fa30084 	lw	v1,132(sp)
6880583c:	26100001 	addiu	s0,s0,1
68805840:	90640000 	lbu	a0,0(v1)
68805844:	1080ffa8 	beqz	a0,688056e8 <vsprintf+0x6c>
68805848:	2468ffff 	addiu	t0,v1,-1
6880584c:	1000ffa4 	b	688056e0 <vsprintf+0x64>
68805850:	a2040000 	sb	a0,0(s0)
68805854:	25080001 	addiu	t0,t0,1
68805858:	afa80084 	sw	t0,132(sp)
6880585c:	91050000 	lbu	a1,0(t0)
68805860:	00803821 	move	a3,a0
68805864:	7c052420 	seb	a0,a1
68805868:	2482ffdb 	addiu	v0,a0,-37
6880586c:	2c450054 	sltiu	a1,v0,84
68805870:	10a0ffef 	beqz	a1,68805830 <vsprintf+0x1b4>
68805874:	2406000a 	li	a2,10
68805878:	3c186880 	lui	t8,0x6880
6880587c:	00027080 	sll	t6,v0,0x2
68805880:	270f61d0 	addiu	t7,t8,25040
68805884:	01cf6821 	addu	t5,t6,t7
68805888:	8dab0000 	lw	t3,0(t5)
6880588c:	01600008 	jr	t3
68805890:	00000000 	nop
68805894:	0e2014ef 	jal	688053bc <skip_atoi>
68805898:	27a40084 	addiu	a0,sp,132
6880589c:	8fa80084 	lw	t0,132(sp)
688058a0:	240d002e 	li	t5,46
688058a4:	91050000 	lbu	a1,0(t0)
688058a8:	00409021 	move	s2,v0
688058ac:	7c057420 	seb	t6,a1
688058b0:	15cdffd1 	bne	t6,t5,688057f8 <vsprintf+0x17c>
688058b4:	240cffff 	li	t4,-1
688058b8:	25080001 	addiu	t0,t0,1
688058bc:	afa80084 	sw	t0,132(sp)
688058c0:	91030000 	lbu	v1,0(t0)
688058c4:	2466ffd0 	addiu	a2,v1,-48
688058c8:	30cf00ff 	andi	t7,a2,0xff
688058cc:	2dec000a 	sltiu	t4,t7,10
688058d0:	15800015 	bnez	t4,68805928 <vsprintf+0x2ac>
688058d4:	7c03c420 	seb	t8,v1
688058d8:	2407002a 	li	a3,42
688058dc:	53070004 	beql	t8,a3,688058f0 <vsprintf+0x274>
688058e0:	26730004 	addiu	s3,s3,4
688058e4:	91050000 	lbu	a1,0(t0)
688058e8:	1000ffc3 	b	688057f8 <vsprintf+0x17c>
688058ec:	00006021 	move	t4,zero
688058f0:	25080001 	addiu	t0,t0,1
688058f4:	8e6cfffc 	lw	t4,-4(s3)
688058f8:	afa80084 	sw	t0,132(sp)
688058fc:	0580fffa 	bltz	t4,688058e8 <vsprintf+0x26c>
68805900:	91050000 	lbu	a1,0(t0)
68805904:	1000ffbd 	b	688057fc <vsprintf+0x180>
68805908:	7c052420 	seb	a0,a1
6880590c:	8e72fffc 	lw	s2,-4(s3)
68805910:	25080001 	addiu	t0,t0,1
68805914:	0641ffb3 	bgez	s2,688057e4 <vsprintf+0x168>
68805918:	afa80084 	sw	t0,132(sp)
6880591c:	00129023 	negu	s2,s2
68805920:	1000ffb0 	b	688057e4 <vsprintf+0x168>
68805924:	36310010 	ori	s1,s1,0x10
68805928:	0e2014ef 	jal	688053bc <skip_atoi>
6880592c:	27a40084 	addiu	a0,sp,132
68805930:	8fa80084 	lw	t0,132(sp)
68805934:	1000fff1 	b	688058fc <vsprintf+0x280>
68805938:	00406021 	move	t4,v0
6880593c:	36310040 	ori	s1,s1,0x40
68805940:	24060010 	li	a2,16
68805944:	2405006c 	li	a1,108
68805948:	10e50003 	beq	a3,a1,68805958 <vsprintf+0x2dc>
6880594c:	24040068 	li	a0,104
68805950:	10e400fb 	beq	a3,a0,68805d40 <vsprintf+0x6c4>
68805954:	32220002 	andi	v0,s1,0x2
68805958:	32220002 	andi	v0,s1,0x2
6880595c:	104000f6 	beqz	v0,68805d38 <vsprintf+0x6bc>
68805960:	26730004 	addiu	s3,s3,4
68805964:	8e65fffc 	lw	a1,-4(s3)
68805968:	144000f9 	bnez	v0,68805d50 <vsprintf+0x6d4>
6880596c:	02002021 	move	a0,s0
68805970:	02002821 	move	a1,s0
68805974:	322e0040 	andi	t6,s1,0x40
68805978:	3c106880 	lui	s0,0x6880
6880597c:	260d6ab0 	addiu	t5,s0,27312
68805980:	02205821 	move	t3,s1
68805984:	02403821 	move	a3,s2
68805988:	02a05021 	move	t2,s5
6880598c:	11c00003 	beqz	t6,6880599c <vsprintf+0x320>
68805990:	01808021 	move	s0,t4
68805994:	3c0f6880 	lui	t7,0x6880
68805998:	25ed6ad8 	addiu	t5,t7,27352
6880599c:	31780010 	andi	t8,t3,0x10
688059a0:	13000003 	beqz	t8,688059b0 <vsprintf+0x334>
688059a4:	24dffffe 	addiu	ra,a2,-2
688059a8:	2411fffe 	li	s1,-2
688059ac:	01715824 	and	t3,t3,s1
688059b0:	2ff90023 	sltiu	t9,ra,35
688059b4:	13200057 	beqz	t9,68805b14 <vsprintf+0x498>
688059b8:	00002021 	move	a0,zero
688059bc:	31620001 	andi	v0,t3,0x1
688059c0:	240e0030 	li	t6,48
688059c4:	24120020 	li	s2,32
688059c8:	31680002 	andi	t0,t3,0x2
688059cc:	0242700a 	movz	t6,s2,v0
688059d0:	11000006 	beqz	t0,688059ec <vsprintf+0x370>
688059d4:	00008821 	move	s1,zero
688059d8:	31690004 	andi	t1,t3,0x4
688059dc:	112000e4 	beqz	t1,68805d70 <vsprintf+0x6f4>
688059e0:	31630008 	andi	v1,t3,0x8
688059e4:	24e7ffff 	addiu	a3,a3,-1
688059e8:	2411002b 	li	s1,43
688059ec:	316f0020 	andi	t7,t3,0x20
688059f0:	11e00007 	beqz	t7,68805a10 <vsprintf+0x394>
688059f4:	00004821 	move	t1,zero
688059f8:	24040010 	li	a0,16
688059fc:	10c400e1 	beq	a2,a0,68805d84 <vsprintf+0x708>
68805a00:	38d90008 	xori	t9,a2,0x8
68805a04:	2f380001 	sltiu	t8,t9,1
68805a08:	00f83823 	subu	a3,a3,t8
68805a0c:	00004821 	move	t1,zero
68805a10:	16a00044 	bnez	s5,68805b24 <vsprintf+0x4a8>
68805a14:	27a80018 	addiu	t0,sp,24
68805a18:	240a0030 	li	t2,48
68805a1c:	24090001 	li	t1,1
68805a20:	a3aa0018 	sb	t2,24(sp)
68805a24:	0189402a 	slt	t0,t4,t1
68805a28:	01202021 	move	a0,t1
68805a2c:	0208200a 	movz	a0,s0,t0
68805a30:	316c0011 	andi	t4,t3,0x11
68805a34:	15800008 	bnez	t4,68805a58 <vsprintf+0x3dc>
68805a38:	00e43823 	subu	a3,a3,a0
68805a3c:	18e00006 	blez	a3,68805a58 <vsprintf+0x3dc>
68805a40:	00000000 	nop
68805a44:	24020020 	li	v0,32
68805a48:	24e7ffff 	addiu	a3,a3,-1
68805a4c:	a0a20000 	sb	v0,0(a1)
68805a50:	1ce0fffd 	bgtz	a3,68805a48 <vsprintf+0x3cc>
68805a54:	24a50001 	addiu	a1,a1,1
68805a58:	12200003 	beqz	s1,68805a68 <vsprintf+0x3ec>
68805a5c:	00000000 	nop
68805a60:	a0b10000 	sb	s1,0(a1)
68805a64:	24a50001 	addiu	a1,a1,1
68805a68:	11e00007 	beqz	t7,68805a88 <vsprintf+0x40c>
68805a6c:	31780010 	andi	t8,t3,0x10
68805a70:	24100008 	li	s0,8
68805a74:	10d000c5 	beq	a2,s0,68805d8c <vsprintf+0x710>
68805a78:	240f0010 	li	t7,16
68805a7c:	10cf00c9 	beq	a2,t7,68805da4 <vsprintf+0x728>
68805a80:	24110030 	li	s1,48
68805a84:	31780010 	andi	t8,t3,0x10
68805a88:	17000008 	bnez	t8,68805aac <vsprintf+0x430>
68805a8c:	0124582a 	slt	t3,t1,a0
68805a90:	10000003 	b	68805aa0 <vsprintf+0x424>
68805a94:	00000000 	nop
68805a98:	24e7ffff 	addiu	a3,a3,-1
68805a9c:	24a50001 	addiu	a1,a1,1
68805aa0:	5ce0fffd 	bgtzl	a3,68805a98 <vsprintf+0x41c>
68805aa4:	a0ae0000 	sb	t6,0(a1)
68805aa8:	0124582a 	slt	t3,t1,a0
68805aac:	11600007 	beqz	t3,68805acc <vsprintf+0x450>
68805ab0:	00000000 	nop
68805ab4:	24030030 	li	v1,48
68805ab8:	2484ffff 	addiu	a0,a0,-1
68805abc:	0124702a 	slt	t6,t1,a0
68805ac0:	a0a30000 	sb	v1,0(a1)
68805ac4:	15c0fffc 	bnez	t6,68805ab8 <vsprintf+0x43c>
68805ac8:	24a50001 	addiu	a1,a1,1
68805acc:	19200008 	blez	t1,68805af0 <vsprintf+0x474>
68805ad0:	27a40018 	addiu	a0,sp,24
68805ad4:	01241821 	addu	v1,t1,a0
68805ad8:	2463ffff 	addiu	v1,v1,-1
68805adc:	90790000 	lbu	t9,0(v1)
68805ae0:	2529ffff 	addiu	t1,t1,-1
68805ae4:	a0b90000 	sb	t9,0(a1)
68805ae8:	1d20fffb 	bgtz	t1,68805ad8 <vsprintf+0x45c>
68805aec:	24a50001 	addiu	a1,a1,1
68805af0:	18e00007 	blez	a3,68805b10 <vsprintf+0x494>
68805af4:	8fa80084 	lw	t0,132(sp)
68805af8:	24020020 	li	v0,32
68805afc:	24e7ffff 	addiu	a3,a3,-1
68805b00:	a0a20000 	sb	v0,0(a1)
68805b04:	1ce0fffd 	bgtz	a3,68805afc <vsprintf+0x480>
68805b08:	24a50001 	addiu	a1,a1,1
68805b0c:	8fa80084 	lw	t0,132(sp)
68805b10:	00a02021 	move	a0,a1
68805b14:	25080001 	addiu	t0,t0,1
68805b18:	00808021 	move	s0,a0
68805b1c:	1000fef4 	b	688056f0 <vsprintf+0x74>
68805b20:	afa80084 	sw	t0,132(sp)
68805b24:	0146001b 	divu	zero,t2,a2
68805b28:	00c001f4 	teq	a2,zero,0x7
68805b2c:	25290001 	addiu	t1,t1,1
68805b30:	00001810 	mfhi	v1
68805b34:	0000f812 	mflo	ra
68805b38:	006d1021 	addu	v0,v1,t5
68805b3c:	90520000 	lbu	s2,0(v0)
68805b40:	00005012 	mflo	t2
68805b44:	a1120000 	sb	s2,0(t0)
68805b48:	13e0ffb6 	beqz	ra,68805a24 <vsprintf+0x3a8>
68805b4c:	25080001 	addiu	t0,t0,1
68805b50:	0146001b 	divu	zero,t2,a2
68805b54:	00c001f4 	teq	a2,zero,0x7
68805b58:	25290001 	addiu	t1,t1,1
68805b5c:	00001810 	mfhi	v1
68805b60:	0000f812 	mflo	ra
68805b64:	006d1021 	addu	v0,v1,t5
68805b68:	90520000 	lbu	s2,0(v0)
68805b6c:	00005012 	mflo	t2
68805b70:	a1120000 	sb	s2,0(t0)
68805b74:	17e0ffeb 	bnez	ra,68805b24 <vsprintf+0x4a8>
68805b78:	25080001 	addiu	t0,t0,1
68805b7c:	1000ffaa 	b	68805a28 <vsprintf+0x3ac>
68805b80:	0189402a 	slt	t0,t4,t1
68805b84:	26730004 	addiu	s3,s3,4
68805b88:	8e64fffc 	lw	a0,-4(s3)
68805b8c:	10800083 	beqz	a0,68805d9c <vsprintf+0x720>
68805b90:	3c066880 	lui	a2,0x6880
68805b94:	01802821 	move	a1,t4
68805b98:	1180000a 	beqz	t4,68805bc4 <vsprintf+0x548>
68805b9c:	00801821 	move	v1,a0
68805ba0:	80820000 	lb	v0,0(a0)
68805ba4:	10400008 	beqz	v0,68805bc8 <vsprintf+0x54c>
68805ba8:	00643023 	subu	a2,v1,a0
68805bac:	24a5ffff 	addiu	a1,a1,-1
68805bb0:	10a00004 	beqz	a1,68805bc4 <vsprintf+0x548>
68805bb4:	24630001 	addiu	v1,v1,1
68805bb8:	80620000 	lb	v0,0(v1)
68805bbc:	1440fffc 	bnez	v0,68805bb0 <vsprintf+0x534>
68805bc0:	24a5ffff 	addiu	a1,a1,-1
68805bc4:	00643023 	subu	a2,v1,a0
68805bc8:	322c0010 	andi	t4,s1,0x10
68805bcc:	15800009 	bnez	t4,68805bf4 <vsprintf+0x578>
68805bd0:	00d2282a 	slt	a1,a2,s2
68805bd4:	10a00007 	beqz	a1,68805bf4 <vsprintf+0x578>
68805bd8:	00000000 	nop
68805bdc:	24020020 	li	v0,32
68805be0:	2652ffff 	addiu	s2,s2,-1
68805be4:	00d2282a 	slt	a1,a2,s2
68805be8:	a2020000 	sb	v0,0(s0)
68805bec:	14a0fffc 	bnez	a1,68805be0 <vsprintf+0x564>
68805bf0:	26100001 	addiu	s0,s0,1
68805bf4:	18c00007 	blez	a2,68805c14 <vsprintf+0x598>
68805bf8:	00c01821 	move	v1,a2
68805bfc:	90870000 	lbu	a3,0(a0)
68805c00:	2463ffff 	addiu	v1,v1,-1
68805c04:	a2070000 	sb	a3,0(s0)
68805c08:	24840001 	addiu	a0,a0,1
68805c0c:	1460fffb 	bnez	v1,68805bfc <vsprintf+0x580>
68805c10:	26100001 	addiu	s0,s0,1
68805c14:	10a00006 	beqz	a1,68805c30 <vsprintf+0x5b4>
68805c18:	24030020 	li	v1,32
68805c1c:	2652ffff 	addiu	s2,s2,-1
68805c20:	00d2c82a 	slt	t9,a2,s2
68805c24:	a2030000 	sb	v1,0(s0)
68805c28:	1720fffc 	bnez	t9,68805c1c <vsprintf+0x5a0>
68805c2c:	26100001 	addiu	s0,s0,1
68805c30:	8fa80084 	lw	t0,132(sp)
68805c34:	25080001 	addiu	t0,t0,1
68805c38:	1000fead 	b	688056f0 <vsprintf+0x74>
68805c3c:	afa80084 	sw	t0,132(sp)
68805c40:	241fffff 	li	ra,-1
68805c44:	125f0035 	beq	s2,ra,68805d1c <vsprintf+0x6a0>
68805c48:	26730004 	addiu	s3,s3,4
68805c4c:	8e65fffc 	lw	a1,-4(s3)
68805c50:	02002021 	move	a0,s0
68805c54:	02403821 	move	a3,s2
68805c58:	24060010 	li	a2,16
68805c5c:	afac0010 	sw	t4,16(sp)
68805c60:	0e201508 	jal	68805420 <number_signed>
68805c64:	afb10014 	sw	s1,20(sp)
68805c68:	00408021 	move	s0,v0
68805c6c:	1000fff1 	b	68805c34 <vsprintf+0x5b8>
68805c70:	8fa80084 	lw	t0,132(sp)
68805c74:	1000ff33 	b	68805944 <vsprintf+0x2c8>
68805c78:	24060008 	li	a2,8
68805c7c:	26730004 	addiu	s3,s3,4
68805c80:	8e72fffc 	lw	s2,-4(s3)
68805c84:	02141023 	subu	v0,s0,s4
68805c88:	25080001 	addiu	t0,t0,1
68805c8c:	ae420000 	sw	v0,0(s2)
68805c90:	1000fe97 	b	688056f0 <vsprintf+0x74>
68805c94:	afa80084 	sw	t0,132(sp)
68805c98:	1000ff2a 	b	68805944 <vsprintf+0x2c8>
68805c9c:	36310080 	ori	s1,s1,0x80
68805ca0:	1000ff28 	b	68805944 <vsprintf+0x2c8>
68805ca4:	36310002 	ori	s1,s1,0x2
68805ca8:	32280010 	andi	t0,s1,0x10
68805cac:	5500000a 	bnezl	t0,68805cd8 <vsprintf+0x65c>
68805cb0:	26730004 	addiu	s3,s3,4
68805cb4:	2652ffff 	addiu	s2,s2,-1
68805cb8:	5a400007 	blezl	s2,68805cd8 <vsprintf+0x65c>
68805cbc:	26730004 	addiu	s3,s3,4
68805cc0:	24020020 	li	v0,32
68805cc4:	2652ffff 	addiu	s2,s2,-1
68805cc8:	a2020000 	sb	v0,0(s0)
68805ccc:	1e40fffd 	bgtz	s2,68805cc4 <vsprintf+0x648>
68805cd0:	26100001 	addiu	s0,s0,1
68805cd4:	26730004 	addiu	s3,s3,4
68805cd8:	8e71fffc 	lw	s1,-4(s3)
68805cdc:	2647ffff 	addiu	a3,s2,-1
68805ce0:	a2110000 	sb	s1,0(s0)
68805ce4:	18e0ffd2 	blez	a3,68805c30 <vsprintf+0x5b4>
68805ce8:	26100001 	addiu	s0,s0,1
68805cec:	24020020 	li	v0,32
68805cf0:	24e7ffff 	addiu	a3,a3,-1
68805cf4:	a2020000 	sb	v0,0(s0)
68805cf8:	1ce0fffd 	bgtz	a3,68805cf0 <vsprintf+0x674>
68805cfc:	26100001 	addiu	s0,s0,1
68805d00:	1000ffcc 	b	68805c34 <vsprintf+0x5b8>
68805d04:	8fa80084 	lw	t0,132(sp)
68805d08:	24090025 	li	t1,37
68805d0c:	a2090000 	sb	t1,0(s0)
68805d10:	8fa80084 	lw	t0,132(sp)
68805d14:	1000fe74 	b	688056e8 <vsprintf+0x6c>
68805d18:	26100001 	addiu	s0,s0,1
68805d1c:	24120008 	li	s2,8
68805d20:	8e65fffc 	lw	a1,-4(s3)
68805d24:	36310001 	ori	s1,s1,0x1
68805d28:	02002021 	move	a0,s0
68805d2c:	02403821 	move	a3,s2
68805d30:	1000ffca 	b	68805c5c <vsprintf+0x5e0>
68805d34:	24060010 	li	a2,16
68805d38:	1000ff0d 	b	68805970 <vsprintf+0x2f4>
68805d3c:	8e75fffc 	lw	s5,-4(s3)
68805d40:	10400009 	beqz	v0,68805d68 <vsprintf+0x6ec>
68805d44:	26730004 	addiu	s3,s3,4
68805d48:	1000ff07 	b	68805968 <vsprintf+0x2ec>
68805d4c:	8665fffc 	lh	a1,-4(s3)
68805d50:	02403821 	move	a3,s2
68805d54:	afac0010 	sw	t4,16(sp)
68805d58:	0e201508 	jal	68805420 <number_signed>
68805d5c:	afb10014 	sw	s1,20(sp)
68805d60:	1000ffc2 	b	68805c6c <vsprintf+0x5f0>
68805d64:	00408021 	move	s0,v0
68805d68:	1000ff01 	b	68805970 <vsprintf+0x2f4>
68805d6c:	9675fffc 	lhu	s5,-4(s3)
68805d70:	1060ff1f 	beqz	v1,688059f0 <vsprintf+0x374>
68805d74:	316f0020 	andi	t7,t3,0x20
68805d78:	24e7ffff 	addiu	a3,a3,-1
68805d7c:	1000ff1c 	b	688059f0 <vsprintf+0x374>
68805d80:	24110020 	li	s1,32
68805d84:	1000ff21 	b	68805a0c <vsprintf+0x390>
68805d88:	24e7fffe 	addiu	a3,a3,-2
68805d8c:	240d0030 	li	t5,48
68805d90:	a0ad0000 	sb	t5,0(a1)
68805d94:	1000ff3b 	b	68805a84 <vsprintf+0x408>
68805d98:	24a50001 	addiu	a1,a1,1
68805d9c:	1000ff7d 	b	68805b94 <vsprintf+0x518>
68805da0:	24c46b00 	addiu	a0,a2,27392
68805da4:	a0b10000 	sb	s1,0(a1)
68805da8:	91a60021 	lbu	a2,33(t5)
68805dac:	a0a60001 	sb	a2,1(a1)
68805db0:	1000ff34 	b	68805a84 <vsprintf+0x408>
68805db4:	24a50002 	addiu	a1,a1,2

68805db8 <memcpy>:
68805db8:	10000005 	b	68805dd0 <memcpy+0x18>
68805dbc:	00801821 	move	v1,a0
68805dc0:	24c6ffff 	addiu	a2,a2,-1
68805dc4:	a0820000 	sb	v0,0(a0)
68805dc8:	24a50001 	addiu	a1,a1,1
68805dcc:	24840001 	addiu	a0,a0,1
68805dd0:	54c0fffb 	bnezl	a2,68805dc0 <memcpy+0x8>
68805dd4:	90a20000 	lbu	v0,0(a1)
68805dd8:	03e00008 	jr	ra
68805ddc:	00601021 	move	v0,v1

68805de0 <bcopy>:
68805de0:	10c00007 	beqz	a2,68805e00 <bcopy+0x20>
68805de4:	00000000 	nop
68805de8:	90820000 	lbu	v0,0(a0)
68805dec:	24c6ffff 	addiu	a2,a2,-1
68805df0:	a0a20000 	sb	v0,0(a1)
68805df4:	24840001 	addiu	a0,a0,1
68805df8:	14c0fffb 	bnez	a2,68805de8 <bcopy+0x8>
68805dfc:	24a50001 	addiu	a1,a1,1
68805e00:	03e00008 	jr	ra
68805e04:	00000000 	nop

68805e08 <memset>:
68805e08:	00801021 	move	v0,a0
68805e0c:	10000003 	b	68805e1c <memset+0x14>
68805e10:	00801821 	move	v1,a0
68805e14:	24c6ffff 	addiu	a2,a2,-1
68805e18:	24630001 	addiu	v1,v1,1
68805e1c:	54c0fffd 	bnezl	a2,68805e14 <memset+0xc>
68805e20:	a0650000 	sb	a1,0(v1)
68805e24:	03e00008 	jr	ra
68805e28:	00000000 	nop

68805e2c <bzero>:
68805e2c:	10a00005 	beqz	a1,68805e44 <bzero+0x18>
68805e30:	00000000 	nop
68805e34:	a0800000 	sb	zero,0(a0)
68805e38:	24a5ffff 	addiu	a1,a1,-1
68805e3c:	14a0fffd 	bnez	a1,68805e34 <bzero+0x8>
68805e40:	24840001 	addiu	a0,a0,1
68805e44:	03e00008 	jr	ra
68805e48:	00000000 	nop

68805e4c <strcmp>:
68805e4c:	90820000 	lbu	v0,0(a0)
68805e50:	90a30000 	lbu	v1,0(a1)
68805e54:	24840001 	addiu	a0,a0,1
68805e58:	10400005 	beqz	v0,68805e70 <strcmp+0x24>
68805e5c:	24a50001 	addiu	a1,a1,1
68805e60:	5043fffb 	beql	v0,v1,68805e50 <strcmp+0x4>
68805e64:	90820000 	lbu	v0,0(a0)
68805e68:	03e00008 	jr	ra
68805e6c:	00431023 	subu	v0,v0,v1
68805e70:	03e00008 	jr	ra
68805e74:	00031023 	negu	v0,v1

68805e78 <strcoll>:
68805e78:	0a201793 	j	68805e4c <strcmp>
68805e7c:	00000000 	nop

68805e80 <strncmp>:
68805e80:	00003821 	move	a3,zero
68805e84:	00004021 	move	t0,zero
68805e88:	10c0000c 	beqz	a2,68805ebc <strncmp+0x3c>
68805e8c:	24c6ffff 	addiu	a2,a2,-1
68805e90:	90870000 	lbu	a3,0(a0)
68805e94:	90a80000 	lbu	t0,0(a1)
68805e98:	2ce90001 	sltiu	t1,a3,1
68805e9c:	00e85026 	xor	t2,a3,t0
68805ea0:	000a102b 	sltu	v0,zero,t2
68805ea4:	01221825 	or	v1,t1,v0
68805ea8:	24840001 	addiu	a0,a0,1
68805eac:	1060fff6 	beqz	v1,68805e88 <strncmp+0x8>
68805eb0:	24a50001 	addiu	a1,a1,1
68805eb4:	03e00008 	jr	ra
68805eb8:	00e81023 	subu	v0,a3,t0
68805ebc:	03e00008 	jr	ra
68805ec0:	00e81023 	subu	v0,a3,t0

68805ec4 <strcpy>:
68805ec4:	90a20000 	lbu	v0,0(a1)
68805ec8:	00801821 	move	v1,a0
68805ecc:	10000004 	b	68805ee0 <strcpy+0x1c>
68805ed0:	a0820000 	sb	v0,0(a0)
68805ed4:	90a20000 	lbu	v0,0(a1)
68805ed8:	24840001 	addiu	a0,a0,1
68805edc:	a0820000 	sb	v0,0(a0)
68805ee0:	5440fffc 	bnezl	v0,68805ed4 <strcpy+0x10>
68805ee4:	24a50001 	addiu	a1,a1,1
68805ee8:	03e00008 	jr	ra
68805eec:	00601021 	move	v0,v1

68805ef0 <strncpy>:
68805ef0:	10c00008 	beqz	a2,68805f14 <strncpy+0x24>
68805ef4:	00801821 	move	v1,a0
68805ef8:	90a20000 	lbu	v0,0(a1)
68805efc:	24a50001 	addiu	a1,a1,1
68805f00:	10400006 	beqz	v0,68805f1c <strncpy+0x2c>
68805f04:	a0820000 	sb	v0,0(a0)
68805f08:	24c6ffff 	addiu	a2,a2,-1
68805f0c:	14c0fffa 	bnez	a2,68805ef8 <strncpy+0x8>
68805f10:	24840001 	addiu	a0,a0,1
68805f14:	03e00008 	jr	ra
68805f18:	00601021 	move	v0,v1
68805f1c:	10c0fffd 	beqz	a2,68805f14 <strncpy+0x24>
68805f20:	00000000 	nop
68805f24:	10000003 	b	68805f34 <strncpy+0x44>
68805f28:	24c6ffff 	addiu	a2,a2,-1
68805f2c:	24c6ffff 	addiu	a2,a2,-1
68805f30:	a0800000 	sb	zero,0(a0)
68805f34:	14c0fffd 	bnez	a2,68805f2c <strncpy+0x3c>
68805f38:	24840001 	addiu	a0,a0,1
68805f3c:	03e00008 	jr	ra
68805f40:	00601021 	move	v0,v1

68805f44 <gui_set_language_mode>:
68805f44:	3c030003 	lui	v1,0x3
68805f48:	34630021 	ori	v1,v1,0x21
68805f4c:	0000000c 	syscall

68805f50 <gui_create_font>:
68805f50:	3c030003 	lui	v1,0x3
68805f54:	3463002b 	ori	v1,v1,0x2b
68805f58:	0000000c 	syscall

68805f5c <gui_destroy_font>:
68805f5c:	3c030003 	lui	v1,0x3
68805f60:	3463002c 	ori	v1,v1,0x2c
68805f64:	0000000c 	syscall

68805f68 <gui_screen_update>:
68805f68:	3c030003 	lui	v1,0x3
68805f6c:	3463003c 	ori	v1,v1,0x3c
68805f70:	0000000c 	syscall

68805f74 <gui_wm_default_callback>:
68805f74:	3c030003 	lui	v1,0x3
68805f78:	34630040 	ori	v1,v1,0x40
68805f7c:	0000000c 	syscall

68805f80 <gui_wm_create_window>:
68805f80:	3c030003 	lui	v1,0x3
68805f84:	34630048 	ori	v1,v1,0x48
68805f88:	0000000c 	syscall

68805f8c <gui_wm_set_focus>:
68805f8c:	3c030003 	lui	v1,0x3
68805f90:	3463004a 	ori	v1,v1,0x4a
68805f94:	0000000c 	syscall

68805f98 <gui_wm_delete_window>:
68805f98:	3c030003 	lui	v1,0x3
68805f9c:	3463004b 	ori	v1,v1,0x4b
68805fa0:	0000000c 	syscall

68805fa4 <gui_wm_set_size>:
68805fa4:	3c030003 	lui	v1,0x3
68805fa8:	34630050 	ori	v1,v1,0x50
68805fac:	0000000c 	syscall

68805fb0 <gui_dc_get>:
68805fb0:	3c030003 	lui	v1,0x3
68805fb4:	34630056 	ori	v1,v1,0x56
68805fb8:	0000000c 	syscall

68805fbc <gui_dc_set_default_fontface>:
68805fbc:	3c030003 	lui	v1,0x3
68805fc0:	34630058 	ori	v1,v1,0x58
68805fc4:	0000000c 	syscall

68805fc8 <gui_dc_set_background_color>:
68805fc8:	3c030003 	lui	v1,0x3
68805fcc:	3463005b 	ori	v1,v1,0x5b
68805fd0:	0000000c 	syscall

68805fd4 <gui_dc_clear>:
68805fd4:	3c030003 	lui	v1,0x3
68805fd8:	34630075 	ori	v1,v1,0x75
68805fdc:	0000000c 	syscall

68805fe0 <set_config>:
68805fe0:	3c030011 	lui	v1,0x11
68805fe4:	34630001 	ori	v1,v1,0x1
68805fe8:	0000000c 	syscall
68805fec:	00000000 	nop

68805ff0 <get_config>:
68805ff0:	3c030011 	lui	v1,0x11
68805ff4:	0000000c 	syscall
68805ff8:	00000000 	nop

68805ffc <os_sched_lock>:
68805ffc:	3c030001 	lui	v1,0x1
68806000:	34630002 	ori	v1,v1,0x2
68806004:	0000000c 	syscall

68806008 <os_sched_unlock>:
68806008:	3c030001 	lui	v1,0x1
6880600c:	34630003 	ori	v1,v1,0x3
68806010:	0000000c 	syscall

68806014 <printf>:
68806014:	3c030001 	lui	v1,0x1
68806018:	34630032 	ori	v1,v1,0x32
6880601c:	0000000c 	syscall

68806020 <malloc>:
68806020:	3c030001 	lui	v1,0x1
68806024:	3463003a 	ori	v1,v1,0x3a
68806028:	0000000c 	syscall

6880602c <free>:
6880602c:	3c030001 	lui	v1,0x1
68806030:	3463003b 	ori	v1,v1,0x3b
68806034:	0000000c 	syscall

68806038 <sys_mknod>:
68806038:	3c030001 	lui	v1,0x1
6880603c:	34630043 	ori	v1,v1,0x43
68806040:	0000000c 	syscall

68806044 <insmod>:
68806044:	3c030001 	lui	v1,0x1
68806048:	3463006a 	ori	v1,v1,0x6a
6880604c:	0000000c 	syscall

68806050 <rmmod>:
68806050:	3c030001 	lui	v1,0x1
68806054:	3463006b 	ori	v1,v1,0x6b
68806058:	0000000c 	syscall

6880605c <dlopen>:
6880605c:	3c030001 	lui	v1,0x1
68806060:	3463006c 	ori	v1,v1,0x6c
68806064:	0000000c 	syscall

68806068 <dlclose>:
68806068:	3c030001 	lui	v1,0x1
6880606c:	3463006d 	ori	v1,v1,0x6d
68806070:	0000000c 	syscall

68806074 <os_cpu_store_sr>:
68806074:	3c030002 	lui	v1,0x2
68806078:	34630001 	ori	v1,v1,0x1
6880607c:	0000000c 	syscall

68806080 <os_cpu_save_sr>:
68806080:	3c030002 	lui	v1,0x2
68806084:	0000000c 	syscall
68806088:	68800988 	0x68800988
6880608c:	68800b48 	0x68800b48
68806090:	68800b30 	0x68800b30
68806094:	68800b18 	0x68800b18
68806098:	68800b00 	0x68800b00
6880609c:	68800ae8 	0x68800ae8
688060a0:	68800ad0 	0x68800ad0
688060a4:	68800ab8 	0x68800ab8

688060a8 <__func__.0>:
688060a8:	6574695f 	0x6574695f
688060ac:	61735f6d 	0x61735f6d
688060b0:	705f6576 	0x705f6576
688060b4:	00636f72 	tlt	v1,v1,0x1bd
688060b8:	00000000 	nop

688060bc <__func__.0>:
688060bc:	6572635f 	0x6572635f
688060c0:	5f657461 	0x5f657461
688060c4:	70736964 	0x70736964
688060c8:	646f6d5f 	0x646f6d5f
688060cc:	64615f65 	0x64615f65
688060d0:	7473756a 	jalx	61cdd5a8 <_init-0x6b22a58>
688060d4:	6469775f 	0x6469775f
688060d8:	00746567 	0x746567

688060dc <__func__.1>:
688060dc:	6572635f 	0x6572635f
688060e0:	5f657461 	0x5f657461
688060e4:	6e756f73 	0x6e756f73
688060e8:	756f5f64 	jalx	65bd7d90 <_init-0x2c28270>
688060ec:	74757074 	jalx	61d5c1d0 <_init-0x6aa3e30>
688060f0:	6a64615f 	0x6a64615f
688060f4:	5f747375 	0x5f747375
688060f8:	67646977 	0x67646977
688060fc:	00007465 	0x7465

68806100 <s_clk_domain>:
68806100:	00000000 	nop
68806104:	00000003 	sra	zero,zero,0x0

68806108 <__func__.0>:
68806108:	6e69616d 	0x6e69616d
6880610c:	00000000 	nop

68806110 <__func__.1>:
68806110:	62696c5f 	0x62696c5f
68806114:	696e695f 	0x696e695f
68806118:	00000074 	teq	zero,zero,0x1

6880611c <s_clk_domain>:
6880611c:	00000000 	nop
68806120:	000000ff 	0xff

68806124 <gbc_clk_domain>:
68806124:	00000000 	nop
68806128:	00000006 	srlv	zero,zero,zero

6880612c <nes_clk_domain>:
6880612c:	00000000 	nop
68806130:	00000004 	sllv	zero,zero,zero

68806134 <__func__.2>:
68806134:	756d655f 	jalx	65b5957c <_init-0x2ca6a84>
68806138:	6f74616c 	0x6f74616c
6880613c:	65645f72 	0x65645f72
68806140:	6c756166 	0x6c756166
68806144:	65735f74 	0x65735f74
68806148:	6e697474 	0x6e697474
6880614c:	00000067 	0x67

68806150 <__func__.1>:
68806150:	5f756d65 	0x5f756d65
68806154:	5f746573 	0x5f746573
68806158:	6e756f73 	0x6e756f73
6880615c:	00000064 	0x64

68806160 <__func__.0>:
68806160:	5f756d65 	0x5f756d65
68806164:	5f746573 	0x5f746573
68806168:	70736964 	0x70736964
6880616c:	646f6d5f 	0x646f6d5f
68806170:	00000065 	0x65

68806174 <__FUNCTION__.1>:
68806174:	636f7270 	0x636f7270
68806178:	5f737365 	0x5f737365
6880617c:	72617473 	0x72617473
68806180:	00000074 	teq	zero,zero,0x1

68806184 <__FUNCTION__.0>:
68806184:	74735f5f 	jalx	61cd7d7c <_init-0x6b28284>
68806188:	00747261 	0x747261
6880618c:	688057c0 	0x688057c0
68806190:	68805730 	0x68805730
68806194:	68805730 	0x68805730
68806198:	688057b8 	0x688057b8
6880619c:	68805730 	0x68805730
688061a0:	68805730 	0x68805730
688061a4:	68805730 	0x68805730
688061a8:	68805730 	0x68805730
688061ac:	68805730 	0x68805730
688061b0:	68805730 	0x68805730
688061b4:	68805730 	0x68805730
688061b8:	688057b0 	0x688057b0
688061bc:	68805730 	0x68805730
688061c0:	688057a8 	0x688057a8
688061c4:	68805730 	0x68805730
688061c8:	68805730 	0x68805730
688061cc:	6880572c 	0x6880572c
688061d0:	68805d08 	0x68805d08
688061d4:	68805830 	0x68805830
688061d8:	68805830 	0x68805830
688061dc:	68805830 	0x68805830
688061e0:	68805830 	0x68805830
688061e4:	68805830 	0x68805830
688061e8:	68805830 	0x68805830
688061ec:	68805830 	0x68805830
688061f0:	68805830 	0x68805830
688061f4:	68805830 	0x68805830
688061f8:	68805830 	0x68805830
688061fc:	68805830 	0x68805830
68806200:	68805830 	0x68805830
68806204:	68805830 	0x68805830
68806208:	68805830 	0x68805830
6880620c:	68805830 	0x68805830
68806210:	68805830 	0x68805830
68806214:	68805830 	0x68805830
68806218:	68805830 	0x68805830
6880621c:	68805830 	0x68805830
68806220:	68805830 	0x68805830
68806224:	68805830 	0x68805830
68806228:	68805830 	0x68805830
6880622c:	68805830 	0x68805830
68806230:	68805830 	0x68805830
68806234:	68805830 	0x68805830
68806238:	68805830 	0x68805830
6880623c:	68805830 	0x68805830
68806240:	68805830 	0x68805830
68806244:	68805830 	0x68805830
68806248:	68805830 	0x68805830
6880624c:	68805830 	0x68805830
68806250:	68805830 	0x68805830
68806254:	68805830 	0x68805830
68806258:	68805830 	0x68805830
6880625c:	68805830 	0x68805830
68806260:	68805830 	0x68805830
68806264:	68805830 	0x68805830
68806268:	68805830 	0x68805830
6880626c:	68805830 	0x68805830
68806270:	68805830 	0x68805830
68806274:	68805830 	0x68805830
68806278:	68805830 	0x68805830
6880627c:	68805830 	0x68805830
68806280:	68805830 	0x68805830
68806284:	68805830 	0x68805830
68806288:	68805830 	0x68805830
6880628c:	68805830 	0x68805830
68806290:	68805830 	0x68805830
68806294:	68805830 	0x68805830
68806298:	68805830 	0x68805830
6880629c:	6880593c 	0x6880593c
688062a0:	68805830 	0x68805830
688062a4:	68805830 	0x68805830
688062a8:	68805830 	0x68805830
688062ac:	68805830 	0x68805830
688062b0:	68805830 	0x68805830
688062b4:	68805830 	0x68805830
688062b8:	68805830 	0x68805830
688062bc:	68805830 	0x68805830
688062c0:	68805830 	0x68805830
688062c4:	68805830 	0x68805830
688062c8:	68805ca8 	0x68805ca8
688062cc:	68805ca0 	0x68805ca0
688062d0:	68805830 	0x68805830
688062d4:	68805830 	0x68805830
688062d8:	68805830 	0x68805830
688062dc:	68805830 	0x68805830
688062e0:	68805ca0 	0x68805ca0
688062e4:	68805830 	0x68805830
688062e8:	68805830 	0x68805830
688062ec:	68805830 	0x68805830
688062f0:	68805830 	0x68805830
688062f4:	68805c7c 	0x68805c7c
688062f8:	68805c74 	0x68805c74
688062fc:	68805c40 	0x68805c40
68806300:	68805830 	0x68805830
68806304:	68805830 	0x68805830
68806308:	68805b84 	0x68805b84
6880630c:	68805830 	0x68805830
68806310:	68805c98 	0x68805c98
68806314:	68805830 	0x68805830
68806318:	68805830 	0x68805830
6880631c:	68805940 	0x68805940
68806320:	64707364 	0x64707364
68806324:	6b2e6365 	0x6b2e6365
68806328:	0000006f 	0x6f
6880632c:	7665642f 	jalx	699590bc <emuqueue+0x1150e18>
68806330:	7073642f 	0x7073642f
68806334:	0064615f 	0x64615f
68806338:	73257325 	0x73257325
6880633c:	00000000 	nop
68806340:	2d6c6f56 	sltiu	t4,t3,28502
68806344:	00000000 	nop
68806348:	756e654d 	jalx	65b99534 <_init-0x2c66acc>
6880634c:	00000000 	nop
68806350:	76657270 	jalx	6995c9c0 <emuqueue+0x115471c>
68806354:	00000000 	nop
68806358:	656c6544 	0x656c6544
6880635c:	00006574 	teq	zero,zero,0x195
68806360:	7478654e 	jalx	61e19538 <_init-0x69e6ac8>
68806364:	00000000 	nop
68806368:	656d6143 	0x656d6143
6880636c:	00006172 	tlt	zero,zero,0x185
68806370:	2b6c6f56 	slti	t4,k1,28502
68806374:	00000000 	nop
68806378:	00006b4f 	0x6b4f
6880637c:	79616c50 	0x79616c50
68806380:	6b636142 	0x6b636142
68806384:	00000000 	nop
68806388:	756f7654 	jalx	65bdd950 <_init-0x2c226b0>
6880638c:	00000074 	teq	zero,zero,0x1
68806390:	20207325 	addi	zero,at,29477
68806394:	73252020 	clz	a0 or a1,t9
68806398:	00000000 	nop
6880639c:	00000041 	0x41
688063a0:	00000042 	srl	zero,zero,0x1
688063a4:	52415453 	beql	s2,at,6881b4f4 <emuqueue+0x13250>
688063a8:	00000054 	0x54
688063ac:	454c4553 	0x454c4553
688063b0:	00005443 	sra	t2,zero,0x11
688063b4:	5446454c 	bnel	v0,a2,688178e8 <emuqueue+0xf644>
688063b8:	00000000 	nop
688063bc:	48474952 	0x48474952
688063c0:	00000054 	0x54
688063c4:	00005055 	0x5055
688063c8:	4e574f44 	c3	0x574f44
688063cc:	00000000 	nop
688063d0:	65766153 	0x65766153
688063d4:	61686320 	0x61686320
688063d8:	0065676e 	0x65676e
688063dc:	76657250 	jalx	6995c940 <emuqueue+0x115469c>
688063e0:	00000000 	nop
688063e4:	656c6564 	0x656c6564
688063e8:	00006574 	teq	zero,zero,0x195
688063ec:	79616c70 	0x79616c70
688063f0:	6b636162 	0x6b636162
688063f4:	00000000 	nop
688063f8:	5f756d65 	0x5f756d65
688063fc:	65766173 	0x65766173
68806400:	6c69665f 	0x6c69665f
68806404:	61705f65 	0x61705f65
68806408:	00006874 	teq	zero,zero,0x1a1
6880640c:	4f525245 	c3	0x1525245
68806410:	72652852 	udi2	s3,a1,a1,0x1
68806414:	3d6f6e72 	0x3d6f6e72
68806418:	2d296425 	sltiu	t1,t1,25637
6880641c:	3a646970 	xori	a0,s3,0x6970
68806420:	252d6425 	addiu	t5,t1,25637
68806424:	64252c73 	0x64252c73
68806428:	2d73252c 	sltiu	s3,t3,9516
6880642c:	73202d2d 	0x73202d2d
68806430:	635f7465 	0x635f7465
68806434:	69666e6f 	0x69666e6f
68806438:	46432867 	c1	0x432867
6880643c:	4d455f47 	0x4d455f47
68806440:	41535f55 	0x41535f55
68806444:	465f4556 	c1	0x5f4556
68806448:	5f454c49 	0x5f454c49
6880644c:	48544150 	0x48544150
68806450:	61662029 	0x61662029
68806454:	64656c69 	0x64656c69
68806458:	00000a21 	0xa21
6880645c:	735f6d65 	0x735f6d65
68806460:	6e6f6365 	0x6e6f6365
68806464:	656c5f64 	0x656c5f64
68806468:	5f6c6576 	0x5f6c6576
6880646c:	756e656d 	jalx	65b995b4 <_init-0x2c66a4c>
68806470:	0000632e 	0x632e
68806474:	0066666f 	0x66666f
68806478:	00006e6f 	0x6e6f
6880647c:	6d726f6e 	0x6d726f6e
68806480:	00006c61 	0x6c61
68806484:	6c6c7566 	0x6c6c7566
68806488:	00000000 	nop
6880648c:	4f525245 	c3	0x1525245
68806490:	72652852 	udi2	s3,a1,a1,0x1
68806494:	3d6f6e72 	0x3d6f6e72
68806498:	2d296425 	sltiu	t1,t1,25637
6880649c:	3a646970 	xori	a0,s3,0x6970
688064a0:	252d6425 	addiu	t5,t1,25637
688064a4:	64252c73 	0x64252c73
688064a8:	2d73252c 	sltiu	s3,t3,9516
688064ac:	63202d2d 	0x63202d2d
688064b0:	74616572 	jalx	618595c8 <_init-0x6fa6a38>
688064b4:	64612065 	0x64612065
688064b8:	7473756a 	jalx	61cdd5a8 <_init-0x6b22a58>
688064bc:	69616620 	0x69616620
688064c0:	2164656c 	addi	a0,t3,25964
688064c4:	0000000a 	movz	zero,zero,zero
688064c8:	745f6d65 	jalx	617db594 <_init-0x7024a6c>
688064cc:	64726968 	0x64726968
688064d0:	76656c5f 	jalx	6995b17c <emuqueue+0x1152ed8>
688064d4:	6d5f6c65 	0x6d5f6c65
688064d8:	2e756e65 	sltiu	s5,s3,28261
688064dc:	00000063 	0x63
688064e0:	6c707061 	0x6c707061
688064e4:	732e6269 	0x732e6269
688064e8:	0000006f 	0x6f
688064ec:	6d6d6f63 	0x6d6d6f63
688064f0:	69756e6f 	0x69756e6f
688064f4:	006f732e 	0x6f732e
688064f8:	69737566 	0x69737566
688064fc:	732e6e6f 	0x732e6e6f
68806500:	0000006f 	0x6f
68806504:	2e697567 	sltiu	t1,s3,30055
68806508:	00006f73 	tltu	zero,zero,0x1bd
6880650c:	6c797473 	0x6c797473
68806510:	6f732e65 	0x6f732e65
68806514:	00000000 	nop
68806518:	6f637061 	0x6f637061
6880651c:	6769666e 	0x6769666e
68806520:	006f732e 	0x6f732e
68806524:	4f525245 	c3	0x1525245
68806528:	72652852 	udi2	s3,a1,a1,0x1
6880652c:	3d6f6e72 	0x3d6f6e72
68806530:	2d296425 	sltiu	t1,t1,25637
68806534:	3a646970 	xori	a0,s3,0x6970
68806538:	252d6425 	addiu	t5,t1,25637
6880653c:	64252c73 	0x64252c73
68806540:	2d73252c 	sltiu	s3,t3,9516
68806544:	6f202d2d 	0x6f202d2d
68806548:	206e6570 	addi	t6,v1,25968
6880654c:	6f637061 	0x6f637061
68806550:	6769666e 	0x6769666e
68806554:	62696c20 	0x62696c20
68806558:	72726520 	0x72726520
6880655c:	00000a21 	0xa21
68806560:	6c756d65 	0x6c756d65
68806564:	726f7461 	0x726f7461
68806568:	69616d5f 	0x69616d5f
6880656c:	00632e6e 	0x632e6e
68806570:	4f525245 	c3	0x1525245
68806574:	72652852 	udi2	s3,a1,a1,0x1
68806578:	3d6f6e72 	0x3d6f6e72
6880657c:	2d296425 	sltiu	t1,t1,25637
68806580:	3a646970 	xori	a0,s3,0x6970
68806584:	252d6425 	addiu	t5,t1,25637
68806588:	64252c73 	0x64252c73
6880658c:	2d73252c 	sltiu	s3,t3,9516
68806590:	6f202d2d 	0x6f202d2d
68806594:	206e6570 	addi	t6,v1,25968
68806598:	6d6d6f63 	0x6d6d6f63
6880659c:	69756e6f 	0x69756e6f
688065a0:	696c2020 	0x696c2020
688065a4:	72652062 	0x72652062
688065a8:	0a202172 	j	688085c8 <emuqueue+0x324>
688065ac:	0000000a 	movz	zero,zero,zero
688065b0:	0053454e 	0x53454e
688065b4:	00434247 	0x434247
688065b8:	00434653 	0x434653
688065bc:	0000444d 	break	0x0,0x111
688065c0:	7c636267 	0x7c636267
688065c4:	00006267 	0x6267
688065c8:	7c636d73 	0x7c636d73
688065cc:	00636673 	tltu	v1,v1,0x199
688065d0:	252f7325 	addiu	t7,t1,29477
688065d4:	74732e73 	jalx	61ccb9cc <_init-0x6b34634>
688065d8:	00000079 	0x79
688065dc:	6d6d6f63 	0x6d6d6f63
688065e0:	69756e6f 	0x69756e6f
688065e4:	00000000 	nop
688065e8:	6c756d65 	0x6c756d65
688065ec:	726f7461 	0x726f7461
688065f0:	00000000 	nop
688065f4:	706d742f 	0x706d742f
688065f8:	756d652f 	jalx	65b594bc <_init-0x2ca6b44>
688065fc:	6f74616c 	0x6f74616c
68806600:	652e2f72 	0x652e2f72
68806604:	616c756d 	0x616c756d
68806608:	5f726f74 	0x5f726f74
6880660c:	6f666966 	0x6f666966
68806610:	00000000 	nop
68806614:	706d742f 	0x706d742f
68806618:	756d652f 	jalx	65b594bc <_init-0x2ca6b44>
6880661c:	6f74616c 	0x6f74616c
68806620:	652e2f72 	0x652e2f72
68806624:	6c61756d 	0x6c61756d
68806628:	5f726f74 	0x5f726f74
6880662c:	006e7973 	tltu	v1,t6,0x1e5
68806630:	706d742f 	0x706d742f
68806634:	756d652f 	jalx	65b594bc <_init-0x2ca6b44>
68806638:	6f74616c 	0x6f74616c
6880663c:	652e2f72 	0x652e2f72
68806640:	616c756d 	0x616c756d
68806644:	5f726f74 	0x5f726f74
68806648:	6d79656b 	0x6d79656b
6880664c:	00006773 	tltu	zero,zero,0x19d
68806650:	4f525245 	c3	0x1525245
68806654:	72652852 	udi2	s3,a1,a1,0x1
68806658:	3d6f6e72 	0x3d6f6e72
6880665c:	2d296425 	sltiu	t1,t1,25637
68806660:	3a646970 	xori	a0,s3,0x6970
68806664:	252d6425 	addiu	t5,t1,25637
68806668:	64252c73 	0x64252c73
6880666c:	2d73252c 	sltiu	s3,t3,9516
68806670:	6f202d2d 	0x6f202d2d
68806674:	206e6570 	addi	t6,v1,25968
68806678:	6c707061 	0x6c707061
6880667c:	65206269 	0x65206269
68806680:	20217272 	addi	at,at,29298
68806684:	00000a0a 	0xa0a
68806688:	7c646d73 	0x7c646d73
6880668c:	7c78646d 	0x7c78646d
68806690:	006e6962 	0x6e6962
68806694:	4f525245 	c3	0x1525245
68806698:	72652852 	udi2	s3,a1,a1,0x1
6880669c:	3d6f6e72 	0x3d6f6e72
688066a0:	2d296425 	sltiu	t1,t1,25637
688066a4:	3a646970 	xori	a0,s3,0x6970
688066a8:	252d6425 	addiu	t5,t1,25637
688066ac:	64252c73 	0x64252c73
688066b0:	2d73252c 	sltiu	s3,t3,9516
688066b4:	6f202d2d 	0x6f202d2d
688066b8:	206e6570 	addi	t6,v1,25968
688066bc:	6c797473 	0x6c797473
688066c0:	696c2065 	0x696c2065
688066c4:	72652062 	0x72652062
688066c8:	0a202172 	j	688085c8 <emuqueue+0x324>
688066cc:	0000000a 	movz	zero,zero,zero
688066d0:	4f525245 	c3	0x1525245
688066d4:	72652852 	udi2	s3,a1,a1,0x1
688066d8:	3d6f6e72 	0x3d6f6e72
688066dc:	2d296425 	sltiu	t1,t1,25637
688066e0:	3a646970 	xori	a0,s3,0x6970
688066e4:	252d6425 	addiu	t5,t1,25637
688066e8:	64252c73 	0x64252c73
688066ec:	2d73252c 	sltiu	s3,t3,9516
688066f0:	6f202d2d 	0x6f202d2d
688066f4:	206e6570 	addi	t6,v1,25968
688066f8:	69737566 	0x69737566
688066fc:	20206e6f 	addi	zero,at,28271
68806700:	2062696c 	addi	v0,v1,26988
68806704:	21727265 	addi	s2,t3,29285
68806708:	000a0a20 	0xa0a20
6880670c:	4f525245 	c3	0x1525245
68806710:	72652852 	udi2	s3,a1,a1,0x1
68806714:	3d6f6e72 	0x3d6f6e72
68806718:	2d296425 	sltiu	t1,t1,25637
6880671c:	3a646970 	xori	a0,s3,0x6970
68806720:	252d6425 	addiu	t5,t1,25637
68806724:	64252c73 	0x64252c73
68806728:	2d73252c 	sltiu	s3,t3,9516
6880672c:	6f202d2d 	0x6f202d2d
68806730:	206e6570 	addi	t6,v1,25968
68806734:	20697567 	addi	t1,v1,30055
68806738:	2062696c 	addi	v0,v1,26988
6880673c:	21727265 	addi	s2,t3,29285
68806740:	000a0a20 	0xa0a20
68806744:	61472d47 	0x61472d47
68806748:	0000656d 	0x656d
6880674c:	79616c70 	0x79616c70
68806750:	00676e69 	0x676e69
68806754:	5f59454b 	0x5f59454b
68806758:	554f5654 	bnel	t2,t7,6881c0ac <emuqueue+0x13e08>
6880675c:	00000054 	0x54
68806760:	5f59454b 	0x5f59454b
68806764:	454d4143 	0x454d4143
68806768:	00004152 	0x4152
6880676c:	5f59454b 	0x5f59454b
68806770:	554e454d 	bnel	t2,t6,68817ca8 <emuqueue+0xfa04>
68806774:	00000000 	nop
68806778:	5f59454b 	0x5f59454b
6880677c:	00004b4f 	0x4b4f
68806780:	5f59454b 	0x5f59454b
68806784:	42555356 	c0	0x555356
68806788:	00000000 	nop
6880678c:	5f59454b 	0x5f59454b
68806790:	44444156 	0x44444156
68806794:	00000000 	nop
68806798:	5f59454b 	0x5f59454b
6880679c:	56455250 	bnel	s2,a1,6881b0e0 <emuqueue+0x12e3c>
688067a0:	00000000 	nop
688067a4:	5f59454b 	0x5f59454b
688067a8:	5458454e 	bnel	v0,t8,68817ce4 <emuqueue+0xfa40>
688067ac:	00000000 	nop
688067b0:	5f59454b 	0x5f59454b
688067b4:	454c4544 	0x454c4544
688067b8:	00004554 	0x4554
688067bc:	5f59454b 	0x5f59454b
688067c0:	59414c50 	0x59414c50
688067c4:	4b434142 	c2	0x1434142
688067c8:	00000000 	nop
688067cc:	454c4946 	0x454c4946
688067d0:	6d61673d 	0x6d61673d
688067d4:	6d655f65 	0x6d655f65
688067d8:	70612e75 	0x70612e75
688067dc:	00000070 	tge	zero,zero,0x1
688067e0:	746e6d2f 	jalx	61b9b4bc <_init-0x6c64b44>
688067e4:	6964732f 	0x6964732f
688067e8:	672f6b73 	0x672f6b73
688067ec:	5f656d61 	0x5f656d61
688067f0:	2e756d65 	sltiu	s5,s3,28005
688067f4:	00707061 	0x707061
688067f8:	656d6167 	0x656d6167
688067fc:	756d655f 	jalx	65b5957c <_init-0x2ca6a84>
68806800:	7070612e 	0x7070612e
68806804:	00000000 	nop
68806808:	5f756d65 	0x5f756d65
6880680c:	6e756f73 	0x6e756f73
68806810:	6f6d5f64 	0x6f6d5f64
68806814:	00006564 	0x6564
68806818:	5f756d65 	0x5f756d65
6880681c:	70736964 	0x70736964
68806820:	646f6d5f 	0x646f6d5f
68806824:	00000065 	0x65
68806828:	5f756d65 	0x5f756d65
6880682c:	5f79656b 	0x5f79656b
68806830:	00000061 	0x61
68806834:	5f756d65 	0x5f756d65
68806838:	5f79656b 	0x5f79656b
6880683c:	00000062 	0x62
68806840:	5f756d65 	0x5f756d65
68806844:	5f79656b 	0x5f79656b
68806848:	72617473 	0x72617473
6880684c:	00000074 	teq	zero,zero,0x1
68806850:	5f756d65 	0x5f756d65
68806854:	5f79656b 	0x5f79656b
68806858:	656c6573 	0x656c6573
6880685c:	00007463 	0x7463
68806860:	5f756d65 	0x5f756d65
68806864:	5f79656b 	0x5f79656b
68806868:	7466656c 	jalx	619995b0 <_init-0x6e66a50>
6880686c:	00000000 	nop
68806870:	5f756d65 	0x5f756d65
68806874:	5f79656b 	0x5f79656b
68806878:	68676972 	0x68676972
6880687c:	00000074 	teq	zero,zero,0x1
68806880:	5f756d65 	0x5f756d65
68806884:	5f79656b 	0x5f79656b
68806888:	00007075 	0x7075
6880688c:	5f756d65 	0x5f756d65
68806890:	5f79656b 	0x5f79656b
68806894:	6e776f64 	0x6e776f64
68806898:	00000000 	nop
6880689c:	4f525245 	c3	0x1525245
688068a0:	72652852 	udi2	s3,a1,a1,0x1
688068a4:	3d6f6e72 	0x3d6f6e72
688068a8:	2d296425 	sltiu	t1,t1,25637
688068ac:	3a646970 	xori	a0,s3,0x6970
688068b0:	252d6425 	addiu	t5,t1,25637
688068b4:	64252c73 	0x64252c73
688068b8:	2d73252c 	sltiu	s3,t3,9516
688068bc:	67202d2d 	0x67202d2d
688068c0:	635f7465 	0x635f7465
688068c4:	69666e6f 	0x69666e6f
688068c8:	46432867 	c1	0x432867
688068cc:	4d455f47 	0x4d455f47
688068d0:	4f535f55 	c3	0x1535f55
688068d4:	5f444e55 	0x5f444e55
688068d8:	45444f4d 	0x45444f4d
688068dc:	61662029 	0x61662029
688068e0:	64656c69 	0x64656c69
688068e4:	00000a21 	0xa21
688068e8:	6c756d65 	0x6c756d65
688068ec:	726f7461 	0x726f7461
688068f0:	616c705f 	0x616c705f
688068f4:	00632e79 	0x632e79
688068f8:	4f525245 	c3	0x1525245
688068fc:	72652852 	udi2	s3,a1,a1,0x1
68806900:	3d6f6e72 	0x3d6f6e72
68806904:	2d296425 	sltiu	t1,t1,25637
68806908:	3a646970 	xori	a0,s3,0x6970
6880690c:	252d6425 	addiu	t5,t1,25637
68806910:	64252c73 	0x64252c73
68806914:	2d73252c 	sltiu	s3,t3,9516
68806918:	67202d2d 	0x67202d2d
6880691c:	635f7465 	0x635f7465
68806920:	69666e6f 	0x69666e6f
68806924:	46432867 	c1	0x432867
68806928:	4d455f47 	0x4d455f47
6880692c:	49445f55 	0x49445f55
68806930:	4d5f5053 	0x4d5f5053
68806934:	2945444f 	slti	a1,t2,17487
68806938:	69616620 	0x69616620
6880693c:	2164656c 	addi	a0,t3,25964
68806940:	0000000a 	movz	zero,zero,zero
68806944:	746e6d2f 	jalx	61b9b4bc <_init-0x6c64b44>
68806948:	7369642f 	0x7369642f
6880694c:	612f616b 	0x612f616b
68806950:	2f737070 	sltiu	s3,k1,28784
68806954:	5f67736d 	0x5f67736d
68806958:	76726573 	jalx	69c995cc <emuqueue+0x1491328>
6880695c:	7070612e 	0x7070612e
68806960:	00000000 	nop
68806964:	4f525245 	c3	0x1525245
68806968:	72652852 	udi2	s3,a1,a1,0x1
6880696c:	3d6f6e72 	0x3d6f6e72
68806970:	2d296425 	sltiu	t1,t1,25637
68806974:	3a646970 	xori	a0,s3,0x6970
68806978:	252d6425 	addiu	t5,t1,25637
6880697c:	64252c73 	0x64252c73
68806980:	2d73252c 	sltiu	s3,t3,9516
68806984:	73202d2d 	0x73202d2d
68806988:	635f7465 	0x635f7465
6880698c:	69666e6f 	0x69666e6f
68806990:	46432867 	c1	0x432867
68806994:	4d455f47 	0x4d455f47
68806998:	4f535f55 	c3	0x1535f55
6880699c:	5f444e55 	0x5f444e55
688069a0:	45444f4d 	0x45444f4d
688069a4:	61662029 	0x61662029
688069a8:	64656c69 	0x64656c69
688069ac:	00000a21 	0xa21
688069b0:	4f525245 	c3	0x1525245
688069b4:	72652852 	udi2	s3,a1,a1,0x1
688069b8:	3d6f6e72 	0x3d6f6e72
688069bc:	2d296425 	sltiu	t1,t1,25637
688069c0:	3a646970 	xori	a0,s3,0x6970
688069c4:	252d6425 	addiu	t5,t1,25637
688069c8:	64252c73 	0x64252c73
688069cc:	2d73252c 	sltiu	s3,t3,9516
688069d0:	73202d2d 	0x73202d2d
688069d4:	635f7465 	0x635f7465
688069d8:	69666e6f 	0x69666e6f
688069dc:	46432867 	c1	0x432867
688069e0:	4d455f47 	0x4d455f47
688069e4:	49445f55 	0x49445f55
688069e8:	4d5f5053 	0x4d5f5053
688069ec:	2945444f 	slti	a1,t2,17487
688069f0:	69616620 	0x69616620
688069f4:	2164656c 	addi	a0,t3,25964
688069f8:	0000000a 	movz	zero,zero,zero
688069fc:	252f7325 	addiu	t7,t1,29477
68806a00:	65722e73 	0x65722e73
68806a04:	00000073 	tltu	zero,zero,0x1
68806a08:	655f6762 	0x655f6762
68806a0c:	616c756d 	0x616c756d
68806a10:	2e726f74 	sltiu	s2,s3,28532
68806a14:	006e6962 	0x6e6962
68806a18:	252f7325 	addiu	t7,t1,29477
68806a1c:	73255f73 	0x73255f73
68806a20:	7274732e 	0x7274732e
68806a24:	00000000 	nop
68806a28:	6f727265 	0x6f727265
68806a2c:	25202172 	addiu	zero,t1,8562
68806a30:	64252c73 	0x64252c73
68806a34:	b7dece3a 	0xb7dece3a
68806a38:	b5d2d5a8 	0xb5d2d5a8
68806a3c:	697028bd 	0x697028bd
68806a40:	253d3d64 	addiu	sp,t1,15716
68806a44:	c4b52964 	lwc1	$f21,10596(a1)
68806a48:	ccb3f8bd 	pref	0x13,-1859(a1)
68806a4c:	b9b9e1bd 	swr	t9,-7747(t5)
68806a50:	000ae5cc 	syscall	0x2b97
68806a54:	6362696c 	0x6362696c
68806a58:	2e73665f 	sltiu	s3,s3,26207
68806a5c:	00006f73 	tltu	zero,zero,0x1bd
68806a60:	6f727265 	0x6f727265
68806a64:	25202172 	addiu	zero,t1,8562
68806a68:	64252c73 	0x64252c73
68806a6c:	b3f8bd3a 	0xb3f8bd3a
68806a70:	bdb4b4cc 	cache	0x14,-19252(t5)
68806a74:	b0a7caa8 	0xb0a7caa8
68806a78:	727265dc 	udi12	s3,s2,t4,0x17
68806a7c:	253d6f6e 	addiu	sp,t1,28526
68806a80:	00000a64 	0xa64
68806a84:	6f727265 	0x6f727265
68806a88:	25202172 	addiu	zero,t1,8562
68806a8c:	64252c73 	0x64252c73
68806a90:	b4d1d23a 	0xb4d1d23a
68806a94:	cfbdb5ef 	pref	0x1d,-18961(sp)
68806a98:	d6b3cdb5 	ldc1	$f19,-12875(s5)
68806a9c:	b5d6b3a7 	0xb5d6b3a7
68806aa0:	b4eed7c4 	0xb4eed7c4
68806aa4:	b3f8bdf3 	0xb3f8bdf3
68806aa8:	0afdcacc 	j	6bf72b30 <emuqueue+0x376a88c>
68806aac:	00000000 	nop
68806ab0:	33323130 	andi	s2,t9,0x3130
68806ab4:	37363534 	ori	s6,t9,0x3534
68806ab8:	62613938 	0x62613938
68806abc:	66656463 	0x66656463
68806ac0:	6a696867 	0x6a696867
68806ac4:	6e6d6c6b 	0x6e6d6c6b
68806ac8:	7271706f 	0x7271706f
68806acc:	76757473 	jalx	69d5d1cc <emuqueue+0x1554f28>
68806ad0:	7a797877 	0x7a797877
68806ad4:	00000000 	nop
68806ad8:	33323130 	andi	s2,t9,0x3130
68806adc:	37363534 	ori	s6,t9,0x3534
68806ae0:	42413938 	c0	0x413938
68806ae4:	46454443 	c1	0x454443
68806ae8:	4a494847 	c2	0x494847
68806aec:	4e4d4c4b 	c3	0x4d4c4b
68806af0:	5251504f 	beql	s2,s1,6881ac30 <emuqueue+0x1298c>
68806af4:	56555453 	bnel	s2,s5,6881bc44 <emuqueue+0x139a0>
68806af8:	5a595857 	0x5a595857
68806afc:	00000000 	nop
68806b00:	4c554e3c 	0x4c554e3c
68806b04:	Address 0x68806b04 is out of bounds.

Disassembly of section .fini:

68806b08 <_fini>:
68806b08:	27bdffe0 	addiu	sp,sp,-32
68806b0c:	afbf0014 	sw	ra,20(sp)
68806b10:	0e20138d 	jal	68804e34 <__do_global_dtors_aux>
68806b14:	00000000 	nop
68806b18:	8fbf0014 	lw	ra,20(sp)
68806b1c:	27bd0020 	addiu	sp,sp,32
68806b20:	03e00008 	jr	ra
68806b24:	00000000 	nop
Disassembly of section .ctors:

68807000 <__CTOR_LIST__>:
68807000:	ffffffff 	sdc3	$31,-1(ra)

68807004 <__CTOR_END__>:
68807004:	00000000 	nop
Disassembly of section .dtors:

68807008 <__DTOR_LIST__>:
68807008:	ffffffff 	sdc3	$31,-1(ra)
6880700c:	68804e9c 	0x68804e9c

68807010 <__DTOR_END__>:
68807010:	00000000 	nop
Disassembly of section .bss:

68807014 <firstLevelMenu>:
68807014:	00000000 	nop

68807018 <fourthLevelMenu>:
68807018:	00000000 	nop

6880701c <string.1>:
	...

688071ac <str.0>:
	...

6880733c <showSaveItem>:
6880733c:	00000000 	nop

68807340 <secondLevelMenu>:
68807340:	00000000 	nop

68807344 <thirdLevelMenu>:
68807344:	00000000 	nop

68807348 <start_byFileNavi>:
68807348:	00000000 	nop

6880734c <gameType>:
6880734c:	00000000 	nop

68807350 <timer_id>:
68807350:	00000000 	nop

68807354 <msgbox_exist>:
68807354:	00000000 	nop

68807358 <g_scene_emulator>:
68807358:	00000000 	nop

6880735c <enter_type>:
6880735c:	00000000 	nop

68807360 <sys_msg_type>:
68807360:	00000000 	nop

68807364 <pthread_mutex_type_t>:
68807364:	00000000 	nop

68807368 <pthread_share_type_t>:
68807368:	00000000 	nop

6880736c <romFullPath>:
	...

6880776c <oldRomFile>:
	...

68807b6c <saveFilePath>:
	...

68807f6c <key_value>:
	...

68807f8c <fourth_level_items>:
	...

688080d0 <second_level_items>:
	...

68808184 <third_level_items>:
	...

688081f0 <game_kind>:
	...

68808270 <commonui_style>:
68808270:	00000000 	nop

68808274 <app_style>:
68808274:	00000000 	nop

68808278 <emu_state>:
68808278:	00000000 	nop

6880827c <emu_cfg_info>:
	...

688082a4 <emuqueue>:
	...
Disassembly of section .reginfo:

00000000 <.reginfo>:
   0:	a0000074 	sb	zero,116(zero)
	...
Disassembly of section .pdr:

00000000 <.pdr>:
       0:	68800020 	0x68800020
       4:	80000000 	lb	zero,0(zero)
       8:	fffffff8 	sdc3	$31,-8(ra)
	...
      14:	00000018 	mult	zero,zero
      18:	0000001d 	0x1d
      1c:	0000001f 	0x1f
      20:	68800054 	0x68800054
	...
      38:	0000001d 	0x1d
      3c:	0000001f 	0x1f
      40:	68800064 	0x68800064
      44:	80030000 	lb	v1,0(zero)
      48:	fffffff8 	sdc3	$31,-8(ra)
	...
      54:	00000038 	0x38
      58:	0000001d 	0x1d
      5c:	0000001f 	0x1f
      60:	68800150 	0x68800150
      64:	80000000 	lb	zero,0(zero)
      68:	fffffff8 	sdc3	$31,-8(ra)
	...
      74:	00000018 	mult	zero,zero
      78:	0000001d 	0x1d
      7c:	0000001f 	0x1f
      80:	68800188 	0x68800188
      84:	80070000 	lb	a3,0(zero)
      88:	fffffffc 	sdc3	$31,-4(ra)
	...
      94:	00000020 	add	zero,zero,zero
      98:	0000001d 	0x1d
      9c:	0000001f 	0x1f
      a0:	6880028c 	0x6880028c
      a4:	80030000 	lb	v1,0(zero)
      a8:	fffffff8 	sdc3	$31,-8(ra)
	...
      b4:	00000020 	add	zero,zero,zero
      b8:	0000001d 	0x1d
      bc:	0000001f 	0x1f
      c0:	68800318 	0x68800318
	...
      d8:	0000001d 	0x1d
      dc:	0000001f 	0x1f
      e0:	68800320 	0x68800320
	...
      f8:	0000001d 	0x1d
      fc:	0000001f 	0x1f
     100:	68800448 	0x68800448
     104:	80ff0000 	lb	ra,0(a3)
     108:	fffffff8 	sdc3	$31,-8(ra)
	...
     114:	00000050 	0x50
     118:	0000001d 	0x1d
     11c:	0000001f 	0x1f
     120:	68800738 	0x68800738
     124:	803f0000 	lb	ra,0(at)
     128:	fffffff8 	sdc3	$31,-8(ra)
	...
     134:	00000068 	0x68
     138:	0000001d 	0x1d
     13c:	0000001f 	0x1f
     140:	68800be8 	0x68800be8
     144:	80010000 	lb	at,0(zero)
     148:	fffffffc 	sdc3	$31,-4(ra)
	...
     154:	00000018 	mult	zero,zero
     158:	0000001d 	0x1d
     15c:	0000001f 	0x1f
     160:	68800c48 	0x68800c48
     164:	80000000 	lb	zero,0(zero)
     168:	fffffff8 	sdc3	$31,-8(ra)
	...
     174:	00000018 	mult	zero,zero
     178:	0000001d 	0x1d
     17c:	0000001f 	0x1f
     180:	68800cbc 	0x68800cbc
     184:	803f0000 	lb	ra,0(at)
     188:	fffffff8 	sdc3	$31,-8(ra)
	...
     194:	00000038 	0x38
     198:	0000001d 	0x1d
     19c:	0000001f 	0x1f
     1a0:	68800f58 	0x68800f58
     1a4:	80030000 	lb	v1,0(zero)
     1a8:	fffffff8 	sdc3	$31,-8(ra)
	...
     1b4:	00000020 	add	zero,zero,zero
     1b8:	0000001d 	0x1d
     1bc:	0000001f 	0x1f
     1c0:	68800ff0 	0x68800ff0
     1c4:	80010000 	lb	at,0(zero)
     1c8:	fffffffc 	sdc3	$31,-4(ra)
	...
     1d4:	00000018 	mult	zero,zero
     1d8:	0000001d 	0x1d
     1dc:	0000001f 	0x1f
     1e0:	68801040 	0x68801040
     1e4:	80000000 	lb	zero,0(zero)
     1e8:	fffffff8 	sdc3	$31,-8(ra)
	...
     1f4:	00000018 	mult	zero,zero
     1f8:	0000001d 	0x1d
     1fc:	0000001f 	0x1f
     200:	68801090 	0x68801090
     204:	80000000 	lb	zero,0(zero)
     208:	fffffff8 	sdc3	$31,-8(ra)
	...
     214:	00000018 	mult	zero,zero
     218:	0000001d 	0x1d
     21c:	0000001f 	0x1f
     220:	688010e4 	0x688010e4
     224:	80000000 	lb	zero,0(zero)
     228:	fffffff8 	sdc3	$31,-8(ra)
	...
     234:	00000018 	mult	zero,zero
     238:	0000001d 	0x1d
     23c:	0000001f 	0x1f
     240:	68801138 	0x68801138
     244:	80000000 	lb	zero,0(zero)
     248:	fffffff8 	sdc3	$31,-8(ra)
	...
     254:	00000018 	mult	zero,zero
     258:	0000001d 	0x1d
     25c:	0000001f 	0x1f
     260:	688011b0 	0x688011b0
     264:	80030000 	lb	v1,0(zero)
     268:	fffffff8 	sdc3	$31,-8(ra)
	...
     274:	00000038 	0x38
     278:	0000001d 	0x1d
     27c:	0000001f 	0x1f
     280:	68801338 	0x68801338
     284:	80030000 	lb	v1,0(zero)
     288:	fffffff8 	sdc3	$31,-8(ra)
	...
     294:	00000030 	tge	zero,zero
     298:	0000001d 	0x1d
     29c:	0000001f 	0x1f
     2a0:	6880143c 	0x6880143c
     2a4:	80000000 	lb	zero,0(zero)
     2a8:	fffffff8 	sdc3	$31,-8(ra)
	...
     2b4:	00000018 	mult	zero,zero
     2b8:	0000001d 	0x1d
     2bc:	0000001f 	0x1f
     2c0:	688014b4 	0x688014b4
     2c4:	80010000 	lb	at,0(zero)
     2c8:	fffffffc 	sdc3	$31,-4(ra)
	...
     2d4:	00000018 	mult	zero,zero
     2d8:	0000001d 	0x1d
     2dc:	0000001f 	0x1f
     2e0:	68801504 	0x68801504
     2e4:	801f0000 	lb	ra,0(zero)
     2e8:	fffffffc 	sdc3	$31,-4(ra)
	...
     2f4:	00000030 	tge	zero,zero
     2f8:	0000001d 	0x1d
     2fc:	0000001f 	0x1f
     300:	68801738 	0x68801738
     304:	80030000 	lb	v1,0(zero)
     308:	fffffff8 	sdc3	$31,-8(ra)
	...
     314:	00000020 	add	zero,zero,zero
     318:	0000001d 	0x1d
     31c:	0000001f 	0x1f
     320:	688017d0 	0x688017d0
     324:	80000000 	lb	zero,0(zero)
     328:	fffffff8 	sdc3	$31,-8(ra)
	...
     334:	00000018 	mult	zero,zero
     338:	0000001d 	0x1d
     33c:	0000001f 	0x1f
     340:	68801840 	0x68801840
     344:	80030000 	lb	v1,0(zero)
     348:	fffffff8 	sdc3	$31,-8(ra)
	...
     354:	00000030 	tge	zero,zero
     358:	0000001d 	0x1d
     35c:	0000001f 	0x1f
     360:	68801968 	0x68801968
     364:	80030000 	lb	v1,0(zero)
     368:	fffffff8 	sdc3	$31,-8(ra)
	...
     374:	00000030 	tge	zero,zero
     378:	0000001d 	0x1d
     37c:	0000001f 	0x1f
     380:	68801a90 	0x68801a90
     384:	80010000 	lb	at,0(zero)
     388:	fffffffc 	sdc3	$31,-4(ra)
	...
     394:	00000018 	mult	zero,zero
     398:	0000001d 	0x1d
     39c:	0000001f 	0x1f
     3a0:	68801ae8 	0x68801ae8
     3a4:	80010000 	lb	at,0(zero)
     3a8:	fffffffc 	sdc3	$31,-4(ra)
	...
     3b4:	00000020 	add	zero,zero,zero
     3b8:	0000001d 	0x1d
     3bc:	0000001f 	0x1f
     3c0:	68801bd8 	0x68801bd8
     3c4:	80010000 	lb	at,0(zero)
     3c8:	fffffffc 	sdc3	$31,-4(ra)
	...
     3d4:	00000020 	add	zero,zero,zero
     3d8:	0000001d 	0x1d
     3dc:	0000001f 	0x1f
     3e0:	68801cc0 	0x68801cc0
     3e4:	80010000 	lb	at,0(zero)
     3e8:	fffffffc 	sdc3	$31,-4(ra)
	...
     3f4:	00000018 	mult	zero,zero
     3f8:	0000001d 	0x1d
     3fc:	0000001f 	0x1f
     400:	68801db0 	0x68801db0
     404:	807f0000 	lb	ra,0(v1)
     408:	fffffffc 	sdc3	$31,-4(ra)
	...
     414:	00000450 	0x450
     418:	0000001d 	0x1d
     41c:	0000001f 	0x1f
     420:	688022a8 	0x688022a8
     424:	80000000 	lb	zero,0(zero)
     428:	fffffff8 	sdc3	$31,-8(ra)
	...
     434:	00000018 	mult	zero,zero
     438:	0000001d 	0x1d
     43c:	0000001f 	0x1f
     440:	688022fc 	0x688022fc
     444:	80000000 	lb	zero,0(zero)
     448:	fffffff8 	sdc3	$31,-8(ra)
	...
     454:	00000018 	mult	zero,zero
     458:	0000001d 	0x1d
     45c:	0000001f 	0x1f
     460:	68802338 	0x68802338
     464:	80010000 	lb	at,0(zero)
     468:	fffffffc 	sdc3	$31,-4(ra)
	...
     474:	00000018 	mult	zero,zero
     478:	0000001d 	0x1d
     47c:	0000001f 	0x1f
     480:	6880245c 	0x6880245c
	...
     498:	0000001d 	0x1d
     49c:	0000001f 	0x1f
     4a0:	68802520 	0x68802520
     4a4:	80010000 	lb	at,0(zero)
     4a8:	fffffffc 	sdc3	$31,-4(ra)
	...
     4b4:	00000420 	0x420
     4b8:	0000001d 	0x1d
     4bc:	0000001f 	0x1f
     4c0:	68802594 	0x68802594
     4c4:	80070000 	lb	a3,0(zero)
     4c8:	fffffffc 	sdc3	$31,-4(ra)
	...
     4d4:	00000470 	tge	zero,zero,0x11
     4d8:	0000001d 	0x1d
     4dc:	0000001f 	0x1f
     4e0:	688028bc 	0x688028bc
     4e4:	80000000 	lb	zero,0(zero)
     4e8:	fffffff8 	sdc3	$31,-8(ra)
	...
     4f4:	00000830 	tge	zero,zero,0x20
     4f8:	0000001d 	0x1d
     4fc:	0000001f 	0x1f
     500:	68802920 	0x68802920
     504:	80010000 	lb	at,0(zero)
     508:	fffffffc 	sdc3	$31,-4(ra)
	...
     514:	00000428 	0x428
     518:	0000001d 	0x1d
     51c:	0000001f 	0x1f
     520:	68802a20 	0x68802a20
     524:	80010000 	lb	at,0(zero)
     528:	fffffffc 	sdc3	$31,-4(ra)
	...
     534:	00000428 	0x428
     538:	0000001d 	0x1d
     53c:	0000001f 	0x1f
     540:	68802b08 	0x68802b08
     544:	80010000 	lb	at,0(zero)
     548:	fffffffc 	sdc3	$31,-4(ra)
	...
     554:	00000018 	mult	zero,zero
     558:	0000001d 	0x1d
     55c:	0000001f 	0x1f
     560:	68802be4 	0x68802be4
     564:	80000000 	lb	zero,0(zero)
     568:	fffffff8 	sdc3	$31,-8(ra)
	...
     574:	00000420 	0x420
     578:	0000001d 	0x1d
     57c:	0000001f 	0x1f
     580:	68802c18 	0x68802c18
     584:	80000000 	lb	zero,0(zero)
     588:	fffffff8 	sdc3	$31,-8(ra)
	...
     594:	00000420 	0x420
     598:	0000001d 	0x1d
     59c:	0000001f 	0x1f
     5a0:	68802c50 	0x68802c50
     5a4:	80010000 	lb	at,0(zero)
     5a8:	fffffffc 	sdc3	$31,-4(ra)
	...
     5b4:	00000420 	0x420
     5b8:	0000001d 	0x1d
     5bc:	0000001f 	0x1f
     5c0:	68802cc0 	0x68802cc0
     5c4:	80030000 	lb	v1,0(zero)
     5c8:	fffffff8 	sdc3	$31,-8(ra)
	...
     5d4:	00000428 	0x428
     5d8:	0000001d 	0x1d
     5dc:	0000001f 	0x1f
     5e0:	68802d34 	0x68802d34
     5e4:	80000000 	lb	zero,0(zero)
     5e8:	fffffff8 	sdc3	$31,-8(ra)
	...
     5f4:	00000828 	0x828
     5f8:	0000001d 	0x1d
     5fc:	0000001f 	0x1f
     600:	68802d94 	0x68802d94
     604:	80000000 	lb	zero,0(zero)
     608:	fffffff8 	sdc3	$31,-8(ra)
	...
     614:	00000420 	0x420
     618:	0000001d 	0x1d
     61c:	0000001f 	0x1f
     620:	68802dc8 	0x68802dc8
     624:	80070000 	lb	a3,0(zero)
     628:	fffffffc 	sdc3	$31,-4(ra)
	...
     634:	00000430 	tge	zero,zero,0x10
     638:	0000001d 	0x1d
     63c:	0000001f 	0x1f
     640:	68802eac 	0x68802eac
     644:	80030000 	lb	v1,0(zero)
     648:	fffffff8 	sdc3	$31,-8(ra)
	...
     654:	00000430 	tge	zero,zero,0x10
     658:	0000001d 	0x1d
     65c:	0000001f 	0x1f
     660:	68802f74 	0x68802f74
     664:	80030000 	lb	v1,0(zero)
     668:	fffffff8 	sdc3	$31,-8(ra)
	...
     674:	00000430 	tge	zero,zero,0x10
     678:	0000001d 	0x1d
     67c:	0000001f 	0x1f
     680:	6880303c 	0x6880303c
     684:	80070000 	lb	a3,0(zero)
     688:	fffffffc 	sdc3	$31,-4(ra)
	...
     694:	00000428 	0x428
     698:	0000001d 	0x1d
     69c:	0000001f 	0x1f
     6a0:	68803188 	0x68803188
     6a4:	80030000 	lb	v1,0(zero)
     6a8:	fffffff8 	sdc3	$31,-8(ra)
	...
     6b4:	00000030 	tge	zero,zero
     6b8:	0000001d 	0x1d
     6bc:	0000001f 	0x1f
     6c0:	68803210 	0x68803210
     6c4:	80030000 	lb	v1,0(zero)
     6c8:	fffffff8 	sdc3	$31,-8(ra)
	...
     6d4:	00000428 	0x428
     6d8:	0000001d 	0x1d
     6dc:	0000001f 	0x1f
     6e0:	688032f8 	0x688032f8
     6e4:	80010000 	lb	at,0(zero)
     6e8:	fffffffc 	sdc3	$31,-4(ra)
	...
     6f4:	00000018 	mult	zero,zero
     6f8:	0000001d 	0x1d
     6fc:	0000001f 	0x1f
     700:	68803348 	0x68803348
     704:	80000000 	lb	zero,0(zero)
     708:	fffffff8 	sdc3	$31,-8(ra)
	...
     714:	00000018 	mult	zero,zero
     718:	0000001d 	0x1d
     71c:	0000001f 	0x1f
     720:	68803374 	0x68803374
	...
     738:	0000001d 	0x1d
     73c:	0000001f 	0x1f
     740:	6880337c 	0x6880337c
     744:	80030000 	lb	v1,0(zero)
     748:	fffffff8 	sdc3	$31,-8(ra)
	...
     754:	00000028 	0x28
     758:	0000001d 	0x1d
     75c:	0000001f 	0x1f
     760:	6880342c 	0x6880342c
     764:	80010000 	lb	at,0(zero)
     768:	fffffffc 	sdc3	$31,-4(ra)
	...
     774:	00000018 	mult	zero,zero
     778:	0000001d 	0x1d
     77c:	0000001f 	0x1f
     780:	6880348c 	0x6880348c
     784:	80010000 	lb	at,0(zero)
     788:	fffffffc 	sdc3	$31,-4(ra)
	...
     794:	00000018 	mult	zero,zero
     798:	0000001d 	0x1d
     79c:	0000001f 	0x1f
     7a0:	68803550 	0x68803550
     7a4:	80030000 	lb	v1,0(zero)
     7a8:	fffffff8 	sdc3	$31,-8(ra)
	...
     7b4:	00000020 	add	zero,zero,zero
     7b8:	0000001d 	0x1d
     7bc:	0000001f 	0x1f
     7c0:	688035e0 	0x688035e0
     7c4:	80010000 	lb	at,0(zero)
     7c8:	fffffffc 	sdc3	$31,-4(ra)
	...
     7d4:	00000018 	mult	zero,zero
     7d8:	0000001d 	0x1d
     7dc:	0000001f 	0x1f
     7e0:	68803638 	0x68803638
	...
     7f8:	0000001d 	0x1d
     7fc:	0000001f 	0x1f
     800:	68803654 	0x68803654
     804:	80030000 	lb	v1,0(zero)
     808:	fffffff8 	sdc3	$31,-8(ra)
	...
     814:	00000020 	add	zero,zero,zero
     818:	0000001d 	0x1d
     81c:	0000001f 	0x1f
     820:	688036cc 	0x688036cc
     824:	80010000 	lb	at,0(zero)
     828:	fffffffc 	sdc3	$31,-4(ra)
	...
     834:	00000018 	mult	zero,zero
     838:	0000001d 	0x1d
     83c:	0000001f 	0x1f
     840:	68803730 	0x68803730
	...
     858:	0000001d 	0x1d
     85c:	0000001f 	0x1f
     860:	68803738 	0x68803738
     864:	80030000 	lb	v1,0(zero)
     868:	fffffff8 	sdc3	$31,-8(ra)
	...
     874:	00000020 	add	zero,zero,zero
     878:	0000001d 	0x1d
     87c:	0000001f 	0x1f
     880:	688039a8 	0x688039a8
     884:	80010000 	lb	at,0(zero)
     888:	fffffffc 	sdc3	$31,-4(ra)
	...
     894:	00000018 	mult	zero,zero
     898:	0000001d 	0x1d
     89c:	0000001f 	0x1f
     8a0:	68803b4c 	0x68803b4c
     8a4:	80030000 	lb	v1,0(zero)
     8a8:	fffffff8 	sdc3	$31,-8(ra)
	...
     8b4:	00000220 	0x220
     8b8:	0000001d 	0x1d
     8bc:	0000001f 	0x1f
     8c0:	68803ca0 	0x68803ca0
     8c4:	80010000 	lb	at,0(zero)
     8c8:	fffffffc 	sdc3	$31,-4(ra)
	...
     8d4:	00000018 	mult	zero,zero
     8d8:	0000001d 	0x1d
     8dc:	0000001f 	0x1f
     8e0:	68803d14 	0x68803d14
     8e4:	80000000 	lb	zero,0(zero)
     8e8:	fffffff8 	sdc3	$31,-8(ra)
	...
     8f4:	00000018 	mult	zero,zero
     8f8:	0000001d 	0x1d
     8fc:	0000001f 	0x1f
     900:	68803d44 	0x68803d44
     904:	80070000 	lb	a3,0(zero)
     908:	fffffffc 	sdc3	$31,-4(ra)
	...
     914:	00000430 	tge	zero,zero,0x10
     918:	0000001d 	0x1d
     91c:	0000001f 	0x1f
     920:	688040d0 	0x688040d0
     924:	80000000 	lb	zero,0(zero)
     928:	fffffff8 	sdc3	$31,-8(ra)
	...
     934:	00000028 	0x28
     938:	0000001d 	0x1d
     93c:	0000001f 	0x1f
     940:	68804144 	0x68804144
     944:	80000000 	lb	zero,0(zero)
     948:	fffffff8 	sdc3	$31,-8(ra)
	...
     954:	00000028 	0x28
     958:	0000001d 	0x1d
     95c:	0000001f 	0x1f
     960:	688041b8 	0x688041b8
     964:	803f0000 	lb	ra,0(at)
     968:	fffffff8 	sdc3	$31,-8(ra)
	...
     974:	00000658 	0x658
     978:	0000001d 	0x1d
     97c:	0000001f 	0x1f
     980:	688046d8 	0x688046d8
     984:	80000000 	lb	zero,0(zero)
     988:	fffffff8 	sdc3	$31,-8(ra)
	...
     994:	00000020 	add	zero,zero,zero
     998:	0000001d 	0x1d
     99c:	0000001f 	0x1f
     9a0:	688046f8 	0x688046f8
     9a4:	80070000 	lb	a3,0(zero)
     9a8:	fffffffc 	sdc3	$31,-4(ra)
	...
     9b4:	00000028 	0x28
     9b8:	0000001d 	0x1d
     9bc:	0000001f 	0x1f
     9c0:	68804750 	0x68804750
     9c4:	800f0000 	lb	t7,0(zero)
     9c8:	fffffff8 	sdc3	$31,-8(ra)
	...
     9d4:	00000040 	ssnop
     9d8:	0000001d 	0x1d
     9dc:	0000001f 	0x1f
     9e0:	688047e4 	0x688047e4
     9e4:	80000000 	lb	zero,0(zero)
     9e8:	fffffff8 	sdc3	$31,-8(ra)
	...
     9f4:	00000018 	mult	zero,zero
     9f8:	0000001d 	0x1d
     9fc:	0000001f 	0x1f
     a00:	68804810 	0x68804810
     a04:	80000000 	lb	zero,0(zero)
     a08:	fffffff8 	sdc3	$31,-8(ra)
	...
     a14:	00000018 	mult	zero,zero
     a18:	0000001d 	0x1d
     a1c:	0000001f 	0x1f
     a20:	68804838 	0x68804838
     a24:	80010000 	lb	at,0(zero)
     a28:	fffffffc 	sdc3	$31,-4(ra)
	...
     a34:	00000018 	mult	zero,zero
     a38:	0000001d 	0x1d
     a3c:	0000001f 	0x1f
     a40:	68804874 	0x68804874
     a44:	80000000 	lb	zero,0(zero)
     a48:	fffffff8 	sdc3	$31,-8(ra)
	...
     a54:	00000018 	mult	zero,zero
     a58:	0000001d 	0x1d
     a5c:	0000001f 	0x1f
     a60:	6880489c 	0x6880489c
     a64:	80070000 	lb	a3,0(zero)
     a68:	fffffffc 	sdc3	$31,-4(ra)
	...
     a74:	00000030 	tge	zero,zero
     a78:	0000001d 	0x1d
     a7c:	0000001f 	0x1f
     a80:	68804964 	0x68804964
	...
     a98:	0000001d 	0x1d
     a9c:	0000001f 	0x1f
     aa0:	68804970 	0x68804970
	...
     ab8:	0000001d 	0x1d
     abc:	0000001f 	0x1f
     ac0:	6880497c 	0x6880497c
	...
     ad8:	0000001d 	0x1d
     adc:	0000001f 	0x1f
     ae0:	68804988 	0x68804988
	...
     af8:	0000001d 	0x1d
     afc:	0000001f 	0x1f
     b00:	68804994 	0x68804994
	...
     b18:	0000001d 	0x1d
     b1c:	0000001f 	0x1f
     b20:	688049a0 	0x688049a0
	...
     b38:	0000001d 	0x1d
     b3c:	0000001f 	0x1f
     b40:	688049ac 	0x688049ac
	...
     b58:	0000001d 	0x1d
     b5c:	0000001f 	0x1f
     b60:	688049b8 	0x688049b8
	...
     b78:	0000001d 	0x1d
     b7c:	0000001f 	0x1f
     b80:	688049c4 	0x688049c4
	...
     b98:	0000001d 	0x1d
     b9c:	0000001f 	0x1f
     ba0:	688049d0 	0x688049d0
	...
     bb8:	0000001d 	0x1d
     bbc:	0000001f 	0x1f
     bc0:	688049dc 	0x688049dc
	...
     bd8:	0000001d 	0x1d
     bdc:	0000001f 	0x1f
     be0:	688049e8 	0x688049e8
	...
     bf8:	0000001d 	0x1d
     bfc:	0000001f 	0x1f
     c00:	688049f4 	0x688049f4
	...
     c18:	0000001d 	0x1d
     c1c:	0000001f 	0x1f
     c20:	68804a00 	0x68804a00
	...
     c38:	0000001d 	0x1d
     c3c:	0000001f 	0x1f
     c40:	68804a0c 	0x68804a0c
	...
     c58:	0000001d 	0x1d
     c5c:	0000001f 	0x1f
     c60:	68804a18 	0x68804a18
	...
     c78:	0000001d 	0x1d
     c7c:	0000001f 	0x1f
     c80:	68804a24 	0x68804a24
	...
     c98:	0000001d 	0x1d
     c9c:	0000001f 	0x1f
     ca0:	68804a30 	0x68804a30
	...
     cb8:	0000001d 	0x1d
     cbc:	0000001f 	0x1f
     cc0:	68804a3c 	0x68804a3c
	...
     cd8:	0000001d 	0x1d
     cdc:	0000001f 	0x1f
     ce0:	68804a48 	0x68804a48
	...
     cf8:	0000001d 	0x1d
     cfc:	0000001f 	0x1f
     d00:	68804a54 	0x68804a54
	...
     d18:	0000001d 	0x1d
     d1c:	0000001f 	0x1f
     d20:	68804a60 	0x68804a60
	...
     d38:	0000001d 	0x1d
     d3c:	0000001f 	0x1f
     d40:	68804a6c 	0x68804a6c
	...
     d58:	0000001d 	0x1d
     d5c:	0000001f 	0x1f
     d60:	68804a78 	0x68804a78
	...
     d78:	0000001d 	0x1d
     d7c:	0000001f 	0x1f
     d80:	68804a84 	0x68804a84
	...
     d98:	0000001d 	0x1d
     d9c:	0000001f 	0x1f
     da0:	68804a90 	0x68804a90
	...
     db8:	0000001d 	0x1d
     dbc:	0000001f 	0x1f
     dc0:	68804a9c 	0x68804a9c
	...
     dd8:	0000001d 	0x1d
     ddc:	0000001f 	0x1f
     de0:	68804aa8 	0x68804aa8
	...
     df8:	0000001d 	0x1d
     dfc:	0000001f 	0x1f
     e00:	68804ab4 	0x68804ab4
	...
     e18:	0000001d 	0x1d
     e1c:	0000001f 	0x1f
     e20:	68804ac0 	0x68804ac0
	...
     e38:	0000001d 	0x1d
     e3c:	0000001f 	0x1f
     e40:	68804acc 	0x68804acc
	...
     e58:	0000001d 	0x1d
     e5c:	0000001f 	0x1f
     e60:	68804ad8 	0x68804ad8
	...
     e78:	0000001d 	0x1d
     e7c:	0000001f 	0x1f
     e80:	68804ae4 	0x68804ae4
	...
     e98:	0000001d 	0x1d
     e9c:	0000001f 	0x1f
     ea0:	68804af0 	0x68804af0
	...
     eb8:	0000001d 	0x1d
     ebc:	0000001f 	0x1f
     ec0:	68804afc 	0x68804afc
	...
     ed8:	0000001d 	0x1d
     edc:	0000001f 	0x1f
     ee0:	68804b08 	0x68804b08
	...
     ef8:	0000001d 	0x1d
     efc:	0000001f 	0x1f
     f00:	68804b10 	0x68804b10
	...
     f18:	0000001d 	0x1d
     f1c:	0000001f 	0x1f
     f20:	68804b1c 	0x68804b1c
	...
     f38:	0000001d 	0x1d
     f3c:	0000001f 	0x1f
     f40:	68804b28 	0x68804b28
	...
     f58:	0000001d 	0x1d
     f5c:	0000001f 	0x1f
     f60:	68804b34 	0x68804b34
	...
     f78:	0000001d 	0x1d
     f7c:	0000001f 	0x1f
     f80:	68804b40 	0x68804b40
	...
     f98:	0000001d 	0x1d
     f9c:	0000001f 	0x1f
     fa0:	68804b4c 	0x68804b4c
	...
     fb8:	0000001d 	0x1d
     fbc:	0000001f 	0x1f
     fc0:	68804b58 	0x68804b58
	...
     fd8:	0000001d 	0x1d
     fdc:	0000001f 	0x1f
     fe0:	68804b64 	0x68804b64
	...
     ff8:	0000001d 	0x1d
     ffc:	0000001f 	0x1f
    1000:	68804b70 	0x68804b70
	...
    1018:	0000001d 	0x1d
    101c:	0000001f 	0x1f
    1020:	68804b7c 	0x68804b7c
	...
    1038:	0000001d 	0x1d
    103c:	0000001f 	0x1f
    1040:	68804b88 	0x68804b88
	...
    1058:	0000001d 	0x1d
    105c:	0000001f 	0x1f
    1060:	68804b94 	0x68804b94
	...
    1078:	0000001d 	0x1d
    107c:	0000001f 	0x1f
    1080:	68804ba0 	0x68804ba0
	...
    1098:	0000001d 	0x1d
    109c:	0000001f 	0x1f
    10a0:	68804bb0 	0x68804bb0
	...
    10b8:	0000001d 	0x1d
    10bc:	0000001f 	0x1f
    10c0:	68804bc0 	0x68804bc0
	...
    10d8:	0000001d 	0x1d
    10dc:	0000001f 	0x1f
    10e0:	68804bd0 	0x68804bd0
	...
    10f8:	0000001d 	0x1d
    10fc:	0000001f 	0x1f
    1100:	68804be0 	0x68804be0
	...
    1118:	0000001d 	0x1d
    111c:	0000001f 	0x1f
    1120:	68804bec 	0x68804bec
	...
    1138:	0000001d 	0x1d
    113c:	0000001f 	0x1f
    1140:	68804bf8 	0x68804bf8
	...
    1158:	0000001d 	0x1d
    115c:	0000001f 	0x1f
    1160:	68804c04 	0x68804c04
	...
    1178:	0000001d 	0x1d
    117c:	0000001f 	0x1f
    1180:	68804c10 	0x68804c10
	...
    1198:	0000001d 	0x1d
    119c:	0000001f 	0x1f
    11a0:	68804c1c 	0x68804c1c
	...
    11b8:	0000001d 	0x1d
    11bc:	0000001f 	0x1f
    11c0:	68804c24 	0x68804c24
	...
    11d8:	0000001d 	0x1d
    11dc:	0000001f 	0x1f
    11e0:	68804c30 	0x68804c30
	...
    11f8:	0000001d 	0x1d
    11fc:	0000001f 	0x1f
    1200:	68804c3c 	0x68804c3c
	...
    1218:	0000001d 	0x1d
    121c:	0000001f 	0x1f
    1220:	68804c48 	0x68804c48
	...
    1238:	0000001d 	0x1d
    123c:	0000001f 	0x1f
    1240:	68804c54 	0x68804c54
	...
    1258:	0000001d 	0x1d
    125c:	0000001f 	0x1f
    1260:	68804c60 	0x68804c60
	...
    1278:	0000001d 	0x1d
    127c:	0000001f 	0x1f
    1280:	68804c6c 	0x68804c6c
	...
    1298:	0000001d 	0x1d
    129c:	0000001f 	0x1f
    12a0:	68804c78 	0x68804c78
	...
    12b8:	0000001d 	0x1d
    12bc:	0000001f 	0x1f
    12c0:	68804c84 	0x68804c84
	...
    12d8:	0000001d 	0x1d
    12dc:	0000001f 	0x1f
    12e0:	68804c90 	0x68804c90
	...
    12f8:	0000001d 	0x1d
    12fc:	0000001f 	0x1f
    1300:	68804c9c 	0x68804c9c
	...
    1318:	0000001d 	0x1d
    131c:	0000001f 	0x1f
    1320:	68804ca8 	0x68804ca8
	...
    1338:	0000001d 	0x1d
    133c:	0000001f 	0x1f
    1340:	68804cb4 	0x68804cb4
	...
    1358:	0000001d 	0x1d
    135c:	0000001f 	0x1f
    1360:	68804cc0 	0x68804cc0
	...
    1378:	0000001d 	0x1d
    137c:	0000001f 	0x1f
    1380:	68804ccc 	0x68804ccc
	...
    1398:	0000001d 	0x1d
    139c:	0000001f 	0x1f
    13a0:	68804cd8 	0x68804cd8
	...
    13b8:	0000001d 	0x1d
    13bc:	0000001f 	0x1f
    13c0:	68804ce4 	0x68804ce4
	...
    13d8:	0000001d 	0x1d
    13dc:	0000001f 	0x1f
    13e0:	68804cf0 	0x68804cf0
	...
    13f8:	0000001d 	0x1d
    13fc:	0000001f 	0x1f
    1400:	68804cfc 	0x68804cfc
	...
    1418:	0000001d 	0x1d
    141c:	0000001f 	0x1f
    1420:	68804d08 	0x68804d08
	...
    1438:	0000001d 	0x1d
    143c:	0000001f 	0x1f
    1440:	68804d14 	0x68804d14
	...
    1458:	0000001d 	0x1d
    145c:	0000001f 	0x1f
    1460:	68804d20 	0x68804d20
	...
    1478:	0000001d 	0x1d
    147c:	0000001f 	0x1f
    1480:	68804d2c 	0x68804d2c
	...
    1498:	0000001d 	0x1d
    149c:	0000001f 	0x1f
    14a0:	68804d38 	0x68804d38
	...
    14b8:	0000001d 	0x1d
    14bc:	0000001f 	0x1f
    14c0:	68804d44 	0x68804d44
	...
    14d8:	0000001d 	0x1d
    14dc:	0000001f 	0x1f
    14e0:	68804d50 	0x68804d50
	...
    14f8:	0000001d 	0x1d
    14fc:	0000001f 	0x1f
    1500:	68804d5c 	0x68804d5c
	...
    1518:	0000001d 	0x1d
    151c:	0000001f 	0x1f
    1520:	68804d68 	0x68804d68
	...
    1538:	0000001d 	0x1d
    153c:	0000001f 	0x1f
    1540:	68804d74 	0x68804d74
	...
    1558:	0000001d 	0x1d
    155c:	0000001f 	0x1f
    1560:	68804d80 	0x68804d80
	...
    1578:	0000001d 	0x1d
    157c:	0000001f 	0x1f
    1580:	68804d8c 	0x68804d8c
	...
    1598:	0000001d 	0x1d
    159c:	0000001f 	0x1f
    15a0:	68804d98 	0x68804d98
	...
    15b8:	0000001d 	0x1d
    15bc:	0000001f 	0x1f
    15c0:	68804da4 	0x68804da4
	...
    15d8:	0000001d 	0x1d
    15dc:	0000001f 	0x1f
    15e0:	68804db0 	0x68804db0
	...
    15f8:	0000001d 	0x1d
    15fc:	0000001f 	0x1f
    1600:	68804dbc 	0x68804dbc
	...
    1618:	0000001d 	0x1d
    161c:	0000001f 	0x1f
    1620:	68804dc8 	0x68804dc8
	...
    1638:	0000001d 	0x1d
    163c:	0000001f 	0x1f
    1640:	68804dd4 	0x68804dd4
	...
    1658:	0000001d 	0x1d
    165c:	0000001f 	0x1f
    1660:	68804de0 	0x68804de0
	...
    1678:	0000001d 	0x1d
    167c:	0000001f 	0x1f
    1680:	68804dec 	0x68804dec
	...
    1698:	0000001d 	0x1d
    169c:	0000001f 	0x1f
    16a0:	68804df8 	0x68804df8
	...
    16b8:	0000001d 	0x1d
    16bc:	0000001f 	0x1f
    16c0:	68804e04 	0x68804e04
	...
    16d8:	0000001d 	0x1d
    16dc:	0000001f 	0x1f
    16e0:	68804e10 	0x68804e10
	...
    16f8:	0000001d 	0x1d
    16fc:	0000001f 	0x1f
    1700:	68804e1c 	0x68804e1c
	...
    1718:	0000001d 	0x1d
    171c:	0000001f 	0x1f
    1720:	68804e28 	0x68804e28
	...
    1738:	0000001d 	0x1d
    173c:	0000001f 	0x1f
    1740:	68804e34 	0x68804e34
    1744:	c0000000 	ll	zero,0(zero)
    1748:	fffffffc 	sdc3	$31,-4(ra)
	...
    1754:	00000020 	add	zero,zero,zero
    1758:	0000001e 	0x1e
    175c:	0000001f 	0x1f
    1760:	68804e9c 	0x68804e9c
	...
    1778:	0000001d 	0x1d
    177c:	0000001f 	0x1f
    1780:	68804ea4 	0x68804ea4
	...
    1798:	0000001d 	0x1d
    179c:	0000001f 	0x1f
    17a0:	68804f00 	0x68804f00
    17a4:	80030000 	lb	v1,0(zero)
    17a8:	fffffff8 	sdc3	$31,-8(ra)
	...
    17b4:	00000020 	add	zero,zero,zero
    17b8:	0000001d 	0x1d
    17bc:	0000001f 	0x1f
    17c0:	68804fcc 	0x68804fcc
    17c4:	80070000 	lb	a3,0(zero)
    17c8:	fffffffc 	sdc3	$31,-4(ra)
	...
    17d4:	00000050 	0x50
    17d8:	0000001d 	0x1d
    17dc:	0000001f 	0x1f
    17e0:	688051dc 	0x688051dc
    17e4:	c0000000 	ll	zero,0(zero)
    17e8:	fffffffc 	sdc3	$31,-4(ra)
	...
    17f4:	00000020 	add	zero,zero,zero
    17f8:	0000001e 	0x1e
    17fc:	0000001f 	0x1f
    1800:	68805244 	0x68805244
	...
    1818:	0000001d 	0x1d
    181c:	0000001f 	0x1f
    1820:	68805250 	0x68805250
	...
    1838:	0000001d 	0x1d
    183c:	0000001f 	0x1f
    1840:	6880525c 	0x6880525c
	...
    1858:	0000001d 	0x1d
    185c:	0000001f 	0x1f
    1860:	68805268 	0x68805268
	...
    1878:	0000001d 	0x1d
    187c:	0000001f 	0x1f
    1880:	68805274 	0x68805274
	...
    1898:	0000001d 	0x1d
    189c:	0000001f 	0x1f
    18a0:	68805280 	0x68805280
	...
    18b8:	0000001d 	0x1d
    18bc:	0000001f 	0x1f
    18c0:	6880528c 	0x6880528c
	...
    18d8:	0000001d 	0x1d
    18dc:	0000001f 	0x1f
    18e0:	68805298 	0x68805298
	...
    18f8:	0000001d 	0x1d
    18fc:	0000001f 	0x1f
    1900:	688052a4 	0x688052a4
	...
    1918:	0000001d 	0x1d
    191c:	0000001f 	0x1f
    1920:	688052b0 	0x688052b0
	...
    1938:	0000001d 	0x1d
    193c:	0000001f 	0x1f
    1940:	688052bc 	0x688052bc
	...
    1958:	0000001d 	0x1d
    195c:	0000001f 	0x1f
    1960:	688052c8 	0x688052c8
	...
    1978:	0000001d 	0x1d
    197c:	0000001f 	0x1f
    1980:	688052d4 	0x688052d4
	...
    1998:	0000001d 	0x1d
    199c:	0000001f 	0x1f
    19a0:	688052e0 	0x688052e0
	...
    19b8:	0000001d 	0x1d
    19bc:	0000001f 	0x1f
    19c0:	688052ec 	0x688052ec
	...
    19d8:	0000001d 	0x1d
    19dc:	0000001f 	0x1f
    19e0:	688052f8 	0x688052f8
	...
    19f8:	0000001d 	0x1d
    19fc:	0000001f 	0x1f
    1a00:	68805304 	0x68805304
	...
    1a18:	0000001d 	0x1d
    1a1c:	0000001f 	0x1f
    1a20:	68805310 	0x68805310
	...
    1a38:	0000001d 	0x1d
    1a3c:	0000001f 	0x1f
    1a40:	6880531c 	0x6880531c
	...
    1a58:	0000001d 	0x1d
    1a5c:	0000001f 	0x1f
    1a60:	68805328 	0x68805328
	...
    1a78:	0000001d 	0x1d
    1a7c:	0000001f 	0x1f
    1a80:	68805334 	0x68805334
	...
    1a98:	0000001d 	0x1d
    1a9c:	0000001f 	0x1f
    1aa0:	68805340 	0x68805340
	...
    1ab8:	0000001d 	0x1d
    1abc:	0000001f 	0x1f
    1ac0:	6880534c 	0x6880534c
	...
    1ad8:	0000001d 	0x1d
    1adc:	0000001f 	0x1f
    1ae0:	68805358 	0x68805358
	...
    1af8:	0000001d 	0x1d
    1afc:	0000001f 	0x1f
    1b00:	68805364 	0x68805364
	...
    1b18:	0000001d 	0x1d
    1b1c:	0000001f 	0x1f
    1b20:	68805370 	0x68805370
	...
    1b38:	0000001d 	0x1d
    1b3c:	0000001f 	0x1f
    1b40:	6880537c 	0x6880537c
	...
    1b58:	0000001d 	0x1d
    1b5c:	0000001f 	0x1f
    1b60:	68805388 	0x68805388
	...
    1b78:	0000001d 	0x1d
    1b7c:	0000001f 	0x1f
    1b80:	68805394 	0x68805394
    1b84:	80000000 	lb	zero,0(zero)
    1b88:	fffffff8 	sdc3	$31,-8(ra)
	...
    1b94:	00000018 	mult	zero,zero
    1b98:	0000001d 	0x1d
    1b9c:	0000001f 	0x1f
    1ba0:	688053bc 	0x688053bc
	...
    1bb8:	0000001d 	0x1d
    1bbc:	0000001f 	0x1f
    1bc0:	68805420 	0x68805420
	...
    1bd4:	00000048 	0x48
    1bd8:	0000001d 	0x1d
    1bdc:	0000001f 	0x1f
    1be0:	6880567c 	0x6880567c
    1be4:	803f0000 	lb	ra,0(at)
    1be8:	fffffff8 	sdc3	$31,-8(ra)
	...
    1bf4:	00000080 	sll	zero,zero,0x2
    1bf8:	0000001d 	0x1d
    1bfc:	0000001f 	0x1f
    1c00:	68805db8 	0x68805db8
	...
    1c18:	0000001d 	0x1d
    1c1c:	0000001f 	0x1f
    1c20:	68805de0 	0x68805de0
	...
    1c38:	0000001d 	0x1d
    1c3c:	0000001f 	0x1f
    1c40:	68805e08 	0x68805e08
	...
    1c58:	0000001d 	0x1d
    1c5c:	0000001f 	0x1f
    1c60:	68805e2c 	0x68805e2c
	...
    1c78:	0000001d 	0x1d
    1c7c:	0000001f 	0x1f
    1c80:	68805e4c 	0x68805e4c
	...
    1c98:	0000001d 	0x1d
    1c9c:	0000001f 	0x1f
    1ca0:	68805e78 	0x68805e78
	...
    1cb8:	0000001d 	0x1d
    1cbc:	0000001f 	0x1f
    1cc0:	68805e80 	0x68805e80
	...
    1cd8:	0000001d 	0x1d
    1cdc:	0000001f 	0x1f
    1ce0:	68805ec4 	0x68805ec4
	...
    1cf8:	0000001d 	0x1d
    1cfc:	0000001f 	0x1f
    1d00:	68805ef0 	0x68805ef0
	...
    1d18:	0000001d 	0x1d
    1d1c:	0000001f 	0x1f
    1d20:	68805f44 	0x68805f44
	...
    1d38:	0000001d 	0x1d
    1d3c:	0000001f 	0x1f
    1d40:	68805f50 	0x68805f50
	...
    1d58:	0000001d 	0x1d
    1d5c:	0000001f 	0x1f
    1d60:	68805f5c 	0x68805f5c
	...
    1d78:	0000001d 	0x1d
    1d7c:	0000001f 	0x1f
    1d80:	68805f68 	0x68805f68
	...
    1d98:	0000001d 	0x1d
    1d9c:	0000001f 	0x1f
    1da0:	68805f74 	0x68805f74
	...
    1db8:	0000001d 	0x1d
    1dbc:	0000001f 	0x1f
    1dc0:	68805f80 	0x68805f80
	...
    1dd8:	0000001d 	0x1d
    1ddc:	0000001f 	0x1f
    1de0:	68805f8c 	0x68805f8c
	...
    1df8:	0000001d 	0x1d
    1dfc:	0000001f 	0x1f
    1e00:	68805f98 	0x68805f98
	...
    1e18:	0000001d 	0x1d
    1e1c:	0000001f 	0x1f
    1e20:	68805fa4 	0x68805fa4
	...
    1e38:	0000001d 	0x1d
    1e3c:	0000001f 	0x1f
    1e40:	68805fb0 	0x68805fb0
	...
    1e58:	0000001d 	0x1d
    1e5c:	0000001f 	0x1f
    1e60:	68805fbc 	0x68805fbc
	...
    1e78:	0000001d 	0x1d
    1e7c:	0000001f 	0x1f
    1e80:	68805fc8 	0x68805fc8
	...
    1e98:	0000001d 	0x1d
    1e9c:	0000001f 	0x1f
    1ea0:	68805fd4 	0x68805fd4
	...
    1eb8:	0000001d 	0x1d
    1ebc:	0000001f 	0x1f
    1ec0:	68805fe0 	0x68805fe0
	...
    1ed8:	0000001d 	0x1d
    1edc:	0000001f 	0x1f
    1ee0:	68805ff0 	0x68805ff0
	...
    1ef8:	0000001d 	0x1d
    1efc:	0000001f 	0x1f
    1f00:	68805ffc 	0x68805ffc
	...
    1f18:	0000001d 	0x1d
    1f1c:	0000001f 	0x1f
    1f20:	68806008 	0x68806008
	...
    1f38:	0000001d 	0x1d
    1f3c:	0000001f 	0x1f
    1f40:	68806014 	0x68806014
	...
    1f58:	0000001d 	0x1d
    1f5c:	0000001f 	0x1f
    1f60:	68806020 	0x68806020
	...
    1f78:	0000001d 	0x1d
    1f7c:	0000001f 	0x1f
    1f80:	6880602c 	0x6880602c
	...
    1f98:	0000001d 	0x1d
    1f9c:	0000001f 	0x1f
    1fa0:	68806038 	0x68806038
	...
    1fb8:	0000001d 	0x1d
    1fbc:	0000001f 	0x1f
    1fc0:	68806044 	0x68806044
	...
    1fd8:	0000001d 	0x1d
    1fdc:	0000001f 	0x1f
    1fe0:	68806050 	0x68806050
	...
    1ff8:	0000001d 	0x1d
    1ffc:	0000001f 	0x1f
    2000:	6880605c 	0x6880605c
	...
    2018:	0000001d 	0x1d
    201c:	0000001f 	0x1f
    2020:	68806068 	0x68806068
	...
    2038:	0000001d 	0x1d
    203c:	0000001f 	0x1f
    2040:	68806074 	0x68806074
	...
    2058:	0000001d 	0x1d
    205c:	0000001f 	0x1f
    2060:	68806080 	0x68806080
	...
    2078:	0000001d 	0x1d
    207c:	0000001f 	0x1f
Disassembly of section .debug_abbrev:

00000000 <.debug_abbrev>:
       0:	10011101 	beq	zero,at,4408 <_init-0x687fbbf8>
       4:	11011206 	beq	t0,at,4820 <_init-0x687fb7e0>
       8:	130e2501 	beq	t8,t6,9410 <_init-0x687f6bf0>
       c:	1b0e030b 	0x1b0e030b
      10:	0200000e 	0x200000e
      14:	0e030024 	jal	80c0090 <_init-0x6073ff70>
      18:	0b3e0b0b 	j	cf82c2c <_init-0x5b87d3d4>
      1c:	24030000 	li	v1,0
      20:	0b080300 	j	c200c00 <_init-0x5c5ff400>
      24:	000b3e0b 	0xb3e0b
      28:	01040400 	0x1040400
      2c:	0b0b1301 	j	c2c4c04 <_init-0x5c53b3fc>
      30:	0b3b0b3a 	j	cec2ce8 <_init-0x5b93d318>
      34:	28050000 	slti	a1,zero,0
      38:	1c0e0300 	0x1c0e0300
      3c:	0600000d 	bltz	s0,74 <_init-0x687fff8c>
      40:	1301012e 	beq	t8,at,4fc <_init-0x687ffb04>
      44:	0e030c3f 	jal	80c30fc <_init-0x6073cf04>
      48:	0b3b0b3a 	j	cec2ce8 <_init-0x5b93d318>
      4c:	01110c27 	0x1110c27
      50:	0a400112 	j	9000448 <_init-0x5f7ffbb8>
      54:	1d070000 	0x1d070000
      58:	11133100 	beq	t0,s3,c45c <_init-0x687f3ba4>
      5c:	00011201 	0x11201
      60:	002e0800 	0x2e0800
      64:	0b3a0e03 	j	ce8380c <_init-0x5b97c7f4>
      68:	0c270b3b 	jal	9c2cec <_init-0x67e3d314>
      6c:	00000b20 	0xb20
      70:	31011d09 	andi	at,t0,0x1d09
      74:	12011113 	beq	s0,at,44c4 <_init-0x687fbb3c>
      78:	0a000001 	j	8000004 <_init-0x607ffffc>
      7c:	13310034 	beq	t9,s1,150 <_init-0x687ffeb0>
      80:	0b0b0000 	j	c2c0000 <_init-0x5c540000>
      84:	12011101 	beq	s0,at,448c <_init-0x687fbb74>
      88:	0c000001 	jal	4 <_init-0x687ffffc>
      8c:	1301012e 	beq	t8,at,548 <_init-0x687ffab8>
      90:	0b3a0e03 	j	ce8380c <_init-0x5b97c7f4>
      94:	0c270b3b 	jal	9c2cec <_init-0x67e3d314>
      98:	00000b20 	0xb20
      9c:	0300340d 	break	0x300,0xd0
      a0:	3b0b3a08 	xori	t3,t8,0x3a08
      a4:	0013490b 	0x13490b
      a8:	00340e00 	0x340e00
      ac:	0b3a0e03 	j	ce8380c <_init-0x5b97c7f4>
      b0:	13490b3b 	beq	k0,t1,2da0 <_init-0x687fd260>
      b4:	0a020c3f 	j	80830fc <_init-0x6077cf04>
      b8:	01000000 	0x1000000
      bc:	06100111 	bltzal	s0,504 <_init-0x687ffafc>
      c0:	01110112 	0x1110112
      c4:	0b130e25 	j	c4c3894 <_init-0x5c33c76c>
      c8:	0e1b0e03 	jal	86c380c <_init-0x6013c7f4>
      cc:	24020000 	li	v0,0
      d0:	0b0e0300 	j	c380c00 <_init-0x5c47f400>
      d4:	000b3e0b 	0xb3e0b
      d8:	000f0300 	sll	zero,t7,0xc
      dc:	00000b0b 	0xb0b
      e0:	0b000f04 	j	c003c10 <_init-0x5c7fc3f0>
      e4:	0013490b 	0x13490b
      e8:	01040500 	0x1040500
      ec:	0b0b1301 	j	c2c4c04 <_init-0x5c53b3fc>
      f0:	0b3b0b3a 	j	cec2ce8 <_init-0x5b93d318>
      f4:	28060000 	slti	a2,zero,0
      f8:	1c0e0300 	0x1c0e0300
      fc:	0700000d 	bltz	t8,134 <_init-0x687ffecc>
     100:	0e030016 	jal	80c0058 <_init-0x6073ffa8>
     104:	0b3b0b3a 	j	cec2ce8 <_init-0x5b93d318>
     108:	00001349 	0x1349
     10c:	03002408 	0x3002408
     110:	3e0b0b08 	0x3e0b0b08
     114:	0900000b 	j	400002c <_init-0x647fffd4>
     118:	13490026 	beq	k0,t1,1b4 <_init-0x687ffe4c>
     11c:	010a0000 	0x10a0000
     120:	49130101 	bc2tl	$cc4,528 <_init-0x687ffad8>
     124:	0b000013 	j	c00004c <_init-0x5c7fffb4>
     128:	13490021 	beq	k0,t1,1b0 <_init-0x687ffe50>
     12c:	00000b2f 	0xb2f
     130:	4900210c 	bc2f	8564 <_init-0x687f7a9c>
     134:	00052f13 	0x52f13
     138:	01130d00 	0x1130d00
     13c:	0b0b1301 	j	c2c4c04 <_init-0x5c53b3fc>
     140:	0b3b0b3a 	j	cec2ce8 <_init-0x5b93d318>
     144:	0d0e0000 	jal	4380000 <_init-0x64480000>
     148:	3a0e0300 	xori	t6,s0,0x300
     14c:	490b3b0b 	bc2tl	$cc2,ed7c <_init-0x687f1284>
     150:	000a3813 	0xa3813
     154:	000d0f00 	sll	at,t5,0x1c
     158:	0b3a0803 	j	ce8200c <_init-0x5b97dff4>
     15c:	13490b3b 	beq	k0,t1,2e4c <_init-0x687fd1b4>
     160:	00000a38 	0xa38
     164:	01011310 	0x1011310
     168:	0b0e0313 	j	c380c4c <_init-0x5c47f3b4>
     16c:	3b0b3a0b 	xori	t3,t8,0x3a0b
     170:	1100000b 	beqz	t0,1a0 <_init-0x687ffe60>
     174:	13010113 	beq	t8,at,5c4 <_init-0x687ffa3c>
     178:	0b3a0b0b 	j	ce82c2c <_init-0x5b97d3d4>
     17c:	0000053b 	0x53b
     180:	03000d12 	0x3000d12
     184:	3b0b3a0e 	xori	t3,t8,0x3a0e
     188:	38134905 	xori	s3,zero,0x4905
     18c:	1300000a 	beqz	t8,1b8 <_init-0x687ffe48>
     190:	0e030016 	jal	80c0058 <_init-0x6073ffa8>
     194:	053b0b3a 	0x53b0b3a
     198:	00001349 	0x1349
     19c:	03001314 	0x3001314
     1a0:	000c3c0e 	0xc3c0e
     1a4:	01151500 	0x1151500
     1a8:	0c271301 	jal	9c4c04 <_init-0x67e3b3fc>
     1ac:	05160000 	0x5160000
     1b0:	00134900 	sll	t1,s3,0x4
     1b4:	01151700 	0x1151700
     1b8:	0c271301 	jal	9c4c04 <_init-0x67e3b3fc>
     1bc:	00001349 	0x1349
     1c0:	01012e18 	0x1012e18
     1c4:	030c3f13 	0x30c3f13
     1c8:	3b0b3a0e 	xori	t3,t8,0x3a0e
     1cc:	490c270b 	bc2f	$cc3,9dfc <_init-0x687f6204>
     1d0:	12011113 	beq	s0,at,4620 <_init-0x687fb9e0>
     1d4:	000a4001 	0xa4001
     1d8:	00051900 	sll	v1,a1,0x4
     1dc:	0b3a0e03 	j	ce8380c <_init-0x5b97c7f4>
     1e0:	13490b3b 	beq	k0,t1,2ed0 <_init-0x687fd130>
     1e4:	00000a02 	srl	at,zero,0x8
     1e8:	0300341a 	0x300341a
     1ec:	3b0b3a0e 	xori	t3,t8,0x3a0e
     1f0:	0213490b 	0x213490b
     1f4:	1b00000a 	blez	t8,220 <_init-0x687ffde0>
     1f8:	1301012e 	beq	t8,at,6b4 <_init-0x687ff94c>
     1fc:	0b3a0e03 	j	ce8380c <_init-0x5b97c7f4>
     200:	0c270b3b 	jal	9c2cec <_init-0x67e3d314>
     204:	01120111 	0x1120111
     208:	00000a40 	sll	at,zero,0x9
     20c:	0300051c 	0x300051c
     210:	3b0b3a08 	xori	t3,t8,0x3a08
     214:	0213490b 	0x213490b
     218:	1d00000a 	bgtz	t0,244 <_init-0x687ffdbc>
     21c:	0e030034 	jal	80c00d0 <_init-0x6073ff30>
     220:	0b3b0b3a 	j	cec2ce8 <_init-0x5b93d318>
     224:	0c3f1349 	jal	fc4d24 <_init-0x6783b2dc>
     228:	00000a02 	srl	at,zero,0x8
     22c:	0300341e 	0x300341e
     230:	3b0b3a0e 	xori	t3,t8,0x3a0e
     234:	3f13490b 	0x3f13490b
     238:	000c3c0c 	syscall	0x30f0
     23c:	11010000 	beq	t0,at,240 <_init-0x687ffdc0>
     240:	12061001 	beq	s0,a2,4248 <_init-0x687fbdb8>
     244:	25011101 	addiu	at,t0,4353
     248:	030b130e 	0x30b130e
     24c:	000e1b0e 	0xe1b0e
     250:	00240200 	0x240200
     254:	0b0b0e03 	j	c2c380c <_init-0x5c53c7f4>
     258:	00000b3e 	0xb3e
     25c:	0b000f03 	j	c003c0c <_init-0x5c7fc3f4>
     260:	0400000b 	bltz	zero,290 <_init-0x687ffd70>
     264:	0b0b000f 	j	c2c003c <_init-0x5c53ffc4>
     268:	00001349 	0x1349
     26c:	01010405 	0x1010405
     270:	3a0b0b13 	xori	t3,s0,0xb13
     274:	000b3b0b 	0xb3b0b
     278:	00280600 	0x280600
     27c:	0d1c0e03 	jal	470380c <_init-0x640fc7f4>
     280:	16070000 	bne	s0,a3,284 <_init-0x687ffd7c>
     284:	3a0e0300 	xori	t6,s0,0x300
     288:	490b3b0b 	bc2tl	$cc2,eeb8 <_init-0x687f1148>
     28c:	08000013 	j	4c <_init-0x687fffb4>
     290:	08030024 	j	c0090 <_init-0x6873ff70>
     294:	0b3e0b0b 	j	cf82c2c <_init-0x5b87d3d4>
     298:	26090000 	addiu	t1,s0,0
     29c:	00134900 	sll	t1,s3,0x4
     2a0:	01010a00 	0x1010a00
     2a4:	13491301 	beq	k0,t1,4eac <_init-0x687fb154>
     2a8:	210b0000 	addi	t3,t0,0
     2ac:	2f134900 	sltiu	s3,t8,18688
     2b0:	0c00000b 	jal	2c <_init-0x687fffd4>
     2b4:	13010113 	beq	t8,at,704 <_init-0x687ff8fc>
     2b8:	0b3a0b0b 	j	ce82c2c <_init-0x5b97d3d4>
     2bc:	00000b3b 	0xb3b
     2c0:	03000d0d 	break	0x300,0x34
     2c4:	3b0b3a0e 	xori	t3,t8,0x3a0e
     2c8:	3813490b 	xori	s3,zero,0x490b
     2cc:	0e00000a 	jal	8000028 <_init-0x607fffd8>
     2d0:	0803000d 	j	c0034 <_init-0x6873ffcc>
     2d4:	0b3b0b3a 	j	cec2ce8 <_init-0x5b93d318>
     2d8:	0a381349 	j	8e04d24 <_init-0x5f9fb2dc>
     2dc:	130f0000 	beq	t8,t7,2e0 <_init-0x687ffd20>
     2e0:	03130101 	0x3130101
     2e4:	3a0b0b0e 	xori	t3,s0,0xb0e
     2e8:	000b3b0b 	0xb3b0b
     2ec:	01131000 	0x1131000
     2f0:	0b0b1301 	j	c2c4c04 <_init-0x5c53b3fc>
     2f4:	053b0b3a 	0x53b0b3a
     2f8:	0d110000 	jal	4440000 <_init-0x643c0000>
     2fc:	3a0e0300 	xori	t6,s0,0x300
     300:	49053b0b 	bc2t	$cc1,ef30 <_init-0x687f10d0>
     304:	000a3813 	0xa3813
     308:	00161200 	sll	v0,s6,0x8
     30c:	0b3a0e03 	j	ce8380c <_init-0x5b97c7f4>
     310:	1349053b 	beq	k0,t1,1800 <_init-0x687fe800>
     314:	13130000 	beq	t8,s3,318 <_init-0x687ffce8>
     318:	3c0e0300 	lui	t6,0x300
     31c:	1400000c 	bnez	zero,350 <_init-0x687ffcb0>
     320:	13010115 	beq	t8,at,778 <_init-0x687ff888>
     324:	00000c27 	0xc27
     328:	49000515 	bc2f	1780 <_init-0x687fe880>
     32c:	16000013 	bnez	s0,37c <_init-0x687ffc84>
     330:	13010115 	beq	t8,at,788 <_init-0x687ff878>
     334:	13490c27 	beq	k0,t1,33d4 <_init-0x687fcc2c>
     338:	2e170000 	sltiu	s7,s0,0
     33c:	03130101 	0x3130101
     340:	3b0b3a0e 	xori	t3,t8,0x3a0e
     344:	490c270b 	bc2f	$cc3,9f74 <_init-0x687f608c>
     348:	12011113 	beq	s0,at,4798 <_init-0x687fb868>
     34c:	000a4001 	0xa4001
     350:	001d1800 	sll	v1,sp,0x0
     354:	01111331 	tgeu	t0,s1,0x4c
     358:	00000112 	0x112
     35c:	03002e19 	0x3002e19
     360:	3b0b3a0e 	xori	t3,t8,0x3a0e
     364:	490c270b 	bc2f	$cc3,9f94 <_init-0x687f606c>
     368:	000b2013 	0xb2013
     36c:	00051a00 	sll	v1,a1,0x8
     370:	0b3a0e03 	j	ce8380c <_init-0x5b97c7f4>
     374:	13490b3b 	beq	k0,t1,3064 <_init-0x687fcf9c>
     378:	00000a02 	srl	at,zero,0x8
     37c:	01012e1b 	0x1012e1b
     380:	3a0e0313 	xori	t6,s0,0x313
     384:	27053b0b 	addiu	a1,t8,15115
     388:	1201110c 	beq	s0,at,47bc <_init-0x687fb844>
     38c:	000a4001 	0xa4001
     390:	00051c00 	sll	v1,a1,0x10
     394:	0b3a0e03 	j	ce8380c <_init-0x5b97c7f4>
     398:	1349053b 	beq	k0,t1,1888 <_init-0x687fe778>
     39c:	00000a02 	srl	at,zero,0x8
     3a0:	01012e1d 	0x1012e1d
     3a4:	030c3f13 	0x30c3f13
     3a8:	3b0b3a0e 	xori	t3,t8,0x3a0e
     3ac:	490c270b 	bc2f	$cc3,9fdc <_init-0x687f6024>
     3b0:	12011113 	beq	s0,at,4800 <_init-0x687fb800>
     3b4:	000a4001 	0xa4001
     3b8:	00341e00 	0x341e00
     3bc:	0b3a0e03 	j	ce8380c <_init-0x5b97c7f4>
     3c0:	13490b3b 	beq	k0,t1,30b0 <_init-0x687fcf50>
     3c4:	341f0000 	li	ra,0x0
     3c8:	3a0e0300 	xori	t6,s0,0x300
     3cc:	490b3b0b 	bc2tl	$cc2,effc <_init-0x687f1004>
     3d0:	000a0213 	0xa0213
     3d4:	011d2000 	0x11d2000
     3d8:	01111331 	tgeu	t0,s1,0x4c
     3dc:	00000112 	0x112
     3e0:	31003421 	andi	zero,t0,0x3421
     3e4:	22000013 	addi	zero,s0,19
     3e8:	13310034 	beq	t9,s1,4bc <_init-0x687ffb44>
     3ec:	00000a02 	srl	at,zero,0x8
     3f0:	55010b23 	bnel	t0,at,3080 <_init-0x687fcf80>
     3f4:	24000006 	li	zero,6
     3f8:	1301012e 	beq	t8,at,8b4 <_init-0x687ff74c>
     3fc:	0b3a0e03 	j	ce8380c <_init-0x5b97c7f4>
     400:	0c270b3b 	jal	9c2cec <_init-0x67e3d314>
     404:	0b201349 	j	c804d24 <_init-0x5bffb2dc>
     408:	34250000 	ori	a1,at,0x0
     40c:	3a080300 	xori	t0,s0,0x300
     410:	490b3b0b 	bc2tl	$cc2,f040 <_init-0x687f0fc0>
     414:	26000013 	addiu	zero,s0,19
     418:	08030034 	j	c00d0 <_init-0x6873ff30>
     41c:	0b3b0b3a 	j	cec2ce8 <_init-0x5b93d318>
     420:	0a021349 	j	8084d24 <_init-0x6077b2dc>
     424:	1d270000 	0x1d270000
     428:	31130101 	andi	s3,t0,0x101
     42c:	12011113 	beq	s0,at,487c <_init-0x687fb784>
     430:	28000001 	slti	zero,zero,1
     434:	13310005 	beq	t9,s1,44c <_init-0x687ffbb4>
     438:	05290000 	tgeiu	t1,0
     43c:	02133100 	0x2133100
     440:	2a00000a 	slti	zero,s0,10
     444:	1301012e 	beq	t8,at,900 <_init-0x687ff700>
     448:	0b3a0e03 	j	ce8380c <_init-0x5b97c7f4>
     44c:	0c27053b 	jal	9c14ec <_init-0x67e3eb14>
     450:	00000b20 	0xb20
     454:	0300052b 	0x300052b
     458:	3b0b3a08 	xori	t3,t8,0x3a08
     45c:	00134905 	0x134905
     460:	00052c00 	sll	a1,a1,0x10
     464:	0b3a0e03 	j	ce8380c <_init-0x5b97c7f4>
     468:	1349053b 	beq	k0,t1,1958 <_init-0x687fe6a8>
     46c:	342d0000 	ori	t5,at,0x0
     470:	3a0e0300 	xori	t6,s0,0x300
     474:	49053b0b 	bc2t	$cc1,f0a4 <_init-0x687f0f5c>
     478:	2e000013 	sltiu	zero,s0,19
     47c:	1301012e 	beq	t8,at,938 <_init-0x687ff6c8>
     480:	0b3a0e03 	j	ce8380c <_init-0x5b97c7f4>
     484:	0c27053b 	jal	9c14ec <_init-0x67e3eb14>
     488:	01111349 	0x1111349
     48c:	0a400112 	j	9000448 <_init-0x5f7ffbb8>
     490:	342f0000 	ori	t7,at,0x0
     494:	3a0e0300 	xori	t6,s0,0x300
     498:	49053b0b 	bc2t	$cc1,f0c8 <_init-0x687f0f38>
     49c:	000a0213 	0xa0213
     4a0:	00053000 	sll	a2,a1,0x0
     4a4:	0b3a0803 	j	ce8200c <_init-0x5b97dff4>
     4a8:	1349053b 	beq	k0,t1,1998 <_init-0x687fe668>
     4ac:	00000a02 	srl	at,zero,0x8
     4b0:	03003431 	tgeu	t8,zero,0xd0
     4b4:	3b0b3a0e 	xori	t3,t8,0x3a0e
     4b8:	3f13490b 	0x3f13490b
     4bc:	000a020c 	syscall	0x2808
     4c0:	00343200 	0x343200
     4c4:	0b3a0e03 	j	ce8380c <_init-0x5b97c7f4>
     4c8:	13490b3b 	beq	k0,t1,31b8 <_init-0x687fce48>
     4cc:	0c3c0c3f 	jal	f030fc <_init-0x678fcf04>
     4d0:	01000000 	0x1000000
     4d4:	06100111 	bltzal	s0,91c <_init-0x687ff6e4>
     4d8:	01110112 	0x1110112
     4dc:	0b130e25 	j	c4c3894 <_init-0x5c33c76c>
     4e0:	0e1b0e03 	jal	86c380c <_init-0x6013c7f4>
     4e4:	24020000 	li	v0,0
     4e8:	0b0e0300 	j	c380c00 <_init-0x5c47f400>
     4ec:	000b3e0b 	0xb3e0b
     4f0:	000f0300 	sll	zero,t7,0xc
     4f4:	00000b0b 	0xb0b
     4f8:	0b000f04 	j	c003c10 <_init-0x5c7fc3f0>
     4fc:	0013490b 	0x13490b
     500:	01040500 	0x1040500
     504:	0b0b1301 	j	c2c4c04 <_init-0x5c53b3fc>
     508:	0b3b0b3a 	j	cec2ce8 <_init-0x5b93d318>
     50c:	28060000 	slti	a2,zero,0
     510:	1c0e0300 	0x1c0e0300
     514:	0700000d 	bltz	t8,54c <_init-0x687ffab4>
     518:	0e030016 	jal	80c0058 <_init-0x6073ffa8>
     51c:	0b3b0b3a 	j	cec2ce8 <_init-0x5b93d318>
     520:	00001349 	0x1349
     524:	03002408 	0x3002408
     528:	3e0b0b08 	0x3e0b0b08
     52c:	0900000b 	j	400002c <_init-0x647fffd4>
     530:	13490026 	beq	k0,t1,5cc <_init-0x687ffa34>
     534:	010a0000 	0x10a0000
     538:	49130101 	bc2tl	$cc4,940 <_init-0x687ff6c0>
     53c:	0b000013 	j	c00004c <_init-0x5c7fffb4>
     540:	13490021 	beq	k0,t1,5c8 <_init-0x687ffa38>
     544:	00000b2f 	0xb2f
     548:	4900210c 	bc2f	897c <_init-0x687f7684>
     54c:	00052f13 	0x52f13
     550:	01130d00 	0x1130d00
     554:	0b0b1301 	j	c2c4c04 <_init-0x5c53b3fc>
     558:	0b3b0b3a 	j	cec2ce8 <_init-0x5b93d318>
     55c:	0d0e0000 	jal	4380000 <_init-0x64480000>
     560:	3a0e0300 	xori	t6,s0,0x300
     564:	490b3b0b 	bc2tl	$cc2,f194 <_init-0x687f0e6c>
     568:	000a3813 	0xa3813
     56c:	000d0f00 	sll	at,t5,0x1c
     570:	0b3a0803 	j	ce8200c <_init-0x5b97dff4>
     574:	13490b3b 	beq	k0,t1,3264 <_init-0x687fcd9c>
     578:	00000a38 	0xa38
     57c:	01011310 	0x1011310
     580:	0b0e0313 	j	c380c4c <_init-0x5c47f3b4>
     584:	3b0b3a0b 	xori	t3,t8,0x3a0b
     588:	1100000b 	beqz	t0,5b8 <_init-0x687ffa48>
     58c:	13010113 	beq	t8,at,9dc <_init-0x687ff624>
     590:	0b3a0b0b 	j	ce82c2c <_init-0x5b97d3d4>
     594:	0000053b 	0x53b
     598:	03000d12 	0x3000d12
     59c:	3b0b3a0e 	xori	t3,t8,0x3a0e
     5a0:	38134905 	xori	s3,zero,0x4905
     5a4:	1300000a 	beqz	t8,5d0 <_init-0x687ffa30>
     5a8:	0e030016 	jal	80c0058 <_init-0x6073ffa8>
     5ac:	053b0b3a 	0x53b0b3a
     5b0:	00001349 	0x1349
     5b4:	03001314 	0x3001314
     5b8:	000c3c0e 	0xc3c0e
     5bc:	01151500 	0x1151500
     5c0:	0c271301 	jal	9c4c04 <_init-0x67e3b3fc>
     5c4:	05160000 	0x5160000
     5c8:	00134900 	sll	t1,s3,0x4
     5cc:	01151700 	0x1151700
     5d0:	0c271301 	jal	9c4c04 <_init-0x67e3b3fc>
     5d4:	00001349 	0x1349
     5d8:	01012e18 	0x1012e18
     5dc:	030c3f13 	0x30c3f13
     5e0:	3b0b3a0e 	xori	t3,t8,0x3a0e
     5e4:	490c270b 	bc2f	$cc3,a214 <_init-0x687f5dec>
     5e8:	12011113 	beq	s0,at,4a38 <_init-0x687fb5c8>
     5ec:	000a4001 	0xa4001
     5f0:	00051900 	sll	v1,a1,0x4
     5f4:	0b3a0e03 	j	ce8380c <_init-0x5b97c7f4>
     5f8:	13490b3b 	beq	k0,t1,32e8 <_init-0x687fcd18>
     5fc:	00000a02 	srl	at,zero,0x8
     600:	0300341a 	0x300341a
     604:	3b0b3a0e 	xori	t3,t8,0x3a0e
     608:	0013490b 	0x13490b
     60c:	00341b00 	0x341b00
     610:	0b3a0e03 	j	ce8380c <_init-0x5b97c7f4>
     614:	13490b3b 	beq	k0,t1,3304 <_init-0x687fccfc>
     618:	00000a02 	srl	at,zero,0x8
     61c:	31011d1c 	andi	at,t0,0x1d1c
     620:	12011113 	beq	s0,at,4a70 <_init-0x687fb590>
     624:	1d000001 	bgtz	t0,62c <_init-0x687ff9d4>
     628:	13310034 	beq	t9,s1,6fc <_init-0x687ff904>
     62c:	341e0000 	li	s8,0x0
     630:	02133100 	0x2133100
     634:	1f00000a 	bgtz	t8,660 <_init-0x687ff9a0>
     638:	0655010b 	0x655010b
     63c:	2e200000 	sltiu	zero,s1,0
     640:	03130101 	0x3130101
     644:	3b0b3a0e 	xori	t3,t8,0x3a0e
     648:	490c270b 	bc2f	$cc3,a278 <_init-0x687f5d88>
     64c:	000b2013 	0xb2013
     650:	00342100 	0x342100
     654:	0b3a0803 	j	ce8200c <_init-0x5b97dff4>
     658:	13490b3b 	beq	k0,t1,3348 <_init-0x687fccb8>
     65c:	1d220000 	0x1d220000
     660:	11133100 	beq	t0,s3,ca64 <_init-0x687f359c>
     664:	00011201 	0x11201
     668:	002e2300 	0x2e2300
     66c:	0b3a0e03 	j	ce8380c <_init-0x5b97c7f4>
     670:	0c270b3b 	jal	9c2cec <_init-0x67e3d314>
     674:	0b201349 	j	c804d24 <_init-0x5bffb2dc>
     678:	2e240000 	sltiu	a0,s1,0
     67c:	03130101 	0x3130101
     680:	3b0b3a0e 	xori	t3,t8,0x3a0e
     684:	110c2705 	beq	t0,t4,a29c <_init-0x687f5d64>
     688:	40011201 	0x40011201
     68c:	2500000a 	addiu	zero,t0,10
     690:	08030005 	j	c0014 <_init-0x6873ffec>
     694:	053b0b3a 	0x53b0b3a
     698:	0a021349 	j	8084d24 <_init-0x6077b2dc>
     69c:	05260000 	0x5260000
     6a0:	3a0e0300 	xori	t6,s0,0x300
     6a4:	49053b0b 	bc2t	$cc1,f2d4 <_init-0x687f0d2c>
     6a8:	000a0213 	0xa0213
     6ac:	002e2700 	0x2e2700
     6b0:	0b3a0e03 	j	ce8380c <_init-0x5b97c7f4>
     6b4:	0c27053b 	jal	9c14ec <_init-0x67e3eb14>
     6b8:	01111349 	0x1111349
     6bc:	0a400112 	j	9000448 <_init-0x5f7ffbb8>
     6c0:	2e280000 	sltiu	t0,s1,0
     6c4:	3a0e0300 	xori	t6,s0,0x300
     6c8:	27053b0b 	addiu	a1,t8,15115
     6cc:	000b200c 	syscall	0x2c80
     6d0:	012e2900 	0x12e2900
     6d4:	0e031301 	jal	80c4c04 <_init-0x6073b3fc>
     6d8:	053b0b3a 	0x53b0b3a
     6dc:	13490c27 	beq	k0,t1,377c <_init-0x687fc884>
     6e0:	01120111 	0x1120111
     6e4:	00000a40 	sll	at,zero,0x9
     6e8:	0300342a 	0x300342a
     6ec:	3b0b3a0e 	xori	t3,t8,0x3a0e
     6f0:	02134905 	0x2134905
     6f4:	2b00000a 	slti	zero,t8,10
     6f8:	0e030034 	jal	80c00d0 <_init-0x6073ff30>
     6fc:	0c341349 	jal	d04d24 <_init-0x67afb2dc>
     700:	00000a02 	srl	at,zero,0x8
     704:	01012e2c 	0x1012e2c
     708:	3a0e0313 	xori	t6,s0,0x313
     70c:	270b3b0b 	addiu	t3,t8,15115
     710:	1113490c 	beq	t0,s3,12b44 <_init-0x687ed4bc>
     714:	40011201 	0x40011201
     718:	2d00000a 	sltiu	zero,t0,10
     71c:	13310005 	beq	t9,s1,734 <_init-0x687ff8cc>
     720:	00000a02 	srl	at,zero,0x8
     724:	01012e2e 	0x1012e2e
     728:	3a0e0313 	xori	t6,s0,0x313
     72c:	27053b0b 	addiu	a1,t8,15115
     730:	000b200c 	syscall	0x2c80
     734:	00052f00 	sll	a1,a1,0x1c
     738:	0b3a0e03 	j	ce8380c <_init-0x5b97c7f4>
     73c:	1349053b 	beq	k0,t1,1c2c <_init-0x687fe3d4>
     740:	34300000 	ori	s0,at,0x0
     744:	3a0e0300 	xori	t6,s0,0x300
     748:	49053b0b 	bc2t	$cc1,f378 <_init-0x687f0c88>
     74c:	31000013 	andi	zero,t0,0x13
     750:	0e030034 	jal	80c00d0 <_init-0x6073ff30>
     754:	0b3b0b3a 	j	cec2ce8 <_init-0x5b93d318>
     758:	0c3f1349 	jal	fc4d24 <_init-0x6783b2dc>
     75c:	00000a02 	srl	at,zero,0x8
     760:	03003432 	tlt	t8,zero,0xd0
     764:	3b0b3a0e 	xori	t3,t8,0x3a0e
     768:	3f13490b 	0x3f13490b
     76c:	000c3c0c 	syscall	0x30f0
     770:	11010000 	beq	t0,at,774 <_init-0x687ff88c>
     774:	12061001 	beq	s0,a2,477c <_init-0x687fb884>
     778:	25011101 	addiu	at,t0,4353
     77c:	030b130e 	0x30b130e
     780:	000e1b0e 	0xe1b0e
     784:	00240200 	0x240200
     788:	0b0b0e03 	j	c2c380c <_init-0x5c53c7f4>
     78c:	00000b3e 	0xb3e
     790:	0b000f03 	j	c003c0c <_init-0x5c7fc3f4>
     794:	0400000b 	bltz	zero,7c4 <_init-0x687ff83c>
     798:	0b0b000f 	j	c2c003c <_init-0x5c53ffc4>
     79c:	00001349 	0x1349
     7a0:	01010405 	0x1010405
     7a4:	3a0b0b13 	xori	t3,s0,0xb13
     7a8:	000b3b0b 	0xb3b0b
     7ac:	00280600 	0x280600
     7b0:	0d1c0e03 	jal	470380c <_init-0x640fc7f4>
     7b4:	16070000 	bne	s0,a3,7b8 <_init-0x687ff848>
     7b8:	3a0e0300 	xori	t6,s0,0x300
     7bc:	490b3b0b 	bc2tl	$cc2,f3ec <_init-0x687f0c14>
     7c0:	08000013 	j	4c <_init-0x687fffb4>
     7c4:	08030024 	j	c0090 <_init-0x6873ff70>
     7c8:	0b3e0b0b 	j	cf82c2c <_init-0x5b87d3d4>
     7cc:	26090000 	addiu	t1,s0,0
     7d0:	00134900 	sll	t1,s3,0x4
     7d4:	01010a00 	0x1010a00
     7d8:	13491301 	beq	k0,t1,53e0 <_init-0x687fac20>
     7dc:	210b0000 	addi	t3,t0,0
     7e0:	2f134900 	sltiu	s3,t8,18688
     7e4:	0c00000b 	jal	2c <_init-0x687fffd4>
     7e8:	13010113 	beq	t8,at,c38 <_init-0x687ff3c8>
     7ec:	0b3a0b0b 	j	ce82c2c <_init-0x5b97d3d4>
     7f0:	00000b3b 	0xb3b
     7f4:	03000d0d 	break	0x300,0x34
     7f8:	3b0b3a0e 	xori	t3,t8,0x3a0e
     7fc:	3813490b 	xori	s3,zero,0x490b
     800:	0e00000a 	jal	8000028 <_init-0x607fffd8>
     804:	0803000d 	j	c0034 <_init-0x6873ffcc>
     808:	0b3b0b3a 	j	cec2ce8 <_init-0x5b93d318>
     80c:	0a381349 	j	8e04d24 <_init-0x5f9fb2dc>
     810:	130f0000 	beq	t8,t7,814 <_init-0x687ff7ec>
     814:	03130101 	0x3130101
     818:	3a0b0b0e 	xori	t3,s0,0xb0e
     81c:	000b3b0b 	0xb3b0b
     820:	01131000 	0x1131000
     824:	0b0b1301 	j	c2c4c04 <_init-0x5c53b3fc>
     828:	053b0b3a 	0x53b0b3a
     82c:	0d110000 	jal	4440000 <_init-0x643c0000>
     830:	3a0e0300 	xori	t6,s0,0x300
     834:	49053b0b 	bc2t	$cc1,f464 <_init-0x687f0b9c>
     838:	000a3813 	0xa3813
     83c:	00161200 	sll	v0,s6,0x8
     840:	0b3a0e03 	j	ce8380c <_init-0x5b97c7f4>
     844:	1349053b 	beq	k0,t1,1d34 <_init-0x687fe2cc>
     848:	13130000 	beq	t8,s3,84c <_init-0x687ff7b4>
     84c:	3c0e0300 	lui	t6,0x300
     850:	1400000c 	bnez	zero,884 <_init-0x687ff77c>
     854:	13010115 	beq	t8,at,cac <_init-0x687ff354>
     858:	00000c27 	0xc27
     85c:	49000515 	bc2f	1cb4 <_init-0x687fe34c>
     860:	16000013 	bnez	s0,8b0 <_init-0x687ff750>
     864:	13010115 	beq	t8,at,cbc <_init-0x687ff344>
     868:	13490c27 	beq	k0,t1,3908 <_init-0x687fc6f8>
     86c:	2e170000 	sltiu	s7,s0,0
     870:	3f130101 	0x3f130101
     874:	3a0e030c 	xori	t6,s0,0x30c
     878:	270b3b0b 	addiu	t3,t8,15115
     87c:	1113490c 	beq	t0,s3,12cb0 <_init-0x687ed350>
     880:	40011201 	0x40011201
     884:	1800000a 	blez	zero,8b0 <_init-0x687ff750>
     888:	0e030005 	jal	80c0014 <_init-0x6073ffec>
     88c:	0b3b0b3a 	j	cec2ce8 <_init-0x5b93d318>
     890:	0a021349 	j	8084d24 <_init-0x6077b2dc>
     894:	34190000 	li	t9,0x0
     898:	3a0e0300 	xori	t6,s0,0x300
     89c:	490b3b0b 	bc2tl	$cc2,f4cc <_init-0x687f0b34>
     8a0:	1a000013 	blez	s0,8f0 <_init-0x687ff710>
     8a4:	0e030034 	jal	80c00d0 <_init-0x6073ff30>
     8a8:	0b3b0b3a 	j	cec2ce8 <_init-0x5b93d318>
     8ac:	0a021349 	j	8084d24 <_init-0x6077b2dc>
     8b0:	1d1b0000 	0x1d1b0000
     8b4:	11133101 	beq	t0,s3,ccbc <_init-0x687f3344>
     8b8:	00011201 	0x11201
     8bc:	00341c00 	0x341c00
     8c0:	00001331 	tgeu	zero,zero,0x4c
     8c4:	3100341d 	andi	zero,t0,0x341d
     8c8:	000a0213 	0xa0213
     8cc:	010b1e00 	0x10b1e00
     8d0:	00000655 	0x655
     8d4:	01012e1f 	0x1012e1f
     8d8:	3a0e0313 	xori	t6,s0,0x313
     8dc:	270b3b0b 	addiu	t3,t8,15115
     8e0:	2013490c 	addi	s3,zero,18700
     8e4:	2000000b 	addi	zero,zero,11
     8e8:	08030034 	j	c00d0 <_init-0x6873ff30>
     8ec:	0b3b0b3a 	j	cec2ce8 <_init-0x5b93d318>
     8f0:	00001349 	0x1349
     8f4:	01012e21 	0x1012e21
     8f8:	3a0e0313 	xori	t6,s0,0x313
     8fc:	270b3b0b 	addiu	t3,t8,15115
     900:	1113490c 	beq	t0,s3,12d34 <_init-0x687ed2cc>
     904:	40011201 	0x40011201
     908:	2200000a 	addi	zero,s0,10
     90c:	1331001d 	beq	t9,s1,984 <_init-0x687ff67c>
     910:	01120111 	0x1120111
     914:	2e230000 	sltiu	v1,s1,0
     918:	3a0e0300 	xori	t6,s0,0x300
     91c:	270b3b0b 	addiu	t3,t8,15115
     920:	2013490c 	addi	s3,zero,18700
     924:	2400000b 	li	zero,11
     928:	1301012e 	beq	t8,at,de4 <_init-0x687ff21c>
     92c:	0b3a0e03 	j	ce8380c <_init-0x5b97c7f4>
     930:	0c27053b 	jal	9c14ec <_init-0x67e3eb14>
     934:	0b201349 	j	c804d24 <_init-0x5bffb2dc>
     938:	34250000 	ori	a1,at,0x0
     93c:	3a0e0300 	xori	t6,s0,0x300
     940:	49053b0b 	bc2t	$cc1,f570 <_init-0x687f0a90>
     944:	26000013 	addiu	zero,s0,19
     948:	0e030034 	jal	80c00d0 <_init-0x6073ff30>
     94c:	0c341349 	jal	d04d24 <_init-0x67afb2dc>
     950:	2e270000 	sltiu	a3,s1,0
     954:	3a0e0300 	xori	t6,s0,0x300
     958:	27053b0b 	addiu	a1,t8,15115
     95c:	1113490c 	beq	t0,s3,12d90 <_init-0x687ed270>
     960:	40011201 	0x40011201
     964:	2800000a 	slti	zero,zero,10
     968:	1301012e 	beq	t8,at,e24 <_init-0x687ff1dc>
     96c:	0b3a0e03 	j	ce8380c <_init-0x5b97c7f4>
     970:	0c27053b 	jal	9c14ec <_init-0x67e3eb14>
     974:	01120111 	0x1120111
     978:	00000a40 	sll	at,zero,0x9
     97c:	03000529 	0x3000529
     980:	3b0b3a0e 	xori	t3,t8,0x3a0e
     984:	02134905 	0x2134905
     988:	2a00000a 	slti	zero,s0,10
     98c:	0e030034 	jal	80c00d0 <_init-0x6073ff30>
     990:	053b0b3a 	0x53b0b3a
     994:	0a021349 	j	8084d24 <_init-0x6077b2dc>
     998:	342b0000 	ori	t3,at,0x0
     99c:	3a0e0300 	xori	t6,s0,0x300
     9a0:	490b3b0b 	bc2tl	$cc2,f5d0 <_init-0x687f0a30>
     9a4:	020c3f13 	0x20c3f13
     9a8:	2c00000a 	sltiu	zero,zero,10
     9ac:	0e030034 	jal	80c00d0 <_init-0x6073ff30>
     9b0:	0b3b0b3a 	j	cec2ce8 <_init-0x5b93d318>
     9b4:	0c3f1349 	jal	fc4d24 <_init-0x6783b2dc>
     9b8:	00000c3c 	0xc3c
     9bc:	01110100 	0x1110100
     9c0:	01120610 	0x1120610
     9c4:	0e250111 	jal	8940444 <_init-0x5febfbbc>
     9c8:	0e030b13 	jal	80c2c4c <_init-0x6073d3b4>
     9cc:	00000e1b 	0xe1b
     9d0:	03002402 	0x3002402
     9d4:	3e0b0b0e 	0x3e0b0b0e
     9d8:	0300000b 	movn	zero,t8,zero
     9dc:	0b0b000f 	j	c2c003c <_init-0x5c53ffc4>
     9e0:	04040000 	0x4040000
     9e4:	0b130101 	j	c4c0404 <_init-0x5c33fbfc>
     9e8:	3b0b3a0b 	xori	t3,t8,0x3a0b
     9ec:	0500000b 	bltz	t0,a1c <_init-0x687ff5e4>
     9f0:	0e030028 	jal	80c00a0 <_init-0x6073ff60>
     9f4:	00000d1c 	0xd1c
     9f8:	03001606 	0x3001606
     9fc:	3b0b3a0e 	xori	t3,t8,0x3a0e
     a00:	0013490b 	0x13490b
     a04:	00240700 	0x240700
     a08:	0b0b0803 	j	c2c200c <_init-0x5c53dff4>
     a0c:	00000b3e 	0xb3e
     a10:	01011308 	0x1011308
     a14:	3a0b0b13 	xori	t3,s0,0xb13
     a18:	00053b0b 	0x53b0b
     a1c:	000d0900 	sll	at,t5,0x4
     a20:	0b3a0803 	j	ce8200c <_init-0x5b97dff4>
     a24:	1349053b 	beq	k0,t1,1f14 <_init-0x687fe0ec>
     a28:	00000a38 	0xa38
     a2c:	0300160a 	0x300160a
     a30:	3b0b3a0e 	xori	t3,t8,0x3a0e
     a34:	00134905 	0x134905
     a38:	00260b00 	0x260b00
     a3c:	00001349 	0x1349
     a40:	0b000f0c 	j	c003c30 <_init-0x5c7fc3d0>
     a44:	0013490b 	0x13490b
     a48:	01010d00 	0x1010d00
     a4c:	13491301 	beq	k0,t1,5654 <_init-0x687fa9ac>
     a50:	210e0000 	addi	t6,t0,0
     a54:	2f134900 	sltiu	s3,t8,18688
     a58:	0f000005 	jal	c000014 <_init-0x5c7fffec>
     a5c:	13010113 	beq	t8,at,eac <_init-0x687ff154>
     a60:	0b0b0e03 	j	c2c380c <_init-0x5c53c7f4>
     a64:	0b3b0b3a 	j	cec2ce8 <_init-0x5b93d318>
     a68:	0d100000 	jal	4400000 <_init-0x64400000>
     a6c:	3a0e0300 	xori	t6,s0,0x300
     a70:	490b3b0b 	bc2tl	$cc2,f6a0 <_init-0x687f0960>
     a74:	000a3813 	0xa3813
     a78:	000d1100 	sll	v0,t5,0x4
     a7c:	0b3a0803 	j	ce8200c <_init-0x5b97dff4>
     a80:	13490b3b 	beq	k0,t1,3770 <_init-0x687fc890>
     a84:	00000a38 	0xa38
     a88:	01012e12 	0x1012e12
     a8c:	3a0e0313 	xori	t6,s0,0x313
     a90:	270b3b0b 	addiu	t3,t8,15115
     a94:	1113490c 	beq	t0,s3,12ec8 <_init-0x687ed138>
     a98:	40011201 	0x40011201
     a9c:	1300000a 	beqz	t8,ac8 <_init-0x687ff538>
     aa0:	0e030005 	jal	80c0014 <_init-0x6073ffec>
     aa4:	0b3b0b3a 	j	cec2ce8 <_init-0x5b93d318>
     aa8:	0a021349 	j	8084d24 <_init-0x6077b2dc>
     aac:	2e140000 	sltiu	s4,s0,0
     ab0:	3f130101 	0x3f130101
     ab4:	3a0e030c 	xori	t6,s0,0x30c
     ab8:	270b3b0b 	addiu	t3,t8,15115
     abc:	1113490c 	beq	t0,s3,12ef0 <_init-0x687ed110>
     ac0:	40011201 	0x40011201
     ac4:	1500000a 	bnez	t0,af0 <_init-0x687ff510>
     ac8:	0e030034 	jal	80c00d0 <_init-0x6073ff30>
     acc:	0b3b0b3a 	j	cec2ce8 <_init-0x5b93d318>
     ad0:	0a021349 	j	8084d24 <_init-0x6077b2dc>
     ad4:	34160000 	li	s6,0x0
     ad8:	3a080300 	xori	t0,s0,0x300
     adc:	490b3b0b 	bc2tl	$cc2,f70c <_init-0x687f08f4>
     ae0:	17000013 	bnez	t8,b30 <_init-0x687ff4d0>
     ae4:	0e03000a 	jal	80c0028 <_init-0x6073ffd8>
     ae8:	053b0b3a 	0x53b0b3a
     aec:	00000111 	0x111
     af0:	03003418 	0x3003418
     af4:	3413490e 	li	s3,0x490e
     af8:	000a020c 	syscall	0x2808
     afc:	011d1900 	0x11d1900
     b00:	13311301 	beq	t9,s1,5708 <_init-0x687fa8f8>
     b04:	01120111 	0x1120111
     b08:	051a0000 	0x51a0000
     b0c:	00133100 	sll	a2,s3,0x4
     b10:	010b1b00 	0x10b1b00
     b14:	00000655 	0x655
     b18:	31000a1c 	andi	zero,t0,0xa1c
     b1c:	00011113 	0x11113
     b20:	00341d00 	0x341d00
     b24:	0a021331 	j	8084cc4 <_init-0x6077b33c>
     b28:	0b1e0000 	j	c780000 <_init-0x5c080000>
     b2c:	12011101 	beq	s0,at,4f34 <_init-0x687fb0cc>
     b30:	1f000001 	bgtz	t8,b38 <_init-0x687ff4c8>
     b34:	1331001d 	beq	t9,s1,bac <_init-0x687ff454>
     b38:	01120111 	0x1120111
     b3c:	1d200000 	bgtz	t1,b40 <_init-0x687ff4c0>
     b40:	11133101 	beq	t0,s3,cf48 <_init-0x687f30b8>
     b44:	00011201 	0x11201
     b48:	00212100 	0x212100
     b4c:	0b2f1349 	j	cbc4d24 <_init-0x5bc3b2dc>
     b50:	2e220000 	sltiu	v0,s1,0
     b54:	03130101 	0x3130101
     b58:	3b0b3a0e 	xori	t3,t8,0x3a0e
     b5c:	490c270b 	bc2f	$cc3,a78c <_init-0x687f5874>
     b60:	000b2013 	0xb2013
     b64:	00052300 	sll	a0,a1,0xc
     b68:	0b3a0e03 	j	ce8380c <_init-0x5b97c7f4>
     b6c:	13490b3b 	beq	k0,t1,385c <_init-0x687fc7a4>
     b70:	34240000 	ori	a0,at,0x0
     b74:	490e0300 	bc2fl	$cc3,1778 <_init-0x687fe888>
     b78:	000c3413 	0xc3413
     b7c:	000a2500 	sll	a0,t2,0x14
     b80:	0b3a0e03 	j	ce8380c <_init-0x5b97c7f4>
     b84:	00000b3b 	0xb3b
     b88:	01012e26 	0x1012e26
     b8c:	3a0e0313 	xori	t6,s0,0x313
     b90:	270b3b0b 	addiu	t3,t8,15115
     b94:	000b200c 	syscall	0x2c80
     b98:	00342700 	0x342700
     b9c:	0b3a0e03 	j	ce8380c <_init-0x5b97c7f4>
     ba0:	13490b3b 	beq	k0,t1,3890 <_init-0x687fc770>
     ba4:	2e280000 	sltiu	t0,s1,0
     ba8:	3a0e0300 	xori	t6,s0,0x300
     bac:	270b3b0b 	addiu	t3,t8,15115
     bb0:	000b200c 	syscall	0x2c80
     bb4:	00342900 	0x342900
     bb8:	0b3a0e03 	j	ce8380c <_init-0x5b97c7f4>
     bbc:	13490b3b 	beq	k0,t1,38ac <_init-0x687fc754>
     bc0:	0a020c3f 	j	80830fc <_init-0x6077cf04>
     bc4:	212a0000 	addi	t2,t1,0
     bc8:	2b000000 	slti	zero,t8,0
     bcc:	0e030034 	jal	80c00d0 <_init-0x6073ff30>
     bd0:	0b3b0b3a 	j	cec2ce8 <_init-0x5b93d318>
     bd4:	0c3f1349 	jal	fc4d24 <_init-0x6783b2dc>
     bd8:	00000c3c 	0xc3c
     bdc:	01110100 	0x1110100
     be0:	01120610 	0x1120610
     be4:	0e250111 	jal	8940444 <_init-0x5febfbbc>
     be8:	0e030b13 	jal	80c2c4c <_init-0x6073d3b4>
     bec:	00000e1b 	0xe1b
     bf0:	03001602 	0x3001602
     bf4:	3b0b3a0e 	xori	t3,t8,0x3a0e
     bf8:	0013490b 	0x13490b
     bfc:	00240300 	0x240300
     c00:	0b0b0e03 	j	c2c380c <_init-0x5c53c7f4>
     c04:	00000b3e 	0xb3e
     c08:	03002404 	0x3002404
     c0c:	3e0b0b08 	0x3e0b0b08
     c10:	0500000b 	bltz	t0,c40 <_init-0x687ff3c0>
     c14:	0b0b000f 	j	c2c003c <_init-0x5c53ffc4>
     c18:	00001349 	0x1349
     c1c:	01011306 	0x1011306
     c20:	3a0b0b13 	xori	t3,s0,0xb13
     c24:	000b3b0b 	0xb3b0b
     c28:	000d0700 	sll	zero,t5,0x1c
     c2c:	0b3a0e03 	j	ce8380c <_init-0x5b97c7f4>
     c30:	13490b3b 	beq	k0,t1,3920 <_init-0x687fc6e0>
     c34:	00000a38 	0xa38
     c38:	01010108 	0x1010108
     c3c:	00134913 	0x134913
     c40:	00210900 	0x210900
     c44:	052f1349 	0x52f1349
     c48:	210a0000 	addi	t2,t0,0
     c4c:	2f134900 	sltiu	s3,t8,18688
     c50:	0b00000b 	j	c00002c <_init-0x5c7fffd4>
     c54:	13010104 	beq	t8,at,1068 <_init-0x687fef98>
     c58:	0b3a0b0b 	j	ce82c2c <_init-0x5b97d3d4>
     c5c:	00000b3b 	0xb3b
     c60:	0300280c 	syscall	0xc00a0
     c64:	000d1c0e 	0xd1c0e
     c68:	01170d00 	0x1170d00
     c6c:	050b1301 	tltiu	t0,4865
     c70:	0b3b0b3a 	j	cec2ce8 <_init-0x5b93d318>
     c74:	0d0e0000 	jal	4380000 <_init-0x64480000>
     c78:	3a0e0300 	xori	t6,s0,0x300
     c7c:	490b3b0b 	bc2tl	$cc2,f8ac <_init-0x687f0754>
     c80:	0f000013 	jal	c00004c <_init-0x5c7fffb4>
     c84:	13010113 	beq	t8,at,10d4 <_init-0x687fef2c>
     c88:	0b3a050b 	j	ce8142c <_init-0x5b97ebd4>
     c8c:	00000b3b 	0xb3b
     c90:	03000d10 	0x3000d10
     c94:	3b0b3a08 	xori	t3,t8,0x3a08
     c98:	3813490b 	xori	s3,zero,0x490b
     c9c:	1100000a 	beqz	t0,cc8 <_init-0x687ff338>
     ca0:	0b0b000f 	j	c2c003c <_init-0x5c53ffc4>
     ca4:	13120000 	beq	t8,s2,ca8 <_init-0x687ff358>
     ca8:	0b130101 	j	c4c0404 <_init-0x5c33fbfc>
     cac:	3b0b3a0b 	xori	t3,t8,0x3a0b
     cb0:	13000005 	beqz	t8,cc8 <_init-0x687ff338>
     cb4:	0803000d 	j	c0034 <_init-0x6873ffcc>
     cb8:	053b0b3a 	0x53b0b3a
     cbc:	0a381349 	j	8e04d24 <_init-0x5f9fb2dc>
     cc0:	16140000 	bne	s0,s4,cc4 <_init-0x687ff33c>
     cc4:	3a0e0300 	xori	t6,s0,0x300
     cc8:	49053b0b 	bc2t	$cc1,f8f8 <_init-0x687f0708>
     ccc:	15000013 	bnez	t0,d1c <_init-0x687ff2e4>
     cd0:	13490026 	beq	k0,t1,d6c <_init-0x687ff294>
     cd4:	13160000 	beq	t8,s6,cd8 <_init-0x687ff328>
     cd8:	03130101 	0x3130101
     cdc:	3a0b0b0e 	xori	t3,s0,0xb0e
     ce0:	000b3b0b 	0xb3b0b
     ce4:	000d1700 	sll	v0,t5,0x1c
     ce8:	0b3a0e03 	j	ce8380c <_init-0x5b97c7f4>
     cec:	1349053b 	beq	k0,t1,21dc <_init-0x687fde24>
     cf0:	00000a38 	0xa38
     cf4:	03001318 	0x3001318
     cf8:	000c3c0e 	0xc3c0e
     cfc:	01151900 	0x1151900
     d00:	0c271301 	jal	9c4c04 <_init-0x67e3b3fc>
     d04:	051a0000 	0x51a0000
     d08:	00134900 	sll	t1,s3,0x4
     d0c:	01151b00 	0x1151b00
     d10:	0c271301 	jal	9c4c04 <_init-0x67e3b3fc>
     d14:	00001349 	0x1349
     d18:	03002e1c 	0x3002e1c
     d1c:	3b0b3a0e 	xori	t3,t8,0x3a0e
     d20:	490c270b 	bc2f	$cc3,a950 <_init-0x687f56b0>
     d24:	12011113 	beq	s0,at,5174 <_init-0x687fae8c>
     d28:	000a4001 	0xa4001
     d2c:	012e1d00 	0x12e1d00
     d30:	0c3f1301 	jal	fc4c04 <_init-0x6783b3fc>
     d34:	0b3a0e03 	j	ce8380c <_init-0x5b97c7f4>
     d38:	0c270b3b 	jal	9c2cec <_init-0x67e3d314>
     d3c:	01111349 	0x1111349
     d40:	0a400112 	j	9000448 <_init-0x5f7ffbb8>
     d44:	051e0000 	0x51e0000
     d48:	3a0e0300 	xori	t6,s0,0x300
     d4c:	490b3b0b 	bc2tl	$cc2,f97c <_init-0x687f0684>
     d50:	000a0213 	0xa0213
     d54:	012e1f00 	0x12e1f00
     d58:	0c3f1301 	jal	fc4c04 <_init-0x6783b3fc>
     d5c:	0b3a0e03 	j	ce8380c <_init-0x5b97c7f4>
     d60:	0c27053b 	jal	9c14ec <_init-0x67e3eb14>
     d64:	01111349 	0x1111349
     d68:	0a400112 	j	9000448 <_init-0x5f7ffbb8>
     d6c:	05200000 	bltz	t1,d70 <_init-0x687ff290>
     d70:	3a0e0300 	xori	t6,s0,0x300
     d74:	49053b0b 	bc2t	$cc1,f9a4 <_init-0x687f065c>
     d78:	000a0213 	0xa0213
     d7c:	00342100 	0x342100
     d80:	0b3a0803 	j	ce8200c <_init-0x5b97dff4>
     d84:	1349053b 	beq	k0,t1,2274 <_init-0x687fdd8c>
     d88:	00000a02 	srl	at,zero,0x8
     d8c:	31011d22 	andi	at,t0,0x1d22
     d90:	12011113 	beq	s0,at,51e0 <_init-0x687fae20>
     d94:	23000001 	addi	zero,t8,1
     d98:	13310005 	beq	t9,s1,db0 <_init-0x687ff250>
     d9c:	0b240000 	j	c900000 <_init-0x5bf00000>
     da0:	00065501 	0x65501
     da4:	00342500 	0x342500
     da8:	0a021331 	j	8084cc4 <_init-0x6077b33c>
     dac:	2e260000 	sltiu	a2,s1,0
     db0:	03130101 	0x3130101
     db4:	3b0b3a0e 	xori	t3,t8,0x3a0e
     db8:	490c270b 	bc2f	$cc3,a9e8 <_init-0x687f5618>
     dbc:	000b2013 	0xb2013
     dc0:	00052700 	sll	a0,a1,0x1c
     dc4:	0b3a0e03 	j	ce8380c <_init-0x5b97c7f4>
     dc8:	13490b3b 	beq	k0,t1,3ab8 <_init-0x687fc548>
     dcc:	34280000 	ori	t0,at,0x0
     dd0:	3a080300 	xori	t0,s0,0x300
     dd4:	490b3b0b 	bc2tl	$cc2,fa04 <_init-0x687f05fc>
     dd8:	29000013 	slti	zero,t0,19
     ddc:	0e030034 	jal	80c00d0 <_init-0x6073ff30>
     de0:	0b3b0b3a 	j	cec2ce8 <_init-0x5b93d318>
     de4:	00001349 	0x1349
     de8:	0300342a 	0x300342a
     dec:	3413490e 	li	s3,0x490e
     df0:	2b00000c 	slti	zero,t8,12
     df4:	1301012e 	beq	t8,at,12b0 <_init-0x687fed50>
     df8:	0e030c3f 	jal	80c30fc <_init-0x6073cf04>
     dfc:	053b0b3a 	0x53b0b3a
     e00:	01110c27 	0x1110c27
     e04:	0a400112 	j	9000448 <_init-0x5f7ffbb8>
     e08:	342c0000 	ori	t4,at,0x0
     e0c:	3a0e0300 	xori	t6,s0,0x300
     e10:	49053b0b 	bc2t	$cc1,fa40 <_init-0x687f05c0>
     e14:	000a0213 	0xa0213
     e18:	00342d00 	0x342d00
     e1c:	0b3a0e03 	j	ce8380c <_init-0x5b97c7f4>
     e20:	1349053b 	beq	k0,t1,2310 <_init-0x687fdcf0>
     e24:	342e0000 	ori	t6,at,0x0
     e28:	490e0300 	bc2fl	$cc3,1a2c <_init-0x687fe5d4>
     e2c:	020c3413 	0x20c3413
     e30:	2f00000a 	sltiu	zero,t8,10
     e34:	1301012e 	beq	t8,at,12f0 <_init-0x687fed10>
     e38:	0b3a0e03 	j	ce8380c <_init-0x5b97c7f4>
     e3c:	0c27053b 	jal	9c14ec <_init-0x67e3eb14>
     e40:	01120111 	0x1120111
     e44:	00000a40 	sll	at,zero,0x9
     e48:	03003430 	tge	t8,zero,0xd0
     e4c:	3b0b3a08 	xori	t3,t8,0x3a08
     e50:	00134905 	0x134905
     e54:	00053100 	sll	a2,a1,0x4
     e58:	0b3a0803 	j	ce8200c <_init-0x5b97dff4>
     e5c:	1349053b 	beq	k0,t1,234c <_init-0x687fdcb4>
     e60:	00000a02 	srl	at,zero,0x8
     e64:	03003432 	tlt	t8,zero,0xd0
     e68:	3b0b3a0e 	xori	t3,t8,0x3a0e
     e6c:	3f13490b 	0x3f13490b
     e70:	000a020c 	syscall	0x2808
     e74:	00343300 	0x343300
     e78:	0b3a0e03 	j	ce8380c <_init-0x5b97c7f4>
     e7c:	13490b3b 	beq	k0,t1,3b6c <_init-0x687fc494>
     e80:	0c3c0c3f 	jal	f030fc <_init-0x678fcf04>
     e84:	34340000 	ori	s4,at,0x0
     e88:	3a0e0300 	xori	t6,s0,0x300
     e8c:	490b3b0b 	bc2tl	$cc2,fabc <_init-0x687f0544>
     e90:	000a0213 	0xa0213
     e94:	11010000 	beq	t0,at,e98 <_init-0x687ff168>
     e98:	12061001 	beq	s0,a2,4ea0 <_init-0x687fb160>
     e9c:	25011101 	addiu	at,t0,4353
     ea0:	030b130e 	0x30b130e
     ea4:	000e1b0e 	0xe1b0e
     ea8:	00240200 	0x240200
     eac:	0b0b0e03 	j	c2c380c <_init-0x5c53c7f4>
     eb0:	00000b3e 	0xb3e
     eb4:	0b000f03 	j	c003c0c <_init-0x5c7fc3f4>
     eb8:	0400000b 	bltz	zero,ee8 <_init-0x687ff118>
     ebc:	0b0b000f 	j	c2c003c <_init-0x5c53ffc4>
     ec0:	00001349 	0x1349
     ec4:	01010405 	0x1010405
     ec8:	3a0b0b13 	xori	t3,s0,0xb13
     ecc:	000b3b0b 	0xb3b0b
     ed0:	00280600 	0x280600
     ed4:	0d1c0e03 	jal	470380c <_init-0x640fc7f4>
     ed8:	16070000 	bne	s0,a3,edc <_init-0x687ff124>
     edc:	3a0e0300 	xori	t6,s0,0x300
     ee0:	490b3b0b 	bc2tl	$cc2,fb10 <_init-0x687f04f0>
     ee4:	08000013 	j	4c <_init-0x687fffb4>
     ee8:	08030024 	j	c0090 <_init-0x6873ff70>
     eec:	0b3e0b0b 	j	cf82c2c <_init-0x5b87d3d4>
     ef0:	26090000 	addiu	t1,s0,0
     ef4:	00134900 	sll	t1,s3,0x4
     ef8:	01010a00 	0x1010a00
     efc:	13491301 	beq	k0,t1,5b04 <_init-0x687fa4fc>
     f00:	210b0000 	addi	t3,t0,0
     f04:	2f134900 	sltiu	s3,t8,18688
     f08:	0c00000b 	jal	2c <_init-0x687fffd4>
     f0c:	13490021 	beq	k0,t1,f94 <_init-0x687ff06c>
     f10:	0000052f 	0x52f
     f14:	0101130d 	break	0x101,0x4c
     f18:	3a0b0b13 	xori	t3,s0,0xb13
     f1c:	000b3b0b 	0xb3b0b
     f20:	000d0e00 	sll	at,t5,0x18
     f24:	0b3a0e03 	j	ce8380c <_init-0x5b97c7f4>
     f28:	13490b3b 	beq	k0,t1,3c18 <_init-0x687fc3e8>
     f2c:	00000a38 	0xa38
     f30:	0101170f 	0x101170f
     f34:	3a0b0b13 	xori	t3,s0,0xb13
     f38:	000b3b0b 	0xb3b0b
     f3c:	000d1000 	sll	v0,t5,0x0
     f40:	0b3a0803 	j	ce8200c <_init-0x5b97dff4>
     f44:	13490b3b 	beq	k0,t1,3c34 <_init-0x687fc3cc>
     f48:	0d110000 	jal	4440000 <_init-0x643c0000>
     f4c:	3a0e0300 	xori	t6,s0,0x300
     f50:	490b3b0b 	bc2tl	$cc2,fb80 <_init-0x687f0480>
     f54:	12000013 	beqz	s0,fa4 <_init-0x687ff05c>
     f58:	0803000d 	j	c0034 <_init-0x6873ffcc>
     f5c:	0b3b0b3a 	j	cec2ce8 <_init-0x5b93d318>
     f60:	0a381349 	j	8e04d24 <_init-0x5f9fb2dc>
     f64:	13130000 	beq	t8,s3,f68 <_init-0x687ff098>
     f68:	0b130101 	j	c4c0404 <_init-0x5c33fbfc>
     f6c:	3b0b3a05 	xori	t3,t8,0x3a05
     f70:	1400000b 	bnez	zero,fa0 <_init-0x687ff060>
     f74:	13010113 	beq	t8,at,13c4 <_init-0x687fec3c>
     f78:	0b0b0e03 	j	c2c380c <_init-0x5c53c7f4>
     f7c:	0b3b0b3a 	j	cec2ce8 <_init-0x5b93d318>
     f80:	13150000 	beq	t8,s5,f84 <_init-0x687ff07c>
     f84:	0b130101 	j	c4c0404 <_init-0x5c33fbfc>
     f88:	3b0b3a0b 	xori	t3,t8,0x3a0b
     f8c:	16000005 	bnez	s0,fa4 <_init-0x687ff05c>
     f90:	0e03000d 	jal	80c0034 <_init-0x6073ffcc>
     f94:	053b0b3a 	0x53b0b3a
     f98:	0a381349 	j	8e04d24 <_init-0x5f9fb2dc>
     f9c:	16170000 	bne	s0,s7,fa0 <_init-0x687ff060>
     fa0:	3a0e0300 	xori	t6,s0,0x300
     fa4:	49053b0b 	bc2t	$cc1,fbd4 <_init-0x687f042c>
     fa8:	18000013 	blez	zero,ff8 <_init-0x687ff008>
     fac:	0e030013 	jal	80c004c <_init-0x6073ffb4>
     fb0:	00000c3c 	0xc3c
     fb4:	01011519 	0x1011519
     fb8:	000c2713 	0xc2713
     fbc:	00051a00 	sll	v1,a1,0x8
     fc0:	00001349 	0x1349
     fc4:	0101151b 	0x101151b
     fc8:	490c2713 	bc2f	$cc3,ac18 <_init-0x687f53e8>
     fcc:	1c000013 	bgtz	zero,101c <_init-0x687fefe4>
     fd0:	1301012e 	beq	t8,at,148c <_init-0x687feb74>
     fd4:	0b3a0e03 	j	ce8380c <_init-0x5b97c7f4>
     fd8:	0c270b3b 	jal	9c2cec <_init-0x67e3d314>
     fdc:	01111349 	0x1111349
     fe0:	0a400112 	j	9000448 <_init-0x5f7ffbb8>
     fe4:	051d0000 	0x51d0000
     fe8:	3a0e0300 	xori	t6,s0,0x300
     fec:	490b3b0b 	bc2tl	$cc2,fc1c <_init-0x687f03e4>
     ff0:	000a0213 	0xa0213
     ff4:	012e1e00 	0x12e1e00
     ff8:	0e031301 	jal	80c4c04 <_init-0x6073b3fc>
     ffc:	0b3b0b3a 	j	cec2ce8 <_init-0x5b93d318>
    1000:	01110c27 	0x1110c27
    1004:	0a400112 	j	9000448 <_init-0x5f7ffbb8>
    1008:	2e1f0000 	sltiu	ra,s0,0
    100c:	3f130101 	0x3f130101
    1010:	3a0e030c 	xori	t6,s0,0x30c
    1014:	270b3b0b 	addiu	t3,t8,15115
    1018:	1113490c 	beq	t0,s3,1344c <_init-0x687ecbb4>
    101c:	40011201 	0x40011201
    1020:	2000000a 	addi	zero,zero,10
    1024:	0e030034 	jal	80c00d0 <_init-0x6073ff30>
    1028:	0b3b0b3a 	j	cec2ce8 <_init-0x5b93d318>
    102c:	0a021349 	j	8084d24 <_init-0x6077b2dc>
    1030:	2e210000 	sltiu	at,s1,0
    1034:	3a0e0300 	xori	t6,s0,0x300
    1038:	270b3b0b 	addiu	t3,t8,15115
    103c:	1113490c 	beq	t0,s3,13470 <_init-0x687ecb90>
    1040:	40011201 	0x40011201
    1044:	2200000a 	addi	zero,s0,10
    1048:	0c3f002e 	jal	fc00b8 <_init-0x6783ff48>
    104c:	0b3a0e03 	j	ce8380c <_init-0x5b97c7f4>
    1050:	0c270b3b 	jal	9c2cec <_init-0x67e3d314>
    1054:	01111349 	0x1111349
    1058:	0a400112 	j	9000448 <_init-0x5f7ffbb8>
    105c:	2e230000 	sltiu	v1,s1,0
    1060:	3f130101 	0x3f130101
    1064:	3a0e030c 	xori	t6,s0,0x30c
    1068:	27053b0b 	addiu	a1,t8,15115
    106c:	1113490c 	beq	t0,s3,134a0 <_init-0x687ecb60>
    1070:	40011201 	0x40011201
    1074:	2400000a 	li	zero,10
    1078:	0e030034 	jal	80c00d0 <_init-0x6073ff30>
    107c:	053b0b3a 	0x53b0b3a
    1080:	0a021349 	j	8084d24 <_init-0x6077b2dc>
    1084:	2e250000 	sltiu	a1,s1,0
    1088:	03130101 	0x3130101
    108c:	3b0b3a0e 	xori	t3,t8,0x3a0e
    1090:	110c2705 	beq	t0,t4,aca8 <_init-0x687f5358>
    1094:	40011201 	0x40011201
    1098:	2600000a 	addiu	zero,s0,10
    109c:	0e030005 	jal	80c0014 <_init-0x6073ffec>
    10a0:	053b0b3a 	0x53b0b3a
    10a4:	0a021349 	j	8084d24 <_init-0x6077b2dc>
    10a8:	34270000 	ori	a3,at,0x0
    10ac:	3a080300 	xori	t0,s0,0x300
    10b0:	49053b0b 	bc2t	$cc1,fce0 <_init-0x687f0320>
    10b4:	000a0213 	0xa0213
    10b8:	000a2800 	sll	a1,t2,0x0
    10bc:	0b3a0e03 	j	ce8380c <_init-0x5b97c7f4>
    10c0:	0111053b 	0x111053b
    10c4:	1d290000 	0x1d290000
    10c8:	31130101 	andi	s3,t0,0x101
    10cc:	12011113 	beq	s0,at,551c <_init-0x687faae4>
    10d0:	2a000001 	slti	zero,s0,1
    10d4:	13310005 	beq	t9,s1,10ec <_init-0x687fef14>
    10d8:	0b2b0000 	j	cac0000 <_init-0x5bd40000>
    10dc:	00065501 	0x65501
    10e0:	00342c00 	0x342c00
    10e4:	00001331 	tgeu	zero,zero,0x4c
    10e8:	31011d2d 	andi	at,t0,0x1d2d
    10ec:	12011113 	beq	s0,at,553c <_init-0x687faac4>
    10f0:	2e000001 	sltiu	zero,s0,1
    10f4:	13310005 	beq	t9,s1,110c <_init-0x687feef4>
    10f8:	00000a02 	srl	at,zero,0x8
    10fc:	11010b2f 	beq	t0,at,3dbc <_init-0x687fc244>
    1100:	00011201 	0x11201
    1104:	010b3000 	0x10b3000
    1108:	01111301 	0x1111301
    110c:	00000112 	0x112
    1110:	01012e31 	tgeu	t0,at,0xb8
    1114:	3a0e0313 	xori	t6,s0,0x313
    1118:	27053b0b 	addiu	a1,t8,15115
    111c:	2013490c 	addi	s3,zero,18700
    1120:	3200000b 	andi	zero,s0,0xb
    1124:	0e030005 	jal	80c0014 <_init-0x6073ffec>
    1128:	053b0b3a 	0x53b0b3a
    112c:	00001349 	0x1349
    1130:	03003433 	tltu	t8,zero,0xd0
    1134:	3b0b3a0e 	xori	t3,t8,0x3a0e
    1138:	00134905 	0x134905
    113c:	012e3400 	0x12e3400
    1140:	0e031301 	jal	80c4c04 <_init-0x6073b3fc>
    1144:	053b0b3a 	0x53b0b3a
    1148:	13490c27 	beq	k0,t1,41e8 <_init-0x687fbe18>
    114c:	01120111 	0x1120111
    1150:	00000a40 	sll	at,zero,0x9
    1154:	03002e35 	0x3002e35
    1158:	3b0b3a0e 	xori	t3,t8,0x3a0e
    115c:	490c2705 	bc2f	$cc3,ad74 <_init-0x687f528c>
    1160:	12011113 	beq	s0,at,55b0 <_init-0x687faa50>
    1164:	000a4001 	0xa4001
    1168:	002e3600 	0x2e3600
    116c:	0e030c3f 	jal	80c30fc <_init-0x6073cf04>
    1170:	053b0b3a 	0x53b0b3a
    1174:	01110c27 	0x1110c27
    1178:	0a400112 	j	9000448 <_init-0x5f7ffbb8>
    117c:	05370000 	0x5370000
    1180:	3a080300 	xori	t0,s0,0x300
    1184:	49053b0b 	bc2t	$cc1,fdb4 <_init-0x687f024c>
    1188:	000a0213 	0xa0213
    118c:	00343800 	0x343800
    1190:	0a021331 	j	8084cc4 <_init-0x6077b33c>
    1194:	2e390000 	sltiu	t9,s1,0
    1198:	3f130101 	0x3f130101
    119c:	3a0e030c 	xori	t6,s0,0x30c
    11a0:	27053b0b 	addiu	a1,t8,15115
    11a4:	1201110c 	beq	s0,at,55d8 <_init-0x687faa28>
    11a8:	000a4001 	0xa4001
    11ac:	00343a00 	0x343a00
    11b0:	0b3a0803 	j	ce8200c <_init-0x5b97dff4>
    11b4:	1349053b 	beq	k0,t1,26a4 <_init-0x687fd95c>
    11b8:	1d3b0000 	0x1d3b0000
    11bc:	11133100 	beq	t0,s3,d5c0 <_init-0x687f2a40>
    11c0:	00011201 	0x11201
    11c4:	012e3c00 	0x12e3c00
    11c8:	0e031301 	jal	80c4c04 <_init-0x6073b3fc>
    11cc:	0b3b0b3a 	j	cec2ce8 <_init-0x5b93d318>
    11d0:	13490c27 	beq	k0,t1,4270 <_init-0x687fbd90>
    11d4:	00000b20 	0xb20
    11d8:	0300343d 	0x300343d
    11dc:	3b0b3a0e 	xori	t3,t8,0x3a0e
    11e0:	0013490b 	0x13490b
    11e4:	002e3e00 	0x2e3e00
    11e8:	0b3a0e03 	j	ce8380c <_init-0x5b97c7f4>
    11ec:	0c27053b 	jal	9c14ec <_init-0x67e3eb14>
    11f0:	0b201349 	j	c804d24 <_init-0x5bffb2dc>
    11f4:	2e3f0000 	sltiu	ra,s1,0
    11f8:	3a0e0300 	xori	t6,s0,0x300
    11fc:	270b3b0b 	addiu	t3,t8,15115
    1200:	2013490c 	addi	s3,zero,18700
    1204:	4000000b 	0x4000000b
    1208:	0e030034 	jal	80c00d0 <_init-0x6073ff30>
    120c:	0b3b0b3a 	j	cec2ce8 <_init-0x5b93d318>
    1210:	0c3f1349 	jal	fc4d24 <_init-0x6783b2dc>
    1214:	00000a02 	srl	at,zero,0x8
    1218:	03003441 	0x3003441
    121c:	3b0b3a0e 	xori	t3,t8,0x3a0e
    1220:	3f13490b 	0x3f13490b
    1224:	000c3c0c 	syscall	0x30f0
    1228:	11010000 	beq	t0,at,122c <_init-0x687fedd4>
    122c:	12061001 	beq	s0,a2,5234 <_init-0x687fadcc>
    1230:	25011101 	addiu	at,t0,4353
    1234:	030b130e 	0x30b130e
    1238:	000e1b0e 	0xe1b0e
    123c:	00240200 	0x240200
    1240:	0b0b0e03 	j	c2c380c <_init-0x5c53c7f4>
    1244:	00000b3e 	0xb3e
    1248:	03002403 	0x3002403
    124c:	3e0b0b08 	0x3e0b0b08
    1250:	0400000b 	bltz	zero,1280 <_init-0x687fed80>
    1254:	0b0b000f 	j	c2c003c <_init-0x5c53ffc4>
    1258:	00001349 	0x1349
    125c:	03001605 	0x3001605
    1260:	3b0b3a0e 	xori	t3,t8,0x3a0e
    1264:	0013490b 	0x13490b
    1268:	01130600 	0x1130600
    126c:	0e031301 	jal	80c4c04 <_init-0x6073b3fc>
    1270:	0b3a0b0b 	j	ce82c2c <_init-0x5b97d3d4>
    1274:	00000b3b 	0xb3b
    1278:	03000d07 	0x3000d07
    127c:	3b0b3a0e 	xori	t3,t8,0x3a0e
    1280:	3813490b 	xori	s3,zero,0x490b
    1284:	0800000a 	j	28 <_init-0x687fffd8>
    1288:	0b0b000f 	j	c2c003c <_init-0x5c53ffc4>
    128c:	26090000 	addiu	t1,s0,0
    1290:	00134900 	sll	t1,s3,0x4
    1294:	01040a00 	0x1040a00
    1298:	0b0b1301 	j	c2c4c04 <_init-0x5c53b3fc>
    129c:	0b3b0b3a 	j	cec2ce8 <_init-0x5b93d318>
    12a0:	280b0000 	slti	t3,zero,0
    12a4:	1c0e0300 	0x1c0e0300
    12a8:	0c00000d 	jal	34 <_init-0x687fffcc>
    12ac:	13010113 	beq	t8,at,16fc <_init-0x687fe904>
    12b0:	050b0e03 	tltiu	t0,3587
    12b4:	0b3b0b3a 	j	cec2ce8 <_init-0x5b93d318>
    12b8:	010d0000 	0x10d0000
    12bc:	49130101 	bc2tl	$cc4,16c4 <_init-0x687fe93c>
    12c0:	0e000013 	jal	800004c <_init-0x607fffb4>
    12c4:	13490021 	beq	k0,t1,134c <_init-0x687fecb4>
    12c8:	0000052f 	0x52f
    12cc:	01012e0f 	0x1012e0f
    12d0:	030c3f13 	0x30c3f13
    12d4:	3b0b3a0e 	xori	t3,t8,0x3a0e
    12d8:	490c270b 	bc2f	$cc3,af08 <_init-0x687f50f8>
    12dc:	12011113 	beq	s0,at,572c <_init-0x687fa8d4>
    12e0:	000a4001 	0xa4001
    12e4:	00051000 	sll	v0,a1,0x0
    12e8:	0b3a0e03 	j	ce8380c <_init-0x5b97c7f4>
    12ec:	13490b3b 	beq	k0,t1,3fdc <_init-0x687fc024>
    12f0:	00000a02 	srl	at,zero,0x8
    12f4:	03000511 	0x3000511
    12f8:	3b0b3a08 	xori	t3,t8,0x3a08
    12fc:	0213490b 	0x213490b
    1300:	1200000a 	beqz	s0,132c <_init-0x687fecd4>
    1304:	0e030034 	jal	80c00d0 <_init-0x6073ff30>
    1308:	0b3b0b3a 	j	cec2ce8 <_init-0x5b93d318>
    130c:	0a021349 	j	8084d24 <_init-0x6077b2dc>
    1310:	34130000 	li	s3,0x0
    1314:	3a0e0300 	xori	t6,s0,0x300
    1318:	490b3b0b 	bc2tl	$cc2,ff48 <_init-0x687f00b8>
    131c:	14000013 	bnez	zero,136c <_init-0x687fec94>
    1320:	08030034 	j	c00d0 <_init-0x6873ff30>
    1324:	0b3b0b3a 	j	cec2ce8 <_init-0x5b93d318>
    1328:	00001349 	0x1349
    132c:	03003415 	0x3003415
    1330:	3b0b3a08 	xori	t3,t8,0x3a08
    1334:	0213490b 	0x213490b
    1338:	1600000a 	bnez	s0,1364 <_init-0x687fec9c>
    133c:	1331011d 	beq	t9,s1,17b4 <_init-0x687fe84c>
    1340:	01120111 	0x1120111
    1344:	05170000 	0x5170000
    1348:	00133100 	sll	a2,s3,0x4
    134c:	010b1800 	0x10b1800
    1350:	00000655 	0x655
    1354:	31003419 	andi	zero,t0,0x3419
    1358:	1a000013 	blez	s0,13a8 <_init-0x687fec58>
    135c:	13310034 	beq	t9,s1,1430 <_init-0x687febd0>
    1360:	00000a02 	srl	at,zero,0x8
    1364:	01012e1b 	0x1012e1b
    1368:	3a0e0313 	xori	t6,s0,0x313
    136c:	270b3b0b 	addiu	t3,t8,15115
    1370:	2013490c 	addi	s3,zero,18700
    1374:	1c00000b 	bgtz	zero,13a4 <_init-0x687fec5c>
    1378:	0e030005 	jal	80c0014 <_init-0x6073ffec>
    137c:	0b3b0b3a 	j	cec2ce8 <_init-0x5b93d318>
    1380:	00001349 	0x1349
    1384:	0300341d 	0x300341d
    1388:	3b0b3a0e 	xori	t3,t8,0x3a0e
    138c:	3f13490b 	0x3f13490b
    1390:	000a020c 	syscall	0x2808
    1394:	11010000 	beq	t0,at,1398 <_init-0x687fec68>
    1398:	12061001 	beq	s0,a2,53a0 <_init-0x687fac60>
    139c:	25011101 	addiu	at,t0,4353
    13a0:	030b130e 	0x30b130e
    13a4:	000e1b0e 	0xe1b0e
    13a8:	00240200 	0x240200
    13ac:	0b0b0e03 	j	c2c380c <_init-0x5c53c7f4>
    13b0:	00000b3e 	0xb3e
    13b4:	0b000f03 	j	c003c0c <_init-0x5c7fc3f4>
    13b8:	0400000b 	bltz	zero,13e8 <_init-0x687fec18>
    13bc:	08030024 	j	c0090 <_init-0x6873ff70>
    13c0:	0b3e0b0b 	j	cf82c2c <_init-0x5b87d3d4>
    13c4:	04050000 	0x4050000
    13c8:	0b130101 	j	c4c0404 <_init-0x5c33fbfc>
    13cc:	3b0b3a0b 	xori	t3,t8,0x3a0b
    13d0:	0600000b 	bltz	s0,1400 <_init-0x687fec00>
    13d4:	0e030028 	jal	80c00a0 <_init-0x6073ff60>
    13d8:	00000d1c 	0xd1c
    13dc:	01012e07 	0x1012e07
    13e0:	030c3f13 	0x30c3f13
    13e4:	3b0b3a0e 	xori	t3,t8,0x3a0e
    13e8:	490c270b 	bc2f	$cc3,b018 <_init-0x687f4fe8>
    13ec:	12011113 	beq	s0,at,583c <_init-0x687fa7c4>
    13f0:	000a4001 	0xa4001
    13f4:	00050800 	sll	at,a1,0x0
    13f8:	0b3a0e03 	j	ce8380c <_init-0x5b97c7f4>
    13fc:	13490b3b 	beq	k0,t1,40ec <_init-0x687fbf14>
    1400:	00000a02 	srl	at,zero,0x8
    1404:	03003409 	jalr.hb	a2,t8
    1408:	3b0b3a0e 	xori	t3,t8,0x3a0e
    140c:	3f13490b 	0x3f13490b
    1410:	000a020c 	syscall	0x2808
    1414:	11010000 	beq	t0,at,1418 <_init-0x687febe8>
    1418:	12061001 	beq	s0,a2,5420 <_init-0x687fabe0>
    141c:	25011101 	addiu	at,t0,4353
    1420:	030b130e 	0x30b130e
    1424:	000e1b0e 	0xe1b0e
    1428:	00240200 	0x240200
    142c:	0b0b0e03 	j	c2c380c <_init-0x5c53c7f4>
    1430:	00000b3e 	0xb3e
    1434:	0b000f03 	j	c003c0c <_init-0x5c7fc3f4>
    1438:	0400000b 	bltz	zero,1468 <_init-0x687feb98>
    143c:	08030024 	j	c0090 <_init-0x6873ff70>
    1440:	0b3e0b0b 	j	cf82c2c <_init-0x5b87d3d4>
    1444:	16050000 	bne	s0,a1,1448 <_init-0x687febb8>
    1448:	3a0e0300 	xori	t6,s0,0x300
    144c:	490b3b0b 	bc2tl	$cc2,1007c <_init-0x687eff84>
    1450:	06000013 	bltz	s0,14a0 <_init-0x687feb60>
    1454:	0b0b000f 	j	c2c003c <_init-0x5c53ffc4>
    1458:	00001349 	0x1349
    145c:	27001507 	addiu	zero,t8,5383
    1460:	0800000c 	j	30 <_init-0x687fffd0>
    1464:	13490026 	beq	k0,t1,1500 <_init-0x687feb00>
    1468:	01090000 	0x1090000
    146c:	49130101 	bc2tl	$cc4,1874 <_init-0x687fe78c>
    1470:	0a000013 	j	800004c <_init-0x607fffb4>
    1474:	13490021 	beq	k0,t1,14fc <_init-0x687feb04>
    1478:	00000b2f 	0xb2f
    147c:	0101130b 	0x101130b
    1480:	0b0e0313 	j	c380c4c <_init-0x5c47f3b4>
    1484:	3b0b3a0b 	xori	t3,t8,0x3a0b
    1488:	0c00000b 	jal	2c <_init-0x687fffd4>
    148c:	0e03000d 	jal	80c0034 <_init-0x6073ffcc>
    1490:	0b3b0b3a 	j	cec2ce8 <_init-0x5b93d318>
    1494:	0a381349 	j	8e04d24 <_init-0x5f9fb2dc>
    1498:	040d0000 	0x40d0000
    149c:	0b130101 	j	c4c0404 <_init-0x5c33fbfc>
    14a0:	3b0b3a0b 	xori	t3,t8,0x3a0b
    14a4:	0e00000b 	jal	800002c <_init-0x607fffd4>
    14a8:	0e030028 	jal	80c00a0 <_init-0x6073ff60>
    14ac:	00000d1c 	0xd1c
    14b0:	0101130f 	0x101130f
    14b4:	3a0b0b13 	xori	t3,s0,0xb13
    14b8:	000b3b0b 	0xb3b0b
    14bc:	01131000 	0x1131000
    14c0:	0b0b1301 	j	c2c4c04 <_init-0x5c53b3fc>
    14c4:	053b0b3a 	0x53b0b3a
    14c8:	0d110000 	jal	4440000 <_init-0x643c0000>
    14cc:	3a080300 	xori	t0,s0,0x300
    14d0:	49053b0b 	bc2t	$cc1,10100 <_init-0x687eff00>
    14d4:	000a3813 	0xa3813
    14d8:	01171200 	0x1171200
    14dc:	0b0b1301 	j	c2c4c04 <_init-0x5c53b3fc>
    14e0:	053b0b3a 	0x53b0b3a
    14e4:	0d130000 	jal	44c0000 <_init-0x64340000>
    14e8:	3a0e0300 	xori	t6,s0,0x300
    14ec:	49053b0b 	bc2t	$cc1,1011c <_init-0x687efee4>
    14f0:	14000013 	bnez	zero,1540 <_init-0x687feac0>
    14f4:	0e030016 	jal	80c0058 <_init-0x6073ffa8>
    14f8:	053b0b3a 	0x53b0b3a
    14fc:	00001349 	0x1349
    1500:	01011315 	0x1011315
    1504:	0b0e0313 	j	c380c4c <_init-0x5c47f3b4>
    1508:	3b0b3a0b 	xori	t3,t8,0x3a0b
    150c:	16000005 	bnez	s0,1524 <_init-0x687feadc>
    1510:	13010115 	beq	t8,at,1968 <_init-0x687fe698>
    1514:	00000c27 	0xc27
    1518:	49000517 	bc2f	2978 <_init-0x687fd688>
    151c:	18000013 	blez	zero,156c <_init-0x687fea94>
    1520:	0803000d 	j	c0034 <_init-0x6873ffcc>
    1524:	0b3b0b3a 	j	cec2ce8 <_init-0x5b93d318>
    1528:	0a381349 	j	8e04d24 <_init-0x5f9fb2dc>
    152c:	15190000 	bne	t0,t9,1530 <_init-0x687fead0>
    1530:	27130101 	addiu	s3,t8,257
    1534:	0013490c 	syscall	0x4d24
    1538:	012e1a00 	0x12e1a00
    153c:	0c3f1301 	jal	fc4c04 <_init-0x6783b3fc>
    1540:	0b3a0e03 	j	ce8380c <_init-0x5b97c7f4>
    1544:	0c270b3b 	jal	9c2cec <_init-0x67e3d314>
    1548:	01120111 	0x1120111
    154c:	00000a40 	sll	at,zero,0x9
    1550:	0300051b 	0x300051b
    1554:	3b0b3a0e 	xori	t3,t8,0x3a0e
    1558:	0213490b 	0x213490b
    155c:	1c00000a 	bgtz	zero,1588 <_init-0x687fea78>
    1560:	0e030034 	jal	80c00d0 <_init-0x6073ff30>
    1564:	0b3b0b3a 	j	cec2ce8 <_init-0x5b93d318>
    1568:	0a021349 	j	8084d24 <_init-0x6077b2dc>
    156c:	341d0000 	li	sp,0x0
    1570:	3a080300 	xori	t0,s0,0x300
    1574:	490b3b0b 	bc2tl	$cc2,101a4 <_init-0x687efe5c>
    1578:	000a0213 	0xa0213
    157c:	012e1e00 	0x12e1e00
    1580:	0c3f1301 	jal	fc4c04 <_init-0x6783b3fc>
    1584:	0b3a0e03 	j	ce8380c <_init-0x5b97c7f4>
    1588:	0c270b3b 	jal	9c2cec <_init-0x67e3d314>
    158c:	01111349 	0x1111349
    1590:	0a400112 	j	9000448 <_init-0x5f7ffbb8>
    1594:	341f0000 	li	ra,0x0
    1598:	3a080300 	xori	t0,s0,0x300
    159c:	490b3b0b 	bc2tl	$cc2,101cc <_init-0x687efe34>
    15a0:	20000013 	addi	zero,zero,19
    15a4:	0e030034 	jal	80c00d0 <_init-0x6073ff30>
    15a8:	0c341349 	jal	d04d24 <_init-0x67afb2dc>
    15ac:	00000a02 	srl	at,zero,0x8
    15b0:	11010b21 	beq	t0,at,4238 <_init-0x687fbdc8>
    15b4:	00011201 	0x11201
    15b8:	00342200 	0x342200
    15bc:	0b3a0e03 	j	ce8380c <_init-0x5b97c7f4>
    15c0:	13490b3b 	beq	k0,t1,42b0 <_init-0x687fbd50>
    15c4:	0b230000 	j	c8c0000 <_init-0x5bf40000>
    15c8:	55130101 	bnel	t0,s3,19d0 <_init-0x687fe630>
    15cc:	24000006 	li	zero,6
    15d0:	1301010b 	beq	t8,at,1a00 <_init-0x687fe600>
    15d4:	01120111 	0x1120111
    15d8:	34250000 	ori	a1,at,0x0
    15dc:	3a0e0300 	xori	t6,s0,0x300
    15e0:	490b3b0b 	bc2tl	$cc2,10210 <_init-0x687efdf0>
    15e4:	020c3f13 	0x20c3f13
    15e8:	0000000a 	movz	zero,zero,zero
Disassembly of section .debug_info:

00000000 <.debug_info>:
       0:	00000150 	0x150
       4:	00000002 	srl	zero,zero,0x0
       8:	01040000 	0x1040000
       c:	00000000 	nop
      10:	68800064 	0x68800064
      14:	68800020 	0x68800020
      18:	00000089 	0x89
      1c:	00000e01 	0xe01
      20:	0000dc00 	sll	k1,zero,0x10
      24:	00000200 	sll	zero,zero,0x8
      28:	08010000 	j	40000 <_init-0x687c0000>
      2c:	0000bb02 	srl	s7,zero,0xc
      30:	02070200 	0x2070200
      34:	0000018c 	syscall	0x6
      38:	91020704 	lbu	v0,1796(t0)
      3c:	04000001 	bltz	zero,44 <_init-0x687fffbc>
      40:	6e690307 	0x6e690307
      44:	05040074 	0x5040074
      48:	0001b502 	srl	s6,at,0x14
      4c:	02050800 	0x2050800
      50:	0000018c 	syscall	0x6
      54:	ba020704 	swr	v0,1796(s0)
      58:	04000001 	bltz	zero,60 <_init-0x687fffa0>
      5c:	00090205 	0x90205
      60:	06010000 	bgez	s0,64 <_init-0x687fff9c>
      64:	00014902 	srl	t1,at,0x4
      68:	02050200 	0x2050200
      6c:	00000187 	0x187
      70:	99040708 	lwr	a0,1800(t0)
      74:	04000000 	bltz	zero,78 <_init-0x687fff88>
      78:	5305a302 	beql	t8,a1,fffe8c84 <emuqueue+0x977e09e0>
      7c:	00000001 	movf	zero,zero,$fcc0
      80:	00013105 	0x13105
      84:	5b050100 	0x5b050100
      88:	02000000 	0x2000000
      8c:	00001a05 	0x1a05
      90:	45050300 	bc1t	$fcc1,c94 <_init-0x687ff36c>
      94:	00000000 	nop
      98:	00ae0400 	0xae0400
      9c:	02040000 	0x2040000
      a0:	01c305b0 	tge	t6,v1,0x16
      a4:	05000000 	bltz	t0,a8 <_init-0x687fff58>
      a8:	0000019e 	0x19e
      ac:	d3060001 	0xd3060001
      b0:	01000000 	0x1000000
      b4:	000000ae 	0xae
      b8:	20011e01 	addi	at,zero,7681
      bc:	54688000 	bnel	v1,t0,fffe00c0 <emuqueue+0x977d7e1c>
      c0:	01688000 	0x1688000
      c4:	00d3076d 	0xd3076d
      c8:	00200000 	0x200000
      cc:	00246880 	0x246880
      d0:	08006880 	j	1a200 <_init-0x687e5e00>
      d4:	00000168 	0x168
      d8:	01014d01 	0x1014d01
      dc:	00011606 	0x11606
      e0:	00ce0100 	0xce0100
      e4:	29010000 	slti	at,t0,0
      e8:	80005401 	lb	zero,21505(zero)
      ec:	80006468 	lb	zero,25704(zero)
      f0:	096d0168 	j	5b405a0 <_init-0x62cbfa60>
      f4:	00000116 	0x116
      f8:	68800054 	0x68800054
      fc:	68800064 	0x68800064
     100:	0001230a 	0x1230a
     104:	00540b00 	0x540b00
     108:	00646880 	0x646880
     10c:	230a6880 	addi	t2,t8,26752
     110:	00000001 	movf	zero,zero,$fcc0
     114:	2f0c0000 	sltiu	t4,t8,0
     118:	77000001 	jalx	c000004 <_init-0x5c7ffffc>
     11c:	01000001 	movf	zero,t0,$fcc0
     120:	0d010159 	jal	4040564 <_init-0x647bfa9c>
     124:	00746572 	tlt	v1,s4,0x195
     128:	00415a01 	0x415a01
     12c:	0e000000 	jal	8000000 <_init-0x60800000>
     130:	00000030 	tge	zero,zero
     134:	0072a902 	0x72a902
     138:	05010000 	bgez	t0,13c <_init-0x687ffec4>
     13c:	80736403 	lb	s3,25603(v1)
     140:	00740e68 	0x740e68
     144:	b5020000 	0xb5020000
     148:	00000099 	0x99
     14c:	68030501 	0x68030501
     150:	00688073 	tltu	v1,t0,0x201
     154:	0000143d 	0x143d
     158:	00bb0002 	0xbb0002
     15c:	01040000 	0x1040000
     160:	0000007c 	0x7c
     164:	6880028c 	0x6880028c
     168:	68800064 	0x68800064
     16c:	00000089 	0x89
     170:	0003d701 	0x3d701
     174:	0000dc00 	sll	k1,zero,0x10
     178:	00000200 	sll	zero,zero,0x8
     17c:	08010000 	j	40000 <_init-0x687c0000>
     180:	bb020403 	swr	v0,1027(t8)
     184:	02000000 	0x2000000
     188:	018c0207 	0x18c0207
     18c:	07040000 	0x7040000
     190:	00019102 	srl	s2,at,0x4
     194:	04070400 	0x4070400
     198:	00003c04 	0x3c04
     19c:	005e0500 	0x5e0500
     1a0:	02040000 	0x2040000
     1a4:	03c20626 	0x3c20626
     1a8:	06000000 	bltz	s0,1ac <_init-0x687ffe54>
     1ac:	00000dd6 	0xdd6
     1b0:	86070001 	lh	a3,1(s0)
     1b4:	02000004 	sllv	zero,zero,s0
     1b8:	00004929 	0x4929
     1bc:	6e690800 	0x6e690800
     1c0:	05040074 	0x5040074
     1c4:	0001b502 	srl	s6,at,0x14
     1c8:	02050800 	0x2050800
     1cc:	0000018c 	syscall	0x6
     1d0:	ba020704 	swr	v0,1796(s0)
     1d4:	04000001 	bltz	zero,1dc <_init-0x687ffe24>
     1d8:	00090205 	0x90205
     1dc:	06010000 	bgez	s0,1e0 <_init-0x687ffe20>
     1e0:	00014902 	srl	t1,at,0x4
     1e4:	02050200 	0x2050200
     1e8:	00000187 	0x187
     1ec:	04040708 	0x4040708
     1f0:	000000a0 	0xa0
     1f4:	00008509 	0x8509
     1f8:	85040400 	lh	a0,1024(t0)
     1fc:	0a000000 	j	8000000 <_init-0x60800000>
     200:	000000bb 	0xbb
     204:	00000025 	move	zero,zero
     208:	0000350b 	0x350b
     20c:	05000f00 	bltz	t0,3e10 <_init-0x687fc1f0>
     210:	000000e2 	0xe2
     214:	06a31104 	bgezl	s5,4628 <_init-0x687fb9d8>
     218:	00000153 	0x153
     21c:	01310600 	0x1310600
     220:	06010000 	bgez	s0,224 <_init-0x687ffddc>
     224:	0000005b 	0x5b
     228:	001a0602 	srl	zero,k0,0x18
     22c:	06030000 	bgezl	s0,230 <_init-0x687ffdd0>
     230:	00000045 	0x45
     234:	f7050000 	sdc1	$f5,0(t8)
     238:	04000000 	bltz	zero,23c <_init-0x687ffdc4>
     23c:	c306b011 	ll	a2,-20463(t8)
     240:	00000001 	movf	zero,zero,$fcc0
     244:	00019e06 	0x19e06
     248:	0a000100 	j	8000400 <_init-0x607ffc00>
     24c:	00000108 	0x108
     250:	00000085 	0x85
     254:	0000350c 	syscall	0xd4
     258:	0003ff00 	sll	ra,v1,0x1c
     25c:	00012305 	0x12305
     260:	6d120400 	0x6d120400
     264:	00035706 	0x35706
     268:	01060000 	0x1060000
     26c:	0100000d 	break	0x100
     270:	00082e06 	0x82e06
     274:	07000200 	bltz	t8,a78 <_init-0x687ff588>
     278:	0000031a 	0x31a
     27c:	01087212 	0x1087212
     280:	6f0d0000 	0x6f0d0000
     284:	0c000001 	jal	4 <_init-0x687ffffc>
     288:	060e790e 	tnei	s0,30990
     28c:	0e000003 	jal	800000c <_init-0x607ffff4>
     290:	00002e72 	tlt	zero,zero,0xb9
     294:	00230200 	0x230200
     298:	0007b30e 	0x7b30e
     29c:	2e740e00 	sltiu	s4,s3,3584
     2a0:	02000000 	0x2000000
     2a4:	f80e0223 	sdc2	$14,547(zero)
     2a8:	0e000002 	jal	8000008 <_init-0x607ffff8>
     2ac:	00002e76 	tne	zero,zero,0xb9
     2b0:	04230200 	bgezl	at,ab4 <_init-0x687ff54c>
     2b4:	000e220e 	0xe220e
     2b8:	6f780e00 	0x6f780e00
     2bc:	02000001 	movf	zero,s0,$fcc0
     2c0:	04000823 	bltz	zero,2350 <_init-0x687fdcb0>
     2c4:	00017504 	0x17504
     2c8:	00250900 	0x250900
     2cc:	49070000 	bc2tl	$cc1,2d0 <_init-0x687ffd30>
     2d0:	0e000009 	jal	8000024 <_init-0x607fffdc>
     2d4:	00012e79 	0x12e79
     2d8:	01950a00 	0x1950a00
     2dc:	00850000 	0x850000
     2e0:	350b0000 	ori	t3,t0,0x0
     2e4:	07000000 	bltz	t8,2e8 <_init-0x687ffd18>
     2e8:	01a50a00 	0x1a50a00
     2ec:	00850000 	0x850000
     2f0:	350b0000 	ori	t3,t0,0x0
     2f4:	13000000 	beqz	t8,2f8 <_init-0x687ffd08>
     2f8:	01f40d00 	0x1f40d00
     2fc:	08140000 	j	500000 <_init-0x68300000>
     300:	02e80e42 	0x2e80e42
     304:	39080000 	xori	t0,t0,0x0
     308:	00000069 	0x69
     30c:	0e002302 	jal	8008c08 <_init-0x607f73f8>
     310:	00000759 	0x759
     314:	00693b08 	0x693b08
     318:	23020000 	addi	v0,t8,0
     31c:	61640f04 	0x61640f04
     320:	3d080079 	0x3d080079
     324:	00000069 	0x69
     328:	0e082302 	jal	8208c08 <_init-0x605f73f8>
     32c:	00000653 	0x653
     330:	00693f08 	0x693f08
     334:	23020000 	addi	v0,t8,0
     338:	1fcd0e0c 	0x1fcd0e0c
     33c:	41080000 	mftc0	zero,c0_badvaddr
     340:	00000085 	0x85
     344:	00102302 	srl	a0,s0,0xc
     348:	000d1207 	0xd1207
     34c:	a5420800 	sh	v0,2048(t2)
     350:	0d000001 	jal	4000004 <_init-0x647ffffc>
     354:	00000232 	tlt	zero,zero,0x8
     358:	0e50080c 	jal	9402030 <_init-0x5f3fdfd0>
     35c:	00000968 	0x968
     360:	00694b08 	0x694b08
     364:	23020000 	addi	v0,t8,0
     368:	0b250e00 	j	c943800 <_init-0x5bebc800>
     36c:	4d080000 	lwxc1	$f0,t0(t0)
     370:	00000069 	0x69
     374:	0e042302 	jal	8108c08 <_init-0x606f73f8>
     378:	00000b67 	0xb67
     37c:	00694f08 	0x694f08
     380:	23020000 	addi	v0,t8,0
     384:	e2070008 	sc	a3,8(s0)
     388:	08000006 	j	18 <_init-0x687fffe8>
     38c:	0001ff50 	0x1ff50
     390:	02731000 	0x2731000
     394:	0de30000 	jal	78c0000 <_init-0x60f40000>
     398:	04090000 	tgeiu	zero,0
     39c:	1fcd0e53 	0x1fcd0e53
     3a0:	55040000 	bnel	t0,a0,3a4 <_init-0x687ffc5c>
     3a4:	00000025 	move	zero,zero
     3a8:	0f002302 	jal	c008c08 <_init-0x5c7f73f8>
     3ac:	04006469 	bltz	zero,19554 <_init-0x687e6aac>
     3b0:	00003c57 	0x3c57
     3b4:	01230200 	0x1230200
     3b8:	0002c00e 	0x2c00e
     3bc:	43590400 	c0	0x1590400
     3c0:	02000000 	0x2000000
     3c4:	07000523 	bltz	t8,1854 <_init-0x687fe7ac>
     3c8:	00000386 	0x386
     3cc:	023d5b04 	0x23d5b04
     3d0:	390d0000 	xori	t5,t0,0x0
     3d4:	25000003 	addiu	zero,t0,3
     3d8:	650e8104 	0x650e8104
     3dc:	04000011 	bltz	zero,424 <_init-0x687ffbdc>
     3e0:	00027364 	0x27364
     3e4:	00230200 	0x230200
     3e8:	0009370e 	0x9370e
     3ec:	8c670400 	lw	a3,1024(v1)
     3f0:	02000000 	0x2000000
     3f4:	780e0923 	0x780e0923
     3f8:	04000009 	bltz	zero,420 <_init-0x687ffbe0>
     3fc:	00008c69 	0x8c69
     400:	0b230200 	j	c8c0800 <_init-0x5bf3f800>
     404:	0400780f 	bltz	zero,1e444 <_init-0x687e1bbc>
     408:	00008c6b 	0x8c6b
     40c:	0d230200 	jal	48c0800 <_init-0x63f3f800>
     410:	0400790f 	bltz	zero,1e850 <_init-0x687e17b0>
     414:	00008c6d 	0x8c6d
     418:	0f230200 	jal	c8c0800 <_init-0x5bf3f800>
     41c:	0010d60e 	0x10d60e
     420:	8c700400 	lw	s0,1024(v1)
     424:	02000000 	0x2000000
     428:	b90e1123 	swr	t6,4387(t0)
     42c:	0400000b 	bltz	zero,45c <_init-0x687ffba4>
     430:	00008c72 	tlt	zero,zero,0x231
     434:	13230200 	beq	t9,v1,c38 <_init-0x687ff3c8>
     438:	000b2c0e 	0xb2c0e
     43c:	3c740400 	0x3c740400
     440:	02000000 	0x2000000
     444:	060e1523 	tnei	s0,5411
     448:	04000008 	bltz	zero,46c <_init-0x687ffb94>
     44c:	00002576 	tne	zero,zero,0x95
     450:	19230200 	0x19230200
     454:	0007070e 	0x7070e
     458:	25780400 	addiu	t8,t3,1024
     45c:	02000000 	0x2000000
     460:	db0e1a23 	ldc2	$14,6691(t8)
     464:	0400000e 	bltz	zero,4a0 <_init-0x687ffb60>
     468:	00002e7a 	0x2e7a
     46c:	1b230200 	0x1b230200
     470:	000ce00e 	0xce00e
     474:	3c7d0400 	0x3c7d0400
     478:	02000000 	0x2000000
     47c:	ba0e1d23 	swr	t6,7459(s0)
     480:	04000002 	bltz	zero,48c <_init-0x687ffb74>
     484:	00003c7f 	0x3c7f
     488:	21230200 	addi	v1,t1,512
     48c:	0ced0700 	jal	3b41c00 <_init-0x64cbe400>
     490:	81040000 	lb	a0,0(t0)
     494:	0000027e 	0x27e
     498:	0004290d 	break	0x4,0xa4
     49c:	df042500 	ldc3	$4,9472(t8)
     4a0:	0011650e 	0x11650e
     4a4:	73bd0400 	0x73bd0400
     4a8:	02000002 	0x2000002
     4ac:	780f0023 	0x780f0023
     4b0:	8cbf0400 	lw	ra,1024(a1)
     4b4:	02000000 	0x2000000
     4b8:	790f0923 	0x790f0923
     4bc:	8cc10400 	lw	at,1024(a2)
     4c0:	02000000 	0x2000000
     4c4:	d60e0b23 	ldc1	$f14,2851(s0)
     4c8:	04000010 	bltz	zero,50c <_init-0x687ffaf4>
     4cc:	00008cc3 	sra	s1,zero,0x13
     4d0:	0d230200 	jal	48c0800 <_init-0x63f3f800>
     4d4:	000bb90e 	0xbb90e
     4d8:	8cc50400 	lw	a1,1024(a2)
     4dc:	02000000 	0x2000000
     4e0:	730e0f23 	0x730e0f23
     4e4:	04000003 	bltz	zero,4f4 <_init-0x687ffb0c>
     4e8:	00003cc7 	0x3cc7
     4ec:	11230200 	beq	t1,v1,cf0 <_init-0x687ff310>
     4f0:	000b2c0e 	0xb2c0e
     4f4:	3cc90400 	0x3cc90400
     4f8:	02000000 	0x2000000
     4fc:	060e1523 	tnei	s0,5411
     500:	04000008 	bltz	zero,524 <_init-0x687ffadc>
     504:	000025cb 	0x25cb
     508:	19230200 	0x19230200
     50c:	0009a10e 	0x9a10e
     510:	25cd0400 	addiu	t5,t6,1024
     514:	02000000 	0x2000000
     518:	9b0e1a23 	lwr	t6,6691(t8)
     51c:	0400000e 	bltz	zero,558 <_init-0x687ffaa8>
     520:	000025cf 	0x25cf
     524:	1b230200 	0x1b230200
     528:	000bb40e 	0xbb40e
     52c:	25d10400 	addiu	s1,t6,1024
     530:	02000000 	0x2000000
     534:	9d0e1c23 	0x9d0e1c23
     538:	04000010 	bltz	zero,57c <_init-0x687ffa84>
     53c:	00002ed5 	0x2ed5
     540:	1d230200 	0x1d230200
     544:	00030c0e 	0x30c0e
     548:	25d70400 	addiu	s7,t6,1024
     54c:	02000000 	0x2000000
     550:	580e1f23 	0x580e1f23
     554:	04000006 	bltz	zero,570 <_init-0x687ffa90>
     558:	000085d9 	0x85d9
     55c:	20230200 	addi	v1,at,512
     560:	000d380e 	0xd380e
     564:	2edb0400 	sltiu	k1,s6,1024
     568:	02000000 	0x2000000
     56c:	000e2123 	0xe2123
     570:	04000003 	bltz	zero,580 <_init-0x687ffa80>
     574:	00002edd 	0x2edd
     578:	23230200 	addi	v1,t9,512
     57c:	08c60700 	j	3181c00 <_init-0x6567e400>
     580:	df040000 	ldc3	$4,0(t8)
     584:	00000344 	0x344
     588:	00049b0d 	break	0x4,0x26c
     58c:	f1041400 	0xf1041400
     590:	0011650e 	0x11650e
     594:	73e90400 	0x73e90400
     598:	02000002 	0x2000002
     59c:	780f0023 	0x780f0023
     5a0:	8cea0400 	lw	t2,1024(a3)
     5a4:	02000000 	0x2000000
     5a8:	790f0923 	0x790f0923
     5ac:	8ceb0400 	lw	t3,1024(a3)
     5b0:	02000000 	0x2000000
     5b4:	d60e0b23 	ldc1	$f14,2851(s0)
     5b8:	04000010 	bltz	zero,5fc <_init-0x687ffa04>
     5bc:	00008cec 	0x8cec
     5c0:	0d230200 	jal	48c0800 <_init-0x63f3f800>
     5c4:	000bb90e 	0xbb90e
     5c8:	8ced0400 	lw	t5,1024(a3)
     5cc:	02000000 	0x2000000
     5d0:	060e0f23 	tnei	s0,3875
     5d4:	04000008 	bltz	zero,5f8 <_init-0x687ffa08>
     5d8:	000025ee 	0x25ee
     5dc:	11230200 	beq	t1,v1,de0 <_init-0x687ff220>
     5e0:	0009420e 	0x9420e
     5e4:	2eef0400 	sltiu	t7,s7,1024
     5e8:	02000000 	0x2000000
     5ec:	07001223 	bltz	t8,4e7c <_init-0x687fb184>
     5f0:	0000037e 	0x37e
     5f4:	0434f104 	0x434f104
     5f8:	5d110000 	0x5d110000
     5fc:	29000005 	slti	zero,t0,5
     600:	0f011304 	jal	c044c10 <_init-0x5c7bb3f0>
     604:	fa040078 	sdc2	$4,120(s0)
     608:	0000008c 	syscall	0x2
     60c:	0f002302 	jal	c008c08 <_init-0x5c7f73f8>
     610:	fc040079 	sdc3	$4,121(zero)
     614:	0000008c 	syscall	0x2
     618:	0e022302 	jal	8088c08 <_init-0x607773f8>
     61c:	000010d6 	0x10d6
     620:	008cfe04 	0x8cfe04
     624:	23020000 	addi	v0,t8,0
     628:	0bb91204 	j	ee44810 <_init-0x599bb7f0>
     62c:	00040000 	sll	zero,a0,0x0
     630:	00008c01 	0x8c01
     634:	06230200 	bgezl	s1,e38 <_init-0x687ff1c8>
     638:	000b2c12 	0xb2c12
     63c:	01020400 	0x1020400
     640:	0000003c 	0x3c
     644:	12082302 	beq	s0,t0,9250 <_init-0x687f6db0>
     648:	00000806 	srlv	at,zero,zero
     64c:	25010404 	addiu	at,t0,1028
     650:	02000000 	0x2000000
     654:	07120c23 	bltzall	t8,36e4 <_init-0x687fc91c>
     658:	04000007 	bltz	zero,678 <_init-0x687ff988>
     65c:	00250106 	0x250106
     660:	23020000 	addi	v0,t8,0
     664:	0edb120d 	jal	b6c4834 <_init-0x5d13b7cc>
     668:	08040000 	j	100000 <_init-0x68700000>
     66c:	00002e01 	0x2e01
     670:	0e230200 	jal	88c0800 <_init-0x5ff3f800>
     674:	000ce012 	0xce012
     678:	010b0400 	0x10b0400
     67c:	0000003c 	0x3c
     680:	12102302 	beq	s0,s0,928c <_init-0x687f6d74>
     684:	000002ba 	0x2ba
     688:	3c010d04 	lui	at,0xd04
     68c:	02000000 	0x2000000
     690:	58121423 	0x58121423
     694:	04000006 	bltz	zero,6b0 <_init-0x687ff950>
     698:	0025010f 	0x25010f
     69c:	23020000 	addi	v0,t8,0
     6a0:	08011218 	j	44860 <_init-0x687bb7a0>
     6a4:	11040000 	beq	t0,a0,6a8 <_init-0x687ff958>
     6a8:	0000ab01 	0xab01
     6ac:	19230200 	0x19230200
     6b0:	0ddb1300 	jal	76c4c00 <_init-0x6113b400>
     6b4:	13040000 	beq	t8,a0,6b8 <_init-0x687ff948>
     6b8:	0004a601 	0x4a601
     6bc:	5d040400 	0x5d040400
     6c0:	05000005 	bltz	t0,6d8 <_init-0x687ff928>
     6c4:	00000590 	0x590
     6c8:	06301004 	bltzal	s1,46dc <_init-0x687fb924>
     6cc:	00000c91 	0xc91
     6d0:	096d0600 	j	5b41800 <_init-0x62cbe800>
     6d4:	06010000 	bgez	s0,6d8 <_init-0x687ff928>
     6d8:	00000c04 	0xc04
     6dc:	0a4a0602 	j	9281808 <_init-0x5f57e7f8>
     6e0:	00030000 	sll	zero,v1,0x0
     6e4:	00106207 	0x106207
     6e8:	6f351000 	0x6f351000
     6ec:	05000005 	bltz	t0,704 <_init-0x687ff8fc>
     6f0:	00000616 	0x616
     6f4:	061e0f04 	0x61e0f04
     6f8:	00000d3e 	0xd3e
     6fc:	08490600 	j	1241800 <_init-0x675be800>
     700:	06010000 	bgez	s0,704 <_init-0x687ff8fc>
     704:	000007f2 	tlt	zero,zero,0x1f
     708:	03a80602 	0x3a80602
     70c:	06030000 	bgezl	s0,710 <_init-0x687ff8f0>
     710:	00000474 	teq	zero,zero,0x11
     714:	05370604 	0x5370604
     718:	06050000 	0x6050000
     71c:	00000f8d 	break	0x0,0x3e
     720:	05dd0606 	0x5dd0606
     724:	06070000 	0x6070000
     728:	00000e02 	srl	at,zero,0x18
     72c:	10e70608 	beq	a3,a3,1f50 <_init-0x687fe0b0>
     730:	06090000 	tgeiu	s0,0
     734:	000005b9 	0x5b9
     738:	0c7f060a 	jal	1fc1828 <_init-0x6683e7d8>
     73c:	060b0000 	tltiu	s0,0
     740:	00000e73 	tltu	zero,zero,0x39
     744:	0d2d060c 	jal	4b41830 <_init-0x63cbe7d0>
     748:	060d0000 	0x60d0000
     74c:	00000743 	sra	zero,zero,0x1d
     750:	0c22060e 	jal	881838 <_init-0x67f7e7c8>
     754:	060f0000 	0x60f0000
     758:	00000216 	0x216
     75c:	095b0610 	j	56c1840 <_init-0x6313e7c0>
     760:	06110000 	bgezal	s0,764 <_init-0x687ff89c>
     764:	00000fe9 	0xfe9
     768:	74070012 	jalx	1c0048 <_init-0x6863ffb8>
     76c:	0f00000a 	jal	c000028 <_init-0x5c7fffd8>
     770:	00059b49 	0x59b49
     774:	06460d00 	0x6460d00
     778:	0f080000 	jal	c200000 <_init-0x5c600000>
     77c:	0e9b0e67 	jal	a6c399c <_init-0x5e13c664>
     780:	650f0000 	0x650f0000
     784:	00000616 	0x616
     788:	0e002302 	jal	8008c08 <_init-0x607f73f8>
     78c:	00000dfb 	0xdfb
     790:	0590660f 	bltzal	t4,19fd0 <_init-0x687e6030>
     794:	23020000 	addi	v0,t8,0
     798:	55070004 	bnel	t0,a3,7ac <_init-0x687ff854>
     79c:	0f000008 	jal	c000020 <_init-0x5c7fffe0>
     7a0:	00062167 	0x62167
     7a4:	066c0500 	teqi	s3,1280
     7a8:	0f040000 	jal	c100000 <_init-0x5c700000>
     7ac:	0b4b066e 	j	d2c19b8 <_init-0x5b53e648>
     7b0:	06000000 	bltz	s0,7b4 <_init-0x687ff84c>
     7b4:	00000e4a 	0xe4a
     7b8:	07220601 	bltzl	t9,1fc0 <_init-0x687fe040>
     7bc:	00020000 	sll	zero,v0,0x0
     7c0:	000c5b07 	0xc5b07
     7c4:	51750f00 	beql	t3,s5,43c8 <_init-0x687fbc38>
     7c8:	05000006 	bltz	t0,7e4 <_init-0x687ff81c>
     7cc:	00000698 	0x698
     7d0:	06210904 	bgez	s1,2be4 <_init-0x687fd41c>
     7d4:	00000ec7 	0xec7
     7d8:	0ad00600 	j	b401800 <_init-0x5d3fe800>
     7dc:	06010000 	bgez	s0,7e0 <_init-0x687ff820>
     7e0:	000006bd 	0x6bd
     7e4:	10a40602 	beq	a1,a0,1ff0 <_init-0x687fe010>
     7e8:	00030000 	sll	zero,v1,0x0
     7ec:	00110507 	0x110507
     7f0:	77260900 	jalx	c982400 <_init-0x5be7dc00>
     7f4:	05000006 	bltz	t0,810 <_init-0x687ff7f0>
     7f8:	000006b2 	tlt	zero,zero,0x1a
     7fc:	062e0904 	tnei	s1,2308
     800:	00000e32 	tlt	zero,zero,0x38
     804:	8d070000 	lw	a3,0(t0)
     808:	09000007 	j	400001c <_init-0x647fffe4>
     80c:	0006a330 	tge	zero,a2,0x28c
     810:	07321000 	bltzall	t9,4814 <_init-0x687fb7ec>
     814:	119b0000 	beq	t4,k1,818 <_init-0x687ff7e8>
     818:	09180000 	j	4600000 <_init-0x64200000>
     81c:	1fcd0e5c 	0x1fcd0e5c
     820:	5e090000 	0x5e090000
     824:	00000698 	0x698
     828:	0e002302 	jal	8008c08 <_init-0x607f73f8>
     82c:	0000083d 	0x83d
     830:	002e6009 	0x2e6009
     834:	23020000 	addi	v0,t8,0
     838:	0d580e04 	jal	5603810 <_init-0x631fc7f0>
     83c:	62090000 	0x62090000
     840:	0000002e 	0x2e
     844:	0e062302 	jal	8188c08 <_init-0x606773f8>
     848:	0000033c 	0x33c
     84c:	00a56409 	0xa56409
     850:	23020000 	addi	v0,t8,0
     854:	2d240e08 	sltiu	a0,t1,3592
     858:	67090000 	0x67090000
     85c:	00000749 	0x749
     860:	0e0c2302 	jal	8308c08 <_init-0x604f73f8>
     864:	00000e28 	0xe28
     868:	00696a09 	0x696a09
     86c:	23020000 	addi	v0,t8,0
     870:	0c391410 	jal	e45040 <_init-0x679bafc0>
     874:	0e010000 	jal	8040000 <_init-0x607c0000>
     878:	00000259 	0x259
     87c:	074f6d09 	0x74f6d09
     880:	23020000 	addi	v0,t8,0
     884:	43150014 	c0	0x1150014
     888:	01000007 	srav	zero,zero,t0
     88c:	00074316 	0x74316
     890:	06b21600 	bltzall	s5,6094 <_init-0x687f9f6c>
     894:	04000000 	bltz	zero,898 <_init-0x687ff768>
     898:	0006bd04 	0x6bd04
     89c:	32040400 	andi	a0,s0,0x400
     8a0:	04000007 	bltz	zero,8c0 <_init-0x687ff740>
     8a4:	00071d04 	0x71d04
     8a8:	11a50700 	beq	t5,a1,24ac <_init-0x687fdb54>
     8ac:	6e090000 	0x6e090000
     8b0:	000006bd 	0x6bd
     8b4:	07550404 	0x7550404
     8b8:	93050000 	lbu	a1,0(t8)
     8bc:	04000007 	bltz	zero,8dc <_init-0x687ff724>
     8c0:	3206230b 	andi	a2,s0,0x230b
     8c4:	00000002 	srl	zero,zero,0x0
     8c8:	00088606 	0x88606
     8cc:	80060100 	lb	a2,256(zero)
     8d0:	02000010 	0x2000010
     8d4:	00120506 	0x120506
     8d8:	77060300 	jalx	c180c00 <_init-0x5c67f400>
     8dc:	04000002 	bltz	zero,8e8 <_init-0x687ff718>
     8e0:	00102906 	0x102906
     8e4:	07000500 	bltz	t8,1ce8 <_init-0x687fe318>
     8e8:	000003c8 	0x3c8
     8ec:	07662a0b 	0x7662a0b
     8f0:	c5050000 	lwc1	$f5,0(t0)
     8f4:	04000007 	bltz	zero,914 <_init-0x687ff6ec>
     8f8:	ea06360b 	swc2	$6,13835(s0)
     8fc:	00000005 	0x5
     900:	000fd106 	0xfd106
     904:	ed060100 	swc3	$6,256(t0)
     908:	02000006 	srlv	zero,zero,s0
     90c:	00059406 	0x59406
     910:	fd060300 	sdc3	$6,768(t0)
     914:	04000003 	bltz	zero,924 <_init-0x687ff6dc>
     918:	02970700 	0x2970700
     91c:	3c0b0000 	lui	t3,0x0
     920:	0000079e 	0x79e
     924:	00081510 	0x81510
     928:	00048b00 	sll	s1,a0,0xc
     92c:	3f0b1000 	0x3f0b1000
     930:	001fcd0e 	0x1fcd0e
     934:	93400b00 	lbu	zero,2816(k0)
     938:	02000007 	srav	zero,zero,s0
     93c:	c20e0023 	ll	t6,35(s0)
     940:	0b00000a 	j	c000028 <_init-0x5c7fffd8>
     944:	0000a541 	0xa541
     948:	04230200 	bgezl	at,114c <_init-0x687feeb4>
     94c:	0003b40e 	0x3b40e
     950:	a5420b00 	sh	v0,2816(t2)
     954:	02000000 	0x2000000
     958:	140e0823 	bne	zero,t6,29e8 <_init-0x687fd618>
     95c:	0b000011 	j	c000044 <_init-0x5c7fffbc>
     960:	0000a543 	sra	s4,zero,0x15
     964:	0c230200 	jal	8c0800 <_init-0x67f3f800>
     968:	10710700 	beq	v1,s1,256c <_init-0x687fda94>
     96c:	440b0000 	mfc1	t3,$f0
     970:	000007d0 	0x7d0
     974:	0008b110 	0x8b110
     978:	00067c00 	sll	t7,a2,0x10
     97c:	4b0b2400 	c2	0x10b2400
     980:	001fcd0e 	0x1fcd0e
     984:	934e0b00 	lbu	t6,2816(k0)
     988:	02000007 	srav	zero,zero,s0
     98c:	b40e0023 	0xb40e0023
     990:	0b000003 	j	c00000c <_init-0x5c7ffff4>
     994:	0000a551 	0xa551
     998:	04230200 	bgezl	at,119c <_init-0x687fee64>
     99c:	0011140e 	0x11140e
     9a0:	a5540b00 	sh	s4,2816(t2)
     9a4:	02000000 	0x2000000
     9a8:	c20e0823 	ll	t6,2083(s0)
     9ac:	0b00000a 	j	c000028 <_init-0x5c7fffd8>
     9b0:	0000a556 	0xa556
     9b4:	0c230200 	jal	8c0800 <_init-0x67f3f800>
     9b8:	000e280e 	0xe280e
     9bc:	69590b00 	0x69590b00
     9c0:	02000000 	0x2000000
     9c4:	240e1023 	li	t6,4131
     9c8:	0b00002d 	j	c0000b4 <_init-0x5c7fff4c>
     9cc:	0008c85c 	0x8c85c
     9d0:	14230200 	bne	at,v1,11d4 <_init-0x687fee2c>
     9d4:	0003b80e 	0x3b80e
     9d8:	9a5f0b00 	lwr	ra,2816(s2)
     9dc:	02000000 	0x2000000
     9e0:	720e1823 	0x720e1823
     9e4:	0b000006 	j	c000018 <_init-0x5c7fffe8>
     9e8:	00009a62 	0x9a62
     9ec:	1c230200 	0x1c230200
     9f0:	00112314 	0x112314
     9f4:	be0e0100 	cache	0xe,256(s0)
     9f8:	0b00000c 	j	c000030 <_init-0x5c7fffd0>
     9fc:	0008ce65 	0x8ce65
     a00:	20230200 	addi	v1,at,512
     a04:	08c21500 	j	3085400 <_init-0x6577ac00>
     a08:	16010000 	bne	s0,at,a0c <_init-0x687ff5f4>
     a0c:	000008c2 	srl	at,zero,0x3
     a10:	0007c516 	0x7c516
     a14:	04040000 	0x4040000
     a18:	00000820 	add	at,zero,zero
     a1c:	08b10404 	j	2c41010 <_init-0x65bbeff0>
     a20:	04040000 	0x4040000
     a24:	0000089c 	0x89c
     a28:	000ae407 	0xae407
     a2c:	20660b00 	addi	a2,v1,2816
     a30:	04000008 	bltz	zero,a54 <_init-0x687ff5ac>
     a34:	0008d404 	0x8d404
     a38:	eb040400 	swc2	$4,1024(t8)
     a3c:	17000008 	bnez	t8,a60 <_init-0x687ff5a0>
     a40:	00000900 	sll	at,zero,0x4
     a44:	00006901 	0x6901
     a48:	002c1600 	0x2c1600
     a4c:	69160000 	0x69160000
     a50:	00000000 	nop
     a54:	017a0404 	0x17a0404
     a58:	24070000 	li	a3,0
     a5c:	06000008 	bltz	s0,a80 <_init-0x687ff580>
     a60:	0008e54a 	0x8e54a
     a64:	09861000 	j	6184000 <_init-0x6267c000>
     a68:	0f160000 	jal	c580000 <_init-0x5c280000>
     a6c:	061c0000 	0x61c0000
     a70:	02c00e51 	0x2c00e51
     a74:	53060000 	beql	t8,a2,a78 <_init-0x687ff588>
     a78:	00000069 	0x69
     a7c:	0e002302 	jal	8008c08 <_init-0x607f73f8>
     a80:	00000fc9 	0xfc9
     a84:	00695606 	0x695606
     a88:	23020000 	addi	v0,t8,0
     a8c:	10100e04 	beq	zero,s0,42a0 <_init-0x687fbd60>
     a90:	59060000 	0x59060000
     a94:	00000069 	0x69
     a98:	0e082302 	jal	8208c08 <_init-0x605f73f8>
     a9c:	00000f76 	tne	zero,zero,0x3d
     aa0:	00695c06 	0x695c06
     aa4:	23020000 	addi	v0,t8,0
     aa8:	0d4c0e0c 	jal	5303830 <_init-0x634fc7d0>
     aac:	5f060000 	0x5f060000
     ab0:	00000069 	0x69
     ab4:	0e102302 	jal	8408c08 <_init-0x603f73f8>
     ab8:	00002d24 	0x2d24
     abc:	09066206 	j	4198818 <_init-0x646677e8>
     ac0:	23020000 	addi	v0,t8,0
     ac4:	06001414 	bltz	s0,5b18 <_init-0x687fa4e8>
     ac8:	0e010000 	jal	8040000 <_init-0x607c0000>
     acc:	00000844 	0x844
     ad0:	09866506 	j	6199418 <_init-0x62666be8>
     ad4:	23020000 	addi	v0,t8,0
     ad8:	04040018 	0x4040018
     adc:	00000971 	tgeu	zero,zero,0x25
     ae0:	000f1d07 	0xf1d07
     ae4:	11670600 	beq	t3,a3,22e8 <_init-0x687fdd18>
     ae8:	05000009 	bltz	t0,b10 <_init-0x687ff4f0>
     aec:	000009e8 	0x9e8
     af0:	06300504 	bltzal	s1,1f04 <_init-0x687fe0fc>
     af4:	00000206 	0x206
     af8:	11be0600 	beq	t5,s8,22fc <_init-0x687fdd04>
     afc:	06010000 	bgez	s0,b00 <_init-0x687ff500>
     b00:	00000ff9 	0xff9
     b04:	0ea80602 	jal	aa01808 <_init-0x5ddfe7f8>
     b08:	06030000 	bgezl	s0,b0c <_init-0x687ff4f4>
     b0c:	00000435 	0x435
     b10:	07db0604 	0x7db0604
     b14:	06050000 	0x6050000
     b18:	000009d6 	0x9d6
     b1c:	0bcc0606 	j	f301818 <_init-0x594fe7e8>
     b20:	06070000 	0x6070000
     b24:	00000b8e 	0xb8e
     b28:	03910608 	0x3910608
     b2c:	06090000 	tgeiu	s0,0
     b30:	00000d65 	0xd65
     b34:	0ba7060a 	j	e9c1828 <_init-0x59e3e7d8>
     b38:	000b0000 	sll	zero,t3,0x0
     b3c:	00066207 	0x66207
     b40:	973e0500 	lhu	s8,1280(t9)
     b44:	05000009 	bltz	t0,b6c <_init-0x687ff494>
     b48:	00000a38 	0xa38
     b4c:	064e0504 	tnei	s2,1284
     b50:	000008f6 	tne	zero,zero,0x23
     b54:	02400600 	0x2400600
     b58:	06010000 	bgez	s0,b5c <_init-0x687ff4a4>
     b5c:	00000894 	0x894
     b60:	0a310602 	j	8c41808 <_init-0x5fbbe7f8>
     b64:	06030000 	bgezl	s0,b68 <_init-0x687ff498>
     b68:	00000be3 	0xbe3
     b6c:	0da40604 	jal	6901810 <_init-0x61efe7f0>
     b70:	06050000 	0x6050000
     b74:	00000ef7 	0xef7
     b78:	0f240606 	jal	c901818 <_init-0x5befe7e8>
     b7c:	06070000 	0x6070000
     b80:	00000f43 	sra	at,zero,0x1d
     b84:	114a0608 	beq	t2,t2,23a8 <_init-0x687fdc58>
     b88:	00090000 	sll	zero,t1,0x0
     b8c:	00121807 	srav	v1,s2,zero
     b90:	f35a0500 	0xf35a0500
     b94:	10000009 	b	bbc <_init-0x687ff444>
     b98:	00000a9c 	0xa9c
     b9c:	00000cc3 	sra	at,zero,0x13
     ba0:	0e610514 	jal	9841450 <_init-0x5efbebb0>
     ba4:	00001fcd 	break	0x0,0x7f
     ba8:	09e86305 	j	7a18c14 <_init-0x60de73ec>
     bac:	23020000 	addi	v0,t8,0
     bb0:	0e280e00 	jal	8a03800 <_init-0x5fdfc800>
     bb4:	66050000 	0x66050000
     bb8:	00000069 	0x69
     bbc:	0e042302 	jal	8108c08 <_init-0x606f73f8>
     bc0:	00002d24 	0x2d24
     bc4:	0ab36905 	j	acda414 <_init-0x5db25bec>
     bc8:	23020000 	addi	v0,t8,0
     bcc:	10b90e08 	beq	a1,t9,43f0 <_init-0x687fbc10>
     bd0:	6c050000 	0x6c050000
     bd4:	00000ab9 	0xab9
     bd8:	140c2302 	bne	zero,t4,97e4 <_init-0x687f681c>
     bdc:	00000457 	0x457
     be0:	02590e01 	0x2590e01
     be4:	6f050000 	0x6f050000
     be8:	00000abf 	0xabf
     bec:	00102302 	srl	a0,s0,0xc
     bf0:	000aad15 	0xaad15
     bf4:	ad160100 	sw	s6,256(t0)
     bf8:	1600000a 	bnez	s0,c24 <_init-0x687ff3dc>
     bfc:	00000a38 	0xa38
     c00:	43040400 	c0	0x1040400
     c04:	0400000a 	bltz	zero,c30 <_init-0x687ff3d0>
     c08:	000a9c04 	0xa9c04
     c0c:	8c040400 	lw	a0,1024(zero)
     c10:	04000009 	bltz	zero,c38 <_init-0x687ff3c8>
     c14:	000a8704 	0xa8704
     c18:	0c740700 	jal	1d01c00 <_init-0x66afe400>
     c1c:	71050000 	madd	t0,a1
     c20:	00000a43 	sra	at,zero,0x9
     c24:	0ac50404 	j	b141010 <_init-0x5d6beff0>
     c28:	67100000 	0x67100000
     c2c:	6b00000b 	0x6b00000b
     c30:	24000005 	li	zero,5
     c34:	110e210d 	beq	t0,t6,906c <_init-0x687f6f94>
     c38:	0d000006 	jal	4000018 <_init-0x647fffe8>
     c3c:	00006922 	0x6922
     c40:	00230200 	0x230200
     c44:	00046a0e 	0x46a0e
     c48:	69230d00 	0x69230d00
     c4c:	02000000 	0x2000000
     c50:	2d0e0423 	sltiu	t6,t0,1059
     c54:	0d000007 	jal	400001c <_init-0x647fffe4>
     c58:	00006924 	0x6924
     c5c:	08230200 	j	8c0800 <_init-0x67f3f800>
     c60:	002d240e 	0x2d240e
     c64:	7e260d00 	ext	a2,s1,0x14,0x2
     c68:	0200000b 	movn	zero,s0,zero
     c6c:	280e0c23 	slti	t6,zero,3107
     c70:	0d00000e 	jal	4000038 <_init-0x647fffc8>
     c74:	00006929 	0x6929
     c78:	10230200 	beq	at,v1,147c <_init-0x687feb84>
     c7c:	0005b20e 	0x5b20e
     c80:	692a0d00 	0x692a0d00
     c84:	02000000 	0x2000000
     c88:	cd0e1423 	pref	0xe,5155(t0)
     c8c:	0d00001f 	jal	400007c <_init-0x647fff84>
     c90:	0000692b 	0x692b
     c94:	18230200 	0x18230200
     c98:	0005480e 	0x5480e
     c9c:	692c0d00 	0x692c0d00
     ca0:	02000000 	0x2000000
     ca4:	b9141c23 	swr	s4,7203(t0)
     ca8:	01000007 	srav	zero,zero,t0
     cac:	000cb60e 	0xcb60e
     cb0:	842e0d00 	lh	t6,3328(at)
     cb4:	0200000b 	movn	zero,s0,zero
     cb8:	15002023 	bnez	t0,8d48 <_init-0x687f72b8>
     cbc:	00000b78 	0xb78
     cc0:	0b781601 	j	de05804 <_init-0x5a9fa7fc>
     cc4:	69160000 	0x69160000
     cc8:	00000000 	nop
     ccc:	0ad60404 	j	b581010 <_init-0x5d27eff0>
     cd0:	04040000 	0x4040000
     cd4:	00000b67 	0xb67
     cd8:	0b520404 	j	d481010 <_init-0x5b37eff0>
     cdc:	86070000 	lh	a3,0(s0)
     ce0:	0d000006 	jal	4000018 <_init-0x647fffe8>
     ce4:	000ad62f 	0xad62f
     ce8:	8a040400 	lwl	a0,1024(s0)
     cec:	0500000b 	bltz	t0,d1c <_init-0x687ff2e4>
     cf0:	00000bc2 	srl	at,zero,0xf
     cf4:	06290704 	tgeiu	s1,1796
     cf8:	00000b37 	0xb37
     cfc:	02210600 	0x2210600
     d00:	06010000 	bgez	s0,d04 <_init-0x687ff2fc>
     d04:	000011af 	0x11af
     d08:	09ac0602 	j	6b01808 <_init-0x61cfe7f8>
     d0c:	06030000 	bgezl	s0,d10 <_init-0x687ff2f0>
     d10:	000007a2 	0x7a2
     d14:	46070004 	c1	0x70004
     d18:	07000010 	bltz	t8,d5c <_init-0x687ff2a4>
     d1c:	000b9b2f 	0xb9b2f
     d20:	0be20500 	j	f881400 <_init-0x58f7ec00>
     d24:	07040000 	0x7040000
     d28:	034d064b 	0x34d064b
     d2c:	06000000 	bltz	s0,d30 <_init-0x687ff2d0>
     d30:	00000b01 	0xb01
     d34:	ce070001 	pref	0x7,1(s0)
     d38:	0700000c 	bltz	t8,d6c <_init-0x687ff294>
     d3c:	000bcd4e 	0xbcd4e
     d40:	0c020500 	jal	81400 <_init-0x6877ec00>
     d44:	07040000 	0x7040000
     d48:	04e30656 	bgezl	a3,26a4 <_init-0x687fd95c>
     d4c:	06000000 	bltz	s0,d50 <_init-0x687ff2b0>
     d50:	000004b2 	tlt	zero,zero,0x12
     d54:	1d070001 	0x1d070001
     d58:	0700000d 	bltz	t8,d90 <_init-0x687ff270>
     d5c:	000bed59 	0xbed59
     d60:	0cb40d00 	jal	2d03400 <_init-0x65afcc00>
     d64:	07a80000 	tgei	sp,0
     d68:	03260e7e 	0x3260e7e
     d6c:	5f070000 	0x5f070000
     d70:	00000069 	0x69
     d74:	0e002302 	jal	8008c08 <_init-0x607f73f8>
     d78:	00000647 	0x647
     d7c:	00696207 	0x696207
     d80:	23020000 	addi	v0,t8,0
     d84:	01fd0e04 	0x1fd0e04
     d88:	65070000 	0x65070000
     d8c:	00000185 	0x185
     d90:	0e082302 	jal	8208c08 <_init-0x605f73f8>
     d94:	000002ed 	0x2ed
     d98:	00696807 	srav	t5,t1,v1
     d9c:	23020000 	addi	v0,t8,0
     da0:	11900e10 	beq	t4,s0,45e4 <_init-0x687fba1c>
     da4:	6b070000 	0x6b070000
     da8:	00000069 	0x69
     dac:	0e142302 	jal	8508c08 <_init-0x602f73f8>
     db0:	0000069b 	0x69b
     db4:	0cb46e07 	jal	2d1b81c <_init-0x65ae47e4>
     db8:	23020000 	addi	v0,t8,0
     dbc:	042c0e18 	teqi	at,3608
     dc0:	71070000 	madd	t0,a3
     dc4:	00000cc4 	0xcc4
     dc8:	0e582302 	jal	9608c08 <_init-0x5f1f73f8>
     dcc:	00000284 	0x284
     dd0:	00697407 	0x697407
     dd4:	23030000 	addi	v1,t8,0
     dd8:	130e0198 	beq	t8,t6,143c <_init-0x687febc4>
     ddc:	0700000a 	bltz	t8,e08 <_init-0x687ff1f8>
     de0:	00006977 	0x6977
     de4:	9c230300 	0x9c230300
     de8:	0ea00e01 	jal	a803804 <_init-0x5dffc7fc>
     dec:	7a070000 	0x7a070000
     df0:	00000069 	0x69
     df4:	01a02303 	0x1a02303
     df8:	0012130e 	0x12130e
     dfc:	697d0700 	0x697d0700
     e00:	03000000 	0x3000000
     e04:	0001a423 	0x1a423
     e08:	000cc40a 	0xcc40a
     e0c:	00006900 	sll	t5,zero,0x4
     e10:	00350b00 	0x350b00
     e14:	000f0000 	sll	zero,t7,0x0
     e18:	000cd40a 	0xcd40a
     e1c:	0000a500 	sll	s4,zero,0x14
     e20:	00350b00 	0x350b00
     e24:	000f0000 	sll	zero,t7,0x0
     e28:	0010be07 	0x10be07
     e2c:	0d7e0700 	jal	5f81c00 <_init-0x6287e400>
     e30:	0d00000c 	jal	4000030 <_init-0x647fffd0>
     e34:	00000d04 	0xd04
     e38:	0e880708 	jal	a201c20 <_init-0x5e5fe3e0>
     e3c:	00000326 	0x326
     e40:	00698407 	0x698407
     e44:	23020000 	addi	v0,t8,0
     e48:	03650e00 	0x3650e00
     e4c:	86070000 	lh	a3,0(s0)
     e50:	00000be2 	0xbe2
     e54:	00042302 	srl	a0,a0,0xc
     e58:	0009ed07 	0x9ed07
     e5c:	df880700 	ldc3	$8,1792(gp)
     e60:	0d00000c 	jal	4000030 <_init-0x647fffd0>
     e64:	00000d34 	teq	zero,zero,0x34
     e68:	0e960710 	jal	a581c40 <_init-0x5e27e3c0>
     e6c:	00000326 	0x326
     e70:	00699207 	0x699207
     e74:	23020000 	addi	v0,t8,0
     e78:	090d0e00 	j	4343800 <_init-0x644bc800>
     e7c:	95070000 	lhu	a3,0(t0)
     e80:	00000232 	tlt	zero,zero,0x8
     e84:	00042302 	srl	a0,a0,0xc
     e88:	000aee07 	0xaee07
     e8c:	0f960700 	jal	e581c00 <_init-0x5a27e400>
     e90:	0d00000d 	jal	4000034 <_init-0x647fffcc>
     e94:	00000d64 	0xd64
     e98:	0ea40718 	jal	a901c60 <_init-0x5defe3a0>
     e9c:	00000326 	0x326
     ea0:	0069a007 	srav	s4,t1,v1
     ea4:	23020000 	addi	v0,t8,0
     ea8:	0c300e00 	jal	c03800 <_init-0x67bfc800>
     eac:	a3070000 	sb	a3,0(t8)
     eb0:	000001f4 	teq	zero,zero,0x7
     eb4:	00042302 	srl	a0,a0,0xc
     eb8:	000c0f07 	0xc0f07
     ebc:	3fa40700 	0x3fa40700
     ec0:	1000000d 	b	ef8 <_init-0x687ff108>
     ec4:	00000e20 	0xe20
     ec8:	0000041a 	0x41a
     ecc:	0eab07f4 	jal	aac1fd0 <_init-0x5dd3e030>
     ed0:	00000e28 	0xe28
     ed4:	0069ad07 	0x69ad07
     ed8:	23020000 	addi	v0,t8,0
     edc:	64680f00 	0x64680f00
     ee0:	b0070063 	0xb0070063
     ee4:	00000069 	0x69
     ee8:	0e042302 	jal	8108c08 <_init-0x606f73f8>
     eec:	00000b0c 	syscall	0x2c
     ef0:	0e20b307 	jal	882cc1c <_init-0x5ffd33e4>
     ef4:	23020000 	addi	v0,t8,0
     ef8:	063a0e08 	0x63a0e08
     efc:	b6070000 	0xb6070000
     f00:	00000bc2 	srl	at,zero,0xf
     f04:	0e0c2302 	jal	8308c08 <_init-0x604f73f8>
     f08:	00000588 	0x588
     f0c:	0d34ba07 	jal	4d2e81c <_init-0x63ad17e4>
     f10:	23020000 	addi	v0,t8,0
     f14:	08ab0e10 	j	2ac3840 <_init-0x65d3c7c0>
     f18:	bb070000 	swr	a3,0(t8)
     f1c:	00000d64 	0xd64
     f20:	0e202302 	jal	8808c08 <_init-0x5fff73f8>
     f24:	000004bf 	0x4bf
     f28:	0cd4bc07 	jal	352f01c <_init-0x652d0fe4>
     f2c:	23020000 	addi	v0,t8,0
     f30:	09160e38 	j	45838e0 <_init-0x6427c720>
     f34:	bd070000 	cache	0x7,0(t0)
     f38:	00000d04 	0xd04
     f3c:	01e02303 	0x1e02303
     f40:	000e960e 	0xe960e
     f44:	02bf0700 	0x2bf0700
     f48:	0300000c 	syscall	0xc0000
     f4c:	0e01e823 	jal	807a08c <_init-0x60785f74>
     f50:	00002d24 	0x2d24
     f54:	0e3dc207 	jal	8f7081c <_init-0x5f88f7e4>
     f58:	23030000 	addi	v1,t8,0
     f5c:	931401ec 	lbu	s4,492(t8)
     f60:	0100000d 	break	0x100
     f64:	0008180e 	0x8180e
     f68:	43c50700 	c0	0x1c50700
     f6c:	0300000e 	0x300000e
     f70:	0001f023 	negu	s8,at
     f74:	03390404 	0x3390404
     f78:	37150000 	ori	s5,t8,0x0
     f7c:	0100000e 	0x100000e
     f80:	000e3716 	0xe3716
     f84:	00691600 	0x691600
     f88:	04000000 	bltz	zero,f8c <_init-0x687ff074>
     f8c:	000d6f04 	0xd6f04
     f90:	26040400 	addiu	a0,s0,1024
     f94:	0400000e 	bltz	zero,fd0 <_init-0x687ff030>
     f98:	000e0a04 	0xe0a04
     f9c:	04230700 	bgezl	at,2ba0 <_init-0x687fd460>
     fa0:	c6070000 	lwc1	$f7,0(s0)
     fa4:	00000d6f 	0xd6f
     fa8:	0e490404 	jal	9241010 <_init-0x5f5beff0>
     fac:	9f050000 	0x9f050000
     fb0:	0400000e 	bltz	zero,fec <_init-0x687ff014>
     fb4:	ab06240a 	swl	a2,9226(t8)
     fb8:	00000006 	srlv	zero,zero,zero
     fbc:	000c9a06 	0xc9a06
     fc0:	51060100 	beql	t0,a2,13c4 <_init-0x687fec3c>
     fc4:	02000005 	0x2000005
     fc8:	0008d806 	srlv	k1,t0,zero
     fcc:	83060300 	lb	a2,768(t8)
     fd0:	04000009 	bltz	zero,ff8 <_init-0x687ff008>
     fd4:	00101606 	0x101606
     fd8:	24060500 	li	a2,1280
     fdc:	06000009 	bltz	s0,1004 <_init-0x687feffc>
     fe0:	0006ce06 	0x6ce06
     fe4:	60060700 	0x60060700
     fe8:	0800000a 	j	28 <_init-0x687fffd8>
     fec:	00113a06 	0x113a06
     ff0:	07000900 	bltz	t8,33f4 <_init-0x687fcc0c>
     ff4:	000009bb 	0x9bb
     ff8:	0e5a310a 	jal	968c428 <_init-0x5f173bd8>
     ffc:	bf050000 	cache	0x5,0(t8)
    1000:	0400000e 	bltz	zero,103c <_init-0x687fefc4>
    1004:	a506390a 	sh	a2,14602(t0)
    1008:	00000002 	srl	zero,zero,0x0
    100c:	0004f006 	srlv	s8,a0,zero
    1010:	07000100 	bltz	t8,1414 <_init-0x687febec>
    1014:	00000e0e 	0xe0e
    1018:	0eaa3c0a 	jal	aa8f028 <_init-0x5dd70fd8>
    101c:	3f100000 	0x3f100000
    1020:	9200000f 	lbu	zero,15(s0)
    1024:	1c000006 	bgtz	zero,1040 <_init-0x687fefc0>
    1028:	440e560a 	0x440e560a
    102c:	0a000008 	j	8000020 <_init-0x607fffe0>
    1030:	000e9f58 	0xe9f58
    1034:	00230200 	0x230200
    1038:	00109d0e 	0x109d0e
    103c:	2e5a0a00 	sltiu	k0,s2,2560
    1040:	02000000 	0x2000000
    1044:	ae0e0423 	sw	t6,1059(s0)
    1048:	0a00000c 	j	8000030 <_init-0x607fffd0>
    104c:	0000695d 	0x695d
    1050:	08230200 	j	8c0800 <_init-0x67f3f800>
    1054:	0008e90e 	0x8e90e
    1058:	695f0a00 	0x695f0a00
    105c:	02000000 	0x2000000
    1060:	240e0c23 	li	t6,3107
    1064:	0a00002d 	j	80000b4 <_init-0x607fff4c>
    1068:	000f5662 	0xf5662
    106c:	10230200 	beq	at,v1,1870 <_init-0x687fe790>
    1070:	000e280e 	0xe280e
    1074:	69650a00 	0x69650a00
    1078:	02000000 	0x2000000
    107c:	77141423 	jalx	c50508c <_init-0x5c2faf74>
    1080:	01000005 	0x1000005
    1084:	0002590e 	0x2590e
    1088:	5c680a00 	0x5c680a00
    108c:	0200000f 	0x200000f
    1090:	15001823 	bnez	t0,7120 <_init-0x687f8ee0>
    1094:	00000f50 	0xf50
    1098:	0f501601 	jal	d405804 <_init-0x5b3fa7fc>
    109c:	bf160000 	cache	0x16,0(t8)
    10a0:	0000000e 	0xe
    10a4:	0eca0404 	jal	b281010 <_init-0x5d57eff0>
    10a8:	04040000 	0x4040000
    10ac:	00000f3f 	0xf3f
    10b0:	0f2a0404 	jal	ca81010 <_init-0x5bd7eff0>
    10b4:	62070000 	0x62070000
    10b8:	0a000005 	j	8000014 <_init-0x607fffec>
    10bc:	000eca69 	0xeca69
    10c0:	62040400 	0x62040400
    10c4:	0500000f 	bltz	t0,1104 <_init-0x687feefc>
    10c8:	00000fbe 	0xfbe
    10cc:	062f0c04 	0x62f0c04
    10d0:	000004cc 	syscall	0x13
    10d4:	0e7f0600 	jal	9fc1800 <_init-0x5e83e800>
    10d8:	06010000 	bgez	s0,10dc <_init-0x687fef24>
    10dc:	00000509 	0x509
    10e0:	0b6e0602 	j	db81808 <_init-0x5ac7e7f8>
    10e4:	06030000 	bgezl	s0,10e8 <_init-0x687fef18>
    10e8:	000001db 	0x1db
    10ec:	02c70604 	0x2c70604
    10f0:	06050000 	0x6050000
    10f4:	0000116e 	0x116e
    10f8:	08650606 	j	1941818 <_init-0x66ebe7e8>
    10fc:	06070000 	0x6070000
    1100:	0000075f 	0x75f
    1104:	0f9b0608 	jal	e6c1820 <_init-0x5a13e7e0>
    1108:	06090000 	tgeiu	s0,0
    110c:	00000a82 	srl	at,zero,0xa
    1110:	8007000a 	lb	a3,10(zero)
    1114:	0c000007 	jal	1c <_init-0x687fffe4>
    1118:	000f733b 	0xf733b
    111c:	10061000 	beq	zero,a2,5120 <_init-0x687faee0>
    1120:	0aa90000 	j	aa40000 <_init-0x5ddc0000>
    1124:	0c0c0000 	jal	300000 <_init-0x68500000>
    1128:	0e280e42 	jal	8a03908 <_init-0x5fdfc6f8>
    112c:	440c0000 	mfc1	t4,$f0
    1130:	00000069 	0x69
    1134:	0e002302 	jal	8008c08 <_init-0x607f73f8>
    1138:	00002d24 	0x2d24
    113c:	101d470c 	beq	zero,sp,12d70 <_init-0x687ed290>
    1140:	23020000 	addi	v0,t8,0
    1144:	0a1b1404 	j	86c5010 <_init-0x6013aff0>
    1148:	0e010000 	jal	8040000 <_init-0x607c0000>
    114c:	00000cbe 	0xcbe
    1150:	10234a0c 	beq	at,v1,13984 <_init-0x687ec67c>
    1154:	23020000 	addi	v0,t8,0
    1158:	17150008 	bne	t8,s5,117c <_init-0x687fee84>
    115c:	01000010 	0x1000010
    1160:	00101716 	0x101716
    1164:	0fbe1600 	jal	ef85800 <_init-0x5987a800>
    1168:	04000000 	bltz	zero,116c <_init-0x687fee94>
    116c:	000fc904 	0xfc904
    1170:	06040400 	0x6040400
    1174:	04000010 	bltz	zero,11b8 <_init-0x687fee48>
    1178:	000ff104 	0xff104
    117c:	0ab20700 	j	ac81c00 <_init-0x5db7e400>
    1180:	4c0c0000 	lwxc1	$f0,t4(zero)
    1184:	00000fc9 	0xfc9
    1188:	10290404 	beq	at,t1,219c <_init-0x687fde64>
    118c:	4f050000 	lwxc1	$f0,a1(t8)
    1190:	04000010 	bltz	zero,11d4 <_init-0x687fee2c>
    1194:	ef061103 	swc3	$6,4355(t8)
    1198:	00000011 	mthi	zero
    119c:	00070e06 	0x70e06
    11a0:	07000100 	bltz	t8,15a4 <_init-0x687fea5c>
    11a4:	00000ee8 	0xee8
    11a8:	103a1303 	beq	at,k0,5db8 <_init-0x687fa248>
    11ac:	c50d0000 	lwc1	$f13,0(t0)
    11b0:	1c000010 	bgtz	zero,11f4 <_init-0x687fee0c>
    11b4:	f50e2503 	sdc1	$f14,9475(t0)
    11b8:	0300000d 	break	0x300
    11bc:	00056919 	0x56919
    11c0:	00230200 	0x230200
    11c4:	000dee0e 	0xdee0e
    11c8:	691a0300 	0x691a0300
    11cc:	02000005 	0x2000005
    11d0:	c20e0423 	ll	t6,1059(s0)
    11d4:	0300000f 	0x300000f
    11d8:	00005e1c 	0x5e1c
    11dc:	08230200 	j	8c0800 <_init-0x67f3f800>
    11e0:	00080e0e 	0x80e0e
    11e4:	5e1d0300 	0x5e1d0300
    11e8:	02000000 	0x2000000
    11ec:	bb0e0c23 	swr	t6,3107(t8)
    11f0:	0300000a 	movz	zero,t8,zero
    11f4:	00006920 	0x6920
    11f8:	10230200 	beq	at,v1,19fc <_init-0x687fe604>
    11fc:	00061b0e 	0x61b0e
    1200:	69210300 	0x69210300
    1204:	02000000 	0x2000000
    1208:	cc0e1423 	pref	0xe,5155(zero)
    120c:	0300000d 	break	0x300
    1210:	00104f24 	0x104f24
    1214:	18230200 	0x18230200
    1218:	049a0700 	0x49a0700
    121c:	25030000 	addiu	v1,t0,0
    1220:	0000105a 	0x105a
    1224:	0012bd0d 	break	0x12,0x2f4
    1228:	6003a000 	0x6003a000
    122c:	000d7b0e 	0xd7b0e
    1230:	c52a0300 	lwc1	$f10,768(t1)
    1234:	02000010 	0x2000010
    1238:	bf0e0023 	cache	0xe,35(t8)
    123c:	0300000e 	0x300000e
    1240:	0000692d 	0x692d
    1244:	1c230200 	0x1c230200
    1248:	0005b20e 	0x5b20e
    124c:	bd300300 	cache	0x10,768(t1)
    1250:	02000012 	0x2000012
    1254:	d20e2023 	0xd20e2023
    1258:	03000007 	srav	zero,zero,t8
    125c:	0012bd31 	tgeu	zero,s2,0x2f4
    1260:	24230200 	addiu	v1,at,512
    1264:	000a560e 	0xa560e
    1268:	c3330300 	ll	s3,768(t9)
    126c:	02000012 	0x2000012
    1270:	6a0e2823 	0x6a0e2823
    1274:	0300000f 	0x300000f
    1278:	0012c335 	0x12c335
    127c:	2c230200 	sltiu	v1,at,512
    1280:	0012270e 	0x12270e
    1284:	c3360300 	ll	s6,768(t9)
    1288:	02000012 	0x2000012
    128c:	840e3023 	lh	t6,12323(zero)
    1290:	0300000f 	0x300000f
    1294:	0012c337 	0x12c337
    1298:	34230200 	ori	v1,at,0x200
    129c:	000dc40e 	0xdc40e
    12a0:	c3380300 	ll	t8,768(t9)
    12a4:	02000012 	0x2000012
    12a8:	610e3823 	0x610e3823
    12ac:	0300000f 	0x300000f
    12b0:	0012c339 	0x12c339
    12b4:	3c230200 	0x3c230200
    12b8:	00074f0e 	0x74f0e
    12bc:	c33b0300 	ll	k1,768(t9)
    12c0:	02000012 	0x2000012
    12c4:	280e4023 	slti	t6,zero,16419
    12c8:	03000005 	0x3000005
    12cc:	0012c33c 	0x12c33c
    12d0:	44230200 	0x44230200
    12d4:	000b1c0e 	0xb1c0e
    12d8:	c33d0300 	ll	sp,768(t9)
    12dc:	02000012 	0x2000012
    12e0:	bc0e4823 	cache	0xe,18467(zero)
    12e4:	03000008 	jr	t8
    12e8:	0012c33f 	0x12c33f
    12ec:	4c230200 	lwxc1	$f8,v1(at)
    12f0:	000b5a0e 	0xb5a0e
    12f4:	c3400300 	ll	zero,768(k0)
    12f8:	02000012 	0x2000012
    12fc:	4c0e5023 	0x4c0e5023
    1300:	03000004 	sllv	zero,zero,t8
    1304:	0012c341 	0x12c341
    1308:	54230200 	bnel	at,v1,1b0c <_init-0x687fe4f4>
    130c:	0009940e 	0x9940e
    1310:	c3420300 	ll	v0,768(k0)
    1314:	02000012 	0x2000012
    1318:	d20e5823 	0xd20e5823
    131c:	03000005 	0x3000005
    1320:	0012c343 	sra	t8,s2,0xd
    1324:	5c230200 	0x5c230200
    1328:	000d880e 	0xd880e
    132c:	c3440300 	ll	a0,768(k0)
    1330:	02000012 	0x2000012
    1334:	c00e6023 	ll	t6,24611(zero)
    1338:	0300000b 	movn	zero,t8,zero
    133c:	0012c348 	0x12c348
    1340:	64230200 	0x64230200
    1344:	000c4b0e 	0xc4b0e
    1348:	c34a0300 	ll	t2,768(k0)
    134c:	02000012 	0x2000012
    1350:	ea0e6823 	swc2	$14,26659(s0)
    1354:	0300002e 	0x300002e
    1358:	000ad04c 	syscall	0x2b41
    135c:	6c230200 	0x6c230200
    1360:	0005300e 	0x5300e
    1364:	544d0300 	bnel	v0,t5,1f68 <_init-0x687fe098>
    1368:	0200000e 	0x200000e
    136c:	640e7023 	0x640e7023
    1370:	0300002e 	0x300002e
    1374:	0007604e 	0x7604e
    1378:	74230200 	jalx	8c0800 <_init-0x67f3f800>
    137c:	676c640f 	0x676c640f
    1380:	6d4f0300 	0x6d4f0300
    1384:	0200000f 	0x200000f
    1388:	0c0e7823 	jal	39e08c <_init-0x68461f74>
    138c:	03000017 	0x3000017
    1390:	0008df50 	0x8df50
    1394:	7c230200 	ext	v1,at,0x8,0x1
    1398:	002c510e 	0x2c510e
    139c:	34510300 	ori	s1,v0,0x300
    13a0:	03000010 	0x3000010
    13a4:	0e018023 	jal	806008c <_init-0x6079ff74>
    13a8:	00002e08 	0x2e08
    13ac:	0b955203 	j	e55480c <_init-0x5a2ab7f4>
    13b0:	23030000 	addi	v1,t8,0
    13b4:	8e0e0184 	lw	t6,388(s0)
    13b8:	03000010 	0x3000010
    13bc:	00090053 	0x90053
    13c0:	88230300 	lwl	v1,768(at)
    13c4:	028c0e01 	0x28c0e01
    13c8:	56030000 	bnel	s0,v1,13cc <_init-0x687fec34>
    13cc:	00000069 	0x69
    13d0:	018c2303 	0x18c2303
    13d4:	0002610e 	0x2610e
    13d8:	69570300 	0x69570300
    13dc:	03000000 	0x3000000
    13e0:	0e019023 	jal	806408c <_init-0x6079bf74>
    13e4:	0000026c 	0x26c
    13e8:	00695803 	0x695803
    13ec:	23030000 	addi	v1,t8,0
    13f0:	b50e0194 	0xb50e0194
    13f4:	03000010 	0x3000010
    13f8:	0000695b 	0x695b
    13fc:	98230300 	lwr	v1,768(at)
    1400:	10550e01 	beq	v0,s5,4c08 <_init-0x687fb3f8>
    1404:	5e030000 	0x5e030000
    1408:	00000069 	0x69
    140c:	019c2303 	0x19c2303
    1410:	9b040400 	lwr	a0,1024(t8)
    1414:	04000004 	bltz	zero,1428 <_init-0x687febd8>
    1418:	00042904 	0x42904
    141c:	10f40700 	beq	a3,s4,3020 <_init-0x687fcfe0>
    1420:	60030000 	0x60030000
    1424:	000010d0 	0x10d0
    1428:	00132618 	0x132618
    142c:	06290100 	tgeiu	s1,256
    1430:	1d010000 	0x1d010000
    1434:	00005e01 	0x5e01
    1438:	80006400 	lb	zero,25600(zero)
    143c:	80015068 	lb	at,20584(zero)
    1440:	196d0168 	0x196d0168
    1444:	00000333 	tltu	zero,zero,0xc
    1448:	13261c01 	beq	t9,a2,8450 <_init-0x687f7bb0>
    144c:	61010000 	0x61010000
    1450:	0008b719 	0x8b719
    1454:	691c0100 	0x691c0100
    1458:	01000000 	0x1000000
    145c:	09c91a55 	j	7246954 <_init-0x615b96ac>
    1460:	1e010000 	0x1e010000
    1464:	00000815 	0x815
    1468:	1a109102 	0x1a109102
    146c:	00002b38 	0x2b38
    1470:	06461f01 	0x6461f01
    1474:	91020000 	lbu	v0,0(t0)
    1478:	04040020 	0x4040020
    147c:	000012c9 	0x12c9
    1480:	00136218 	0x136218
    1484:	03ed0100 	0x3ed0100
    1488:	46010000 	add.s	$f0,$f0,$f1
    148c:	00005e01 	0x5e01
    1490:	80015000 	lb	at,20480(zero)
    1494:	80018868 	lb	at,-30616(zero)
    1498:	196d0168 	0x196d0168
    149c:	0000170c 	syscall	0x5c
    14a0:	08df4501 	j	37d1404 <_init-0x6502ebfc>
    14a4:	54010000 	bnel	zero,at,14a8 <_init-0x687feb58>
    14a8:	0003131a 	0x3131a
    14ac:	5e470100 	0x5e470100
    14b0:	01000000 	0x1000000
    14b4:	931b0055 	lbu	k1,85(t8)
    14b8:	5a000013 	blezl	s0,1508 <_init-0x687feaf8>
    14bc:	0100000e 	0x100000e
    14c0:	01880153 	0x1880153
    14c4:	028c6880 	0x28c6880
    14c8:	6d016880 	0x6d016880
    14cc:	00170c19 	0x170c19
    14d0:	df520100 	ldc3	$18,256(k0)
    14d4:	01000008 	jr	t0
    14d8:	69731c61 	0x69731c61
    14dc:	52010067 	beql	s0,at,167c <_init-0x687fe984>
    14e0:	000007c5 	0x7c5
    14e4:	1d005301 	bgtz	t0,160ec <_init-0x687e9f14>
    14e8:	00000030 	tge	zero,zero
    14ec:	00bba911 	0xbba911
    14f0:	05010000 	bgez	t0,14f4 <_init-0x687feb0c>
    14f4:	80736403 	lb	s3,25603(v1)
    14f8:	00741d68 	0x741d68
    14fc:	b5110000 	0xb5110000
    1500:	000000e2 	0xe2
    1504:	68030501 	0x68030501
    1508:	1e688073 	0x1e688073
    150c:	00000c6a 	0xc6a
    1510:	01950701 	0x1950701
    1514:	01010000 	0x1010000
    1518:	000a021e 	0xa021e
    151c:	26080100 	addiu	t0,s0,256
    1520:	01000013 	mtlo	t0
    1524:	11e21e01 	beq	t7,v0,8d2c <_init-0x687f72d4>
    1528:	09010000 	j	4040000 <_init-0x647c0000>
    152c:	00000069 	0x69
    1530:	691e0101 	0x691e0101
    1534:	0100000e 	0x100000e
    1538:	0001230a 	0x1230a
    153c:	1e010100 	0x1e010100
    1540:	000005c7 	0x5c7
    1544:	066c0b01 	teqi	s3,2817
    1548:	01010000 	0x1010000
    154c:	0011d31d 	0x11d31d
    1550:	b9100100 	swr	s0,256(t0)
    1554:	0100000a 	movz	zero,t0,zero
    1558:	70140305 	0x70140305
    155c:	371d6880 	ori	sp,t8,0x6880
    1560:	01000007 	srav	zero,zero,t0
    1564:	0000f711 	0xf711
    1568:	03050100 	0x3050100
    156c:	6880736c 	0x6880736c
    1570:	0010dc1d 	0x10dc1d
    1574:	f7120100 	sdc1	$f18,256(t8)
    1578:	01000000 	0x1000000
    157c:	776c0305 	jalx	db00c14 <_init-0x5acff3ec>
    1580:	391d6880 	xori	sp,t0,0x6880
    1584:	01000010 	0x1000010
    1588:	0000f713 	0xf713
    158c:	03050100 	0x3050100
    1590:	68807b6c 	0x68807b6c
    1594:	00184800 	sll	t1,t8,0x0
    1598:	3e000200 	0x3e000200
    159c:	04000002 	bltz	zero,15a8 <_init-0x687fea58>
    15a0:	0002be01 	0x2be01
    15a4:	800cbc00 	lb	t4,-17408(zero)
    15a8:	80028c68 	lb	v0,-29592(zero)
    15ac:	00008968 	0x8968
    15b0:	135c0100 	beq	k0,gp,19b4 <_init-0x687fe64c>
    15b4:	00dc0000 	0xdc0000
    15b8:	00020000 	sll	zero,v0,0x0
    15bc:	01000000 	0x1000000
    15c0:	02040308 	0x2040308
    15c4:	000000bb 	0xbb
    15c8:	8c020702 	lw	v0,1794(zero)
    15cc:	04000001 	bltz	zero,15d4 <_init-0x687fea2c>
    15d0:	01910207 	0x1910207
    15d4:	07040000 	0x7040000
    15d8:	003c0404 	0x3c0404
    15dc:	5e050000 	0x5e050000
    15e0:	04000000 	bltz	zero,15e4 <_init-0x687fea1c>
    15e4:	c2062602 	ll	a2,9730(s0)
    15e8:	00000003 	sra	zero,zero,0x0
    15ec:	000dd606 	0xdd606
    15f0:	07000100 	bltz	t8,19f4 <_init-0x687fe60c>
    15f4:	00000486 	0x486
    15f8:	00492902 	0x492902
    15fc:	69080000 	0x69080000
    1600:	0400746e 	bltz	zero,1e7bc <_init-0x687e1844>
    1604:	01b50205 	0x1b50205
    1608:	05080000 	tgei	t0,0
    160c:	00018c02 	srl	s1,at,0x10
    1610:	02070400 	0x2070400
    1614:	000001ba 	0x1ba
    1618:	09020504 	j	4081410 <_init-0x6477ebf0>
    161c:	01000000 	0x1000000
    1620:	01490206 	0x1490206
    1624:	05020000 	bltzl	t0,1628 <_init-0x687fe9d8>
    1628:	00018702 	srl	s0,at,0x1c
    162c:	04070800 	0x4070800
    1630:	0000a004 	sllv	s4,zero,zero
    1634:	00850900 	0x850900
    1638:	04040000 	0x4040000
    163c:	00000085 	0x85
    1640:	0000bb0a 	0xbb0a
    1644:	00002500 	sll	a0,zero,0x14
    1648:	00350b00 	0x350b00
    164c:	000f0000 	sll	zero,t7,0x0
    1650:	0000e205 	0xe205
    1654:	a3130400 	sb	s3,1024(t8)
    1658:	00015306 	0x15306
    165c:	31060000 	andi	a2,t0,0x0
    1660:	01000001 	movf	zero,t0,$fcc0
    1664:	00005b06 	0x5b06
    1668:	1a060200 	0x1a060200
    166c:	03000000 	0x3000000
    1670:	00004506 	0x4506
    1674:	05000000 	bltz	t0,1678 <_init-0x687fe988>
    1678:	000000f7 	0xf7
    167c:	06b01304 	bltzal	s5,6290 <_init-0x687f9d70>
    1680:	000001c3 	sra	zero,zero,0x7
    1684:	019e0600 	0x19e0600
    1688:	00010000 	sll	zero,at,0x0
    168c:	00012a0c 	syscall	0x4a8
    1690:	53142800 	beql	t8,s4,b694 <_init-0x687f496c>
    1694:	00149e0d 	break	0x14,0x278
    1698:	2a501400 	slti	s0,s2,5120
    169c:	02000001 	movf	zero,s0,$fcc0
    16a0:	090d0023 	j	434008c <_init-0x644bff74>
    16a4:	14000013 	bnez	zero,16f4 <_init-0x687fe90c>
    16a8:	00006951 	0x6951
    16ac:	20230200 	addi	v1,at,512
    16b0:	0013ad0d 	break	0x13,0x2b4
    16b4:	69521400 	0x69521400
    16b8:	02000000 	0x2000000
    16bc:	0a002423 	j	800908c <_init-0x607f6f74>
    16c0:	0000013a 	0x13a
    16c4:	00000069 	0x69
    16c8:	0000350b 	0x350b
    16cc:	07000700 	bltz	t8,32d0 <_init-0x687fcd30>
    16d0:	00001415 	0x1415
    16d4:	00f75314 	0xf75314
    16d8:	860c0000 	lh	t4,0(s0)
    16dc:	0c000001 	jal	4 <_init-0x687ffffc>
    16e0:	060d790e 	0x60d790e
    16e4:	0e000003 	jal	800000c <_init-0x607ffff4>
    16e8:	00002e72 	tlt	zero,zero,0xb9
    16ec:	00230200 	0x230200
    16f0:	0007b30d 	break	0x7,0x2cc
    16f4:	2e740e00 	sltiu	s4,s3,3584
    16f8:	02000000 	0x2000000
    16fc:	f80d0223 	sdc2	$13,547(zero)
    1700:	0e000002 	jal	8000008 <_init-0x607ffff8>
    1704:	00002e76 	tne	zero,zero,0xb9
    1708:	04230200 	bgezl	at,1f0c <_init-0x687fe0f4>
    170c:	000e220d 	break	0xe,0x88
    1710:	86780e00 	lh	t8,3584(s3)
    1714:	02000001 	movf	zero,s0,$fcc0
    1718:	04000823 	bltz	zero,37a8 <_init-0x687fc858>
    171c:	00018c04 	0x18c04
    1720:	00250900 	0x250900
    1724:	49070000 	bc2tl	$cc1,1728 <_init-0x687fe8d8>
    1728:	0e000009 	jal	8000024 <_init-0x607fffdc>
    172c:	00014579 	0x14579
    1730:	01ac0a00 	0x1ac0a00
    1734:	00850000 	0x850000
    1738:	350b0000 	ori	t3,t0,0x0
    173c:	07000000 	bltz	t8,1740 <_init-0x687fe8c0>
    1740:	01bc0a00 	0x1bc0a00
    1744:	00850000 	0x850000
    1748:	350b0000 	ori	t3,t0,0x0
    174c:	13000000 	beqz	t8,1750 <_init-0x687fe8b0>
    1750:	020b0c00 	0x20b0c00
    1754:	08140000 	j	500000 <_init-0x68300000>
    1758:	02e80d42 	0x2e80d42
    175c:	39080000 	xori	t0,t0,0x0
    1760:	00000069 	0x69
    1764:	0d002302 	jal	4008c08 <_init-0x647f73f8>
    1768:	00000759 	0x759
    176c:	00693b08 	0x693b08
    1770:	23020000 	addi	v0,t8,0
    1774:	61640e04 	0x61640e04
    1778:	3d080079 	0x3d080079
    177c:	00000069 	0x69
    1780:	0d082302 	jal	4208c08 <_init-0x645f73f8>
    1784:	00000653 	0x653
    1788:	00693f08 	0x693f08
    178c:	23020000 	addi	v0,t8,0
    1790:	1fcd0d0c 	0x1fcd0d0c
    1794:	41080000 	mftc0	zero,c0_badvaddr
    1798:	00000085 	0x85
    179c:	00102302 	srl	a0,s0,0xc
    17a0:	000d1207 	0xd1207
    17a4:	bc420800 	cache	0x2,2048(v0)
    17a8:	0c000001 	jal	4 <_init-0x687ffffc>
    17ac:	00000249 	0x249
    17b0:	0d50080c 	jal	5402030 <_init-0x633fdfd0>
    17b4:	00000968 	0x968
    17b8:	00694b08 	0x694b08
    17bc:	23020000 	addi	v0,t8,0
    17c0:	0b250d00 	j	c943400 <_init-0x5bebcc00>
    17c4:	4d080000 	lwxc1	$f0,t0(t0)
    17c8:	00000069 	0x69
    17cc:	0d042302 	jal	4108c08 <_init-0x646f73f8>
    17d0:	00000b67 	0xb67
    17d4:	00694f08 	0x694f08
    17d8:	23020000 	addi	v0,t8,0
    17dc:	e2070008 	sc	a3,8(s0)
    17e0:	08000006 	j	18 <_init-0x687fffe8>
    17e4:	00021650 	0x21650
    17e8:	03260500 	0x3260500
    17ec:	12040000 	beq	s0,a0,17f0 <_init-0x687fe810>
    17f0:	1339061f 	beq	t9,t9,3070 <_init-0x687fcf90>
    17f4:	06000000 	bltz	s0,17f8 <_init-0x687fe808>
    17f8:	00001618 	0x1618
    17fc:	140c0601 	bne	zero,t4,3004 <_init-0x687fcffc>
    1800:	06020000 	bltzl	s0,1804 <_init-0x687fe7fc>
    1804:	00001514 	0x1514
    1808:	15ff0604 	bne	t7,ra,301c <_init-0x687fcfe4>
    180c:	06080000 	tgei	s0,0
    1810:	0000160f 	0x160f
    1814:	151c0610 	bne	t0,gp,3058 <_init-0x687fcfa8>
    1818:	06200000 	bltz	s1,181c <_init-0x687fe7e4>
    181c:	00001608 	0x1608
    1820:	240600c0 	li	a2,192
    1824:	80000013 	lb	zero,19(zero)
    1828:	13730601 	beq	k1,s3,3030 <_init-0x687fcfd0>
    182c:	02800000 	0x2800000
    1830:	00123806 	srlv	a3,s2,zero
    1834:	06048000 	0x6048000
    1838:	000015a9 	0x15a9
    183c:	7d060880 	ext	a2,t0,0x2,0x2
    1840:	80000013 	lb	zero,19(zero)
    1844:	15680610 	bne	t3,t0,3088 <_init-0x687fcf78>
    1848:	20800000 	addi	zero,a0,0
    184c:	00157506 	0x157506
    1850:	00c08000 	0xc08000
    1854:	00158206 	0x158206
    1858:	01808000 	0x1808000
    185c:	00158f06 	0x158f06
    1860:	02808000 	0x2808000
    1864:	00152506 	0x152506
    1868:	04808000 	bltz	a0,fffe186c <emuqueue+0x977d95c8>
    186c:	00159c06 	0x159c06
    1870:	08808000 	j	2020000 <_init-0x667e0000>
    1874:	00153206 	0x153206
    1878:	10808000 	beqz	a0,fffe187c <emuqueue+0x977d95d8>
    187c:	00127e06 	0x127e06
    1880:	20808000 	addi	zero,a0,-32768
    1884:	00128c06 	0x128c06
    1888:	c0808000 	ll	zero,-32768(a0)
    188c:	129a0600 	beq	s4,k0,3090 <_init-0x687fcf70>
    1890:	80800000 	lb	zero,0(a0)
    1894:	a8060180 	swl	a2,384(zero)
    1898:	80000012 	lb	zero,18(zero)
    189c:	06028080 	bltzl	s0,fffe1aa0 <emuqueue+0x977d97fc>
    18a0:	000012b6 	tne	zero,zero,0x4a
    18a4:	04808080 	bltz	a0,fffe1aa8 <emuqueue+0x977d9804>
    18a8:	0013ba06 	0x13ba06
    18ac:	80808000 	lb	zero,-32768(a0)
    18b0:	12c40608 	beq	s6,a0,30d4 <_init-0x687fcf2c>
    18b4:	80800000 	lb	zero,0(a0)
    18b8:	07001080 	bltz	t8,5abc <_init-0x687fa544>
    18bc:	00001388 	0x1388
    18c0:	02543d12 	0x2543d12
    18c4:	83050000 	lb	a1,0(t8)
    18c8:	04000003 	bltz	zero,18d8 <_init-0x687fe728>
    18cc:	9f061b11 	0x9f061b11
    18d0:	00000013 	mtlo	zero
    18d4:	0015f106 	0x15f106
    18d8:	80808000 	lb	zero,-32768(a0)
    18dc:	4f060280 	lwxc1	$f10,a2(t8)
    18e0:	80000014 	lb	zero,20(zero)
    18e4:	01808080 	0x1808080
    18e8:	0014e006 	srlv	gp,s4,zero
    18ec:	80808000 	lb	zero,-32768(a0)
    18f0:	d50600c0 	ldc1	$f6,192(t0)
    18f4:	80000015 	lb	zero,21(zero)
    18f8:	06208080 	bltz	s1,fffe1afc <emuqueue+0x977d9858>
    18fc:	000014cf 	0x14cf
    1900:	10808080 	beqz	a0,fffe1b04 <emuqueue+0x977d9860>
    1904:	00142706 	0x142706
    1908:	80808000 	lb	zero,-32768(a0)
    190c:	13920608 	beq	gp,s2,3130 <_init-0x687fced0>
    1910:	80800000 	lb	zero,0(a0)
    1914:	0003f880 	sll	ra,v1,0x2
    1918:	0015b607 	0x15b607
    191c:	31251100 	andi	a1,t1,0x1100
    1920:	0c000003 	jal	c <_init-0x687ffff4>
    1924:	000003b3 	tltu	zero,zero,0xe
    1928:	0e2c1108 	jal	8b04420 <_init-0x5fcfbbe0>
    192c:	006c6176 	tne	v1,t4,0x185
    1930:	03262a11 	0x3262a11
    1934:	23020000 	addi	v0,t8,0
    1938:	1fcd0d00 	0x1fcd0d00
    193c:	2b110000 	slti	s1,t8,0
    1940:	00000383 	sra	zero,zero,0xe
    1944:	00042302 	srl	a0,a0,0xc
    1948:	00125707 	0x125707
    194c:	8e2c1100 	lw	t4,4352(s1)
    1950:	0f000003 	jal	c00000c <_init-0x5c7ffff4>
    1954:	000003f4 	teq	zero,zero,0xf
    1958:	00000de3 	0xde3
    195c:	0d530609 	jal	54c1824 <_init-0x6333e7dc>
    1960:	00001fcd 	break	0x0,0x7f
    1964:	00255506 	0x255506
    1968:	23020000 	addi	v0,t8,0
    196c:	64690e00 	0x64690e00
    1970:	3c570600 	0x3c570600
    1974:	02000000 	0x2000000
    1978:	c00d0123 	ll	t5,291(zero)
    197c:	06000002 	bltz	s0,1988 <_init-0x687fe678>
    1980:	00004359 	0x4359
    1984:	05230200 	bgezl	t1,2188 <_init-0x687fde78>
    1988:	03860700 	0x3860700
    198c:	5b060000 	0x5b060000
    1990:	000003be 	0x3be
    1994:	0004ba0c 	syscall	0x12e8
    1998:	81062500 	lb	a2,9472(t0)
    199c:	0011650d 	break	0x11,0x194
    19a0:	f4640600 	sdc1	$f4,1536(v1)
    19a4:	02000003 	0x2000003
    19a8:	370d0023 	ori	t5,t8,0x23
    19ac:	06000009 	bltz	s0,19d4 <_init-0x687fe62c>
    19b0:	00008c67 	0x8c67
    19b4:	09230200 	j	48c0800 <_init-0x63f3f800>
    19b8:	0009780d 	break	0x9,0x1e0
    19bc:	8c690600 	lw	t1,1536(v1)
    19c0:	02000000 	0x2000000
    19c4:	780e0b23 	0x780e0b23
    19c8:	8c6b0600 	lw	t3,1536(v1)
    19cc:	02000000 	0x2000000
    19d0:	790e0d23 	0x790e0d23
    19d4:	8c6d0600 	lw	t5,1536(v1)
    19d8:	02000000 	0x2000000
    19dc:	d60d0f23 	ldc1	$f13,3875(s0)
    19e0:	06000010 	bltz	s0,1a24 <_init-0x687fe5dc>
    19e4:	00008c70 	tge	zero,zero,0x231
    19e8:	11230200 	beq	t1,v1,21ec <_init-0x687fde14>
    19ec:	000bb90d 	break	0xb,0x2e4
    19f0:	8c720600 	lw	s2,1536(v1)
    19f4:	02000000 	0x2000000
    19f8:	2c0d1323 	sltiu	t5,zero,4899
    19fc:	0600000b 	bltz	s0,1a2c <_init-0x687fe5d4>
    1a00:	00003c74 	teq	zero,zero,0xf1
    1a04:	15230200 	bne	t1,v1,2208 <_init-0x687fddf8>
    1a08:	0008060d 	break	0x8,0x18
    1a0c:	25760600 	addiu	s6,t3,1536
    1a10:	02000000 	0x2000000
    1a14:	070d1923 	0x70d1923
    1a18:	06000007 	bltz	s0,1a38 <_init-0x687fe5c8>
    1a1c:	00002578 	0x2578
    1a20:	1a230200 	0x1a230200
    1a24:	000edb0d 	break	0xe,0x36c
    1a28:	2e7a0600 	sltiu	k0,s3,1536
    1a2c:	02000000 	0x2000000
    1a30:	e00d1b23 	sc	t5,6947(zero)
    1a34:	0600000c 	bltz	s0,1a68 <_init-0x687fe598>
    1a38:	00003c7d 	0x3c7d
    1a3c:	1d230200 	0x1d230200
    1a40:	0002ba0d 	break	0x2,0x2e8
    1a44:	3c7f0600 	0x3c7f0600
    1a48:	02000000 	0x2000000
    1a4c:	07002123 	bltz	t8,9edc <_init-0x687f6124>
    1a50:	00000ced 	0xced
    1a54:	03ff8106 	0x3ff8106
    1a58:	aa0c0000 	swl	t4,0(s0)
    1a5c:	25000005 	addiu	zero,t0,5
    1a60:	650ddf06 	0x650ddf06
    1a64:	06000011 	bltz	s0,1aac <_init-0x687fe554>
    1a68:	0003f4bd 	0x3f4bd
    1a6c:	00230200 	0x230200
    1a70:	0600780e 	bltz	s0,1faac <_init-0x687e0554>
    1a74:	00008cbf 	0x8cbf
    1a78:	09230200 	j	48c0800 <_init-0x63f3f800>
    1a7c:	0600790e 	bltz	s0,1feb8 <_init-0x687e0148>
    1a80:	00008cc1 	0x8cc1
    1a84:	0b230200 	j	c8c0800 <_init-0x5bf3f800>
    1a88:	0010d60d 	break	0x10,0x358
    1a8c:	8cc30600 	lw	v1,1536(a2)
    1a90:	02000000 	0x2000000
    1a94:	b90d0d23 	swr	t5,3363(t0)
    1a98:	0600000b 	bltz	s0,1ac8 <_init-0x687fe538>
    1a9c:	00008cc5 	0x8cc5
    1aa0:	0f230200 	jal	c8c0800 <_init-0x5bf3f800>
    1aa4:	0003730d 	break	0x3,0x1cc
    1aa8:	3cc70600 	0x3cc70600
    1aac:	02000000 	0x2000000
    1ab0:	2c0d1123 	sltiu	t5,zero,4387
    1ab4:	0600000b 	bltz	s0,1ae4 <_init-0x687fe51c>
    1ab8:	00003cc9 	0x3cc9
    1abc:	15230200 	bne	t1,v1,22c0 <_init-0x687fdd40>
    1ac0:	0008060d 	break	0x8,0x18
    1ac4:	25cb0600 	addiu	t3,t6,1536
    1ac8:	02000000 	0x2000000
    1acc:	a10d1923 	sb	t5,6435(t0)
    1ad0:	06000009 	bltz	s0,1af8 <_init-0x687fe508>
    1ad4:	000025cd 	break	0x0,0x97
    1ad8:	1a230200 	0x1a230200
    1adc:	000e9b0d 	break	0xe,0x26c
    1ae0:	25cf0600 	addiu	t7,t6,1536
    1ae4:	02000000 	0x2000000
    1ae8:	b40d1b23 	0xb40d1b23
    1aec:	0600000b 	bltz	s0,1b1c <_init-0x687fe4e4>
    1af0:	000025d1 	0x25d1
    1af4:	1c230200 	0x1c230200
    1af8:	00109d0d 	break	0x10,0x274
    1afc:	2ed50600 	sltiu	s5,s6,1536
    1b00:	02000000 	0x2000000
    1b04:	0c0d1d23 	jal	34748c <_init-0x684b8b74>
    1b08:	06000003 	bltz	s0,1b18 <_init-0x687fe4e8>
    1b0c:	000025d7 	0x25d7
    1b10:	1f230200 	0x1f230200
    1b14:	0006580d 	break	0x6,0x160
    1b18:	85d90600 	lh	t9,1536(t6)
    1b1c:	02000000 	0x2000000
    1b20:	380d2023 	xori	t5,zero,0x2023
    1b24:	0600000d 	bltz	s0,1b5c <_init-0x687fe4a4>
    1b28:	00002edb 	0x2edb
    1b2c:	21230200 	addi	v1,t1,512
    1b30:	0003000d 	break	0x3
    1b34:	2edd0600 	sltiu	sp,s6,1536
    1b38:	02000000 	0x2000000
    1b3c:	07002323 	bltz	t8,a7cc <_init-0x687f5834>
    1b40:	000008c6 	0x8c6
    1b44:	04c5df06 	0x4c5df06
    1b48:	1c0c0000 	0x1c0c0000
    1b4c:	14000006 	bnez	zero,1b68 <_init-0x687fe498>
    1b50:	650df106 	0x650df106
    1b54:	06000011 	bltz	s0,1b9c <_init-0x687fe464>
    1b58:	0003f4e9 	0x3f4e9
    1b5c:	00230200 	0x230200
    1b60:	0600780e 	bltz	s0,1fb9c <_init-0x687e0464>
    1b64:	00008cea 	0x8cea
    1b68:	09230200 	j	48c0800 <_init-0x63f3f800>
    1b6c:	0600790e 	bltz	s0,1ffa8 <_init-0x687e0058>
    1b70:	00008ceb 	0x8ceb
    1b74:	0b230200 	j	c8c0800 <_init-0x5bf3f800>
    1b78:	0010d60d 	break	0x10,0x358
    1b7c:	8cec0600 	lw	t4,1536(a3)
    1b80:	02000000 	0x2000000
    1b84:	b90d0d23 	swr	t5,3363(t0)
    1b88:	0600000b 	bltz	s0,1bb8 <_init-0x687fe448>
    1b8c:	00008ced 	0x8ced
    1b90:	0f230200 	jal	c8c0800 <_init-0x5bf3f800>
    1b94:	0008060d 	break	0x8,0x18
    1b98:	25ee0600 	addiu	t6,t7,1536
    1b9c:	02000000 	0x2000000
    1ba0:	420d1123 	c0	0xd1123
    1ba4:	06000009 	bltz	s0,1bcc <_init-0x687fe434>
    1ba8:	00002eef 	0x2eef
    1bac:	12230200 	beq	s1,v1,23b0 <_init-0x687fdc50>
    1bb0:	037e0700 	0x37e0700
    1bb4:	f1060000 	0xf1060000
    1bb8:	000005b5 	0x5b5
    1bbc:	0006de10 	0x6de10
    1bc0:	13062900 	beq	t8,a2,bfc4 <_init-0x687f403c>
    1bc4:	00780e01 	0x780e01
    1bc8:	008cfa06 	0x8cfa06
    1bcc:	23020000 	addi	v0,t8,0
    1bd0:	00790e00 	0x790e00
    1bd4:	008cfc06 	0x8cfc06
    1bd8:	23020000 	addi	v0,t8,0
    1bdc:	10d60d02 	beq	a2,s6,4fe8 <_init-0x687fb018>
    1be0:	fe060000 	sdc3	$6,0(s0)
    1be4:	0000008c 	syscall	0x2
    1be8:	11042302 	beq	t0,a0,a7f4 <_init-0x687f580c>
    1bec:	00000bb9 	0xbb9
    1bf0:	8c010006 	lw	at,6(zero)
    1bf4:	02000000 	0x2000000
    1bf8:	2c110623 	sltiu	s1,zero,1571
    1bfc:	0600000b 	bltz	s0,1c2c <_init-0x687fe3d4>
    1c00:	003c0102 	ror	zero,gp,0x4
    1c04:	23020000 	addi	v0,t8,0
    1c08:	08061108 	j	184420 <_init-0x6867bbe0>
    1c0c:	04060000 	0x4060000
    1c10:	00002501 	0x2501
    1c14:	0c230200 	jal	8c0800 <_init-0x67f3f800>
    1c18:	00070711 	0x70711
    1c1c:	01060600 	0x1060600
    1c20:	00000025 	move	zero,zero
    1c24:	110d2302 	beq	t0,t5,a830 <_init-0x687f57d0>
    1c28:	00000edb 	0xedb
    1c2c:	2e010806 	sltiu	at,s0,2054
    1c30:	02000000 	0x2000000
    1c34:	e0110e23 	sc	s1,3619(zero)
    1c38:	0600000c 	bltz	s0,1c6c <_init-0x687fe394>
    1c3c:	003c010b 	0x3c010b
    1c40:	23020000 	addi	v0,t8,0
    1c44:	02ba1110 	0x2ba1110
    1c48:	0d060000 	jal	4180000 <_init-0x64680000>
    1c4c:	00003c01 	0x3c01
    1c50:	14230200 	bne	at,v1,2454 <_init-0x687fdbac>
    1c54:	00065811 	0x65811
    1c58:	010f0600 	0x10f0600
    1c5c:	00000025 	move	zero,zero
    1c60:	11182302 	beq	t0,t8,a86c <_init-0x687f5794>
    1c64:	00000801 	movf	at,zero,$fcc0
    1c68:	ab011106 	swl	at,4358(t8)
    1c6c:	02000000 	0x2000000
    1c70:	12001923 	beqz	s0,8100 <_init-0x687f7f00>
    1c74:	00000ddb 	0xddb
    1c78:	27011306 	addiu	at,t8,4870
    1c7c:	04000006 	bltz	zero,1c98 <_init-0x687fe368>
    1c80:	0006de04 	0x6de04
    1c84:	07110500 	bgezal	t8,3088 <_init-0x687fcf78>
    1c88:	10040000 	beq	zero,a0,1c8c <_init-0x687fe374>
    1c8c:	0c910630 	jal	24418c0 <_init-0x663be740>
    1c90:	06000000 	bltz	s0,1c94 <_init-0x687fe36c>
    1c94:	0000096d 	0x96d
    1c98:	0c040601 	jal	101804 <_init-0x686fe7fc>
    1c9c:	06020000 	bltzl	s0,1ca0 <_init-0x687fe360>
    1ca0:	00000a4a 	0xa4a
    1ca4:	62070003 	0x62070003
    1ca8:	10000010 	b	1cec <_init-0x687fe314>
    1cac:	0006f035 	0x6f035
    1cb0:	07970500 	0x7970500
    1cb4:	0f040000 	jal	c100000 <_init-0x5c700000>
    1cb8:	0d3e061e 	jal	4f81878 <_init-0x6387e788>
    1cbc:	06000000 	bltz	s0,1cc0 <_init-0x687fe340>
    1cc0:	00000849 	0x849
    1cc4:	07f20601 	bltzall	ra,34cc <_init-0x687fcb34>
    1cc8:	06020000 	bltzl	s0,1ccc <_init-0x687fe334>
    1ccc:	000003a8 	0x3a8
    1cd0:	04740603 	0x4740603
    1cd4:	06040000 	0x6040000
    1cd8:	00000537 	0x537
    1cdc:	0f8d0605 	jal	e341814 <_init-0x5a4be7ec>
    1ce0:	06060000 	0x6060000
    1ce4:	000005dd 	0x5dd
    1ce8:	0e020607 	jal	808181c <_init-0x6077e7e4>
    1cec:	06080000 	tgei	s0,0
    1cf0:	000010e7 	0x10e7
    1cf4:	05b90609 	0x5b90609
    1cf8:	060a0000 	tlti	s0,0
    1cfc:	00000c7f 	0xc7f
    1d00:	0e73060b 	jal	9cc182c <_init-0x5eb3e7d4>
    1d04:	060c0000 	teqi	s0,0
    1d08:	00000d2d 	0xd2d
    1d0c:	0743060d 	bgezl	k0,3544 <_init-0x687fcabc>
    1d10:	060e0000 	tnei	s0,0
    1d14:	00000c22 	0xc22
    1d18:	0216060f 	0x216060f
    1d1c:	06100000 	bltzal	s0,1d20 <_init-0x687fe2e0>
    1d20:	0000095b 	0x95b
    1d24:	0fe90611 	jal	fa41844 <_init-0x58dbe7bc>
    1d28:	00120000 	sll	zero,s2,0x0
    1d2c:	000a7407 	0xa7407
    1d30:	1c490f00 	0x1c490f00
    1d34:	0c000007 	jal	1c <_init-0x687fffe4>
    1d38:	000007c7 	0x7c7
    1d3c:	0d670f08 	jal	59c3c20 <_init-0x62e3c3e0>
    1d40:	00000e9b 	0xe9b
    1d44:	0797650f 	0x797650f
    1d48:	23020000 	addi	v0,t8,0
    1d4c:	0dfb0d00 	jal	7ec3400 <_init-0x6093cc00>
    1d50:	660f0000 	0x660f0000
    1d54:	00000711 	0x711
    1d58:	00042302 	srl	a0,a0,0xc
    1d5c:	00085507 	0x85507
    1d60:	a2670f00 	sb	a3,3840(s3)
    1d64:	05000007 	bltz	t0,1d84 <_init-0x687fe27c>
    1d68:	000007ed 	0x7ed
    1d6c:	066e0f04 	tnei	s3,3844
    1d70:	00000b4b 	0xb4b
    1d74:	0e4a0600 	jal	9281800 <_init-0x5f57e800>
    1d78:	06010000 	bgez	s0,1d7c <_init-0x687fe284>
    1d7c:	00000722 	0x722
    1d80:	5b070002 	0x5b070002
    1d84:	0f00000c 	jal	c000030 <_init-0x5c7fffd0>
    1d88:	0007d275 	0x7d275
    1d8c:	08190500 	j	641400 <_init-0x681bec00>
    1d90:	09040000 	j	4100000 <_init-0x64700000>
    1d94:	0ec70621 	jal	b1c1884 <_init-0x5d63e77c>
    1d98:	06000000 	bltz	s0,1d9c <_init-0x687fe264>
    1d9c:	00000ad0 	0xad0
    1da0:	06bd0601 	0x6bd0601
    1da4:	06020000 	bltzl	s0,1da8 <_init-0x687fe258>
    1da8:	000010a4 	0x10a4
    1dac:	05070003 	0x5070003
    1db0:	09000011 	j	4000044 <_init-0x647fffbc>
    1db4:	0007f826 	xor	ra,zero,a3
    1db8:	08330500 	j	cc1400 <_init-0x67b3ec00>
    1dbc:	09040000 	j	4100000 <_init-0x64700000>
    1dc0:	0e32062e 	jal	8c818b8 <_init-0x5fb7e748>
    1dc4:	00000000 	nop
    1dc8:	00078d07 	0x78d07
    1dcc:	24300900 	addiu	s0,at,2304
    1dd0:	0f000008 	jal	c000020 <_init-0x5c7fffe0>
    1dd4:	000008b3 	tltu	zero,zero,0x22
    1dd8:	0000119b 	0x119b
    1ddc:	0d5c0918 	jal	5702460 <_init-0x630fdba0>
    1de0:	00001fcd 	break	0x0,0x7f
    1de4:	08195e09 	j	657824 <_init-0x681a87dc>
    1de8:	23020000 	addi	v0,t8,0
    1dec:	083d0d00 	j	f43400 <_init-0x678bcc00>
    1df0:	60090000 	0x60090000
    1df4:	0000002e 	0x2e
    1df8:	0d042302 	jal	4108c08 <_init-0x646f73f8>
    1dfc:	00000d58 	0xd58
    1e00:	002e6209 	0x2e6209
    1e04:	23020000 	addi	v0,t8,0
    1e08:	033c0d06 	0x33c0d06
    1e0c:	64090000 	0x64090000
    1e10:	000000a5 	0xa5
    1e14:	0d082302 	jal	4208c08 <_init-0x645f73f8>
    1e18:	00002d24 	0x2d24
    1e1c:	08ca6709 	j	3299c24 <_init-0x655663dc>
    1e20:	23020000 	addi	v0,t8,0
    1e24:	0e280d0c 	jal	8a03430 <_init-0x5fdfcbd0>
    1e28:	6a090000 	0x6a090000
    1e2c:	00000069 	0x69
    1e30:	13102302 	beq	t8,s0,aa3c <_init-0x687f55c4>
    1e34:	00000c39 	0xc39
    1e38:	02590d01 	0x2590d01
    1e3c:	6d090000 	0x6d090000
    1e40:	000008d0 	0x8d0
    1e44:	00142302 	srl	a0,s4,0xc
    1e48:	0008c414 	0x8c414
    1e4c:	c4150100 	lwc1	$f21,256(zero)
    1e50:	15000008 	bnez	t0,1e74 <_init-0x687fe18c>
    1e54:	00000833 	tltu	zero,zero,0x20
    1e58:	3e040400 	0x3e040400
    1e5c:	04000008 	bltz	zero,1e80 <_init-0x687fe180>
    1e60:	0008b304 	0x8b304
    1e64:	9e040400 	0x9e040400
    1e68:	07000008 	bltz	t8,1e8c <_init-0x687fe174>
    1e6c:	000011a5 	0x11a5
    1e70:	083e6e09 	j	f9b824 <_init-0x678647dc>
    1e74:	04040000 	0x4040000
    1e78:	000008d6 	0x8d6
    1e7c:	00091405 	0x91405
    1e80:	230b0400 	addi	t3,t8,1024
    1e84:	00023206 	0x23206
    1e88:	86060000 	lh	a2,0(s0)
    1e8c:	01000008 	jr	t0
    1e90:	00108006 	srlv	s0,s0,zero
    1e94:	05060200 	0x5060200
    1e98:	03000012 	0x3000012
    1e9c:	00027706 	0x27706
    1ea0:	29060400 	slti	a2,t0,1024
    1ea4:	05000010 	bltz	t0,1ee8 <_init-0x687fe118>
    1ea8:	03c80700 	0x3c80700
    1eac:	2a0b0000 	slti	t3,s0,0
    1eb0:	000008e7 	0x8e7
    1eb4:	00094605 	0x94605
    1eb8:	360b0400 	ori	t3,s0,0x400
    1ebc:	0005ea06 	0x5ea06
    1ec0:	d1060000 	0xd1060000
    1ec4:	0100000f 	0x100000f
    1ec8:	0006ed06 	0x6ed06
    1ecc:	94060200 	lhu	a2,512(zero)
    1ed0:	03000005 	0x3000005
    1ed4:	0003fd06 	0x3fd06
    1ed8:	07000400 	bltz	t8,2edc <_init-0x687fd124>
    1edc:	00000297 	0x297
    1ee0:	091f3c0b 	j	47cf02c <_init-0x64030fd4>
    1ee4:	e20f0000 	sc	t7,0(s0)
    1ee8:	7c000009 	yield	zero
    1eec:	24000006 	li	zero,6
    1ef0:	cd0d4b0b 	pref	0xd,19211(t0)
    1ef4:	0b00001f 	j	c00007c <_init-0x5c7fff84>
    1ef8:	0009144e 	0x9144e
    1efc:	00230200 	0x230200
    1f00:	0003b40d 	break	0x3,0x2d0
    1f04:	a5510b00 	sh	s1,2816(t2)
    1f08:	02000000 	0x2000000
    1f0c:	140d0423 	bne	zero,t5,2f9c <_init-0x687fd064>
    1f10:	0b000011 	j	c000044 <_init-0x5c7fffbc>
    1f14:	0000a554 	0xa554
    1f18:	08230200 	j	8c0800 <_init-0x67f3f800>
    1f1c:	000ac20d 	break	0xa,0x308
    1f20:	a5560b00 	sh	s6,2816(t2)
    1f24:	02000000 	0x2000000
    1f28:	280d0c23 	slti	t5,zero,3107
    1f2c:	0b00000e 	j	c000038 <_init-0x5c7fffc8>
    1f30:	00006959 	0x6959
    1f34:	10230200 	beq	at,v1,2738 <_init-0x687fd8c8>
    1f38:	002d240d 	break	0x2d,0x90
    1f3c:	f95c0b00 	sdc2	$28,2816(t2)
    1f40:	02000009 	jalr	zero,s0
    1f44:	b80d1423 	swr	t5,5155(zero)
    1f48:	0b000003 	j	c00000c <_init-0x5c7ffff4>
    1f4c:	00009a5f 	0x9a5f
    1f50:	18230200 	0x18230200
    1f54:	0006720d 	break	0x6,0x1c8
    1f58:	9a620b00 	lwr	v0,2816(s3)
    1f5c:	02000000 	0x2000000
    1f60:	23131c23 	addi	s3,t8,7203
    1f64:	01000011 	mthi	t0
    1f68:	000cbe0d 	break	0xc,0x2f8
    1f6c:	ff650b00 	sdc3	$5,2816(k1)
    1f70:	02000009 	jalr	zero,s0
    1f74:	14002023 	bnez	zero,a004 <_init-0x687f5ffc>
    1f78:	000009f3 	tltu	zero,zero,0x27
    1f7c:	09f31501 	j	7cc5404 <_init-0x60b3abfc>
    1f80:	46150000 	add.s	$f0,$f0,$f21
    1f84:	00000009 	jalr	zero,zero
    1f88:	09510404 	j	5441010 <_init-0x633beff0>
    1f8c:	04040000 	0x4040000
    1f90:	000009e2 	0x9e2
    1f94:	09cd0404 	j	7341010 <_init-0x614beff0>
    1f98:	e4070000 	swc1	$f7,0(zero)
    1f9c:	0b00000a 	j	c000028 <_init-0x5c7fffd8>
    1fa0:	00095166 	0x95166
    1fa4:	05040400 	0x5040400
    1fa8:	0700000a 	bltz	t8,1fd4 <_init-0x687fe02c>
    1fac:	000012d9 	0x12d9
    1fb0:	0a212104 	j	8848410 <_init-0x5ffb7bf0>
    1fb4:	04040000 	0x4040000
    1fb8:	00000a27 	0xa27
    1fbc:	000a3c16 	0xa3c16
    1fc0:	00690100 	0x690100
    1fc4:	2c150000 	sltiu	s5,zero,0
    1fc8:	15000000 	bnez	t0,1fcc <_init-0x687fe034>
    1fcc:	00000069 	0x69
    1fd0:	0ac70f00 	j	b1c3c00 <_init-0x5d63c400>
    1fd4:	14380000 	bne	at,t8,1fd8 <_init-0x687fe028>
    1fd8:	04240000 	0x4240000
    1fdc:	155a0d28 	bne	t2,k0,5480 <_init-0x687fab80>
    1fe0:	2a040000 	slti	a0,s0,0
    1fe4:	00000069 	0x69
    1fe8:	0d002302 	jal	4008c08 <_init-0x647f73f8>
    1fec:	0000155c 	0x155c
    1ff0:	00692d04 	0x692d04
    1ff4:	23020000 	addi	v0,t8,0
    1ff8:	06a30d04 	bgezl	s5,540c <_init-0x687fabf4>
    1ffc:	30040000 	andi	a0,zero,0x0
    2000:	00000069 	0x69
    2004:	0d082302 	jal	4208c08 <_init-0x645f73f8>
    2008:	0000132f 	0x132f
    200c:	005e3304 	0x5e3304
    2010:	23020000 	addi	v0,t8,0
    2014:	2d240d0c 	sltiu	a0,t1,3340
    2018:	36040000 	ori	a0,s0,0x0
    201c:	00000a16 	0xa16
    2020:	0d102302 	jal	4408c08 <_init-0x643f73f8>
    2024:	00001443 	sra	v0,zero,0x11
    2028:	00a53904 	0xa53904
    202c:	23020000 	addi	v0,t8,0
    2030:	12ec0d14 	beq	s7,t4,5484 <_init-0x687fab7c>
    2034:	3c040000 	lui	a0,0x0
    2038:	000000a5 	0xa5
    203c:	0d182302 	jal	4608c08 <_init-0x641f73f8>
    2040:	000012f2 	tlt	zero,zero,0x4b
    2044:	00a53f04 	0xa53f04
    2048:	23020000 	addi	v0,t8,0
    204c:	12d20d1c 	beq	s6,s2,54c0 <_init-0x687fab40>
    2050:	42040000 	c0	0x40000
    2054:	00000ac7 	0xac7
    2058:	00202302 	ror	a0,zero,0xc
    205c:	01910404 	0x1910404
    2060:	ee070000 	swc3	$7,0(s0)
    2064:	04000014 	bltz	zero,20b8 <_init-0x687fdf48>
    2068:	000a3c44 	0xa3c44
    206c:	08240700 	j	901c00 <_init-0x67efe400>
    2070:	4a040000 	c2	0x40000
    2074:	00000a21 	0xa21
    2078:	000b580f 	0xb580f
    207c:	000f1600 	sll	v0,t7,0x18
    2080:	51041c00 	beql	t0,a0,9084 <_init-0x687f6f7c>
    2084:	0002c00d 	break	0x2,0x300
    2088:	69530400 	0x69530400
    208c:	02000000 	0x2000000
    2090:	c90d0023 	lwc2	$13,35(t0)
    2094:	0400000f 	bltz	zero,20d4 <_init-0x687fdf2c>
    2098:	00006956 	0x6956
    209c:	04230200 	bgezl	at,28a0 <_init-0x687fd760>
    20a0:	0010100d 	break	0x10,0x40
    20a4:	69590400 	0x69590400
    20a8:	02000000 	0x2000000
    20ac:	760d0823 	jalx	834208c <_init-0x604bdf74>
    20b0:	0400000f 	bltz	zero,20f0 <_init-0x687fdf10>
    20b4:	0000695c 	0x695c
    20b8:	0c230200 	jal	8c0800 <_init-0x67f3f800>
    20bc:	000d4c0d 	break	0xd,0x130
    20c0:	695f0400 	0x695f0400
    20c4:	02000000 	0x2000000
    20c8:	240d1023 	li	t5,4131
    20cc:	0400002d 	bltz	zero,2184 <_init-0x687fde7c>
    20d0:	000ad862 	0xad862
    20d4:	14230200 	bne	at,v1,28d8 <_init-0x687fd728>
    20d8:	00060013 	0x60013
    20dc:	440d0100 	0x440d0100
    20e0:	04000008 	bltz	zero,2104 <_init-0x687fdefc>
    20e4:	000b5865 	0xb5865
    20e8:	18230200 	0x18230200
    20ec:	43040400 	c0	0x1040400
    20f0:	0700000b 	bltz	t8,2120 <_init-0x687fdee0>
    20f4:	00000f1d 	0xf1d
    20f8:	0ae36704 	j	b8d9c10 <_init-0x5cf263f0>
    20fc:	ba050000 	swr	a1,0(s0)
    2100:	0400000b 	bltz	zero,2130 <_init-0x687fded0>
    2104:	06063003 	0x6063003
    2108:	00000002 	srl	zero,zero,0x0
    210c:	0011be06 	0x11be06
    2110:	f9060100 	sdc2	$6,256(t0)
    2114:	0200000f 	0x200000f
    2118:	000ea806 	srlv	s5,t6,zero
    211c:	35060300 	ori	a2,t0,0x300
    2120:	04000004 	bltz	zero,2134 <_init-0x687fdecc>
    2124:	0007db06 	0x7db06
    2128:	d6060500 	ldc1	$f6,1280(s0)
    212c:	06000009 	bltz	s0,2154 <_init-0x687fdeac>
    2130:	000bcc06 	0xbcc06
    2134:	8e060700 	lw	a2,1792(s0)
    2138:	0800000b 	j	2c <_init-0x687fffd4>
    213c:	00039106 	0x39106
    2140:	65060900 	0x65060900
    2144:	0a00000d 	j	8000034 <_init-0x607fffcc>
    2148:	000ba706 	0xba706
    214c:	07000b00 	bltz	t8,4d50 <_init-0x687fb2b0>
    2150:	00000662 	0x662
    2154:	0b693e03 	j	da4f80c <_init-0x5adb07f4>
    2158:	0a050000 	j	8140000 <_init-0x606c0000>
    215c:	0400000c 	bltz	zero,2190 <_init-0x687fde70>
    2160:	f6064e03 	sdc1	$f6,19971(s0)
    2164:	00000008 	jr	zero
    2168:	00024006 	srlv	t0,v0,zero
    216c:	94060100 	lhu	a2,256(zero)
    2170:	02000008 	jr	s0
    2174:	000a3106 	0xa3106
    2178:	e3060300 	sc	a2,768(t8)
    217c:	0400000b 	bltz	zero,21ac <_init-0x687fde54>
    2180:	000da406 	0xda406
    2184:	f7060500 	sdc1	$f6,1280(t8)
    2188:	0600000e 	bltz	s0,21c4 <_init-0x687fde3c>
    218c:	000f2406 	0xf2406
    2190:	43060700 	c0	0x1060700
    2194:	0800000f 	j	3c <_init-0x687fffc4>
    2198:	00114a06 	0x114a06
    219c:	07000900 	bltz	t8,45a0 <_init-0x687fba60>
    21a0:	00001218 	0x1218
    21a4:	0bc55a03 	j	f15680c <_init-0x596a97f4>
    21a8:	6e0f0000 	0x6e0f0000
    21ac:	c300000c 	ll	zero,12(t8)
    21b0:	1400000c 	bnez	zero,21e4 <_init-0x687fde1c>
    21b4:	cd0d6103 	pref	0xd,24835(t0)
    21b8:	0300001f 	0x300001f
    21bc:	000bba63 	0xbba63
    21c0:	00230200 	0x230200
    21c4:	000e280d 	break	0xe,0xa0
    21c8:	69660300 	0x69660300
    21cc:	02000000 	0x2000000
    21d0:	240d0423 	li	t5,1059
    21d4:	0300002d 	0x300002d
    21d8:	000c8569 	0xc8569
    21dc:	08230200 	j	8c0800 <_init-0x67f3f800>
    21e0:	0010b90d 	break	0x10,0x2e4
    21e4:	8b6c0300 	lwl	t4,768(k1)
    21e8:	0200000c 	syscall	0x80000
    21ec:	57130c23 	bnel	t8,s3,527c <_init-0x687fad84>
    21f0:	01000004 	sllv	zero,zero,t0
    21f4:	0002590d 	break	0x2,0x164
    21f8:	916f0300 	lbu	t7,768(t3)
    21fc:	0200000c 	syscall	0x80000
    2200:	14001023 	bnez	zero,6290 <_init-0x687f9d70>
    2204:	00000c7f 	0xc7f
    2208:	0c7f1501 	jal	1fc5404 <_init-0x6683abfc>
    220c:	0a150000 	j	8540000 <_init-0x602c0000>
    2210:	0000000c 	syscall
    2214:	0c150404 	jal	541010 <_init-0x682beff0>
    2218:	04040000 	0x4040000
    221c:	00000c6e 	0xc6e
    2220:	0b5e0404 	j	d781010 <_init-0x5b07eff0>
    2224:	04040000 	0x4040000
    2228:	00000c59 	0xc59
    222c:	000c7407 	0xc7407
    2230:	15710300 	bne	t3,s1,2e34 <_init-0x687fd1cc>
    2234:	0400000c 	bltz	zero,2268 <_init-0x687fdd98>
    2238:	000c9704 	0xc9704
    223c:	0d390f00 	jal	4e43c00 <_init-0x639bc400>
    2240:	056b0000 	tltiu	t3,0
    2244:	0d240000 	jal	4900000 <_init-0x63f00000>
    2248:	06110d21 	bgezal	s0,56d0 <_init-0x687fa930>
    224c:	220d0000 	addi	t5,s0,0
    2250:	00000069 	0x69
    2254:	0d002302 	jal	4008c08 <_init-0x647f73f8>
    2258:	0000046a 	0x46a
    225c:	0069230d 	break	0x69,0x8c
    2260:	23020000 	addi	v0,t8,0
    2264:	072d0d04 	0x72d0d04
    2268:	240d0000 	li	t5,0
    226c:	00000069 	0x69
    2270:	0d082302 	jal	4208c08 <_init-0x645f73f8>
    2274:	00002d24 	0x2d24
    2278:	0d50260d 	jal	5409834 <_init-0x633f67cc>
    227c:	23020000 	addi	v0,t8,0
    2280:	0e280d0c 	jal	8a03430 <_init-0x5fdfcbd0>
    2284:	290d0000 	slti	t5,t0,0
    2288:	00000069 	0x69
    228c:	0d102302 	jal	4408c08 <_init-0x643f73f8>
    2290:	000005b2 	tlt	zero,zero,0x16
    2294:	00692a0d 	break	0x69,0xa8
    2298:	23020000 	addi	v0,t8,0
    229c:	1fcd0d14 	0x1fcd0d14
    22a0:	2b0d0000 	slti	t5,t8,0
    22a4:	00000069 	0x69
    22a8:	0d182302 	jal	4608c08 <_init-0x641f73f8>
    22ac:	00000548 	0x548
    22b0:	00692c0d 	break	0x69,0xb0
    22b4:	23020000 	addi	v0,t8,0
    22b8:	07b9131c 	0x7b9131c
    22bc:	0d010000 	jal	4040000 <_init-0x647c0000>
    22c0:	00000cb6 	tne	zero,zero,0x32
    22c4:	0d562e0d 	jal	558b834 <_init-0x632747cc>
    22c8:	23020000 	addi	v0,t8,0
    22cc:	4a140020 	c2	0x140020
    22d0:	0100000d 	break	0x100
    22d4:	000d4a15 	0xd4a15
    22d8:	00691500 	0x691500
    22dc:	04000000 	bltz	zero,22e0 <_init-0x687fdd20>
    22e0:	000ca804 	sllv	s5,t4,zero
    22e4:	39040400 	xori	a0,t0,0x400
    22e8:	0400000d 	bltz	zero,2320 <_init-0x687fdce0>
    22ec:	000d2404 	0xd2404
    22f0:	06860700 	0x6860700
    22f4:	2f0d0000 	sltiu	t5,t8,0
    22f8:	00000ca8 	0xca8
    22fc:	0d5c0404 	jal	5701010 <_init-0x630feff0>
    2300:	94050000 	lhu	a1,0(zero)
    2304:	0400000d 	bltz	zero,233c <_init-0x687fdcc4>
    2308:	37062907 	ori	a2,t8,0x2907
    230c:	0000000b 	movn	zero,zero,zero
    2310:	00022106 	0x22106
    2314:	af060100 	sw	a2,256(t8)
    2318:	02000011 	mthi	s0
    231c:	0009ac06 	0x9ac06
    2320:	a2060300 	sb	a2,768(s0)
    2324:	04000007 	bltz	zero,2344 <_init-0x687fdcbc>
    2328:	10460700 	beq	v0,a2,3f2c <_init-0x687fc0d4>
    232c:	2f070000 	sltiu	a3,t8,0
    2330:	00000d6d 	0xd6d
    2334:	000db405 	0xdb405
    2338:	4b070400 	c2	0x1070400
    233c:	00034d06 	0x34d06
    2340:	01060000 	0x1060000
    2344:	0100000b 	movn	zero,t0,zero
    2348:	0cce0700 	jal	3381c00 <_init-0x6547e400>
    234c:	4e070000 	lwxc1	$f0,a3(s0)
    2350:	00000d9f 	0xd9f
    2354:	000dd405 	0xdd405
    2358:	56070400 	bnel	s0,a3,335c <_init-0x687fcca4>
    235c:	0004e306 	0x4e306
    2360:	b2060000 	0xb2060000
    2364:	01000004 	sllv	zero,zero,t0
    2368:	0d1d0700 	jal	4741c00 <_init-0x640be400>
    236c:	59070000 	0x59070000
    2370:	00000dbf 	0xdbf
    2374:	000e860c 	syscall	0x3a18
    2378:	7e07a800 	ext	a3,s0,0x0,0x16
    237c:	0003260d 	break	0x3,0x98
    2380:	695f0700 	0x695f0700
    2384:	02000000 	0x2000000
    2388:	470d0023 	c1	0x10d0023
    238c:	07000006 	bltz	t8,23a8 <_init-0x687fdc58>
    2390:	00006962 	0x6962
    2394:	04230200 	bgezl	at,2b98 <_init-0x687fd468>
    2398:	0001fd0d 	break	0x1,0x3f4
    239c:	9c650700 	0x9c650700
    23a0:	02000001 	movf	zero,s0,$fcc0
    23a4:	ed0d0823 	swc3	$13,2083(t0)
    23a8:	07000002 	bltz	t8,23b4 <_init-0x687fdc4c>
    23ac:	00006968 	0x6968
    23b0:	10230200 	beq	at,v1,2bb4 <_init-0x687fd44c>
    23b4:	0011900d 	break	0x11,0x240
    23b8:	696b0700 	0x696b0700
    23bc:	02000000 	0x2000000
    23c0:	9b0d1423 	lwr	t5,5155(t8)
    23c4:	07000006 	bltz	t8,23e0 <_init-0x687fdc20>
    23c8:	000e866e 	0xe866e
    23cc:	18230200 	0x18230200
    23d0:	00042c0d 	break	0x4,0xb0
    23d4:	96710700 	lhu	s1,1792(s3)
    23d8:	0200000e 	0x200000e
    23dc:	840d5823 	lh	t5,22563(zero)
    23e0:	07000002 	bltz	t8,23ec <_init-0x687fdc14>
    23e4:	00006974 	teq	zero,zero,0x1a5
    23e8:	98230300 	lwr	v1,768(at)
    23ec:	0a130d01 	j	84c3404 <_init-0x6033cbfc>
    23f0:	77070000 	jalx	c1c0000 <_init-0x5c640000>
    23f4:	00000069 	0x69
    23f8:	019c2303 	0x19c2303
    23fc:	000ea00d 	break	0xe,0x280
    2400:	697a0700 	0x697a0700
    2404:	03000000 	0x3000000
    2408:	0d01a023 	jal	406808c <_init-0x64797f74>
    240c:	00001213 	0x1213
    2410:	00697d07 	0x697d07
    2414:	23030000 	addi	v1,t8,0
    2418:	0a0001a4 	j	8000690 <_init-0x607ff970>
    241c:	00000e96 	0xe96
    2420:	00000069 	0x69
    2424:	0000350b 	0x350b
    2428:	0a000f00 	j	8003c00 <_init-0x607fc400>
    242c:	00000ea6 	0xea6
    2430:	000000a5 	0xa5
    2434:	0000350b 	0x350b
    2438:	07000f00 	bltz	t8,603c <_init-0x687f9fc4>
    243c:	000010be 	0x10be
    2440:	0ddf7e07 	jal	77df81c <_init-0x610207e4>
    2444:	d60c0000 	ldc1	$f12,0(s0)
    2448:	0800000e 	j	38 <_init-0x687fffc8>
    244c:	260d8807 	addiu	t5,s0,-30713
    2450:	07000003 	bltz	t8,2460 <_init-0x687fdba0>
    2454:	00006984 	0x6984
    2458:	00230200 	0x230200
    245c:	0003650d 	break	0x3,0x194
    2460:	b4860700 	0xb4860700
    2464:	0200000d 	break	0x200
    2468:	07000423 	bltz	t8,34f8 <_init-0x687fcb08>
    246c:	000009ed 	0x9ed
    2470:	0eb18807 	jal	ac6201c <_init-0x5db9dfe4>
    2474:	060c0000 	teqi	s0,0
    2478:	1000000f 	b	24b8 <_init-0x687fdb48>
    247c:	260d9607 	addiu	t5,s0,-27129
    2480:	07000003 	bltz	t8,2490 <_init-0x687fdb70>
    2484:	00006992 	0x6992
    2488:	00230200 	0x230200
    248c:	00090d0d 	break	0x9,0x34
    2490:	49950700 	0x49950700
    2494:	02000002 	0x2000002
    2498:	07000423 	bltz	t8,3528 <_init-0x687fcad8>
    249c:	00000aee 	0xaee
    24a0:	0ee19607 	jal	b86581c <_init-0x5cf9a7e4>
    24a4:	360c0000 	ori	t4,s0,0x0
    24a8:	1800000f 	blez	zero,24e8 <_init-0x687fdb18>
    24ac:	260da407 	addiu	t5,s0,-23545
    24b0:	07000003 	bltz	t8,24c0 <_init-0x687fdb40>
    24b4:	000069a0 	0x69a0
    24b8:	00230200 	0x230200
    24bc:	000c300d 	break	0xc,0xc0
    24c0:	0ba30700 	j	e8c1c00 <_init-0x59f3e400>
    24c4:	02000002 	0x2000002
    24c8:	07000423 	bltz	t8,3558 <_init-0x687fcaa8>
    24cc:	00000c0f 	0xc0f
    24d0:	0f11a407 	jal	c46901c <_init-0x5c396fe4>
    24d4:	f20f0000 	0xf20f0000
    24d8:	1a00000f 	blez	s0,2518 <_init-0x687fdae8>
    24dc:	f4000004 	sdc1	$f0,4(zero)
    24e0:	280dab07 	slti	t5,zero,-21753
    24e4:	0700000e 	bltz	t8,2520 <_init-0x687fdae0>
    24e8:	000069ad 	0x69ad
    24ec:	00230200 	0x230200
    24f0:	6364680e 	0x6364680e
    24f4:	69b00700 	0x69b00700
    24f8:	02000000 	0x2000000
    24fc:	0c0d0423 	jal	34108c <_init-0x684bef74>
    2500:	0700000b 	bltz	t8,2530 <_init-0x687fdad0>
    2504:	000ff2b3 	tltu	zero,t7,0x3ca
    2508:	08230200 	j	8c0800 <_init-0x67f3f800>
    250c:	00063a0d 	break	0x6,0xe8
    2510:	94b60700 	lhu	s6,1792(a1)
    2514:	0200000d 	break	0x200
    2518:	880d0c23 	lwl	t5,3107(zero)
    251c:	07000005 	bltz	t8,2534 <_init-0x687fdacc>
    2520:	000f06ba 	0xf06ba
    2524:	10230200 	beq	at,v1,2d28 <_init-0x687fd2d8>
    2528:	0008ab0d 	break	0x8,0x2ac
    252c:	36bb0700 	ori	k1,s5,0x700
    2530:	0200000f 	0x200000f
    2534:	bf0d2023 	cache	0xd,8227(t8)
    2538:	07000004 	bltz	t8,254c <_init-0x687fdab4>
    253c:	000ea6bc 	0xea6bc
    2540:	38230200 	xori	v1,at,0x200
    2544:	0009160d 	break	0x9,0x58
    2548:	d6bd0700 	ldc1	$f29,1792(s5)
    254c:	0300000e 	0x300000e
    2550:	0d01e023 	jal	407808c <_init-0x64787f74>
    2554:	00000e96 	0xe96
    2558:	0dd4bf07 	jal	752fc1c <_init-0x612d03e4>
    255c:	23030000 	addi	v1,t8,0
    2560:	240d01e8 	li	t5,488
    2564:	0700002d 	bltz	t8,261c <_init-0x687fd9e4>
    2568:	00100fc2 	srl	at,s0,0x1f
    256c:	ec230300 	swc3	$3,768(at)
    2570:	0d931301 	jal	64c4c04 <_init-0x6233b3fc>
    2574:	0d010000 	jal	4040000 <_init-0x647c0000>
    2578:	00000818 	mult	$ac1,zero,zero
    257c:	1015c507 	beq	zero,s5,ffff399c <emuqueue+0x977eb6f8>
    2580:	23030000 	addi	v1,t8,0
    2584:	040001f0 	bltz	zero,2d48 <_init-0x687fd2b8>
    2588:	0004ba04 	0x4ba04
    258c:	10091400 	beq	zero,t1,7590 <_init-0x687f8a70>
    2590:	15010000 	bne	t0,at,2594 <_init-0x687fda6c>
    2594:	00001009 	jalr	v0,zero
    2598:	00006915 	0x6915
    259c:	04040000 	0x4040000
    25a0:	00000f41 	0xf41
    25a4:	0ff80404 	jal	fe01010 <_init-0x589feff0>
    25a8:	04040000 	0x4040000
    25ac:	00000fdc 	0xfdc
    25b0:	00042307 	0x42307
    25b4:	41c60700 	0x41c60700
    25b8:	0400000f 	bltz	zero,25f8 <_init-0x687fda08>
    25bc:	00101b04 	0x101b04
    25c0:	10710500 	beq	v1,s1,39c4 <_init-0x687fc63c>
    25c4:	0a040000 	j	8100000 <_init-0x60700000>
    25c8:	06ab0624 	tltiu	s5,1572
    25cc:	06000000 	bltz	s0,25d0 <_init-0x687fda30>
    25d0:	00000c9a 	0xc9a
    25d4:	05510601 	bgezal	t2,3ddc <_init-0x687fc224>
    25d8:	06020000 	bltzl	s0,25dc <_init-0x687fda24>
    25dc:	000008d8 	0x8d8
    25e0:	09830603 	j	60c180c <_init-0x6273e7f4>
    25e4:	06040000 	0x6040000
    25e8:	00001016 	0x1016
    25ec:	09240605 	j	4901814 <_init-0x63efe7ec>
    25f0:	06060000 	0x6060000
    25f4:	000006ce 	0x6ce
    25f8:	0a600607 	j	980181c <_init-0x5effe7e4>
    25fc:	06080000 	tgei	s0,0
    2600:	0000113a 	0x113a
    2604:	bb070009 	swr	a3,9(t8)
    2608:	0a000009 	j	8000024 <_init-0x607fffdc>
    260c:	00102c31 	tgeu	zero,s0,0xb0
    2610:	10910500 	beq	a0,s1,3a14 <_init-0x687fc5ec>
    2614:	0a040000 	j	8100000 <_init-0x60700000>
    2618:	02a50639 	0x2a50639
    261c:	06000000 	bltz	s0,2620 <_init-0x687fd9e0>
    2620:	000004f0 	tge	zero,zero,0x13
    2624:	0e070001 	jal	81c0004 <_init-0x6063fffc>
    2628:	0a00000e 	j	8000038 <_init-0x607fffc8>
    262c:	00107c3c 	0x107c3c
    2630:	10cf0c00 	beq	a2,t7,5634 <_init-0x687fa9cc>
    2634:	0a0c0000 	j	8300000 <_init-0x60500000>
    2638:	08440d4e 	j	1103538 <_init-0x676fcac8>
    263c:	460a0000 	add.s	$f0,$f0,$f10
    2640:	00001071 	tgeu	zero,zero,0x41
    2644:	0d002302 	jal	4008c08 <_init-0x647f73f8>
    2648:	0000109d 	0x109d
    264c:	002e480a 	movz	t1,at,t6
    2650:	23020000 	addi	v0,t8,0
    2654:	14c70d04 	bne	a2,a3,5a68 <_init-0x687fa598>
    2658:	4b0a0000 	c2	0x10a0000
    265c:	00000069 	0x69
    2660:	00082302 	srl	a0,t0,0xc
    2664:	0014b907 	0x14b907
    2668:	9c4e0a00 	0x9c4e0a00
    266c:	0f000010 	jal	c000040 <_init-0x5c7fffc0>
    2670:	0000114f 	0x114f
    2674:	00000692 	0x692
    2678:	0d560a1c 	jal	5582870 <_init-0x6327d790>
    267c:	00000844 	0x844
    2680:	1071580a 	beq	v1,s1,186ac <_init-0x687e7954>
    2684:	23020000 	addi	v0,t8,0
    2688:	109d0d00 	beq	a0,sp,5a8c <_init-0x687fa574>
    268c:	5a0a0000 	0x5a0a0000
    2690:	0000002e 	0x2e
    2694:	0d042302 	jal	4108c08 <_init-0x646f73f8>
    2698:	00000cae 	0xcae
    269c:	00695d0a 	0x695d0a
    26a0:	23020000 	addi	v0,t8,0
    26a4:	08e90d08 	j	3a43420 <_init-0x64dbcbe0>
    26a8:	5f0a0000 	0x5f0a0000
    26ac:	00000069 	0x69
    26b0:	0d0c2302 	jal	4308c08 <_init-0x644f73f8>
    26b4:	00002d24 	0x2d24
    26b8:	1166620a 	beq	t3,a2,1aee4 <_init-0x687e511c>
    26bc:	23020000 	addi	v0,t8,0
    26c0:	0e280d10 	jal	8a03440 <_init-0x5fdfcbc0>
    26c4:	650a0000 	0x650a0000
    26c8:	00000069 	0x69
    26cc:	13142302 	beq	t8,s4,b2d8 <_init-0x687f4d28>
    26d0:	00000577 	0x577
    26d4:	02590d01 	0x2590d01
    26d8:	680a0000 	0x680a0000
    26dc:	0000116c 	0x116c
    26e0:	00182302 	srl	a0,t8,0xc
    26e4:	00116014 	0x116014
    26e8:	60150100 	0x60150100
    26ec:	15000011 	bnez	t0,2734 <_init-0x687fd8cc>
    26f0:	00001091 	0x1091
    26f4:	da040400 	ldc2	$4,1024(s0)
    26f8:	04000010 	bltz	zero,273c <_init-0x687fd8c4>
    26fc:	00114f04 	0x114f04
    2700:	3a040400 	xori	a0,s0,0x400
    2704:	07000011 	bltz	t8,274c <_init-0x687fd8b4>
    2708:	00000562 	0x562
    270c:	10da690a 	beq	a2,k0,1cb38 <_init-0x687e34c8>
    2710:	04040000 	0x4040000
    2714:	00001172 	tlt	zero,zero,0x45
    2718:	0011ce05 	0x11ce05
    271c:	2f0c0400 	sltiu	t4,t8,1024
    2720:	0004cc06 	0x4cc06
    2724:	7f060000 	ext	a2,t8,0x0,0x1
    2728:	0100000e 	0x100000e
    272c:	00050906 	0x50906
    2730:	6e060200 	0x6e060200
    2734:	0300000b 	movn	zero,t8,zero
    2738:	0001db06 	0x1db06
    273c:	c7060400 	lwc1	$f6,1024(t8)
    2740:	05000002 	bltz	t0,274c <_init-0x687fd8b4>
    2744:	00116e06 	0x116e06
    2748:	65060600 	0x65060600
    274c:	07000008 	bltz	t8,2770 <_init-0x687fd890>
    2750:	00075f06 	0x75f06
    2754:	9b060800 	lwr	a2,2048(t8)
    2758:	0900000f 	j	400003c <_init-0x647fffc4>
    275c:	000a8206 	0xa8206
    2760:	07000a00 	bltz	t8,4f64 <_init-0x687fb09c>
    2764:	00000780 	sll	zero,zero,0x1e
    2768:	11833b0c 	beq	t4,v1,1139c <_init-0x687eec64>
    276c:	160f0000 	bne	s0,t7,2770 <_init-0x687fd890>
    2770:	a9000012 	swl	zero,18(t0)
    2774:	0c00000a 	jal	28 <_init-0x687fffd8>
    2778:	280d420c 	slti	t5,zero,16908
    277c:	0c00000e 	jal	38 <_init-0x687fffc8>
    2780:	00006944 	0x6944
    2784:	00230200 	0x230200
    2788:	002d240d 	break	0x2d,0x90
    278c:	2d470c00 	sltiu	a3,t2,3072
    2790:	02000012 	0x2000012
    2794:	1b130423 	0x1b130423
    2798:	0100000a 	movz	zero,t0,zero
    279c:	000cbe0d 	break	0xc,0x2f8
    27a0:	334a0c00 	andi	t2,k0,0xc00
    27a4:	02000012 	0x2000012
    27a8:	14000823 	bnez	zero,4838 <_init-0x687fb7c8>
    27ac:	00001227 	0x1227
    27b0:	12271501 	beq	s1,a3,7bb8 <_init-0x687f8448>
    27b4:	ce150000 	pref	0x15,0(s0)
    27b8:	00000011 	mthi	zero
    27bc:	11d90404 	beq	t6,t9,37d0 <_init-0x687fc830>
    27c0:	04040000 	0x4040000
    27c4:	00001216 	0x1216
    27c8:	12010404 	beq	s0,at,37dc <_init-0x687fc824>
    27cc:	b2070000 	0xb2070000
    27d0:	0c00000a 	jal	28 <_init-0x687fffd8>
    27d4:	0011d94c 	syscall	0x4765
    27d8:	39040400 	xori	a0,t0,0x400
    27dc:	05000012 	bltz	t0,2828 <_init-0x687fd7d8>
    27e0:	0000125f 	0x125f
    27e4:	06110504 	bgezal	s0,3bf8 <_init-0x687fc408>
    27e8:	000011ef 	0x11ef
    27ec:	070e0600 	tnei	t8,1536
    27f0:	00010000 	sll	zero,at,0x0
    27f4:	000ee807 	srav	sp,t6,zero
    27f8:	4a130500 	c2	0x130500
    27fc:	0c000012 	jal	48 <_init-0x687fffb8>
    2800:	000012d5 	0x12d5
    2804:	0d25051c 	jal	4941470 <_init-0x63ebeb90>
    2808:	00000df5 	0xdf5
    280c:	06ea1905 	tlti	s7,6405
    2810:	23020000 	addi	v0,t8,0
    2814:	0dee0d00 	jal	7b83400 <_init-0x60c7cc00>
    2818:	1a050000 	0x1a050000
    281c:	000006ea 	0x6ea
    2820:	0d042302 	jal	4108c08 <_init-0x646f73f8>
    2824:	00000fc2 	srl	at,zero,0x1f
    2828:	005e1c05 	0x5e1c05
    282c:	23020000 	addi	v0,t8,0
    2830:	080e0d08 	j	383420 <_init-0x6847cbe0>
    2834:	1d050000 	0x1d050000
    2838:	0000005e 	0x5e
    283c:	0d0c2302 	jal	4308c08 <_init-0x644f73f8>
    2840:	00000abb 	0xabb
    2844:	00692005 	0x692005
    2848:	23020000 	addi	v0,t8,0
    284c:	061b0d10 	0x61b0d10
    2850:	21050000 	addi	a1,t0,0
    2854:	00000069 	0x69
    2858:	0d142302 	jal	4508c08 <_init-0x642f73f8>
    285c:	00000dcc 	syscall	0x37
    2860:	125f2405 	beq	s2,ra,b878 <_init-0x687f4788>
    2864:	23020000 	addi	v0,t8,0
    2868:	9a070018 	lwr	a3,24(s0)
    286c:	05000004 	bltz	t0,2880 <_init-0x687fd780>
    2870:	00126a25 	0x126a25
    2874:	14cd0c00 	bne	a2,t5,5878 <_init-0x687fa788>
    2878:	05a00000 	bltz	t5,287c <_init-0x687fd784>
    287c:	0d7b0d60 	jal	5ec3580 <_init-0x6293ca80>
    2880:	2a050000 	slti	a1,s0,0
    2884:	000012d5 	0x12d5
    2888:	0d002302 	jal	4008c08 <_init-0x647f73f8>
    288c:	00000ebf 	0xebf
    2890:	00692d05 	0x692d05
    2894:	23020000 	addi	v0,t8,0
    2898:	05b20d1c 	bltzall	t5,5d0c <_init-0x687fa2f4>
    289c:	30050000 	andi	a1,zero,0x0
    28a0:	000014cd 	break	0x0,0x53
    28a4:	0d202302 	jal	4808c08 <_init-0x63ff73f8>
    28a8:	000007d2 	0x7d2
    28ac:	14cd3105 	bne	a2,t5,ecc4 <_init-0x687f133c>
    28b0:	23020000 	addi	v0,t8,0
    28b4:	0a560d24 	j	9583490 <_init-0x5f27cb70>
    28b8:	33050000 	andi	a1,t8,0x0
    28bc:	000014d3 	0x14d3
    28c0:	0d282302 	jal	4a08c08 <_init-0x63df73f8>
    28c4:	00000f6a 	0xf6a
    28c8:	14d33505 	bne	a2,s3,fce0 <_init-0x687f0320>
    28cc:	23020000 	addi	v0,t8,0
    28d0:	12270d2c 	beq	s1,a3,5d84 <_init-0x687fa27c>
    28d4:	36050000 	ori	a1,s0,0x0
    28d8:	000014d3 	0x14d3
    28dc:	0d302302 	jal	4c08c08 <_init-0x63bf73f8>
    28e0:	00000f84 	0xf84
    28e4:	14d33705 	bne	a2,s3,104fc <_init-0x687efb04>
    28e8:	23020000 	addi	v0,t8,0
    28ec:	0dc40d34 	jal	71034d0 <_init-0x616fcb30>
    28f0:	38050000 	xori	a1,zero,0x0
    28f4:	000014d3 	0x14d3
    28f8:	0d382302 	jal	4e08c08 <_init-0x639f73f8>
    28fc:	00000f61 	0xf61
    2900:	14d33905 	bne	a2,s3,10d18 <_init-0x687ef2e8>
    2904:	23020000 	addi	v0,t8,0
    2908:	074f0d3c 	0x74f0d3c
    290c:	3b050000 	xori	a1,t8,0x0
    2910:	000014d3 	0x14d3
    2914:	0d402302 	jal	5008c08 <_init-0x637f73f8>
    2918:	00000528 	0x528
    291c:	14d33c05 	bne	a2,s3,11934 <_init-0x687ee6cc>
    2920:	23020000 	addi	v0,t8,0
    2924:	0b1c0d44 	j	c703510 <_init-0x5c0fcaf0>
    2928:	3d050000 	0x3d050000
    292c:	000014d3 	0x14d3
    2930:	0d482302 	jal	5208c08 <_init-0x635f73f8>
    2934:	000008bc 	0x8bc
    2938:	14d33f05 	bne	a2,s3,12550 <_init-0x687edab0>
    293c:	23020000 	addi	v0,t8,0
    2940:	0b5a0d4c 	j	d683530 <_init-0x5b17cad0>
    2944:	40050000 	mfc0	a1,c0_index
    2948:	000014d3 	0x14d3
    294c:	0d502302 	jal	5408c08 <_init-0x633f73f8>
    2950:	0000044c 	syscall	0x11
    2954:	14d34105 	bne	a2,s3,12d6c <_init-0x687ed294>
    2958:	23020000 	addi	v0,t8,0
    295c:	09940d54 	j	6503550 <_init-0x622fcab0>
    2960:	42050000 	c0	0x50000
    2964:	000014d3 	0x14d3
    2968:	0d582302 	jal	5608c08 <_init-0x631f73f8>
    296c:	000005d2 	0x5d2
    2970:	14d34305 	bne	a2,s3,13588 <_init-0x687eca78>
    2974:	23020000 	addi	v0,t8,0
    2978:	0d880d5c 	jal	6203570 <_init-0x625fca90>
    297c:	44050000 	mfc1	a1,$f0
    2980:	000014d3 	0x14d3
    2984:	0d602302 	jal	5808c08 <_init-0x62ff73f8>
    2988:	00000bc0 	sll	at,zero,0xf
    298c:	14d34805 	bne	a2,s3,149a4 <_init-0x687eb65c>
    2990:	23020000 	addi	v0,t8,0
    2994:	0c4b0d64 	jal	12c3590 <_init-0x6753ca70>
    2998:	4a050000 	c2	0x50000
    299c:	000014d3 	0x14d3
    29a0:	0d682302 	jal	5a08c08 <_init-0x62df73f8>
    29a4:	00002eea 	0x2eea
    29a8:	0ca24c05 	jal	2893014 <_init-0x65f6cfec>
    29ac:	23020000 	addi	v0,t8,0
    29b0:	05300d6c 	bltzal	t1,5f64 <_init-0x687fa09c>
    29b4:	4d050000 	lwxc1	$f0,a1(t0)
    29b8:	00001026 	xor	v0,zero,zero
    29bc:	0d702302 	jal	5c08c08 <_init-0x62bf73f8>
    29c0:	00002e64 	0x2e64
    29c4:	08e14e05 	j	3853814 <_init-0x64fac7ec>
    29c8:	23020000 	addi	v0,t8,0
    29cc:	6c640e74 	0x6c640e74
    29d0:	4f050067 	c3	0x1050067
    29d4:	0000117d 	0x117d
    29d8:	0d782302 	jal	5e08c08 <_init-0x629f73f8>
    29dc:	0000170c 	syscall	0x5c
    29e0:	0a105005 	j	8414014 <_init-0x603ebfec>
    29e4:	23020000 	addi	v0,t8,0
    29e8:	2c510d7c 	sltiu	s1,v0,3452
    29ec:	51050000 	beql	t0,a1,29f0 <_init-0x687fd610>
    29f0:	00001244 	0x1244
    29f4:	01802303 	0x1802303
    29f8:	002e080d 	break	0x2e,0x20
    29fc:	67520500 	0x67520500
    2a00:	0300000d 	break	0x300
    2a04:	0d018423 	jal	406108c <_init-0x6479ef74>
    2a08:	0000108e 	0x108e
    2a0c:	0ac75305 	j	b1d4c14 <_init-0x5d62b3ec>
    2a10:	23030000 	addi	v1,t8,0
    2a14:	8c0d0188 	lw	t5,392(zero)
    2a18:	05000002 	bltz	t0,2a24 <_init-0x687fd5dc>
    2a1c:	00006956 	0x6956
    2a20:	8c230300 	lw	v1,768(at)
    2a24:	02610d01 	0x2610d01
    2a28:	57050000 	bnel	t8,a1,2a2c <_init-0x687fd5d4>
    2a2c:	00000069 	0x69
    2a30:	01902303 	0x1902303
    2a34:	00026c0d 	break	0x2,0x1b0
    2a38:	69580500 	0x69580500
    2a3c:	03000000 	0x3000000
    2a40:	0d019423 	jal	406508c <_init-0x6479af74>
    2a44:	000010b5 	0x10b5
    2a48:	00695b05 	0x695b05
    2a4c:	23030000 	addi	v1,t8,0
    2a50:	550d0198 	bnel	t0,t5,30b4 <_init-0x687fcf4c>
    2a54:	05000010 	bltz	t0,2a98 <_init-0x687fd568>
    2a58:	0000695e 	0x695e
    2a5c:	9c230300 	0x9c230300
    2a60:	04040001 	0x4040001
    2a64:	0000061c 	0x61c
    2a68:	05aa0404 	tlti	t5,1028
    2a6c:	f4070000 	sdc1	$f7,0(zero)
    2a70:	05000010 	bltz	t0,2ab4 <_init-0x687fd54c>
    2a74:	0012e060 	0x12e060
    2a78:	150c1700 	bne	t0,t4,867c <_init-0x687f7984>
    2a7c:	147a0000 	bne	v1,k0,2a80 <_init-0x687fd580>
    2a80:	41010000 	mftc0	zero,c0_random
    2a84:	00005e01 	0x5e01
    2a88:	80028c00 	lb	v0,-29696(zero)
    2a8c:	80031868 	lb	v1,6248(zero)
    2a90:	186d0168 	0x186d0168
    2a94:	0000150c 	syscall	0x54
    2a98:	688002a4 	0x688002a4
    2a9c:	688002a8 	0x688002a8
    2aa0:	145d1900 	bne	v0,sp,8ea4 <_init-0x687f715c>
    2aa4:	9f010000 	0x9f010000
    2aa8:	00005e01 	0x5e01
    2aac:	4e170100 	lwxc1	$f4,s7(s0)
    2ab0:	a6000015 	sh	zero,21(s0)
    2ab4:	01000014 	0x1000014
    2ab8:	006901af 	0x6901af
    2abc:	03180000 	0x3180000
    2ac0:	03206880 	0x3206880
    2ac4:	6d016880 	0x6d016880
    2ac8:	00170f1a 	0x170f1a
    2acc:	a2ae0100 	sb	t6,256(s5)
    2ad0:	0100000c 	syscall	0x40000
    2ad4:	14481a54 	bne	v0,t0,9428 <_init-0x687f6bd8>
    2ad8:	ae010000 	sw	at,0(s0)
    2adc:	00000c0a 	0xc0a
    2ae0:	1b005501 	blez	t8,17ee8 <_init-0x687e8118>
    2ae4:	00001582 	srl	v0,zero,0x16
    2ae8:	00001342 	srl	v0,zero,0xd
    2aec:	01012e01 	0x1012e01
    2af0:	68800320 	0x68800320
    2af4:	68800448 	0x68800448
    2af8:	381c6d01 	xori	gp,zero,0x6d01
    2afc:	01000020 	add	zero,t0,zero
    2b00:	0069012d 	0x69012d
    2b04:	54010000 	bnel	zero,at,2b08 <_init-0x687fd4f8>
    2b08:	0012301c 	0x12301c
    2b0c:	012d0100 	0x12d0100
    2b10:	000000a5 	0xa5
    2b14:	1d005501 	bgtz	t0,17f1c <_init-0x687e80e4>
    2b18:	00001600 	sll	v0,zero,0x18
    2b1c:	0014f901 	0x14f901
    2b20:	01270100 	0x1270100
    2b24:	0000005e 	0x5e
    2b28:	68800448 	0x68800448
    2b2c:	68800738 	0x68800738
    2b30:	331a6d01 	andi	k0,t8,0x6d01
    2b34:	01000003 	0x1000003
    2b38:	00160026 	xor	zero,zero,s6
    2b3c:	1e640100 	0x1e640100
    2b40:	000010b5 	0x10b5
    2b44:	0c8b2801 	jal	22ca004 <_init-0x66535ffc>
    2b48:	381f0000 	xori	ra,zero,0x0
    2b4c:	0100002b 	sltu	zero,t0,zero
    2b50:	0007c729 	0x7c729
    2b54:	10910200 	beq	a0,s1,3358 <_init-0x687fcca8>
    2b58:	00160620 	0x160620
    2b5c:	80049800 	lb	a0,-26624(zero)
    2b60:	80049c68 	lb	a0,-25496(zero)
    2b64:	16172168 	bne	s0,s7,b108 <_init-0x687f4ef8>
    2b68:	2d220000 	sltiu	v0,t1,0
    2b6c:	02000016 	0x2000016
    2b70:	38221891 	xori	v0,at,0x1891
    2b74:	01000016 	0x1000016
    2b78:	00002354 	0x2354
    2b7c:	17210000 	bne	t9,at,2b80 <_init-0x687fd480>
    2b80:	22000016 	addi	zero,s0,22
    2b84:	0000162d 	0x162d
    2b88:	22189102 	addi	t8,s0,-28414
    2b8c:	00001638 	0x1638
    2b90:	00005401 	0x5401
    2b94:	d9040400 	ldc2	$4,1024(t0)
    2b98:	24000014 	li	zero,20
    2b9c:	00001644 	0x1644
    2ba0:	000013d0 	0x13d0
    2ba4:	8b014f01 	lwl	at,20225(t8)
    2ba8:	0100000c 	syscall	0x40000
    2bac:	000df51e 	0xdf51e
    2bb0:	ea500100 	swc2	$16,256(s2)
    2bb4:	1e000006 	bgtz	s0,2bd0 <_init-0x687fd430>
    2bb8:	00000ac9 	0xac9
    2bbc:	16445101 	bne	s2,a0,16fc4 <_init-0x687e903c>
    2bc0:	071e0000 	0x71e0000
    2bc4:	01000014 	0x1000014
    2bc8:	00165a52 	0x165a52
    2bcc:	756e2500 	jalx	5b89400 <_init-0x62c76c00>
    2bd0:	5301006d 	beql	t8,at,2d88 <_init-0x687fd278>
    2bd4:	00000069 	0x69
    2bd8:	165a0a00 	bne	s2,k0,53dc <_init-0x687fac24>
    2bdc:	00850000 	0x850000
    2be0:	350b0000 	ori	t3,t0,0x0
    2be4:	07000000 	bltz	t8,2be8 <_init-0x687fd418>
    2be8:	0000350b 	0x350b
    2bec:	0a003100 	j	800c400 <_init-0x607f3c00>
    2bf0:	0000166a 	0x166a
    2bf4:	00000085 	0x85
    2bf8:	0000350b 	0x350b
    2bfc:	1d000900 	bgtz	t0,5000 <_init-0x687fb000>
    2c00:	00001709 	0x1709
    2c04:	0015c101 	0x15c101
    2c08:	01b70100 	0x1b70100
    2c0c:	0000005e 	0x5e
    2c10:	68800738 	0x68800738
    2c14:	68800be8 	0x68800be8
    2c18:	741a6d01 	jalx	69b404 <_init-0x68164bfc>
    2c1c:	01000012 	0x1000012
    2c20:	001709b6 	tne	zero,s7,0x26
    2c24:	25650100 	addiu	a1,t3,256
    2c28:	01006469 	0x1006469
    2c2c:	000069b8 	0x69b8
    2c30:	12e31f00 	beq	s7,v1,a834 <_init-0x687f57cc>
    2c34:	b9010000 	swr	at,0(t0)
    2c38:	0000165a 	0x165a
    2c3c:	26109102 	addiu	s0,s0,-28414
    2c40:	00727473 	tltu	v1,s2,0x1d1
    2c44:	1644ba01 	bne	s2,a0,ffff144c <emuqueue+0x977e91a8>
    2c48:	03050000 	0x3050000
    2c4c:	688071ac 	0x688071ac
    2c50:	0014951f 	0x14951f
    2c54:	acbb0100 	sw	k1,256(a1)
    2c58:	02000001 	movf	zero,s0,$fcc0
    2c5c:	e5272091 	swc1	$f7,8337(t1)
    2c60:	0f000016 	jal	c000058 <_init-0x5c7fffa8>
    2c64:	44000017 	0x44000017
    2c68:	68688008 	0x68688008
    2c6c:	28688008 	slti	t0,v1,-32760
    2c70:	0000171d 	0x171d
    2c74:	00172828 	0x172828
    2c78:	35200000 	ori	zero,t1,0x0
    2c7c:	2c000017 	sltiu	zero,zero,23
    2c80:	88688009 	lwl	t0,-32759(v1)
    2c84:	29688009 	slti	t0,t3,-32759
    2c88:	00001743 	sra	v0,zero,0x1d
    2c8c:	28235301 	slti	v1,at,21249
    2c90:	22000000 	addi	zero,s0,0
    2c94:	0000174f 	0x174f
    2c98:	00389102 	ror	s2,t8,0x4
    2c9c:	04040000 	0x4040000
    2ca0:	000003b3 	tltu	zero,zero,0xe
    2ca4:	0017352a 	0x17352a
    2ca8:	00153f00 	sll	a3,s5,0x1c
    2cac:	01580100 	0x1580100
    2cb0:	692b0101 	0x692b0101
    2cb4:	57010064 	bnel	t8,at,2e48 <_init-0x687fd1b8>
    2cb8:	00006901 	0x6901
    2cbc:	12302c00 	beq	s1,s0,dcc0 <_init-0x687f2340>
    2cc0:	57010000 	bnel	t8,at,2cc4 <_init-0x687fd33c>
    2cc4:	0000a501 	0xa501
    2cc8:	5c2a0000 	0x5c2a0000
    2ccc:	63000017 	0x63000017
    2cd0:	01000012 	0x1000012
    2cd4:	0101017e 	0x101017e
    2cd8:	002ed82c 	0x2ed82c
    2cdc:	017d0100 	0x17d0100
    2ce0:	000014d3 	0x14d3
    2ce4:	0013eb2d 	0x13eb2d
    2ce8:	017f0100 	0x17f0100
    2cec:	000010cf 	0x10cf
    2cf0:	17862e00 	bne	gp,a2,e4f4 <_init-0x687f1b0c>
    2cf4:	12f80000 	beq	s7,t8,2cf8 <_init-0x687fd308>
    2cf8:	a8010000 	swl	at,0(zero)
    2cfc:	005e0101 	0x5e0101
    2d00:	0be80000 	j	fa00000 <_init-0x58e00000>
    2d04:	0c486880 	jal	121a200 <_init-0x675e5e00>
    2d08:	6d016880 	0x6d016880
    2d0c:	0003132f 	0x3132f
    2d10:	01a90100 	0x1a90100
    2d14:	0000005e 	0x5e
    2d18:	1b005501 	blez	t8,18120 <_init-0x687e7ee0>
    2d1c:	000017ba 	0x17ba
    2d20:	00001243 	sra	v0,zero,0x9
    2d24:	01018c01 	0x1018c01
    2d28:	68800c48 	0x68800c48
    2d2c:	68800cbc 	0x68800cbc
    2d30:	64306d01 	0x64306d01
    2d34:	0100676c 	0x100676c
    2d38:	117d018b 	beq	t3,sp,3368 <_init-0x687fcc98>
    2d3c:	54010000 	bnel	zero,at,2d40 <_init-0x687fd2c0>
    2d40:	0014481c 	0x14481c
    2d44:	018b0100 	0x18b0100
    2d48:	00001091 	0x1091
    2d4c:	31005501 	andi	zero,t0,0x5501
    2d50:	00000030 	tge	zero,zero
    2d54:	00bba913 	0xbba913
    2d58:	05010000 	bgez	t0,2d5c <_init-0x687fd2a4>
    2d5c:	80736403 	lb	s3,25603(v1)
    2d60:	00743168 	0x743168
    2d64:	b5130000 	0xb5130000
    2d68:	000000e2 	0xe2
    2d6c:	68030501 	0x68030501
    2d70:	32688073 	andi	t0,s3,0x8073
    2d74:	00000a02 	srl	at,zero,0x8
    2d78:	16000b01 	bnez	s0,5980 <_init-0x687fa680>
    2d7c:	01010000 	0x1010000
    2d80:	0013c332 	tlt	zero,s3,0x30c
    2d84:	3a0c0100 	xori	t4,s0,0x100
    2d88:	01000001 	movf	zero,t0,$fcc0
    2d8c:	05c73201 	0x5c73201
    2d90:	0d010000 	jal	4040000 <_init-0x647c0000>
    2d94:	000007ed 	0x7ed
    2d98:	14310101 	bne	at,s1,31a0 <_init-0x687fce60>
    2d9c:	01000013 	mtlo	t0
    2da0:	000c8b1d 	0xc8b1d
    2da4:	03050100 	0x3050100
    2da8:	68807018 	0x68807018
    2dac:	0018270a 	0x18270a
    2db0:	000acd00 	sll	t9,t2,0x14
    2db4:	00350b00 	0x350b00
    2db8:	00080000 	sll	zero,t0,0x0
    2dbc:	0013f431 	tgeu	zero,s3,0x3d0
    2dc0:	17200100 	bnez	t9,31c4 <_init-0x687fce3c>
    2dc4:	01000018 	mult	t0,zero
    2dc8:	7f8c0305 	0x7f8c0305
    2dcc:	e7316880 	swc1	$f17,26752(t9)
    2dd0:	01000015 	0x1000015
    2dd4:	00012a21 	0x12a21
    2dd8:	03050100 	0x3050100
    2ddc:	68807f6c 	0x68807f6c
    2de0:	00172500 	sll	a0,s7,0x14
    2de4:	d3000200 	0xd3000200
    2de8:	04000004 	bltz	zero,2dfc <_init-0x687fd204>
    2dec:	0006a301 	0x6a301
    2df0:	80150400 	lb	s5,1024(zero)
    2df4:	800cbc68 	lb	t4,-17304(zero)
    2df8:	00008968 	0x8968
    2dfc:	168c0100 	bne	s4,t4,3200 <_init-0x687fce00>
    2e00:	00dc0000 	0xdc0000
    2e04:	00020000 	sll	zero,v0,0x0
    2e08:	01000000 	0x1000000
    2e0c:	02040308 	0x2040308
    2e10:	000000bb 	0xbb
    2e14:	8c020702 	lw	v0,1794(zero)
    2e18:	04000001 	bltz	zero,2e20 <_init-0x687fd1e0>
    2e1c:	01910207 	0x1910207
    2e20:	07040000 	0x7040000
    2e24:	003c0404 	0x3c0404
    2e28:	5e050000 	0x5e050000
    2e2c:	04000000 	bltz	zero,2e30 <_init-0x687fd1d0>
    2e30:	c2062602 	ll	a2,9730(s0)
    2e34:	00000003 	sra	zero,zero,0x0
    2e38:	000dd606 	0xdd606
    2e3c:	07000100 	bltz	t8,3240 <_init-0x687fcdc0>
    2e40:	00000486 	0x486
    2e44:	00492902 	0x492902
    2e48:	69080000 	0x69080000
    2e4c:	0400746e 	bltz	zero,20008 <_init-0x687dfff8>
    2e50:	01b50205 	0x1b50205
    2e54:	05080000 	tgei	t0,0
    2e58:	00018c02 	srl	s1,at,0x10
    2e5c:	02070400 	0x2070400
    2e60:	000001ba 	0x1ba
    2e64:	09020504 	j	4081410 <_init-0x6477ebf0>
    2e68:	01000000 	0x1000000
    2e6c:	01490206 	0x1490206
    2e70:	05020000 	bltzl	t0,2e74 <_init-0x687fd18c>
    2e74:	00018702 	srl	s0,at,0x1c
    2e78:	04070800 	0x4070800
    2e7c:	0000a004 	sllv	s4,zero,zero
    2e80:	00850900 	0x850900
    2e84:	04040000 	0x4040000
    2e88:	00000085 	0x85
    2e8c:	0000bb0a 	0xbb0a
    2e90:	00002500 	sll	a0,zero,0x14
    2e94:	00350b00 	0x350b00
    2e98:	000f0000 	sll	zero,t7,0x0
    2e9c:	0000e205 	0xe205
    2ea0:	a3110400 	sb	s1,1024(t8)
    2ea4:	00015306 	0x15306
    2ea8:	31060000 	andi	a2,t0,0x0
    2eac:	01000001 	movf	zero,t0,$fcc0
    2eb0:	00005b06 	0x5b06
    2eb4:	1a060200 	0x1a060200
    2eb8:	03000000 	0x3000000
    2ebc:	00004506 	0x4506
    2ec0:	05000000 	bltz	t0,2ec4 <_init-0x687fd13c>
    2ec4:	000000f7 	0xf7
    2ec8:	06b01104 	bltzal	s5,72dc <_init-0x687f8d24>
    2ecc:	000001c3 	sra	zero,zero,0x7
    2ed0:	019e0600 	0x19e0600
    2ed4:	00010000 	sll	zero,at,0x0
    2ed8:	0001080a 	movz	at,zero,at
    2edc:	00008500 	sll	s0,zero,0x14
    2ee0:	00350c00 	0x350c00
    2ee4:	03ff0000 	0x3ff0000
    2ee8:	01230500 	0x1230500
    2eec:	12040000 	beq	s0,a0,2ef0 <_init-0x687fd110>
    2ef0:	0357066d 	0x357066d
    2ef4:	06000000 	bltz	s0,2ef8 <_init-0x687fd108>
    2ef8:	00000d01 	0xd01
    2efc:	082e0601 	j	b81804 <_init-0x67c7e7fc>
    2f00:	00020000 	sll	zero,v0,0x0
    2f04:	00031a07 	0x31a07
    2f08:	08721200 	j	1c84800 <_init-0x66b7b800>
    2f0c:	0d000001 	jal	4000004 <_init-0x647ffffc>
    2f10:	0000016f 	0x16f
    2f14:	0e790e0c 	jal	9e43830 <_init-0x5e9bc7d0>
    2f18:	00000306 	0x306
    2f1c:	002e720e 	0x2e720e
    2f20:	23020000 	addi	v0,t8,0
    2f24:	07b30e00 	bgezall	sp,6728 <_init-0x687f98d8>
    2f28:	740e0000 	jalx	380000 <_init-0x68480000>
    2f2c:	0000002e 	0x2e
    2f30:	0e022302 	jal	8088c08 <_init-0x607773f8>
    2f34:	000002f8 	0x2f8
    2f38:	002e760e 	0x2e760e
    2f3c:	23020000 	addi	v0,t8,0
    2f40:	0e220e04 	jal	8883810 <_init-0x5ff7c7f0>
    2f44:	780e0000 	0x780e0000
    2f48:	0000016f 	0x16f
    2f4c:	00082302 	srl	a0,t0,0xc
    2f50:	01750404 	0x1750404
    2f54:	25090000 	addiu	t1,t0,0
    2f58:	07000000 	bltz	t8,2f5c <_init-0x687fd0a4>
    2f5c:	00000949 	0x949
    2f60:	012e790e 	0x12e790e
    2f64:	950a0000 	lhu	t2,0(t0)
    2f68:	85000001 	lh	zero,1(t0)
    2f6c:	0b000000 	j	c000000 <_init-0x5c800000>
    2f70:	00000035 	0x35
    2f74:	e40d0007 	swc1	$f13,7(zero)
    2f78:	14000001 	bnez	zero,2f80 <_init-0x687fd080>
    2f7c:	e80e4208 	swc2	$14,16904(zero)
    2f80:	08000002 	j	8 <_init-0x687ffff8>
    2f84:	00006939 	0x6939
    2f88:	00230200 	0x230200
    2f8c:	0007590e 	0x7590e
    2f90:	693b0800 	0x693b0800
    2f94:	02000000 	0x2000000
    2f98:	640f0423 	0x640f0423
    2f9c:	08007961 	j	1e584 <_init-0x687e1a7c>
    2fa0:	0000693d 	0x693d
    2fa4:	08230200 	j	8c0800 <_init-0x67f3f800>
    2fa8:	0006530e 	0x6530e
    2fac:	693f0800 	0x693f0800
    2fb0:	02000000 	0x2000000
    2fb4:	cd0e0c23 	pref	0xe,3107(t0)
    2fb8:	0800001f 	j	7c <_init-0x687fff84>
    2fbc:	00008541 	0x8541
    2fc0:	10230200 	beq	at,v1,37c4 <_init-0x687fc83c>
    2fc4:	0d120700 	jal	4481c00 <_init-0x6437e400>
    2fc8:	42080000 	c0	0x80000
    2fcc:	00000195 	0x195
    2fd0:	0002220d 	break	0x2,0x88
    2fd4:	50080c00 	beql	zero,t0,5fd8 <_init-0x687fa028>
    2fd8:	0009680e 	0x9680e
    2fdc:	694b0800 	0x694b0800
    2fe0:	02000000 	0x2000000
    2fe4:	250e0023 	addiu	t6,t0,35
    2fe8:	0800000b 	j	2c <_init-0x687fffd4>
    2fec:	0000694d 	break	0x0,0x1a5
    2ff0:	04230200 	bgezl	at,37f4 <_init-0x687fc80c>
    2ff4:	000b670e 	0xb670e
    2ff8:	694f0800 	0x694f0800
    2ffc:	02000000 	0x2000000
    3000:	07000823 	bltz	t8,5090 <_init-0x687faf70>
    3004:	000006e2 	0x6e2
    3008:	01ef5008 	0x1ef5008
    300c:	63100000 	0x63100000
    3010:	e3000002 	sc	zero,2(t8)
    3014:	0900000d 	j	4000034 <_init-0x647fffcc>
    3018:	cd0e5304 	pref	0xe,21252(t0)
    301c:	0400001f 	bltz	zero,309c <_init-0x687fcf64>
    3020:	00002555 	0x2555
    3024:	00230200 	0x230200
    3028:	0064690f 	0x64690f
    302c:	003c5704 	0x3c5704
    3030:	23020000 	addi	v0,t8,0
    3034:	02c00e01 	0x2c00e01
    3038:	59040000 	0x59040000
    303c:	00000043 	sra	zero,zero,0x1
    3040:	00052302 	srl	a0,a1,0xc
    3044:	00038607 	0x38607
    3048:	2d5b0400 	sltiu	k1,t2,1024
    304c:	0d000002 	jal	4000008 <_init-0x647ffff8>
    3050:	00000329 	0x329
    3054:	0e810425 	jal	a041094 <_init-0x5e7bef6c>
    3058:	00001165 	0x1165
    305c:	02636404 	0x2636404
    3060:	23020000 	addi	v0,t8,0
    3064:	09370e00 	j	4dc3800 <_init-0x63a3c800>
    3068:	67040000 	0x67040000
    306c:	0000008c 	syscall	0x2
    3070:	0e092302 	jal	8248c08 <_init-0x605b73f8>
    3074:	00000978 	0x978
    3078:	008c6904 	0x8c6904
    307c:	23020000 	addi	v0,t8,0
    3080:	00780f0b 	0x780f0b
    3084:	008c6b04 	0x8c6b04
    3088:	23020000 	addi	v0,t8,0
    308c:	00790f0d 	break	0x79,0x3c
    3090:	008c6d04 	0x8c6d04
    3094:	23020000 	addi	v0,t8,0
    3098:	10d60e0f 	beq	a2,s6,68d8 <_init-0x687f9728>
    309c:	70040000 	madd	zero,a0
    30a0:	0000008c 	syscall	0x2
    30a4:	0e112302 	jal	8448c08 <_init-0x603b73f8>
    30a8:	00000bb9 	0xbb9
    30ac:	008c7204 	0x8c7204
    30b0:	23020000 	addi	v0,t8,0
    30b4:	0b2c0e13 	j	cb0384c <_init-0x5bcfc7b4>
    30b8:	74040000 	jalx	100000 <_init-0x68700000>
    30bc:	0000003c 	0x3c
    30c0:	0e152302 	jal	8548c08 <_init-0x602b73f8>
    30c4:	00000806 	srlv	at,zero,zero
    30c8:	00257604 	0x257604
    30cc:	23020000 	addi	v0,t8,0
    30d0:	07070e19 	0x7070e19
    30d4:	78040000 	0x78040000
    30d8:	00000025 	move	zero,zero
    30dc:	0e1a2302 	jal	8688c08 <_init-0x601773f8>
    30e0:	00000edb 	0xedb
    30e4:	002e7a04 	0x2e7a04
    30e8:	23020000 	addi	v0,t8,0
    30ec:	0ce00e1b 	jal	380386c <_init-0x64ffc794>
    30f0:	7d040000 	ext	a0,t0,0x0,0x1
    30f4:	0000003c 	0x3c
    30f8:	0e1d2302 	jal	8748c08 <_init-0x600b73f8>
    30fc:	000002ba 	0x2ba
    3100:	003c7f04 	0x3c7f04
    3104:	23020000 	addi	v0,t8,0
    3108:	ed070021 	swc3	$7,33(t0)
    310c:	0400000c 	bltz	zero,3140 <_init-0x687fcec0>
    3110:	00026e81 	0x26e81
    3114:	04190d00 	0x4190d00
    3118:	04250000 	0x4250000
    311c:	11650edf 	beq	t3,a1,6c9c <_init-0x687f9364>
    3120:	bd040000 	cache	0x4,0(t0)
    3124:	00000263 	0x263
    3128:	0f002302 	jal	c008c08 <_init-0x5c7f73f8>
    312c:	bf040078 	cache	0x4,120(t8)
    3130:	0000008c 	syscall	0x2
    3134:	0f092302 	jal	c248c08 <_init-0x5c5b73f8>
    3138:	c1040079 	ll	a0,121(t0)
    313c:	0000008c 	syscall	0x2
    3140:	0e0b2302 	jal	82c8c08 <_init-0x605373f8>
    3144:	000010d6 	0x10d6
    3148:	008cc304 	0x8cc304
    314c:	23020000 	addi	v0,t8,0
    3150:	0bb90e0d 	j	ee43834 <_init-0x599bc7cc>
    3154:	c5040000 	lwc1	$f4,0(t0)
    3158:	0000008c 	syscall	0x2
    315c:	0e0f2302 	jal	83c8c08 <_init-0x604373f8>
    3160:	00000373 	tltu	zero,zero,0xd
    3164:	003cc704 	0x3cc704
    3168:	23020000 	addi	v0,t8,0
    316c:	0b2c0e11 	j	cb03844 <_init-0x5bcfc7bc>
    3170:	c9040000 	lwc2	$4,0(t0)
    3174:	0000003c 	0x3c
    3178:	0e152302 	jal	8548c08 <_init-0x602b73f8>
    317c:	00000806 	srlv	at,zero,zero
    3180:	0025cb04 	0x25cb04
    3184:	23020000 	addi	v0,t8,0
    3188:	09a10e19 	j	6843864 <_init-0x61fbc79c>
    318c:	cd040000 	pref	0x4,0(t0)
    3190:	00000025 	move	zero,zero
    3194:	0e1a2302 	jal	8688c08 <_init-0x601773f8>
    3198:	00000e9b 	0xe9b
    319c:	0025cf04 	0x25cf04
    31a0:	23020000 	addi	v0,t8,0
    31a4:	0bb40e1b 	j	ed0386c <_init-0x59afc794>
    31a8:	d1040000 	0xd1040000
    31ac:	00000025 	move	zero,zero
    31b0:	0e1c2302 	jal	8708c08 <_init-0x600f73f8>
    31b4:	0000109d 	0x109d
    31b8:	002ed504 	0x2ed504
    31bc:	23020000 	addi	v0,t8,0
    31c0:	030c0e1d 	0x30c0e1d
    31c4:	d7040000 	ldc1	$f4,0(t8)
    31c8:	00000025 	move	zero,zero
    31cc:	0e1f2302 	jal	87c8c08 <_init-0x600373f8>
    31d0:	00000658 	0x658
    31d4:	0085d904 	0x85d904
    31d8:	23020000 	addi	v0,t8,0
    31dc:	0d380e20 	jal	4e03880 <_init-0x639fc780>
    31e0:	db040000 	ldc2	$4,0(t8)
    31e4:	0000002e 	0x2e
    31e8:	0e212302 	jal	8848c08 <_init-0x5ffb73f8>
    31ec:	00000300 	sll	zero,zero,0xc
    31f0:	002edd04 	0x2edd04
    31f4:	23020000 	addi	v0,t8,0
    31f8:	c6070023 	lwc1	$f7,35(s0)
    31fc:	04000008 	bltz	zero,3220 <_init-0x687fcde0>
    3200:	000334df 	0x334df
    3204:	048b0d00 	tltiu	a0,3328
    3208:	04140000 	0x4140000
    320c:	11650ef1 	beq	t3,a1,6dd4 <_init-0x687f922c>
    3210:	e9040000 	swc2	$4,0(t0)
    3214:	00000263 	0x263
    3218:	0f002302 	jal	c008c08 <_init-0x5c7f73f8>
    321c:	ea040078 	swc2	$4,120(s0)
    3220:	0000008c 	syscall	0x2
    3224:	0f092302 	jal	c248c08 <_init-0x5c5b73f8>
    3228:	eb040079 	swc2	$4,121(t8)
    322c:	0000008c 	syscall	0x2
    3230:	0e0b2302 	jal	82c8c08 <_init-0x605373f8>
    3234:	000010d6 	0x10d6
    3238:	008cec04 	0x8cec04
    323c:	23020000 	addi	v0,t8,0
    3240:	0bb90e0d 	j	ee43834 <_init-0x599bc7cc>
    3244:	ed040000 	swc3	$4,0(t0)
    3248:	0000008c 	syscall	0x2
    324c:	0e0f2302 	jal	83c8c08 <_init-0x604373f8>
    3250:	00000806 	srlv	at,zero,zero
    3254:	0025ee04 	0x25ee04
    3258:	23020000 	addi	v0,t8,0
    325c:	09420e11 	j	5083844 <_init-0x6377c7bc>
    3260:	ef040000 	swc3	$4,0(t8)
    3264:	0000002e 	0x2e
    3268:	00122302 	srl	a0,s2,0xc
    326c:	00037e07 	0x37e07
    3270:	24f10400 	addiu	s1,a3,1024
    3274:	11000004 	beqz	t0,3288 <_init-0x687fcd78>
    3278:	0000054d 	break	0x0,0x15
    327c:	01130429 	0x1130429
    3280:	0400780f 	bltz	zero,212c0 <_init-0x687ded40>
    3284:	00008cfa 	0x8cfa
    3288:	00230200 	0x230200
    328c:	0400790f 	bltz	zero,216cc <_init-0x687de934>
    3290:	00008cfc 	0x8cfc
    3294:	02230200 	0x2230200
    3298:	0010d60e 	0x10d60e
    329c:	8cfe0400 	lw	s8,1024(a3)
    32a0:	02000000 	0x2000000
    32a4:	b9120423 	swr	s2,1059(t0)
    32a8:	0400000b 	bltz	zero,32d8 <_init-0x687fcd28>
    32ac:	008c0100 	0x8c0100
    32b0:	23020000 	addi	v0,t8,0
    32b4:	0b2c1206 	j	cb04818 <_init-0x5bcfb7e8>
    32b8:	02040000 	0x2040000
    32bc:	00003c01 	0x3c01
    32c0:	08230200 	j	8c0800 <_init-0x67f3f800>
    32c4:	00080612 	0x80612
    32c8:	01040400 	0x1040400
    32cc:	00000025 	move	zero,zero
    32d0:	120c2302 	beq	s0,t4,bedc <_init-0x687f4124>
    32d4:	00000707 	0x707
    32d8:	25010604 	addiu	at,t0,1540
    32dc:	02000000 	0x2000000
    32e0:	db120d23 	ldc2	$18,3363(t8)
    32e4:	0400000e 	bltz	zero,3320 <_init-0x687fcce0>
    32e8:	002e0108 	0x2e0108
    32ec:	23020000 	addi	v0,t8,0
    32f0:	0ce0120e 	jal	3804838 <_init-0x64ffb7c8>
    32f4:	0b040000 	j	c100000 <_init-0x5c700000>
    32f8:	00003c01 	0x3c01
    32fc:	10230200 	beq	at,v1,3b00 <_init-0x687fc500>
    3300:	0002ba12 	0x2ba12
    3304:	010d0400 	0x10d0400
    3308:	0000003c 	0x3c
    330c:	12142302 	beq	s0,s4,bf18 <_init-0x687f40e8>
    3310:	00000658 	0x658
    3314:	25010f04 	addiu	at,t0,3844
    3318:	02000000 	0x2000000
    331c:	01121823 	subu	v1,t0,s2
    3320:	04000008 	bltz	zero,3344 <_init-0x687fccbc>
    3324:	00ab0111 	0xab0111
    3328:	23020000 	addi	v0,t8,0
    332c:	db130019 	ldc2	$19,25(t8)
    3330:	0400000d 	bltz	zero,3368 <_init-0x687fcc98>
    3334:	04960113 	0x4960113
    3338:	04040000 	0x4040000
    333c:	0000054d 	break	0x0,0x15
    3340:	00058005 	0x58005
    3344:	30100400 	andi	s0,zero,0x400
    3348:	000c9106 	0xc9106
    334c:	6d060000 	0x6d060000
    3350:	01000009 	jalr	zero,t0
    3354:	000c0406 	0xc0406
    3358:	4a060200 	c2	0x60200
    335c:	0300000a 	movz	zero,t8,zero
    3360:	10620700 	beq	v1,v0,4f64 <_init-0x687fb09c>
    3364:	35100000 	ori	s0,t0,0x0
    3368:	0000055f 	0x55f
    336c:	00060605 	0x60605
    3370:	1e0f0400 	0x1e0f0400
    3374:	000d3e06 	0xd3e06
    3378:	49060000 	bc2fl	$cc1,337c <_init-0x687fcc84>
    337c:	01000008 	jr	t0
    3380:	0007f206 	0x7f206
    3384:	a8060200 	swl	a2,512(zero)
    3388:	03000003 	0x3000003
    338c:	00047406 	0x47406
    3390:	37060400 	ori	a2,t8,0x400
    3394:	05000005 	bltz	t0,33ac <_init-0x687fcc54>
    3398:	000f8d06 	0xf8d06
    339c:	dd060600 	ldc3	$6,1536(t0)
    33a0:	07000005 	bltz	t8,33b8 <_init-0x687fcc48>
    33a4:	000e0206 	0xe0206
    33a8:	e7060800 	swc1	$f6,2048(t8)
    33ac:	09000010 	j	4000040 <_init-0x647fffc0>
    33b0:	0005b906 	0x5b906
    33b4:	7f060a00 	ext	a2,t8,0x8,0x2
    33b8:	0b00000c 	j	c000030 <_init-0x5c7fffd0>
    33bc:	000e7306 	0xe7306
    33c0:	2d060c00 	sltiu	a2,t0,3072
    33c4:	0d00000d 	jal	4000034 <_init-0x647fffcc>
    33c8:	00074306 	0x74306
    33cc:	22060e00 	addi	a2,s0,3584
    33d0:	0f00000c 	jal	c000030 <_init-0x5c7fffd0>
    33d4:	00021606 	0x21606
    33d8:	5b061000 	0x5b061000
    33dc:	11000009 	beqz	t0,3404 <_init-0x687fcbfc>
    33e0:	000fe906 	0xfe906
    33e4:	07001200 	bltz	t8,7be8 <_init-0x687f8418>
    33e8:	00000a74 	teq	zero,zero,0x29
    33ec:	058b490f 	tltiu	t4,18703
    33f0:	360d0000 	ori	t5,s0,0x0
    33f4:	08000006 	j	18 <_init-0x687fffe8>
    33f8:	9b0e670f 	lwr	t6,26383(t8)
    33fc:	0f00000e 	jal	c000038 <_init-0x5c7fffc8>
    3400:	00060665 	0x60665
    3404:	00230200 	0x230200
    3408:	000dfb0e 	0xdfb0e
    340c:	80660f00 	lb	a2,3840(v1)
    3410:	02000005 	0x2000005
    3414:	07000423 	bltz	t8,44a4 <_init-0x687fbb5c>
    3418:	00000855 	0x855
    341c:	0611670f 	bgezal	s0,1d05c <_init-0x687e2fa4>
    3420:	5c050000 	0x5c050000
    3424:	04000006 	bltz	zero,3440 <_init-0x687fcbc0>
    3428:	4b066e0f 	c2	0x1066e0f
    342c:	0000000b 	movn	zero,zero,zero
    3430:	000e4a06 	0xe4a06
    3434:	22060100 	addi	a2,s0,256
    3438:	02000007 	srav	zero,zero,s0
    343c:	0c5b0700 	jal	16c1c00 <_init-0x6713e400>
    3440:	750f0000 	jalx	43c0000 <_init-0x64440000>
    3444:	00000641 	0x641
    3448:	00068805 	0x68805
    344c:	21090400 	addi	t1,t0,1024
    3450:	000ec706 	0xec706
    3454:	d0060000 	0xd0060000
    3458:	0100000a 	movz	zero,t0,zero
    345c:	0006bd06 	0x6bd06
    3460:	a4060200 	sh	a2,512(zero)
    3464:	03000010 	0x3000010
    3468:	11050700 	beq	t0,a1,506c <_init-0x687faf94>
    346c:	26090000 	addiu	t1,s0,0
    3470:	00000667 	0x667
    3474:	0006a205 	0x6a205
    3478:	2e090400 	sltiu	t1,s0,1024
    347c:	000e3206 	0xe3206
    3480:	07000000 	bltz	t8,3484 <_init-0x687fcb7c>
    3484:	0000078d 	break	0x0,0x1e
    3488:	06933009 	bgezall	s4,f4b0 <_init-0x687f0b50>
    348c:	22100000 	addi	s0,s0,0
    3490:	9b000007 	lwr	zero,7(t8)
    3494:	18000011 	blez	zero,34dc <_init-0x687fcb24>
    3498:	cd0e5c09 	pref	0xe,23561(t0)
    349c:	0900001f 	j	400007c <_init-0x647fff84>
    34a0:	0006885e 	0x6885e
    34a4:	00230200 	0x230200
    34a8:	00083d0e 	0x83d0e
    34ac:	2e600900 	sltiu	zero,s3,2304
    34b0:	02000000 	0x2000000
    34b4:	580e0423 	0x580e0423
    34b8:	0900000d 	j	4000034 <_init-0x647fffcc>
    34bc:	00002e62 	0x2e62
    34c0:	06230200 	bgezl	s1,3cc4 <_init-0x687fc33c>
    34c4:	00033c0e 	0x33c0e
    34c8:	a5640900 	sh	a0,2304(t3)
    34cc:	02000000 	0x2000000
    34d0:	240e0823 	li	t6,2083
    34d4:	0900002d 	j	40000b4 <_init-0x647fff4c>
    34d8:	00073967 	0x73967
    34dc:	0c230200 	jal	8c0800 <_init-0x67f3f800>
    34e0:	000e280e 	0xe280e
    34e4:	696a0900 	0x696a0900
    34e8:	02000000 	0x2000000
    34ec:	39141023 	xori	s4,t0,0x1023
    34f0:	0100000c 	syscall	0x40000
    34f4:	0002590e 	0x2590e
    34f8:	3f6d0900 	0x3f6d0900
    34fc:	02000007 	srav	zero,zero,s0
    3500:	15001423 	bnez	t0,8590 <_init-0x687f7a70>
    3504:	00000733 	tltu	zero,zero,0x1c
    3508:	07331601 	bgezall	t9,8d10 <_init-0x687f72f0>
    350c:	a2160000 	sb	s6,0(s0)
    3510:	00000006 	srlv	zero,zero,zero
    3514:	06ad0404 	0x6ad0404
    3518:	04040000 	0x4040000
    351c:	00000722 	0x722
    3520:	070d0404 	0x70d0404
    3524:	a5070000 	sh	a3,0(t0)
    3528:	09000011 	j	4000044 <_init-0x647fffbc>
    352c:	0006ad6e 	0x6ad6e
    3530:	45040400 	bc1f	$fcc1,4534 <_init-0x687fbacc>
    3534:	05000007 	bltz	t0,3554 <_init-0x687fcaac>
    3538:	00000783 	sra	zero,zero,0x1e
    353c:	06230b04 	bgezl	s1,6150 <_init-0x687f9eb0>
    3540:	00000232 	tlt	zero,zero,0x8
    3544:	08860600 	j	2181800 <_init-0x6667e800>
    3548:	06010000 	bgez	s0,354c <_init-0x687fcab4>
    354c:	00001080 	sll	v0,zero,0x2
    3550:	12050602 	beq	s0,a1,4d5c <_init-0x687fb2a4>
    3554:	06030000 	bgezl	s0,3558 <_init-0x687fcaa8>
    3558:	00000277 	0x277
    355c:	10290604 	beq	at,t1,4d70 <_init-0x687fb290>
    3560:	00050000 	sll	zero,a1,0x0
    3564:	0003c807 	srav	t9,v1,zero
    3568:	562a0b00 	bnel	s1,t2,616c <_init-0x687f9e94>
    356c:	05000007 	bltz	t0,358c <_init-0x687fca74>
    3570:	000007b5 	0x7b5
    3574:	06360b04 	0x6360b04
    3578:	000005ea 	0x5ea
    357c:	0fd10600 	jal	f441800 <_init-0x593be800>
    3580:	06010000 	bgez	s0,3584 <_init-0x687fca7c>
    3584:	000006ed 	0x6ed
    3588:	05940602 	0x5940602
    358c:	06030000 	bgezl	s0,3590 <_init-0x687fca70>
    3590:	000003fd 	0x3fd
    3594:	97070004 	lhu	a3,4(t8)
    3598:	0b000002 	j	c000008 <_init-0x5c7ffff8>
    359c:	00078e3c 	0x78e3c
    35a0:	08511000 	j	1444000 <_init-0x673bc000>
    35a4:	067c0000 	0x67c0000
    35a8:	0b240000 	j	c900000 <_init-0x5bf00000>
    35ac:	1fcd0e4b 	0x1fcd0e4b
    35b0:	4e0b0000 	lwxc1	$f0,t3(s0)
    35b4:	00000783 	sra	zero,zero,0x1e
    35b8:	0e002302 	jal	8008c08 <_init-0x607f73f8>
    35bc:	000003b4 	teq	zero,zero,0xe
    35c0:	00a5510b 	0xa5510b
    35c4:	23020000 	addi	v0,t8,0
    35c8:	11140e04 	beq	t0,s4,6ddc <_init-0x687f9224>
    35cc:	540b0000 	bnel	zero,t3,35d0 <_init-0x687fca30>
    35d0:	000000a5 	0xa5
    35d4:	0e082302 	jal	8208c08 <_init-0x605f73f8>
    35d8:	00000ac2 	srl	at,zero,0xb
    35dc:	00a5560b 	0xa5560b
    35e0:	23020000 	addi	v0,t8,0
    35e4:	0e280e0c 	jal	8a03830 <_init-0x5fdfc7d0>
    35e8:	590b0000 	0x590b0000
    35ec:	00000069 	0x69
    35f0:	0e102302 	jal	8408c08 <_init-0x603f73f8>
    35f4:	00002d24 	0x2d24
    35f8:	08685c0b 	j	1a1702c <_init-0x66de8fd4>
    35fc:	23020000 	addi	v0,t8,0
    3600:	03b80e14 	0x3b80e14
    3604:	5f0b0000 	0x5f0b0000
    3608:	0000009a 	0x9a
    360c:	0e182302 	jal	8608c08 <_init-0x601f73f8>
    3610:	00000672 	tlt	zero,zero,0x19
    3614:	009a620b 	0x9a620b
    3618:	23020000 	addi	v0,t8,0
    361c:	1123141c 	beq	t1,v1,8690 <_init-0x687f7970>
    3620:	0e010000 	jal	8040000 <_init-0x607c0000>
    3624:	00000cbe 	0xcbe
    3628:	086e650b 	j	1b9942c <_init-0x66c66bd4>
    362c:	23020000 	addi	v0,t8,0
    3630:	62150020 	0x62150020
    3634:	01000008 	jr	t0
    3638:	00086216 	0x86216
    363c:	07b51600 	0x7b51600
    3640:	04000000 	bltz	zero,3644 <_init-0x687fc9bc>
    3644:	0007c004 	sllv	t8,a3,zero
    3648:	51040400 	beql	t0,a0,464c <_init-0x687fb9b4>
    364c:	04000008 	bltz	zero,3670 <_init-0x687fc990>
    3650:	00083c04 	0x83c04
    3654:	0ae40700 	j	b901c00 <_init-0x5cefe400>
    3658:	660b0000 	0x660b0000
    365c:	000007c0 	sll	zero,zero,0x1f
    3660:	08740404 	j	1d01010 <_init-0x66afeff0>
    3664:	d9070000 	ldc2	$7,0(t0)
    3668:	06000012 	bltz	s0,36b4 <_init-0x687fc94c>
    366c:	00089021 	addu	s2,zero,t0
    3670:	96040400 	lhu	a0,1024(s0)
    3674:	17000008 	bnez	t8,3698 <_init-0x687fc968>
    3678:	000008ab 	0x8ab
    367c:	00006901 	0x6901
    3680:	002c1600 	0x2c1600
    3684:	69160000 	0x69160000
    3688:	00000000 	nop
    368c:	00093610 	0x93610
    3690:	00143800 	sll	a3,s4,0x0
    3694:	28062400 	slti	a2,zero,9216
    3698:	00155a0e 	0x155a0e
    369c:	692a0600 	0x692a0600
    36a0:	02000000 	0x2000000
    36a4:	5c0e0023 	0x5c0e0023
    36a8:	06000015 	bltz	s0,3700 <_init-0x687fc900>
    36ac:	0000692d 	0x692d
    36b0:	04230200 	bgezl	at,3eb4 <_init-0x687fc14c>
    36b4:	0006a30e 	0x6a30e
    36b8:	69300600 	0x69300600
    36bc:	02000000 	0x2000000
    36c0:	2f0e0823 	sltiu	t6,t8,2083
    36c4:	06000013 	bltz	s0,3714 <_init-0x687fc8ec>
    36c8:	00005e33 	tltu	zero,zero,0x178
    36cc:	0c230200 	jal	8c0800 <_init-0x67f3f800>
    36d0:	002d240e 	0x2d240e
    36d4:	85360600 	lh	s6,1536(t1)
    36d8:	02000008 	jr	s0
    36dc:	430e1023 	c0	0x10e1023
    36e0:	06000014 	bltz	s0,3734 <_init-0x687fc8cc>
    36e4:	0000a539 	0xa539
    36e8:	14230200 	bne	at,v1,3eec <_init-0x687fc114>
    36ec:	0012ec0e 	0x12ec0e
    36f0:	a53c0600 	sh	gp,1536(t1)
    36f4:	02000000 	0x2000000
    36f8:	f20e1823 	0xf20e1823
    36fc:	06000012 	bltz	s0,3748 <_init-0x687fc8b8>
    3700:	0000a53f 	0xa53f
    3704:	1c230200 	0x1c230200
    3708:	0012d20e 	0x12d20e
    370c:	36420600 	ori	v0,s2,0x600
    3710:	02000009 	jalr	zero,s0
    3714:	04002023 	bltz	zero,b7a4 <_init-0x687f485c>
    3718:	00017a04 	0x17a04
    371c:	14ee0700 	bne	a3,t6,5320 <_init-0x687face0>
    3720:	44060000 	mfc1	a2,$f0
    3724:	000008ab 	0x8ab
    3728:	00082407 	0x82407
    372c:	904a0600 	lbu	t2,1536(v0)
    3730:	10000008 	b	3754 <_init-0x687fc8ac>
    3734:	000009c7 	0x9c7
    3738:	00000f16 	0xf16
    373c:	0e51061c 	jal	9441870 <_init-0x5f3be790>
    3740:	000002c0 	sll	zero,zero,0xb
    3744:	00695306 	0x695306
    3748:	23020000 	addi	v0,t8,0
    374c:	0fc90e00 	jal	f243800 <_init-0x595bc800>
    3750:	56060000 	bnel	s0,a2,3754 <_init-0x687fc8ac>
    3754:	00000069 	0x69
    3758:	0e042302 	jal	8108c08 <_init-0x606f73f8>
    375c:	00001010 	mfhi	v0
    3760:	00695906 	0x695906
    3764:	23020000 	addi	v0,t8,0
    3768:	0f760e08 	jal	dd83820 <_init-0x5aa7c7e0>
    376c:	5c060000 	0x5c060000
    3770:	00000069 	0x69
    3774:	0e0c2302 	jal	8308c08 <_init-0x604f73f8>
    3778:	00000d4c 	syscall	0x35
    377c:	00695f06 	0x695f06
    3780:	23020000 	addi	v0,t8,0
    3784:	2d240e10 	sltiu	a0,t1,3600
    3788:	62060000 	0x62060000
    378c:	00000947 	0x947
    3790:	14142302 	bne	zero,s4,c39c <_init-0x687f3c64>
    3794:	00000600 	sll	zero,zero,0x18
    3798:	08440e01 	j	1103804 <_init-0x676fc7fc>
    379c:	65060000 	0x65060000
    37a0:	000009c7 	0x9c7
    37a4:	00182302 	srl	a0,t8,0xc
    37a8:	09b20404 	j	6c81010 <_init-0x61b7eff0>
    37ac:	1d070000 	0x1d070000
    37b0:	0600000f 	bltz	s0,37f0 <_init-0x687fc810>
    37b4:	00095267 	0x95267
    37b8:	0a290500 	j	8a41400 <_init-0x5fdbec00>
    37bc:	05040000 	0x5040000
    37c0:	02060630 	tge	s0,a2,0x18
    37c4:	06000000 	bltz	s0,37c8 <_init-0x687fc838>
    37c8:	000011be 	0x11be
    37cc:	0ff90601 	jal	fe41804 <_init-0x589be7fc>
    37d0:	06020000 	bltzl	s0,37d4 <_init-0x687fc82c>
    37d4:	00000ea8 	0xea8
    37d8:	04350603 	0x4350603
    37dc:	06040000 	0x6040000
    37e0:	000007db 	0x7db
    37e4:	09d60605 	j	7581814 <_init-0x6127e7ec>
    37e8:	06060000 	0x6060000
    37ec:	00000bcc 	syscall	0x2f
    37f0:	0b8e0607 	j	e38181c <_init-0x5a47e7e4>
    37f4:	06080000 	tgei	s0,0
    37f8:	00000391 	0x391
    37fc:	0d650609 	jal	5941824 <_init-0x62ebe7dc>
    3800:	060a0000 	tlti	s0,0
    3804:	00000ba7 	0xba7
    3808:	6207000b 	0x6207000b
    380c:	05000006 	bltz	t0,3828 <_init-0x687fc7d8>
    3810:	0009d83e 	0x9d83e
    3814:	0a790500 	j	9e41400 <_init-0x5e9bec00>
    3818:	05040000 	0x5040000
    381c:	08f6064e 	j	3d81938 <_init-0x64a7e6c8>
    3820:	06000000 	bltz	s0,3824 <_init-0x687fc7dc>
    3824:	00000240 	sll	zero,zero,0x9
    3828:	08940601 	j	2501804 <_init-0x662fe7fc>
    382c:	06020000 	bltzl	s0,3830 <_init-0x687fc7d0>
    3830:	00000a31 	tgeu	zero,zero,0x28
    3834:	0be30603 	j	f8c180c <_init-0x58f3e7f4>
    3838:	06040000 	0x6040000
    383c:	00000da4 	0xda4
    3840:	0ef70605 	jal	bdc1814 <_init-0x5ca3e7ec>
    3844:	06060000 	0x6060000
    3848:	00000f24 	0xf24
    384c:	0f430607 	jal	d0c181c <_init-0x5b73e7e4>
    3850:	06080000 	tgei	s0,0
    3854:	0000114a 	0x114a
    3858:	18070009 	0x18070009
    385c:	05000012 	bltz	t0,38a8 <_init-0x687fc758>
    3860:	000a345a 	0xa345a
    3864:	0add1000 	j	b744000 <_init-0x5d0bc000>
    3868:	0cc30000 	jal	30c0000 <_init-0x65740000>
    386c:	05140000 	0x5140000
    3870:	1fcd0e61 	0x1fcd0e61
    3874:	63050000 	0x63050000
    3878:	00000a29 	0xa29
    387c:	0e002302 	jal	8008c08 <_init-0x607f73f8>
    3880:	00000e28 	0xe28
    3884:	00696605 	0x696605
    3888:	23020000 	addi	v0,t8,0
    388c:	2d240e04 	sltiu	a0,t1,3588
    3890:	69050000 	0x69050000
    3894:	00000af4 	teq	zero,zero,0x2b
    3898:	0e082302 	jal	8208c08 <_init-0x605f73f8>
    389c:	000010b9 	0x10b9
    38a0:	0afa6c05 	j	be9b014 <_init-0x5c964fec>
    38a4:	23020000 	addi	v0,t8,0
    38a8:	0457140c 	0x457140c
    38ac:	0e010000 	jal	8040000 <_init-0x607c0000>
    38b0:	00000259 	0x259
    38b4:	0b006f05 	j	c01bc14 <_init-0x5c7e43ec>
    38b8:	23020000 	addi	v0,t8,0
    38bc:	ee150010 	swc3	$21,16(s0)
    38c0:	0100000a 	movz	zero,t0,zero
    38c4:	000aee16 	0xaee16
    38c8:	0a791600 	j	9e45800 <_init-0x5e9ba800>
    38cc:	04000000 	bltz	zero,38d0 <_init-0x687fc730>
    38d0:	000a8404 	0xa8404
    38d4:	dd040400 	ldc3	$4,1024(t0)
    38d8:	0400000a 	bltz	zero,3904 <_init-0x687fc6fc>
    38dc:	0009cd04 	0x9cd04
    38e0:	c8040400 	lwc2	$4,1024(zero)
    38e4:	0700000a 	bltz	t8,3910 <_init-0x687fc6f0>
    38e8:	00000c74 	teq	zero,zero,0x31
    38ec:	0a847105 	j	a11c414 <_init-0x5e6e3bec>
    38f0:	04040000 	0x4040000
    38f4:	00000b06 	0xb06
    38f8:	000ba810 	0xba810
    38fc:	00056b00 	sll	t5,a1,0xc
    3900:	210d2400 	addi	t5,t0,9216
    3904:	0006110e 	0x6110e
    3908:	69220d00 	0x69220d00
    390c:	02000000 	0x2000000
    3910:	6a0e0023 	0x6a0e0023
    3914:	0d000004 	jal	4000010 <_init-0x647ffff0>
    3918:	00006923 	0x6923
    391c:	04230200 	bgezl	at,4120 <_init-0x687fbee0>
    3920:	00072d0e 	0x72d0e
    3924:	69240d00 	0x69240d00
    3928:	02000000 	0x2000000
    392c:	240e0823 	li	t6,2083
    3930:	0d00002d 	jal	40000b4 <_init-0x647fff4c>
    3934:	000bbf26 	0xbbf26
    3938:	0c230200 	jal	8c0800 <_init-0x67f3f800>
    393c:	000e280e 	0xe280e
    3940:	69290d00 	0x69290d00
    3944:	02000000 	0x2000000
    3948:	b20e1023 	0xb20e1023
    394c:	0d000005 	jal	4000014 <_init-0x647fffec>
    3950:	0000692a 	0x692a
    3954:	14230200 	bne	at,v1,4158 <_init-0x687fbea8>
    3958:	001fcd0e 	0x1fcd0e
    395c:	692b0d00 	0x692b0d00
    3960:	02000000 	0x2000000
    3964:	480e1823 	0x480e1823
    3968:	0d000005 	jal	4000014 <_init-0x647fffec>
    396c:	0000692c 	0x692c
    3970:	1c230200 	0x1c230200
    3974:	0007b914 	0x7b914
    3978:	b60e0100 	0xb60e0100
    397c:	0d00000c 	jal	4000030 <_init-0x647fffd0>
    3980:	000bc52e 	0xbc52e
    3984:	20230200 	addi	v1,at,512
    3988:	0bb91500 	j	ee45400 <_init-0x599bac00>
    398c:	16010000 	bne	s0,at,3990 <_init-0x687fc670>
    3990:	00000bb9 	0xbb9
    3994:	00006916 	0x6916
    3998:	04040000 	0x4040000
    399c:	00000b17 	0xb17
    39a0:	0ba80404 	j	ea01010 <_init-0x59dfeff0>
    39a4:	04040000 	0x4040000
    39a8:	00000b93 	0xb93
    39ac:	00068607 	0x68607
    39b0:	172f0d00 	bne	t9,t7,6db4 <_init-0x687f924c>
    39b4:	0400000b 	bltz	zero,39e4 <_init-0x687fc61c>
    39b8:	000bcb04 	0xbcb04
    39bc:	0c030500 	jal	c1400 <_init-0x6873ec00>
    39c0:	07040000 	0x7040000
    39c4:	0b370629 	j	cdc18a4 <_init-0x5ba3e75c>
    39c8:	06000000 	bltz	s0,39cc <_init-0x687fc634>
    39cc:	00000221 	0x221
    39d0:	11af0601 	beq	t5,t7,51d8 <_init-0x687fae28>
    39d4:	06020000 	bltzl	s0,39d8 <_init-0x687fc628>
    39d8:	000009ac 	0x9ac
    39dc:	07a20603 	bltzl	sp,51ec <_init-0x687fae14>
    39e0:	00040000 	sll	zero,a0,0x0
    39e4:	00104607 	0x104607
    39e8:	dc2f0700 	ldc3	$15,1792(at)
    39ec:	0500000b 	bltz	t0,3a1c <_init-0x687fc5e4>
    39f0:	00000c23 	0xc23
    39f4:	064b0704 	tltiu	s2,1796
    39f8:	0000034d 	break	0x0,0xd
    39fc:	0b010600 	j	c041800 <_init-0x5c7be800>
    3a00:	00010000 	sll	zero,at,0x0
    3a04:	000cce07 	0xcce07
    3a08:	0e4e0700 	jal	9381c00 <_init-0x5f47e400>
    3a0c:	0500000c 	bltz	t0,3a40 <_init-0x687fc5c0>
    3a10:	00000c43 	sra	at,zero,0x11
    3a14:	06560704 	0x6560704
    3a18:	000004e3 	0x4e3
    3a1c:	04b20600 	bltzall	a1,5220 <_init-0x687fade0>
    3a20:	00010000 	sll	zero,at,0x0
    3a24:	000d1d07 	0xd1d07
    3a28:	2e590700 	sltiu	t9,s2,1792
    3a2c:	0d00000c 	jal	4000030 <_init-0x647fffd0>
    3a30:	00000cf5 	0xcf5
    3a34:	0e7e07a8 	jal	9f81ea0 <_init-0x5e87e160>
    3a38:	00000326 	0x326
    3a3c:	00695f07 	0x695f07
    3a40:	23020000 	addi	v0,t8,0
    3a44:	06470e00 	0x6470e00
    3a48:	62070000 	0x62070000
    3a4c:	00000069 	0x69
    3a50:	0e042302 	jal	8108c08 <_init-0x606f73f8>
    3a54:	000001fd 	0x1fd
    3a58:	01856507 	0x1856507
    3a5c:	23020000 	addi	v0,t8,0
    3a60:	02ed0e08 	0x2ed0e08
    3a64:	68070000 	0x68070000
    3a68:	00000069 	0x69
    3a6c:	0e102302 	jal	8408c08 <_init-0x603f73f8>
    3a70:	00001190 	0x1190
    3a74:	00696b07 	0x696b07
    3a78:	23020000 	addi	v0,t8,0
    3a7c:	069b0e14 	0x69b0e14
    3a80:	6e070000 	0x6e070000
    3a84:	00000cf5 	0xcf5
    3a88:	0e182302 	jal	8608c08 <_init-0x601f73f8>
    3a8c:	0000042c 	0x42c
    3a90:	0d057107 	jal	415c41c <_init-0x646a3be4>
    3a94:	23020000 	addi	v0,t8,0
    3a98:	02840e58 	0x2840e58
    3a9c:	74070000 	jalx	1c0000 <_init-0x68640000>
    3aa0:	00000069 	0x69
    3aa4:	01982303 	0x1982303
    3aa8:	000a130e 	0xa130e
    3aac:	69770700 	0x69770700
    3ab0:	03000000 	0x3000000
    3ab4:	0e019c23 	jal	806708c <_init-0x60798f74>
    3ab8:	00000ea0 	0xea0
    3abc:	00697a07 	0x697a07
    3ac0:	23030000 	addi	v1,t8,0
    3ac4:	130e01a0 	beq	t8,t6,4148 <_init-0x687fbeb8>
    3ac8:	07000012 	bltz	t8,3b14 <_init-0x687fc4ec>
    3acc:	0000697d 	0x697d
    3ad0:	a4230300 	sh	v1,768(at)
    3ad4:	050a0001 	tlti	t0,1
    3ad8:	6900000d 	0x6900000d
    3adc:	0b000000 	j	c000000 <_init-0x5c800000>
    3ae0:	00000035 	0x35
    3ae4:	150a000f 	bne	t0,t2,3b24 <_init-0x687fc4dc>
    3ae8:	a500000d 	sh	zero,13(t0)
    3aec:	0b000000 	j	c000000 <_init-0x5c800000>
    3af0:	00000035 	0x35
    3af4:	be07000f 	cache	0x7,15(s0)
    3af8:	07000010 	bltz	t8,3b3c <_init-0x687fc4c4>
    3afc:	000c4e7e 	0xc4e7e
    3b00:	0d450d00 	jal	5143400 <_init-0x636bcc00>
    3b04:	07080000 	tgei	t8,0
    3b08:	03260e88 	0x3260e88
    3b0c:	84070000 	lh	a3,0(zero)
    3b10:	00000069 	0x69
    3b14:	0e002302 	jal	8008c08 <_init-0x607f73f8>
    3b18:	00000365 	0x365
    3b1c:	0c238607 	jal	8e181c <_init-0x67f1e7e4>
    3b20:	23020000 	addi	v0,t8,0
    3b24:	ed070004 	swc3	$7,4(t0)
    3b28:	07000009 	bltz	t8,3b50 <_init-0x687fc4b0>
    3b2c:	000d2088 	0xd2088
    3b30:	0d750d00 	jal	5d43400 <_init-0x62abcc00>
    3b34:	07100000 	bltzal	t8,3b38 <_init-0x687fc4c8>
    3b38:	03260e96 	0x3260e96
    3b3c:	92070000 	lbu	a3,0(s0)
    3b40:	00000069 	0x69
    3b44:	0e002302 	jal	8008c08 <_init-0x607f73f8>
    3b48:	0000090d 	break	0x0,0x24
    3b4c:	02229507 	0x2229507
    3b50:	23020000 	addi	v0,t8,0
    3b54:	ee070004 	swc3	$7,4(s0)
    3b58:	0700000a 	bltz	t8,3b84 <_init-0x687fc47c>
    3b5c:	000d5096 	0xd5096
    3b60:	0da50d00 	jal	6943400 <_init-0x61ebcc00>
    3b64:	07180000 	0x7180000
    3b68:	03260ea4 	0x3260ea4
    3b6c:	a0070000 	sb	a3,0(zero)
    3b70:	00000069 	0x69
    3b74:	0e002302 	jal	8008c08 <_init-0x607f73f8>
    3b78:	00000c30 	tge	zero,zero,0x30
    3b7c:	01e4a307 	0x1e4a307
    3b80:	23020000 	addi	v0,t8,0
    3b84:	0f070004 	jal	c1c0010 <_init-0x5c63fff0>
    3b88:	0700000c 	bltz	t8,3bbc <_init-0x687fc444>
    3b8c:	000d80a4 	0xd80a4
    3b90:	0e611000 	jal	9844000 <_init-0x5efbc000>
    3b94:	041a0000 	0x41a0000
    3b98:	07f40000 	0x7f40000
    3b9c:	0e280eab 	jal	8a03aac <_init-0x5fdfc554>
    3ba0:	ad070000 	sw	a3,0(t0)
    3ba4:	00000069 	0x69
    3ba8:	0f002302 	jal	c008c08 <_init-0x5c7f73f8>
    3bac:	00636468 	0x636468
    3bb0:	0069b007 	srav	s6,t1,v1
    3bb4:	23020000 	addi	v0,t8,0
    3bb8:	0b0c0e04 	j	c303810 <_init-0x5c4fc7f0>
    3bbc:	b3070000 	0xb3070000
    3bc0:	00000e61 	0xe61
    3bc4:	0e082302 	jal	8208c08 <_init-0x605f73f8>
    3bc8:	0000063a 	0x63a
    3bcc:	0c03b607 	jal	ed81c <_init-0x687127e4>
    3bd0:	23020000 	addi	v0,t8,0
    3bd4:	05880e0c 	tgei	t4,3596
    3bd8:	ba070000 	swr	a3,0(s0)
    3bdc:	00000d75 	0xd75
    3be0:	0e102302 	jal	8408c08 <_init-0x603f73f8>
    3be4:	000008ab 	0x8ab
    3be8:	0da5bb07 	jal	696ec1c <_init-0x61e913e4>
    3bec:	23020000 	addi	v0,t8,0
    3bf0:	04bf0e20 	synci	3616(a1)
    3bf4:	bc070000 	cache	0x7,0(zero)
    3bf8:	00000d15 	0xd15
    3bfc:	0e382302 	jal	8e08c08 <_init-0x5f9f73f8>
    3c00:	00000916 	0x916
    3c04:	0d45bd07 	jal	516f41c <_init-0x63690be4>
    3c08:	23030000 	addi	v1,t8,0
    3c0c:	960e01e0 	lhu	t6,480(s0)
    3c10:	0700000e 	bltz	t8,3c4c <_init-0x687fc3b4>
    3c14:	000c43bf 	0xc43bf
    3c18:	e8230300 	swc2	$3,768(at)
    3c1c:	2d240e01 	sltiu	a0,t1,3585
    3c20:	c2070000 	ll	a3,0(s0)
    3c24:	00000e7e 	0xe7e
    3c28:	01ec2303 	0x1ec2303
    3c2c:	000d9314 	0xd9314
    3c30:	180e0100 	0x180e0100
    3c34:	07000008 	bltz	t8,3c58 <_init-0x687fc3a8>
    3c38:	000e84c5 	0xe84c5
    3c3c:	f0230300 	0xf0230300
    3c40:	04040001 	0x4040001
    3c44:	00000329 	0x329
    3c48:	000e7815 	0xe7815
    3c4c:	78160100 	0x78160100
    3c50:	1600000e 	bnez	s0,3c8c <_init-0x687fc374>
    3c54:	00000069 	0x69
    3c58:	b0040400 	0xb0040400
    3c5c:	0400000d 	bltz	zero,3c94 <_init-0x687fc36c>
    3c60:	000e6704 	0xe6704
    3c64:	4b040400 	c2	0x1040400
    3c68:	0700000e 	bltz	t8,3ca4 <_init-0x687fc35c>
    3c6c:	00000423 	0x423
    3c70:	0db0c607 	jal	6c3181c <_init-0x61bce7e4>
    3c74:	04040000 	0x4040000
    3c78:	00000e8a 	0xe8a
    3c7c:	000ee005 	0xee005
    3c80:	240a0400 	li	t2,1024
    3c84:	0006ab06 	0x6ab06
    3c88:	9a060000 	lwr	a2,0(s0)
    3c8c:	0100000c 	syscall	0x40000
    3c90:	00055106 	0x55106
    3c94:	d8060200 	ldc2	$6,512(zero)
    3c98:	03000008 	jr	t8
    3c9c:	00098306 	0x98306
    3ca0:	16060400 	bne	s0,a2,4ca4 <_init-0x687fb35c>
    3ca4:	05000010 	bltz	t0,3ce8 <_init-0x687fc318>
    3ca8:	00092406 	0x92406
    3cac:	ce060600 	pref	0x6,1536(s0)
    3cb0:	07000006 	bltz	t8,3ccc <_init-0x687fc334>
    3cb4:	000a6006 	srlv	t4,t2,zero
    3cb8:	3a060800 	xori	a2,s0,0x800
    3cbc:	09000011 	j	4000044 <_init-0x647fffbc>
    3cc0:	09bb0700 	j	6ec1c00 <_init-0x6193e400>
    3cc4:	310a0000 	andi	t2,t0,0x0
    3cc8:	00000e9b 	0xe9b
    3ccc:	000f0005 	0xf0005
    3cd0:	390a0400 	xori	t2,t0,0x400
    3cd4:	0002a506 	0x2a506
    3cd8:	f0060000 	0xf0060000
    3cdc:	01000004 	sllv	zero,zero,t0
    3ce0:	0e0e0700 	jal	8381c00 <_init-0x6047e400>
    3ce4:	3c0a0000 	lui	t2,0x0
    3ce8:	00000eeb 	0xeeb
    3cec:	000f3e0d 	break	0xf,0xf8
    3cf0:	4e0a0c00 	c3	0xa0c00
    3cf4:	0008440e 	0x8440e
    3cf8:	e0460a00 	sc	a2,2560(v0)
    3cfc:	0200000e 	0x200000e
    3d00:	9d0e0023 	0x9d0e0023
    3d04:	0a000010 	j	8000040 <_init-0x607fffc0>
    3d08:	00002e48 	0x2e48
    3d0c:	04230200 	bgezl	at,4510 <_init-0x687fbaf0>
    3d10:	0014c70e 	0x14c70e
    3d14:	694b0a00 	0x694b0a00
    3d18:	02000000 	0x2000000
    3d1c:	07000823 	bltz	t8,5dac <_init-0x687fa254>
    3d20:	000014b9 	0x14b9
    3d24:	0f0b4e0a 	jal	c2d3828 <_init-0x5c52c7d8>
    3d28:	be100000 	cache	0x10,0(s0)
    3d2c:	9200000f 	lbu	zero,15(s0)
    3d30:	1c000006 	bgtz	zero,3d4c <_init-0x687fc2b4>
    3d34:	440e560a 	0x440e560a
    3d38:	0a000008 	j	8000020 <_init-0x607fffe0>
    3d3c:	000ee058 	0xee058
    3d40:	00230200 	0x230200
    3d44:	00109d0e 	0x109d0e
    3d48:	2e5a0a00 	sltiu	k0,s2,2560
    3d4c:	02000000 	0x2000000
    3d50:	ae0e0423 	sw	t6,1059(s0)
    3d54:	0a00000c 	j	8000030 <_init-0x607fffd0>
    3d58:	0000695d 	0x695d
    3d5c:	08230200 	j	8c0800 <_init-0x67f3f800>
    3d60:	0008e90e 	0x8e90e
    3d64:	695f0a00 	0x695f0a00
    3d68:	02000000 	0x2000000
    3d6c:	240e0c23 	li	t6,3107
    3d70:	0a00002d 	j	80000b4 <_init-0x607fff4c>
    3d74:	000fd562 	0xfd562
    3d78:	10230200 	beq	at,v1,457c <_init-0x687fba84>
    3d7c:	000e280e 	0xe280e
    3d80:	69650a00 	0x69650a00
    3d84:	02000000 	0x2000000
    3d88:	77141423 	jalx	c50508c <_init-0x5c2faf74>
    3d8c:	01000005 	0x1000005
    3d90:	0002590e 	0x2590e
    3d94:	db680a00 	ldc2	$8,2560(k1)
    3d98:	0200000f 	0x200000f
    3d9c:	15001823 	bnez	t0,9e2c <_init-0x687f61d4>
    3da0:	00000fcf 	0xfcf
    3da4:	0fcf1601 	jal	f3c5804 <_init-0x5943a7fc>
    3da8:	00160000 	sll	zero,s6,0x0
    3dac:	0000000f 	sync
    3db0:	0f490404 	jal	d241010 <_init-0x5b5beff0>
    3db4:	04040000 	0x4040000
    3db8:	00000fbe 	0xfbe
    3dbc:	0fa90404 	jal	ea41010 <_init-0x59dbeff0>
    3dc0:	62070000 	0x62070000
    3dc4:	0a000005 	j	8000014 <_init-0x607fffec>
    3dc8:	000f4969 	0xf4969
    3dcc:	e1040400 	sc	a0,1024(t0)
    3dd0:	0500000f 	bltz	t0,3e10 <_init-0x687fc1f0>
    3dd4:	0000103d 	0x103d
    3dd8:	062f0c04 	0x62f0c04
    3ddc:	000004cc 	syscall	0x13
    3de0:	0e7f0600 	jal	9fc1800 <_init-0x5e83e800>
    3de4:	06010000 	bgez	s0,3de8 <_init-0x687fc218>
    3de8:	00000509 	0x509
    3dec:	0b6e0602 	j	db81808 <_init-0x5ac7e7f8>
    3df0:	06030000 	bgezl	s0,3df4 <_init-0x687fc20c>
    3df4:	000001db 	0x1db
    3df8:	02c70604 	0x2c70604
    3dfc:	06050000 	0x6050000
    3e00:	0000116e 	0x116e
    3e04:	08650606 	j	1941818 <_init-0x66ebe7e8>
    3e08:	06070000 	0x6070000
    3e0c:	0000075f 	0x75f
    3e10:	0f9b0608 	jal	e6c1820 <_init-0x5a13e7e0>
    3e14:	06090000 	tgeiu	s0,0
    3e18:	00000a82 	srl	at,zero,0xa
    3e1c:	8007000a 	lb	a3,10(zero)
    3e20:	0c000007 	jal	1c <_init-0x687fffe4>
    3e24:	000ff23b 	0xff23b
    3e28:	10851000 	beq	a0,a1,7e2c <_init-0x687f81d4>
    3e2c:	0aa90000 	j	aa40000 <_init-0x5ddc0000>
    3e30:	0c0c0000 	jal	300000 <_init-0x68500000>
    3e34:	0e280e42 	jal	8a03908 <_init-0x5fdfc6f8>
    3e38:	440c0000 	mfc1	t4,$f0
    3e3c:	00000069 	0x69
    3e40:	0e002302 	jal	8008c08 <_init-0x607f73f8>
    3e44:	00002d24 	0x2d24
    3e48:	109c470c 	beq	a0,gp,15a7c <_init-0x687ea584>
    3e4c:	23020000 	addi	v0,t8,0
    3e50:	0a1b1404 	j	86c5010 <_init-0x6013aff0>
    3e54:	0e010000 	jal	8040000 <_init-0x607c0000>
    3e58:	00000cbe 	0xcbe
    3e5c:	10a24a0c 	beq	a1,v0,16690 <_init-0x687e9970>
    3e60:	23020000 	addi	v0,t8,0
    3e64:	96150008 	lhu	s5,8(s0)
    3e68:	01000010 	0x1000010
    3e6c:	00109616 	0x109616
    3e70:	103d1600 	beq	at,sp,9674 <_init-0x687f698c>
    3e74:	04000000 	bltz	zero,3e78 <_init-0x687fc188>
    3e78:	00104804 	sllv	t1,s0,zero
    3e7c:	85040400 	lh	a0,1024(t0)
    3e80:	04000010 	bltz	zero,3ec4 <_init-0x687fc13c>
    3e84:	00107004 	sllv	t6,s0,zero
    3e88:	0ab20700 	j	ac81c00 <_init-0x5db7e400>
    3e8c:	4c0c0000 	lwxc1	$f0,t4(zero)
    3e90:	00001048 	0x1048
    3e94:	10a80404 	beq	a1,t0,4ea8 <_init-0x687fb158>
    3e98:	ce050000 	pref	0x5,0(s0)
    3e9c:	04000010 	bltz	zero,3ee0 <_init-0x687fc120>
    3ea0:	ef061103 	swc3	$6,4355(t8)
    3ea4:	00000011 	mthi	zero
    3ea8:	00070e06 	0x70e06
    3eac:	07000100 	bltz	t8,42b0 <_init-0x687fbd50>
    3eb0:	00000ee8 	0xee8
    3eb4:	10b91303 	beq	a1,t9,8ac4 <_init-0x687f753c>
    3eb8:	440d0000 	mfc1	t5,$f0
    3ebc:	1c000011 	bgtz	zero,3f04 <_init-0x687fc0fc>
    3ec0:	f50e2503 	sdc1	$f14,9475(t0)
    3ec4:	0300000d 	break	0x300
    3ec8:	00055919 	0x55919
    3ecc:	00230200 	0x230200
    3ed0:	000dee0e 	0xdee0e
    3ed4:	591a0300 	0x591a0300
    3ed8:	02000005 	0x2000005
    3edc:	c20e0423 	ll	t6,1059(s0)
    3ee0:	0300000f 	0x300000f
    3ee4:	00005e1c 	0x5e1c
    3ee8:	08230200 	j	8c0800 <_init-0x67f3f800>
    3eec:	00080e0e 	0x80e0e
    3ef0:	5e1d0300 	0x5e1d0300
    3ef4:	02000000 	0x2000000
    3ef8:	bb0e0c23 	swr	t6,3107(t8)
    3efc:	0300000a 	movz	zero,t8,zero
    3f00:	00006920 	0x6920
    3f04:	10230200 	beq	at,v1,4708 <_init-0x687fb8f8>
    3f08:	00061b0e 	0x61b0e
    3f0c:	69210300 	0x69210300
    3f10:	02000000 	0x2000000
    3f14:	cc0e1423 	pref	0xe,5155(zero)
    3f18:	0300000d 	break	0x300
    3f1c:	0010ce24 	0x10ce24
    3f20:	18230200 	0x18230200
    3f24:	049a0700 	0x49a0700
    3f28:	25030000 	addiu	v1,t0,0
    3f2c:	000010d9 	0x10d9
    3f30:	00133c0d 	break	0x13,0xf0
    3f34:	6003a000 	0x6003a000
    3f38:	000d7b0e 	0xd7b0e
    3f3c:	442a0300 	0x442a0300
    3f40:	02000011 	mthi	s0
    3f44:	bf0e0023 	cache	0xe,35(t8)
    3f48:	0300000e 	0x300000e
    3f4c:	0000692d 	0x692d
    3f50:	1c230200 	0x1c230200
    3f54:	0005b20e 	0x5b20e
    3f58:	3c300300 	0x3c300300
    3f5c:	02000013 	mtlo	s0
    3f60:	d20e2023 	0xd20e2023
    3f64:	03000007 	srav	zero,zero,t8
    3f68:	00133c31 	tgeu	zero,s3,0xf0
    3f6c:	24230200 	addiu	v1,at,512
    3f70:	000a560e 	0xa560e
    3f74:	42330300 	c0	0x330300
    3f78:	02000013 	mtlo	s0
    3f7c:	6a0e2823 	0x6a0e2823
    3f80:	0300000f 	0x300000f
    3f84:	00134235 	0x134235
    3f88:	2c230200 	sltiu	v1,at,512
    3f8c:	0012270e 	0x12270e
    3f90:	42360300 	c0	0x360300
    3f94:	02000013 	mtlo	s0
    3f98:	840e3023 	lh	t6,12323(zero)
    3f9c:	0300000f 	0x300000f
    3fa0:	00134237 	0x134237
    3fa4:	34230200 	ori	v1,at,0x200
    3fa8:	000dc40e 	0xdc40e
    3fac:	42380300 	c0	0x380300
    3fb0:	02000013 	mtlo	s0
    3fb4:	610e3823 	0x610e3823
    3fb8:	0300000f 	0x300000f
    3fbc:	00134239 	0x134239
    3fc0:	3c230200 	0x3c230200
    3fc4:	00074f0e 	0x74f0e
    3fc8:	423b0300 	c0	0x3b0300
    3fcc:	02000013 	mtlo	s0
    3fd0:	280e4023 	slti	t6,zero,16419
    3fd4:	03000005 	0x3000005
    3fd8:	0013423c 	0x13423c
    3fdc:	44230200 	0x44230200
    3fe0:	000b1c0e 	0xb1c0e
    3fe4:	423d0300 	c0	0x3d0300
    3fe8:	02000013 	mtlo	s0
    3fec:	bc0e4823 	cache	0xe,18467(zero)
    3ff0:	03000008 	jr	t8
    3ff4:	0013423f 	0x13423f
    3ff8:	4c230200 	lwxc1	$f8,v1(at)
    3ffc:	000b5a0e 	0xb5a0e
    4000:	42400300 	c0	0x400300
    4004:	02000013 	mtlo	s0
    4008:	4c0e5023 	0x4c0e5023
    400c:	03000004 	sllv	zero,zero,t8
    4010:	00134241 	0x134241
    4014:	54230200 	bnel	at,v1,4818 <_init-0x687fb7e8>
    4018:	0009940e 	0x9940e
    401c:	42420300 	c0	0x420300
    4020:	02000013 	mtlo	s0
    4024:	d20e5823 	0xd20e5823
    4028:	03000005 	0x3000005
    402c:	00134243 	sra	t0,s3,0x9
    4030:	5c230200 	0x5c230200
    4034:	000d880e 	0xd880e
    4038:	42440300 	c0	0x440300
    403c:	02000013 	mtlo	s0
    4040:	c00e6023 	ll	t6,24611(zero)
    4044:	0300000b 	movn	zero,t8,zero
    4048:	00134248 	0x134248
    404c:	64230200 	0x64230200
    4050:	000c4b0e 	0xc4b0e
    4054:	424a0300 	c0	0x4a0300
    4058:	02000013 	mtlo	s0
    405c:	ea0e6823 	swc2	$14,26659(s0)
    4060:	0300002e 	0x300002e
    4064:	000b114c 	syscall	0x2c45
    4068:	6c230200 	0x6c230200
    406c:	0005300e 	0x5300e
    4070:	954d0300 	lhu	t5,768(t2)
    4074:	0200000e 	0x200000e
    4078:	640e7023 	0x640e7023
    407c:	0300002e 	0x300002e
    4080:	0007504e 	0x7504e
    4084:	74230200 	jalx	8c0800 <_init-0x67f3f800>
    4088:	676c640f 	0x676c640f
    408c:	ec4f0300 	swc3	$15,768(v0)
    4090:	0200000f 	0x200000f
    4094:	0c0e7823 	jal	39e08c <_init-0x68461f74>
    4098:	03000017 	0x3000017
    409c:	00087f50 	0x87f50
    40a0:	7c230200 	ext	v1,at,0x8,0x1
    40a4:	002c510e 	0x2c510e
    40a8:	b3510300 	0xb3510300
    40ac:	03000010 	0x3000010
    40b0:	0e018023 	jal	806008c <_init-0x6079ff74>
    40b4:	00002e08 	0x2e08
    40b8:	0bd65203 	j	f59480c <_init-0x5926b7f4>
    40bc:	23030000 	addi	v1,t8,0
    40c0:	8e0e0184 	lw	t6,388(s0)
    40c4:	03000010 	0x3000010
    40c8:	00093653 	0x93653
    40cc:	88230300 	lwl	v1,768(at)
    40d0:	028c0e01 	0x28c0e01
    40d4:	56030000 	bnel	s0,v1,40d8 <_init-0x687fbf28>
    40d8:	00000069 	0x69
    40dc:	018c2303 	0x18c2303
    40e0:	0002610e 	0x2610e
    40e4:	69570300 	0x69570300
    40e8:	03000000 	0x3000000
    40ec:	0e019023 	jal	806408c <_init-0x6079bf74>
    40f0:	0000026c 	0x26c
    40f4:	00695803 	0x695803
    40f8:	23030000 	addi	v1,t8,0
    40fc:	b50e0194 	0xb50e0194
    4100:	03000010 	0x3000010
    4104:	0000695b 	0x695b
    4108:	98230300 	lwr	v1,768(at)
    410c:	10550e01 	beq	v0,s5,7914 <_init-0x687f86ec>
    4110:	5e030000 	0x5e030000
    4114:	00000069 	0x69
    4118:	019c2303 	0x19c2303
    411c:	8b040400 	lwl	a0,1024(t8)
    4120:	04000004 	bltz	zero,4134 <_init-0x687fbecc>
    4124:	00041904 	0x41904
    4128:	10f40700 	beq	a3,s4,5d2c <_init-0x687fa2d4>
    412c:	60030000 	0x60030000
    4130:	0000114f 	0x114f
    4134:	0013c118 	0x13c118
    4138:	172e0100 	bne	t9,t6,453c <_init-0x687fbac4>
    413c:	2b010000 	slti	at,t8,0
    4140:	00005e01 	0x5e01
    4144:	800cbc00 	lb	t4,-17408(zero)
    4148:	800f5868 	lb	t7,22632(zero)
    414c:	196d0168 	0x196d0168
    4150:	00000333 	tltu	zero,zero,0xc
    4154:	13c12a01 	beq	s8,at,e95c <_init-0x687f16a4>
    4158:	62010000 	0x62010000
    415c:	0010b51a 	0x10b51a
    4160:	fa2c0100 	sdc2	$12,256(s1)
    4164:	1b00000a 	blez	t8,4190 <_init-0x687fbe70>
    4168:	00002b38 	0x2b38
    416c:	06362d01 	0x6362d01
    4170:	91020000 	lbu	v0,0(t0)
    4174:	13c71c10 	beq	s8,a3,b1b8 <_init-0x687f4e48>
    4178:	0d040000 	jal	4100000 <_init-0x64700000>
    417c:	0d086880 	jal	421a200 <_init-0x645e5e00>
    4180:	d81d6880 	ldc2	$29,26752(zero)
    4184:	1e000013 	bgtz	s0,41d4 <_init-0x687fbe2c>
    4188:	000013e3 	0x13e3
    418c:	401f6101 	0x401f6101
    4190:	1d000000 	bgtz	t0,4194 <_init-0x687fbe6c>
    4194:	000013d8 	0x13d8
    4198:	0013e31e 	0x13e31e
    419c:	00610100 	0x610100
    41a0:	04040000 	0x4040000
    41a4:	00001348 	0x1348
    41a8:	0013ef20 	0x13ef20
    41ac:	0016c600 	sll	t8,s6,0x18
    41b0:	015a0100 	0x15a0100
    41b4:	00000afa 	0xafa
    41b8:	0df51a01 	jal	7d46804 <_init-0x60ab97fc>
    41bc:	5b010000 	0x5b010000
    41c0:	00000559 	0x559
    41c4:	6d756e21 	0x6d756e21
    41c8:	695d0100 	0x695d0100
    41cc:	00000000 	nop
    41d0:	00141818 	mult	$ac3,zero,s4
    41d4:	17140100 	bne	t8,s4,45d8 <_init-0x687fba28>
    41d8:	4a010000 	c2	0x10000
    41dc:	00005e01 	0x5e01
    41e0:	800f5800 	lb	t7,22528(zero)
    41e4:	800ff068 	lb	t7,-3992(zero)
    41e8:	226d0168 	addi	t5,s3,360
    41ec:	00001418 	0x1418
    41f0:	68800f88 	0x68800f88
    41f4:	68800f94 	0x68800f94
    41f8:	177b2300 	bne	k1,k1,cdfc <_init-0x687f3204>
    41fc:	a6010000 	sh	at,0(s0)
    4200:	00005e01 	0x5e01
    4204:	59240100 	0x59240100
    4208:	f1000014 	0xf1000014
    420c:	01000016 	0x1000016
    4210:	f0010109 	0xf0010109
    4214:	4068800f 	0x4068800f
    4218:	01688010 	0x1688010
    421c:	6c64256d 	0x6c64256d
    4220:	08010067 	j	4019c <_init-0x687bfe64>
    4224:	000fec01 	0xfec01
    4228:	26540100 	addiu	s4,s2,256
    422c:	00001448 	0x1448
    4230:	00010801 	movt	at,zero,$fcc0
    4234:	0100000f 	0x100000f
    4238:	5c270055 	0x5c270055
    423c:	01000017 	0x1000017
    4240:	69010187 	0x69010187
    4244:	40000000 	mfc0	zero,c0_index
    4248:	90688010 	lbu	t0,-32752(v1)
    424c:	01688010 	0x1688010
    4250:	1495246d 	bne	a0,s5,d408 <_init-0x687f2bf8>
    4254:	16400000 	bnez	s2,4258 <_init-0x687fbda8>
    4258:	95010000 	lhu	at,0(t0)
    425c:	10900101 	beq	a0,s0,4664 <_init-0x687fb99c>
    4260:	10e46880 	beq	a3,a0,1e464 <_init-0x687e1b9c>
    4264:	6d016880 	0x6d016880
    4268:	00149522 	0x149522
    426c:	8010a800 	lb	s0,-22528(zero)
    4270:	8010b868 	lb	s0,-18328(zero)
    4274:	03280068 	0x3280068
    4278:	01000017 	0x1000017
    427c:	010101ab 	0x10101ab
    4280:	0014d729 	0x14d729
    4284:	0016e100 	sll	gp,s6,0x4
    4288:	016b0100 	0x16b0100
    428c:	00006901 	0x6901
    4290:	8010e400 	lb	s0,-7168(zero)
    4294:	80113868 	lb	s1,14440(zero)
    4298:	266d0168 	addiu	t5,s3,360
    429c:	0000170f 	0x170f
    42a0:	11016a01 	beq	t0,at,1eaa8 <_init-0x687e1558>
    42a4:	0100000b 	movn	zero,t0,zero
    42a8:	14482654 	bne	v0,t0,dbfc <_init-0x687f2404>
    42ac:	6a010000 	0x6a010000
    42b0:	000a7901 	0xa7901
    42b4:	00550100 	0x550100
    42b8:	00150f29 	0x150f29
    42bc:	00167000 	sll	t6,s6,0x0
    42c0:	01510100 	0x1510100
    42c4:	00006901 	0x6901
    42c8:	80113800 	lb	s1,14336(zero)
    42cc:	8011b068 	lb	s1,-20376(zero)
    42d0:	266d0168 	addiu	t5,s3,360
    42d4:	0000170f 	0x170f
    42d8:	11015001 	beq	t0,at,182e0 <_init-0x687e7d20>
    42dc:	0100000b 	movn	zero,t0,zero
    42e0:	14482654 	bne	v0,t0,dc34 <_init-0x687f23cc>
    42e4:	50010000 	beql	zero,at,42e8 <_init-0x687fbd18>
    42e8:	000a7901 	0xa7901
    42ec:	00550100 	0x550100
    42f0:	00156629 	0x156629
    42f4:	0016a300 	sll	s4,s6,0xc
    42f8:	011b0100 	0x11b0100
    42fc:	00006901 	0x6901
    4300:	8011b000 	lb	s1,-20480(zero)
    4304:	80133868 	lb	s3,14440(zero)
    4308:	266d0168 	addiu	t5,s3,360
    430c:	0000170f 	0x170f
    4310:	11011a01 	beq	t0,at,ab18 <_init-0x687f54e8>
    4314:	0100000b 	movn	zero,t0,zero
    4318:	14482654 	bne	v0,t0,dc6c <_init-0x687f2394>
    431c:	1a010000 	0x1a010000
    4320:	000a7901 	0xa7901
    4324:	2a550100 	slti	s5,s2,256
    4328:	000013eb 	0x13eb
    432c:	3e011c01 	0x3e011c01
    4330:	0200000f 	0x200000f
    4334:	832b1891 	lb	t3,6289(t9)
    4338:	76000016 	jalx	8000058 <_init-0x607fffa8>
    433c:	01000015 	0x1000015
    4340:	60a80305 	0x60a80305
    4344:	0a006880 	j	801a200 <_init-0x607e5e00>
    4348:	00001576 	tne	zero,zero,0x55
    434c:	000000a0 	0xa0
    4350:	0000350b 	0x350b
    4354:	09000f00 	j	4003c00 <_init-0x647fc400>
    4358:	00001566 	0x1566
    435c:	0015d32c 	0x15d32c
    4360:	00176b00 	sll	t5,s7,0xc
    4364:	01db0100 	0x1db0100
    4368:	00000069 	0x69
    436c:	68801338 	0x68801338
    4370:	6880143c 	0x6880143c
    4374:	0f196d01 	jal	c65b404 <_init-0x5c1a4bfc>
    4378:	01000017 	0x1000017
    437c:	000b11da 	0xb11da
    4380:	19540100 	0x19540100
    4384:	00001448 	0x1448
    4388:	0a79da01 	j	9e76804 <_init-0x5e9897fc>
    438c:	53010000 	beql	t8,at,4390 <_init-0x687fbc70>
    4390:	0015d31c 	0x15d31c
    4394:	8013a800 	lb	s3,-22528(zero)
    4398:	8013b068 	lb	s3,-20376(zero)
    439c:	15e12d68 	bne	t7,at,f940 <_init-0x687f06c0>
    43a0:	53010000 	beql	t8,at,43a4 <_init-0x687fbc5c>
    43a4:	0000681f 	0x681f
    43a8:	15ed1e00 	bne	t7,t5,bbac <_init-0x687f4454>
    43ac:	91020000 	lbu	v0,0(t0)
    43b0:	00000010 	mfhi	zero
    43b4:	0015fa2e 	0x15fa2e
    43b8:	00162100 	sll	a0,s6,0x4
    43bc:	01b50100 	0x1b50100
    43c0:	d82f0101 	ldc2	$15,257(at)
    43c4:	0100002e 	0x100002e
    43c8:	134201b4 	beq	k0,v0,4a9c <_init-0x687fb564>
    43cc:	eb300000 	swc2	$16,0(t9)
    43d0:	01000013 	mtlo	t0
    43d4:	0f3e01b6 	jal	cf806d8 <_init-0x5b87f928>
    43d8:	2c000000 	sltiu	zero,zero,0
    43dc:	0000162f 	0x162f
    43e0:	00001749 	0x1749
    43e4:	6901b501 	0x6901b501
    43e8:	3c000000 	lui	zero,0x0
    43ec:	b4688014 	0xb4688014
    43f0:	01688014 	0x1688014
    43f4:	170f196d 	bne	t8,t7,a9ac <_init-0x687f5654>
    43f8:	b4010000 	0xb4010000
    43fc:	00000b11 	0xb11
    4400:	48195401 	0x48195401
    4404:	01000014 	0x1000014
    4408:	000a79b4 	teq	zero,t2,0x1e6
    440c:	00550100 	0x550100
    4410:	00166324 	0x166324
    4414:	00164f00 	sll	t1,s6,0x1c
    4418:	01c20100 	0x1c20100
    441c:	8014b401 	lb	s4,-19455(zero)
    4420:	80150468 	lb	s5,1128(zero)
    4424:	256d0168 	addiu	t5,t3,360
    4428:	00676c64 	0x676c64
    442c:	ec01c101 	swc3	$1,-16127(zero)
    4430:	0100000f 	0x100000f
    4434:	14482654 	bne	v0,t0,dd88 <_init-0x687f2278>
    4438:	c1010000 	ll	at,0(t0)
    443c:	000f0001 	0xf0001
    4440:	00550100 	0x550100
    4444:	00003031 	tgeu	zero,zero,0xc0
    4448:	bba91100 	swr	t1,4352(sp)
    444c:	01000000 	0x1000000
    4450:	73640305 	0x73640305
    4454:	74316880 	jalx	c5a200 <_init-0x67ba5e00>
    4458:	11000000 	beqz	t0,445c <_init-0x687fbba4>
    445c:	0000e2b5 	0xe2b5
    4460:	03050100 	0x3050100
    4464:	68807368 	0x68807368
    4468:	000a0232 	tlt	zero,t2,0x8
    446c:	c1080100 	ll	t0,256(t0)
    4470:	01000013 	mtlo	t0
    4474:	07373201 	0x7373201
    4478:	09010000 	j	4040000 <_init-0x647c0000>
    447c:	000000f7 	0xf7
    4480:	dc320101 	ldc3	$18,257(at)
    4484:	01000010 	0x1000010
    4488:	0000f70a 	0xf70a
    448c:	32010100 	andi	at,s0,0x100
    4490:	00001039 	0x1039
    4494:	00f70b01 	0xf70b01
    4498:	01010000 	0x1010000
    449c:	000e6932 	tlt	zero,t6,0x1a4
    44a0:	230c0100 	addi	t4,t8,256
    44a4:	01000001 	movf	zero,t0,$fcc0
    44a8:	162f3201 	bne	s1,t7,10cb0 <_init-0x687ef350>
    44ac:	0d010000 	jal	4040000 <_init-0x647c0000>
    44b0:	00000069 	0x69
    44b4:	c7320101 	lwc1	$f18,257(t9)
    44b8:	01000005 	0x1000005
    44bc:	00065c0e 	0x65c0e
    44c0:	31010100 	andi	at,t0,0x100
    44c4:	00001660 	0x1660
    44c8:	0afa2201 	j	be88804 <_init-0x5c9777fc>
    44cc:	05010000 	bgez	t0,44d0 <_init-0x687fbb30>
    44d0:	80734003 	lb	s3,16387(v1)
    44d4:	17040a68 	bne	t8,a0,6e78 <_init-0x687f9188>
    44d8:	093c0000 	j	4f00000 <_init-0x63900000>
    44dc:	350b0000 	ori	t3,t0,0x0
    44e0:	04000000 	bltz	zero,44e4 <_init-0x687fbb1c>
    44e4:	16b33100 	bne	s5,s3,108e8 <_init-0x687ef718>
    44e8:	23010000 	addi	at,t8,0
    44ec:	000016f4 	teq	zero,zero,0x5b
    44f0:	d0030501 	0xd0030501
    44f4:	31688080 	andi	t0,t3,0x8080
    44f8:	000011e2 	0x11e2
    44fc:	00692501 	0x692501
    4500:	05010000 	bgez	t0,4504 <_init-0x687fbafc>
    4504:	80733c03 	lb	s3,15363(v1)
    4508:	16af0068 	bne	s5,t7,46ac <_init-0x687fb954>
    450c:	00020000 	sll	zero,v0,0x0
    4510:	00000772 	tlt	zero,zero,0x1d
    4514:	0a150104 	j	8540410 <_init-0x602bfbf0>
    4518:	1cc00000 	bgtz	a2,451c <_init-0x687fbae4>
    451c:	15046880 	bne	t0,a0,1e720 <_init-0x687e18e0>
    4520:	00896880 	0x896880
    4524:	f8010000 	sdc2	$1,0(zero)
    4528:	dc000018 	ldc3	$0,24(zero)
    452c:	02000000 	0x2000000
    4530:	00000000 	nop
    4534:	04030801 	bgezl	zero,653c <_init-0x687f9ac4>
    4538:	0000bb02 	srl	s7,zero,0xc
    453c:	02070200 	0x2070200
    4540:	0000018c 	syscall	0x6
    4544:	91020704 	lbu	v0,1796(t0)
    4548:	04000001 	bltz	zero,4550 <_init-0x687fbab0>
    454c:	3c040407 	lui	a0,0x407
    4550:	05000000 	bltz	t0,4554 <_init-0x687fbaac>
    4554:	0000005e 	0x5e
    4558:	06260204 	0x6260204
    455c:	000003c2 	srl	zero,zero,0xf
    4560:	0dd60600 	jal	7581800 <_init-0x6127e800>
    4564:	00010000 	sll	zero,at,0x0
    4568:	00048607 	0x48607
    456c:	49290200 	0x49290200
    4570:	08000000 	j	0 <_init-0x68800000>
    4574:	00746e69 	0x746e69
    4578:	b5020504 	0xb5020504
    457c:	08000001 	j	4 <_init-0x687ffffc>
    4580:	018c0205 	0x18c0205
    4584:	07040000 	0x7040000
    4588:	0001ba02 	srl	s7,at,0x8
    458c:	02050400 	0x2050400
    4590:	00000009 	jalr	zero,zero
    4594:	49020601 	bc2fl	5d9c <_init-0x687fa264>
    4598:	02000001 	movf	zero,s0,$fcc0
    459c:	01870205 	0x1870205
    45a0:	07080000 	tgei	t8,0
    45a4:	00a00404 	0xa00404
    45a8:	85090000 	lh	t1,0(t0)
    45ac:	04000000 	bltz	zero,45b0 <_init-0x687fba50>
    45b0:	00008504 	0x8504
    45b4:	00bb0a00 	0xbb0a00
    45b8:	00250000 	0x250000
    45bc:	350b0000 	ori	t3,t0,0x0
    45c0:	0f000000 	jal	c000000 <_init-0x5c800000>
    45c4:	00e20500 	0xe20500
    45c8:	11040000 	beq	t0,a0,45cc <_init-0x687fba34>
    45cc:	015306a3 	0x15306a3
    45d0:	06000000 	bltz	s0,45d4 <_init-0x687fba2c>
    45d4:	00000131 	tgeu	zero,zero,0x4
    45d8:	005b0601 	0x5b0601
    45dc:	06020000 	bltzl	s0,45e0 <_init-0x687fba20>
    45e0:	0000001a 	div	zero,zero,zero
    45e4:	00450603 	0x450603
    45e8:	00000000 	nop
    45ec:	0000f705 	0xf705
    45f0:	b0110400 	0xb0110400
    45f4:	0001c306 	0x1c306
    45f8:	9e060000 	0x9e060000
    45fc:	01000001 	movf	zero,t0,$fcc0
    4600:	012a0c00 	0x12a0c00
    4604:	12280000 	beq	s1,t0,4608 <_init-0x687fb9f8>
    4608:	149e0d53 	bne	a0,s8,7b58 <_init-0x687f84a8>
    460c:	50120000 	beql	zero,s2,4610 <_init-0x687fb9f0>
    4610:	0000012a 	0x12a
    4614:	0d002302 	jal	4008c08 <_init-0x647f73f8>
    4618:	00001309 	0x1309
    461c:	00695112 	0x695112
    4620:	23020000 	addi	v0,t8,0
    4624:	13ad0d20 	beq	sp,t5,7aa8 <_init-0x687f8558>
    4628:	52120000 	beql	s0,s2,462c <_init-0x687fb9d4>
    462c:	00000069 	0x69
    4630:	00242302 	ror	a0,a0,0xc
    4634:	00013a0a 	0x13a0a
    4638:	00006900 	sll	t5,zero,0x4
    463c:	00350b00 	0x350b00
    4640:	00070000 	sll	zero,a3,0x0
    4644:	00141507 	0x141507
    4648:	f7531200 	sdc1	$f19,4608(k0)
    464c:	0c000000 	jal	0 <_init-0x68800000>
    4650:	00000186 	0x186
    4654:	0d790e0c 	jal	5e43830 <_init-0x629bc7d0>
    4658:	00000306 	0x306
    465c:	002e720e 	0x2e720e
    4660:	23020000 	addi	v0,t8,0
    4664:	07b30d00 	bgezall	sp,7a68 <_init-0x687f8598>
    4668:	740e0000 	jalx	380000 <_init-0x68480000>
    466c:	0000002e 	0x2e
    4670:	0d022302 	jal	4088c08 <_init-0x647773f8>
    4674:	000002f8 	0x2f8
    4678:	002e760e 	0x2e760e
    467c:	23020000 	addi	v0,t8,0
    4680:	0e220d04 	jal	8883410 <_init-0x5ff7cbf0>
    4684:	780e0000 	0x780e0000
    4688:	00000186 	0x186
    468c:	00082302 	srl	a0,t0,0xc
    4690:	018c0404 	0x18c0404
    4694:	25090000 	addiu	t1,t0,0
    4698:	07000000 	bltz	t8,469c <_init-0x687fb964>
    469c:	00000949 	0x949
    46a0:	0145790e 	0x145790e
    46a4:	ac0a0000 	sw	t2,0(zero)
    46a8:	85000001 	lh	zero,1(t0)
    46ac:	0b000000 	j	c000000 <_init-0x5c800000>
    46b0:	00000035 	0x35
    46b4:	fb0c0007 	sdc2	$12,7(t8)
    46b8:	14000001 	bnez	zero,46c0 <_init-0x687fb940>
    46bc:	e80d4208 	swc2	$13,16904(zero)
    46c0:	08000002 	j	8 <_init-0x687ffff8>
    46c4:	00006939 	0x6939
    46c8:	00230200 	0x230200
    46cc:	0007590d 	break	0x7,0x164
    46d0:	693b0800 	0x693b0800
    46d4:	02000000 	0x2000000
    46d8:	640e0423 	0x640e0423
    46dc:	08007961 	j	1e584 <_init-0x687e1a7c>
    46e0:	0000693d 	0x693d
    46e4:	08230200 	j	8c0800 <_init-0x67f3f800>
    46e8:	0006530d 	break	0x6,0x14c
    46ec:	693f0800 	0x693f0800
    46f0:	02000000 	0x2000000
    46f4:	cd0d0c23 	pref	0xd,3107(t0)
    46f8:	0800001f 	j	7c <_init-0x687fff84>
    46fc:	00008541 	0x8541
    4700:	10230200 	beq	at,v1,4f04 <_init-0x687fb0fc>
    4704:	0d120700 	jal	4481c00 <_init-0x6437e400>
    4708:	42080000 	c0	0x80000
    470c:	000001ac 	0x1ac
    4710:	0002390c 	syscall	0x8e4
    4714:	50080c00 	beql	zero,t0,7718 <_init-0x687f88e8>
    4718:	0009680d 	break	0x9,0x1a0
    471c:	694b0800 	0x694b0800
    4720:	02000000 	0x2000000
    4724:	250d0023 	addiu	t5,t0,35
    4728:	0800000b 	j	2c <_init-0x687fffd4>
    472c:	0000694d 	break	0x0,0x1a5
    4730:	04230200 	bgezl	at,4f34 <_init-0x687fb0cc>
    4734:	000b670d 	break	0xb,0x19c
    4738:	694f0800 	0x694f0800
    473c:	02000000 	0x2000000
    4740:	07000823 	bltz	t8,67d0 <_init-0x687f9830>
    4744:	000006e2 	0x6e2
    4748:	02065008 	0x2065008
    474c:	7a0f0000 	0x7a0f0000
    4750:	e3000002 	sc	zero,2(t8)
    4754:	0900000d 	j	4000034 <_init-0x647fffcc>
    4758:	cd0d5304 	pref	0xd,21252(t0)
    475c:	0400001f 	bltz	zero,47dc <_init-0x687fb824>
    4760:	00002555 	0x2555
    4764:	00230200 	0x230200
    4768:	0064690e 	0x64690e
    476c:	003c5704 	0x3c5704
    4770:	23020000 	addi	v0,t8,0
    4774:	02c00d01 	0x2c00d01
    4778:	59040000 	0x59040000
    477c:	00000043 	sra	zero,zero,0x1
    4780:	00052302 	srl	a0,a1,0xc
    4784:	00038607 	0x38607
    4788:	445b0400 	0x445b0400
    478c:	0c000002 	jal	8 <_init-0x687ffff8>
    4790:	00000340 	sll	zero,zero,0xd
    4794:	0d810425 	jal	6041094 <_init-0x627bef6c>
    4798:	00001165 	0x1165
    479c:	027a6404 	0x27a6404
    47a0:	23020000 	addi	v0,t8,0
    47a4:	09370d00 	j	4dc3400 <_init-0x63a3cc00>
    47a8:	67040000 	0x67040000
    47ac:	0000008c 	syscall	0x2
    47b0:	0d092302 	jal	4248c08 <_init-0x645b73f8>
    47b4:	00000978 	0x978
    47b8:	008c6904 	0x8c6904
    47bc:	23020000 	addi	v0,t8,0
    47c0:	00780e0b 	0x780e0b
    47c4:	008c6b04 	0x8c6b04
    47c8:	23020000 	addi	v0,t8,0
    47cc:	00790e0d 	break	0x79,0x38
    47d0:	008c6d04 	0x8c6d04
    47d4:	23020000 	addi	v0,t8,0
    47d8:	10d60d0f 	beq	a2,s6,7c18 <_init-0x687f83e8>
    47dc:	70040000 	madd	zero,a0
    47e0:	0000008c 	syscall	0x2
    47e4:	0d112302 	jal	4448c08 <_init-0x643b73f8>
    47e8:	00000bb9 	0xbb9
    47ec:	008c7204 	0x8c7204
    47f0:	23020000 	addi	v0,t8,0
    47f4:	0b2c0d13 	j	cb0344c <_init-0x5bcfcbb4>
    47f8:	74040000 	jalx	100000 <_init-0x68700000>
    47fc:	0000003c 	0x3c
    4800:	0d152302 	jal	4548c08 <_init-0x642b73f8>
    4804:	00000806 	srlv	at,zero,zero
    4808:	00257604 	0x257604
    480c:	23020000 	addi	v0,t8,0
    4810:	07070d19 	0x7070d19
    4814:	78040000 	0x78040000
    4818:	00000025 	move	zero,zero
    481c:	0d1a2302 	jal	4688c08 <_init-0x641773f8>
    4820:	00000edb 	0xedb
    4824:	002e7a04 	0x2e7a04
    4828:	23020000 	addi	v0,t8,0
    482c:	0ce00d1b 	jal	380346c <_init-0x64ffcb94>
    4830:	7d040000 	ext	a0,t0,0x0,0x1
    4834:	0000003c 	0x3c
    4838:	0d1d2302 	jal	4748c08 <_init-0x640b73f8>
    483c:	000002ba 	0x2ba
    4840:	003c7f04 	0x3c7f04
    4844:	23020000 	addi	v0,t8,0
    4848:	ed070021 	swc3	$7,33(t0)
    484c:	0400000c 	bltz	zero,4880 <_init-0x687fb780>
    4850:	00028581 	0x28581
    4854:	04300c00 	bltzal	at,7858 <_init-0x687f87a8>
    4858:	04250000 	0x4250000
    485c:	11650ddf 	beq	t3,a1,7fdc <_init-0x687f8024>
    4860:	bd040000 	cache	0x4,0(t0)
    4864:	0000027a 	0x27a
    4868:	0e002302 	jal	8008c08 <_init-0x607f73f8>
    486c:	bf040078 	cache	0x4,120(t8)
    4870:	0000008c 	syscall	0x2
    4874:	0e092302 	jal	8248c08 <_init-0x605b73f8>
    4878:	c1040079 	ll	a0,121(t0)
    487c:	0000008c 	syscall	0x2
    4880:	0d0b2302 	jal	42c8c08 <_init-0x645373f8>
    4884:	000010d6 	0x10d6
    4888:	008cc304 	0x8cc304
    488c:	23020000 	addi	v0,t8,0
    4890:	0bb90d0d 	j	ee43434 <_init-0x599bcbcc>
    4894:	c5040000 	lwc1	$f4,0(t0)
    4898:	0000008c 	syscall	0x2
    489c:	0d0f2302 	jal	43c8c08 <_init-0x644373f8>
    48a0:	00000373 	tltu	zero,zero,0xd
    48a4:	003cc704 	0x3cc704
    48a8:	23020000 	addi	v0,t8,0
    48ac:	0b2c0d11 	j	cb03444 <_init-0x5bcfcbbc>
    48b0:	c9040000 	lwc2	$4,0(t0)
    48b4:	0000003c 	0x3c
    48b8:	0d152302 	jal	4548c08 <_init-0x642b73f8>
    48bc:	00000806 	srlv	at,zero,zero
    48c0:	0025cb04 	0x25cb04
    48c4:	23020000 	addi	v0,t8,0
    48c8:	09a10d19 	j	6843464 <_init-0x61fbcb9c>
    48cc:	cd040000 	pref	0x4,0(t0)
    48d0:	00000025 	move	zero,zero
    48d4:	0d1a2302 	jal	4688c08 <_init-0x641773f8>
    48d8:	00000e9b 	0xe9b
    48dc:	0025cf04 	0x25cf04
    48e0:	23020000 	addi	v0,t8,0
    48e4:	0bb40d1b 	j	ed0346c <_init-0x59afcb94>
    48e8:	d1040000 	0xd1040000
    48ec:	00000025 	move	zero,zero
    48f0:	0d1c2302 	jal	4708c08 <_init-0x640f73f8>
    48f4:	0000109d 	0x109d
    48f8:	002ed504 	0x2ed504
    48fc:	23020000 	addi	v0,t8,0
    4900:	030c0d1d 	0x30c0d1d
    4904:	d7040000 	ldc1	$f4,0(t8)
    4908:	00000025 	move	zero,zero
    490c:	0d1f2302 	jal	47c8c08 <_init-0x640373f8>
    4910:	00000658 	0x658
    4914:	0085d904 	0x85d904
    4918:	23020000 	addi	v0,t8,0
    491c:	0d380d20 	jal	4e03480 <_init-0x639fcb80>
    4920:	db040000 	ldc2	$4,0(t8)
    4924:	0000002e 	0x2e
    4928:	0d212302 	jal	4848c08 <_init-0x63fb73f8>
    492c:	00000300 	sll	zero,zero,0xc
    4930:	002edd04 	0x2edd04
    4934:	23020000 	addi	v0,t8,0
    4938:	c6070023 	lwc1	$f7,35(s0)
    493c:	04000008 	bltz	zero,4960 <_init-0x687fb6a0>
    4940:	00034bdf 	0x34bdf
    4944:	04a20c00 	bltzl	a1,7948 <_init-0x687f86b8>
    4948:	04140000 	0x4140000
    494c:	11650df1 	beq	t3,a1,8114 <_init-0x687f7eec>
    4950:	e9040000 	swc2	$4,0(t0)
    4954:	0000027a 	0x27a
    4958:	0e002302 	jal	8008c08 <_init-0x607f73f8>
    495c:	ea040078 	swc2	$4,120(s0)
    4960:	0000008c 	syscall	0x2
    4964:	0e092302 	jal	8248c08 <_init-0x605b73f8>
    4968:	eb040079 	swc2	$4,121(t8)
    496c:	0000008c 	syscall	0x2
    4970:	0d0b2302 	jal	42c8c08 <_init-0x645373f8>
    4974:	000010d6 	0x10d6
    4978:	008cec04 	0x8cec04
    497c:	23020000 	addi	v0,t8,0
    4980:	0bb90d0d 	j	ee43434 <_init-0x599bcbcc>
    4984:	ed040000 	swc3	$4,0(t0)
    4988:	0000008c 	syscall	0x2
    498c:	0d0f2302 	jal	43c8c08 <_init-0x644373f8>
    4990:	00000806 	srlv	at,zero,zero
    4994:	0025ee04 	0x25ee04
    4998:	23020000 	addi	v0,t8,0
    499c:	09420d11 	j	5083444 <_init-0x6377cbbc>
    49a0:	ef040000 	swc3	$4,0(t8)
    49a4:	0000002e 	0x2e
    49a8:	00122302 	srl	a0,s2,0xc
    49ac:	00037e07 	0x37e07
    49b0:	3bf10400 	xori	s1,ra,0x400
    49b4:	10000004 	b	49c8 <_init-0x687fb638>
    49b8:	00000564 	0x564
    49bc:	01130429 	0x1130429
    49c0:	0400780e 	bltz	zero,229fc <_init-0x687dd604>
    49c4:	00008cfa 	0x8cfa
    49c8:	00230200 	0x230200
    49cc:	0400790e 	bltz	zero,22e08 <_init-0x687dd1f8>
    49d0:	00008cfc 	0x8cfc
    49d4:	02230200 	0x2230200
    49d8:	0010d60d 	break	0x10,0x358
    49dc:	8cfe0400 	lw	s8,1024(a3)
    49e0:	02000000 	0x2000000
    49e4:	b9110423 	swr	s1,1059(t0)
    49e8:	0400000b 	bltz	zero,4a18 <_init-0x687fb5e8>
    49ec:	008c0100 	0x8c0100
    49f0:	23020000 	addi	v0,t8,0
    49f4:	0b2c1106 	j	cb04418 <_init-0x5bcfbbe8>
    49f8:	02040000 	0x2040000
    49fc:	00003c01 	0x3c01
    4a00:	08230200 	j	8c0800 <_init-0x67f3f800>
    4a04:	00080611 	0x80611
    4a08:	01040400 	0x1040400
    4a0c:	00000025 	move	zero,zero
    4a10:	110c2302 	beq	t0,t4,d61c <_init-0x687f29e4>
    4a14:	00000707 	0x707
    4a18:	25010604 	addiu	at,t0,1540
    4a1c:	02000000 	0x2000000
    4a20:	db110d23 	ldc2	$17,3363(t8)
    4a24:	0400000e 	bltz	zero,4a60 <_init-0x687fb5a0>
    4a28:	002e0108 	0x2e0108
    4a2c:	23020000 	addi	v0,t8,0
    4a30:	0ce0110e 	jal	3804438 <_init-0x64ffbbc8>
    4a34:	0b040000 	j	c100000 <_init-0x5c700000>
    4a38:	00003c01 	0x3c01
    4a3c:	10230200 	beq	at,v1,5240 <_init-0x687fadc0>
    4a40:	0002ba11 	0x2ba11
    4a44:	010d0400 	0x10d0400
    4a48:	0000003c 	0x3c
    4a4c:	11142302 	beq	t0,s4,d658 <_init-0x687f29a8>
    4a50:	00000658 	0x658
    4a54:	25010f04 	addiu	at,t0,3844
    4a58:	02000000 	0x2000000
    4a5c:	01111823 	subu	v1,t0,s1
    4a60:	04000008 	bltz	zero,4a84 <_init-0x687fb57c>
    4a64:	00ab0111 	0xab0111
    4a68:	23020000 	addi	v0,t8,0
    4a6c:	db120019 	ldc2	$18,25(t8)
    4a70:	0400000d 	bltz	zero,4aa8 <_init-0x687fb558>
    4a74:	04ad0113 	0x4ad0113
    4a78:	04040000 	0x4040000
    4a7c:	00000564 	0x564
    4a80:	00059705 	0x59705
    4a84:	30100400 	andi	s0,zero,0x400
    4a88:	000c9106 	0xc9106
    4a8c:	6d060000 	0x6d060000
    4a90:	01000009 	jalr	zero,t0
    4a94:	000c0406 	0xc0406
    4a98:	4a060200 	c2	0x60200
    4a9c:	0300000a 	movz	zero,t8,zero
    4aa0:	10620700 	beq	v1,v0,66a4 <_init-0x687f995c>
    4aa4:	35100000 	ori	s0,t0,0x0
    4aa8:	00000576 	tne	zero,zero,0x15
    4aac:	00061d05 	0x61d05
    4ab0:	1e0f0400 	0x1e0f0400
    4ab4:	000d3e06 	0xd3e06
    4ab8:	49060000 	bc2fl	$cc1,4abc <_init-0x687fb544>
    4abc:	01000008 	jr	t0
    4ac0:	0007f206 	0x7f206
    4ac4:	a8060200 	swl	a2,512(zero)
    4ac8:	03000003 	0x3000003
    4acc:	00047406 	0x47406
    4ad0:	37060400 	ori	a2,t8,0x400
    4ad4:	05000005 	bltz	t0,4aec <_init-0x687fb514>
    4ad8:	000f8d06 	0xf8d06
    4adc:	dd060600 	ldc3	$6,1536(t0)
    4ae0:	07000005 	bltz	t8,4af8 <_init-0x687fb508>
    4ae4:	000e0206 	0xe0206
    4ae8:	e7060800 	swc1	$f6,2048(t8)
    4aec:	09000010 	j	4000040 <_init-0x647fffc0>
    4af0:	0005b906 	0x5b906
    4af4:	7f060a00 	ext	a2,t8,0x8,0x2
    4af8:	0b00000c 	j	c000030 <_init-0x5c7fffd0>
    4afc:	000e7306 	0xe7306
    4b00:	2d060c00 	sltiu	a2,t0,3072
    4b04:	0d00000d 	jal	4000034 <_init-0x647fffcc>
    4b08:	00074306 	0x74306
    4b0c:	22060e00 	addi	a2,s0,3584
    4b10:	0f00000c 	jal	c000030 <_init-0x5c7fffd0>
    4b14:	00021606 	0x21606
    4b18:	5b061000 	0x5b061000
    4b1c:	11000009 	beqz	t0,4b44 <_init-0x687fb4bc>
    4b20:	000fe906 	0xfe906
    4b24:	07001200 	bltz	t8,9328 <_init-0x687f6cd8>
    4b28:	00000a74 	teq	zero,zero,0x29
    4b2c:	05a2490f 	bltzl	t5,16f6c <_init-0x687e9094>
    4b30:	4d0c0000 	lwxc1	$f0,t4(t0)
    4b34:	08000006 	j	18 <_init-0x687fffe8>
    4b38:	9b0d670f 	lwr	t5,26383(t8)
    4b3c:	0f00000e 	jal	c000038 <_init-0x5c7fffc8>
    4b40:	00061d65 	0x61d65
    4b44:	00230200 	0x230200
    4b48:	000dfb0d 	break	0xd,0x3ec
    4b4c:	97660f00 	lhu	a2,3840(k1)
    4b50:	02000005 	0x2000005
    4b54:	07000423 	bltz	t8,5be4 <_init-0x687fa41c>
    4b58:	00000855 	0x855
    4b5c:	0628670f 	tgei	s1,26383
    4b60:	73050000 	madd	t8,a1
    4b64:	04000006 	bltz	zero,4b80 <_init-0x687fb480>
    4b68:	4b066e0f 	c2	0x1066e0f
    4b6c:	0000000b 	movn	zero,zero,zero
    4b70:	000e4a06 	0xe4a06
    4b74:	22060100 	addi	a2,s0,256
    4b78:	02000007 	srav	zero,zero,s0
    4b7c:	0c5b0700 	jal	16c1c00 <_init-0x6713e400>
    4b80:	750f0000 	jalx	43c0000 <_init-0x64440000>
    4b84:	00000658 	0x658
    4b88:	00069f05 	0x69f05
    4b8c:	21090400 	addi	t1,t0,1024
    4b90:	000ec706 	0xec706
    4b94:	d0060000 	0xd0060000
    4b98:	0100000a 	movz	zero,t0,zero
    4b9c:	0006bd06 	0x6bd06
    4ba0:	a4060200 	sh	a2,512(zero)
    4ba4:	03000010 	0x3000010
    4ba8:	11050700 	beq	t0,a1,67ac <_init-0x687f9854>
    4bac:	26090000 	addiu	t1,s0,0
    4bb0:	0000067e 	0x67e
    4bb4:	0006b905 	0x6b905
    4bb8:	2e090400 	sltiu	t1,s0,1024
    4bbc:	000e3206 	0xe3206
    4bc0:	07000000 	bltz	t8,4bc4 <_init-0x687fb43c>
    4bc4:	0000078d 	break	0x0,0x1e
    4bc8:	06aa3009 	tlti	s5,12297
    4bcc:	390f0000 	xori	t7,t0,0x0
    4bd0:	9b000007 	lwr	zero,7(t8)
    4bd4:	18000011 	blez	zero,4c1c <_init-0x687fb3e4>
    4bd8:	cd0d5c09 	pref	0xd,23561(t0)
    4bdc:	0900001f 	j	400007c <_init-0x647fff84>
    4be0:	00069f5e 	0x69f5e
    4be4:	00230200 	0x230200
    4be8:	00083d0d 	break	0x8,0xf4
    4bec:	2e600900 	sltiu	zero,s3,2304
    4bf0:	02000000 	0x2000000
    4bf4:	580d0423 	0x580d0423
    4bf8:	0900000d 	j	4000034 <_init-0x647fffcc>
    4bfc:	00002e62 	0x2e62
    4c00:	06230200 	bgezl	s1,5404 <_init-0x687fabfc>
    4c04:	00033c0d 	break	0x3,0xf0
    4c08:	a5640900 	sh	a0,2304(t3)
    4c0c:	02000000 	0x2000000
    4c10:	240d0823 	li	t5,2083
    4c14:	0900002d 	j	40000b4 <_init-0x647fff4c>
    4c18:	00075067 	0x75067
    4c1c:	0c230200 	jal	8c0800 <_init-0x67f3f800>
    4c20:	000e280d 	break	0xe,0xa0
    4c24:	696a0900 	0x696a0900
    4c28:	02000000 	0x2000000
    4c2c:	39131023 	xori	s3,t0,0x1023
    4c30:	0100000c 	syscall	0x40000
    4c34:	0002590d 	break	0x2,0x164
    4c38:	566d0900 	bnel	s3,t5,703c <_init-0x687f8fc4>
    4c3c:	02000007 	srav	zero,zero,s0
    4c40:	14001423 	bnez	zero,9cd0 <_init-0x687f6330>
    4c44:	0000074a 	0x74a
    4c48:	074a1501 	tlti	k0,5377
    4c4c:	b9150000 	swr	s5,0(t0)
    4c50:	00000006 	srlv	zero,zero,zero
    4c54:	06c40404 	0x6c40404
    4c58:	04040000 	0x4040000
    4c5c:	00000739 	0x739
    4c60:	07240404 	0x7240404
    4c64:	a5070000 	sh	a3,0(t0)
    4c68:	09000011 	j	4000044 <_init-0x647fffbc>
    4c6c:	0006c46e 	0x6c46e
    4c70:	5c040400 	0x5c040400
    4c74:	05000007 	bltz	t0,4c94 <_init-0x687fb36c>
    4c78:	0000079a 	0x79a
    4c7c:	06230b04 	bgezl	s1,7890 <_init-0x687f8770>
    4c80:	00000232 	tlt	zero,zero,0x8
    4c84:	08860600 	j	2181800 <_init-0x6667e800>
    4c88:	06010000 	bgez	s0,4c8c <_init-0x687fb374>
    4c8c:	00001080 	sll	v0,zero,0x2
    4c90:	12050602 	beq	s0,a1,649c <_init-0x687f9b64>
    4c94:	06030000 	bgezl	s0,4c98 <_init-0x687fb368>
    4c98:	00000277 	0x277
    4c9c:	10290604 	beq	at,t1,64b0 <_init-0x687f9b50>
    4ca0:	00050000 	sll	zero,a1,0x0
    4ca4:	0003c807 	srav	t9,v1,zero
    4ca8:	6d2a0b00 	0x6d2a0b00
    4cac:	05000007 	bltz	t0,4ccc <_init-0x687fb334>
    4cb0:	000007cc 	syscall	0x1f
    4cb4:	06360b04 	0x6360b04
    4cb8:	000005ea 	0x5ea
    4cbc:	0fd10600 	jal	f441800 <_init-0x593be800>
    4cc0:	06010000 	bgez	s0,4cc4 <_init-0x687fb33c>
    4cc4:	000006ed 	0x6ed
    4cc8:	05940602 	0x5940602
    4ccc:	06030000 	bgezl	s0,4cd0 <_init-0x687fb330>
    4cd0:	000003fd 	0x3fd
    4cd4:	97070004 	lhu	a3,4(t8)
    4cd8:	0b000002 	j	c000008 <_init-0x5c7ffff8>
    4cdc:	0007a53c 	0x7a53c
    4ce0:	08680f00 	j	1a03c00 <_init-0x66dfc400>
    4ce4:	067c0000 	0x67c0000
    4ce8:	0b240000 	j	c900000 <_init-0x5bf00000>
    4cec:	1fcd0d4b 	0x1fcd0d4b
    4cf0:	4e0b0000 	lwxc1	$f0,t3(s0)
    4cf4:	0000079a 	0x79a
    4cf8:	0d002302 	jal	4008c08 <_init-0x647f73f8>
    4cfc:	000003b4 	teq	zero,zero,0xe
    4d00:	00a5510b 	0xa5510b
    4d04:	23020000 	addi	v0,t8,0
    4d08:	11140d04 	beq	t0,s4,811c <_init-0x687f7ee4>
    4d0c:	540b0000 	bnel	zero,t3,4d10 <_init-0x687fb2f0>
    4d10:	000000a5 	0xa5
    4d14:	0d082302 	jal	4208c08 <_init-0x645f73f8>
    4d18:	00000ac2 	srl	at,zero,0xb
    4d1c:	00a5560b 	0xa5560b
    4d20:	23020000 	addi	v0,t8,0
    4d24:	0e280d0c 	jal	8a03430 <_init-0x5fdfcbd0>
    4d28:	590b0000 	0x590b0000
    4d2c:	00000069 	0x69
    4d30:	0d102302 	jal	4408c08 <_init-0x643f73f8>
    4d34:	00002d24 	0x2d24
    4d38:	087f5c0b 	j	1fd702c <_init-0x66828fd4>
    4d3c:	23020000 	addi	v0,t8,0
    4d40:	03b80d14 	0x3b80d14
    4d44:	5f0b0000 	0x5f0b0000
    4d48:	0000009a 	0x9a
    4d4c:	0d182302 	jal	4608c08 <_init-0x641f73f8>
    4d50:	00000672 	tlt	zero,zero,0x19
    4d54:	009a620b 	0x9a620b
    4d58:	23020000 	addi	v0,t8,0
    4d5c:	1123131c 	beq	t1,v1,99d0 <_init-0x687f6630>
    4d60:	0d010000 	jal	4040000 <_init-0x647c0000>
    4d64:	00000cbe 	0xcbe
    4d68:	0885650b 	j	215942c <_init-0x666a6bd4>
    4d6c:	23020000 	addi	v0,t8,0
    4d70:	79140020 	0x79140020
    4d74:	01000008 	jr	t0
    4d78:	00087915 	0x87915
    4d7c:	07cc1500 	teqi	s8,5376
    4d80:	04000000 	bltz	zero,4d84 <_init-0x687fb27c>
    4d84:	0007d704 	0x7d704
    4d88:	68040400 	0x68040400
    4d8c:	04000008 	bltz	zero,4db0 <_init-0x687fb250>
    4d90:	00085304 	0x85304
    4d94:	0ae40700 	j	b901c00 <_init-0x5cefe400>
    4d98:	660b0000 	0x660b0000
    4d9c:	000007d7 	0x7d7
    4da0:	088b0404 	j	22c1010 <_init-0x6653eff0>
    4da4:	d9070000 	ldc2	$7,0(t0)
    4da8:	06000012 	bltz	s0,4df4 <_init-0x687fb20c>
    4dac:	0008a721 	0x8a721
    4db0:	ad040400 	sw	a0,1024(t0)
    4db4:	16000008 	bnez	s0,4dd8 <_init-0x687fb228>
    4db8:	000008c2 	srl	at,zero,0x3
    4dbc:	00006901 	0x6901
    4dc0:	002c1500 	0x2c1500
    4dc4:	69150000 	0x69150000
    4dc8:	00000000 	nop
    4dcc:	00094d0f 	0x94d0f
    4dd0:	00143800 	sll	a3,s4,0x0
    4dd4:	28062400 	slti	a2,zero,9216
    4dd8:	00155a0d 	break	0x15,0x168
    4ddc:	692a0600 	0x692a0600
    4de0:	02000000 	0x2000000
    4de4:	5c0d0023 	0x5c0d0023
    4de8:	06000015 	bltz	s0,4e40 <_init-0x687fb1c0>
    4dec:	0000692d 	0x692d
    4df0:	04230200 	bgezl	at,55f4 <_init-0x687faa0c>
    4df4:	0006a30d 	break	0x6,0x28c
    4df8:	69300600 	0x69300600
    4dfc:	02000000 	0x2000000
    4e00:	2f0d0823 	sltiu	t5,t8,2083
    4e04:	06000013 	bltz	s0,4e54 <_init-0x687fb1ac>
    4e08:	00005e33 	tltu	zero,zero,0x178
    4e0c:	0c230200 	jal	8c0800 <_init-0x67f3f800>
    4e10:	002d240d 	break	0x2d,0x90
    4e14:	9c360600 	0x9c360600
    4e18:	02000008 	jr	s0
    4e1c:	430d1023 	c0	0x10d1023
    4e20:	06000014 	bltz	s0,4e74 <_init-0x687fb18c>
    4e24:	0000a539 	0xa539
    4e28:	14230200 	bne	at,v1,562c <_init-0x687fa9d4>
    4e2c:	0012ec0d 	break	0x12,0x3b0
    4e30:	a53c0600 	sh	gp,1536(t1)
    4e34:	02000000 	0x2000000
    4e38:	f20d1823 	0xf20d1823
    4e3c:	06000012 	bltz	s0,4e88 <_init-0x687fb178>
    4e40:	0000a53f 	0xa53f
    4e44:	1c230200 	0x1c230200
    4e48:	0012d20d 	break	0x12,0x348
    4e4c:	4d420600 	lwxc1	$f24,v0(t2)
    4e50:	02000009 	jalr	zero,s0
    4e54:	04002023 	bltz	zero,cee4 <_init-0x687f311c>
    4e58:	00019104 	0x19104
    4e5c:	14ee0700 	bne	a3,t6,6a60 <_init-0x687f95a0>
    4e60:	44060000 	mfc1	a2,$f0
    4e64:	000008c2 	srl	at,zero,0x3
    4e68:	00082407 	0x82407
    4e6c:	a74a0600 	sh	t2,1536(k0)
    4e70:	0f000008 	jal	c000020 <_init-0x5c7fffe0>
    4e74:	000009de 	0x9de
    4e78:	00000f16 	0xf16
    4e7c:	0d51061c 	jal	5441870 <_init-0x633be790>
    4e80:	000002c0 	sll	zero,zero,0xb
    4e84:	00695306 	0x695306
    4e88:	23020000 	addi	v0,t8,0
    4e8c:	0fc90d00 	jal	f243400 <_init-0x595bcc00>
    4e90:	56060000 	bnel	s0,a2,4e94 <_init-0x687fb16c>
    4e94:	00000069 	0x69
    4e98:	0d042302 	jal	4108c08 <_init-0x646f73f8>
    4e9c:	00001010 	mfhi	v0
    4ea0:	00695906 	0x695906
    4ea4:	23020000 	addi	v0,t8,0
    4ea8:	0f760d08 	jal	dd83420 <_init-0x5aa7cbe0>
    4eac:	5c060000 	0x5c060000
    4eb0:	00000069 	0x69
    4eb4:	0d0c2302 	jal	4308c08 <_init-0x644f73f8>
    4eb8:	00000d4c 	syscall	0x35
    4ebc:	00695f06 	0x695f06
    4ec0:	23020000 	addi	v0,t8,0
    4ec4:	2d240d10 	sltiu	a0,t1,3344
    4ec8:	62060000 	0x62060000
    4ecc:	0000095e 	0x95e
    4ed0:	13142302 	beq	t8,s4,dadc <_init-0x687f2524>
    4ed4:	00000600 	sll	zero,zero,0x18
    4ed8:	08440d01 	j	1103404 <_init-0x676fcbfc>
    4edc:	65060000 	0x65060000
    4ee0:	000009de 	0x9de
    4ee4:	00182302 	srl	a0,t8,0xc
    4ee8:	09c90404 	j	7241010 <_init-0x615beff0>
    4eec:	1d070000 	0x1d070000
    4ef0:	0600000f 	bltz	s0,4f30 <_init-0x687fb0d0>
    4ef4:	00096967 	0x96967
    4ef8:	0a400500 	j	9001400 <_init-0x5f7fec00>
    4efc:	05040000 	0x5040000
    4f00:	02060630 	tge	s0,a2,0x18
    4f04:	06000000 	bltz	s0,4f08 <_init-0x687fb0f8>
    4f08:	000011be 	0x11be
    4f0c:	0ff90601 	jal	fe41804 <_init-0x589be7fc>
    4f10:	06020000 	bltzl	s0,4f14 <_init-0x687fb0ec>
    4f14:	00000ea8 	0xea8
    4f18:	04350603 	0x4350603
    4f1c:	06040000 	0x6040000
    4f20:	000007db 	0x7db
    4f24:	09d60605 	j	7581814 <_init-0x6127e7ec>
    4f28:	06060000 	0x6060000
    4f2c:	00000bcc 	syscall	0x2f
    4f30:	0b8e0607 	j	e38181c <_init-0x5a47e7e4>
    4f34:	06080000 	tgei	s0,0
    4f38:	00000391 	0x391
    4f3c:	0d650609 	jal	5941824 <_init-0x62ebe7dc>
    4f40:	060a0000 	tlti	s0,0
    4f44:	00000ba7 	0xba7
    4f48:	6207000b 	0x6207000b
    4f4c:	05000006 	bltz	t0,4f68 <_init-0x687fb098>
    4f50:	0009ef3e 	0x9ef3e
    4f54:	0a900500 	j	a401400 <_init-0x5e3fec00>
    4f58:	05040000 	0x5040000
    4f5c:	08f6064e 	j	3d81938 <_init-0x64a7e6c8>
    4f60:	06000000 	bltz	s0,4f64 <_init-0x687fb09c>
    4f64:	00000240 	sll	zero,zero,0x9
    4f68:	08940601 	j	2501804 <_init-0x662fe7fc>
    4f6c:	06020000 	bltzl	s0,4f70 <_init-0x687fb090>
    4f70:	00000a31 	tgeu	zero,zero,0x28
    4f74:	0be30603 	j	f8c180c <_init-0x58f3e7f4>
    4f78:	06040000 	0x6040000
    4f7c:	00000da4 	0xda4
    4f80:	0ef70605 	jal	bdc1814 <_init-0x5ca3e7ec>
    4f84:	06060000 	0x6060000
    4f88:	00000f24 	0xf24
    4f8c:	0f430607 	jal	d0c181c <_init-0x5b73e7e4>
    4f90:	06080000 	tgei	s0,0
    4f94:	0000114a 	0x114a
    4f98:	18070009 	0x18070009
    4f9c:	05000012 	bltz	t0,4fe8 <_init-0x687fb018>
    4fa0:	000a4b5a 	0xa4b5a
    4fa4:	0af40f00 	j	bd03c00 <_init-0x5cafc400>
    4fa8:	0cc30000 	jal	30c0000 <_init-0x65740000>
    4fac:	05140000 	0x5140000
    4fb0:	1fcd0d61 	0x1fcd0d61
    4fb4:	63050000 	0x63050000
    4fb8:	00000a40 	sll	at,zero,0x9
    4fbc:	0d002302 	jal	4008c08 <_init-0x647f73f8>
    4fc0:	00000e28 	0xe28
    4fc4:	00696605 	0x696605
    4fc8:	23020000 	addi	v0,t8,0
    4fcc:	2d240d04 	sltiu	a0,t1,3332
    4fd0:	69050000 	0x69050000
    4fd4:	00000b0b 	0xb0b
    4fd8:	0d082302 	jal	4208c08 <_init-0x645f73f8>
    4fdc:	000010b9 	0x10b9
    4fe0:	0b116c05 	j	c45b014 <_init-0x5c3a4fec>
    4fe4:	23020000 	addi	v0,t8,0
    4fe8:	0457130c 	0x457130c
    4fec:	0d010000 	jal	4040000 <_init-0x647c0000>
    4ff0:	00000259 	0x259
    4ff4:	0b176f05 	j	c5dbc14 <_init-0x5c2243ec>
    4ff8:	23020000 	addi	v0,t8,0
    4ffc:	05140010 	0x5140010
    5000:	0100000b 	movn	zero,t0,zero
    5004:	000b0515 	0xb0515
    5008:	0a901500 	j	a405400 <_init-0x5e3fac00>
    500c:	04000000 	bltz	zero,5010 <_init-0x687faff0>
    5010:	000a9b04 	0xa9b04
    5014:	f4040400 	sdc1	$f4,1024(zero)
    5018:	0400000a 	bltz	zero,5044 <_init-0x687fafbc>
    501c:	0009e404 	0x9e404
    5020:	df040400 	ldc3	$4,1024(t8)
    5024:	0700000a 	bltz	t8,5050 <_init-0x687fafb0>
    5028:	00000c74 	teq	zero,zero,0x31
    502c:	0a9b7105 	j	a6dc414 <_init-0x5e123bec>
    5030:	04040000 	0x4040000
    5034:	00000b1d 	0xb1d
    5038:	000bbf0f 	0xbbf0f
    503c:	00056b00 	sll	t5,a1,0xc
    5040:	210d2400 	addi	t5,t0,9216
    5044:	0006110d 	break	0x6,0x44
    5048:	69220d00 	0x69220d00
    504c:	02000000 	0x2000000
    5050:	6a0d0023 	0x6a0d0023
    5054:	0d000004 	jal	4000010 <_init-0x647ffff0>
    5058:	00006923 	0x6923
    505c:	04230200 	bgezl	at,5860 <_init-0x687fa7a0>
    5060:	00072d0d 	break	0x7,0xb4
    5064:	69240d00 	0x69240d00
    5068:	02000000 	0x2000000
    506c:	240d0823 	li	t5,2083
    5070:	0d00002d 	jal	40000b4 <_init-0x647fff4c>
    5074:	000bd626 	0xbd626
    5078:	0c230200 	jal	8c0800 <_init-0x67f3f800>
    507c:	000e280d 	break	0xe,0xa0
    5080:	69290d00 	0x69290d00
    5084:	02000000 	0x2000000
    5088:	b20d1023 	0xb20d1023
    508c:	0d000005 	jal	4000014 <_init-0x647fffec>
    5090:	0000692a 	0x692a
    5094:	14230200 	bne	at,v1,5898 <_init-0x687fa768>
    5098:	001fcd0d 	break	0x1f,0x334
    509c:	692b0d00 	0x692b0d00
    50a0:	02000000 	0x2000000
    50a4:	480d1823 	0x480d1823
    50a8:	0d000005 	jal	4000014 <_init-0x647fffec>
    50ac:	0000692c 	0x692c
    50b0:	1c230200 	0x1c230200
    50b4:	0007b913 	0x7b913
    50b8:	b60d0100 	0xb60d0100
    50bc:	0d00000c 	jal	4000030 <_init-0x647fffd0>
    50c0:	000bdc2e 	0xbdc2e
    50c4:	20230200 	addi	v1,at,512
    50c8:	0bd01400 	j	f405000 <_init-0x593fb000>
    50cc:	15010000 	bne	t0,at,50d0 <_init-0x687faf30>
    50d0:	00000bd0 	0xbd0
    50d4:	00006915 	0x6915
    50d8:	04040000 	0x4040000
    50dc:	00000b2e 	0xb2e
    50e0:	0bbf0404 	j	efc1010 <_init-0x5983eff0>
    50e4:	04040000 	0x4040000
    50e8:	00000baa 	0xbaa
    50ec:	00068607 	0x68607
    50f0:	2e2f0d00 	sltiu	t7,s1,3328
    50f4:	0400000b 	bltz	zero,5124 <_init-0x687faedc>
    50f8:	000be204 	0xbe204
    50fc:	0c1a0500 	jal	681400 <_init-0x6817ec00>
    5100:	07040000 	0x7040000
    5104:	0b370629 	j	cdc18a4 <_init-0x5ba3e75c>
    5108:	06000000 	bltz	s0,510c <_init-0x687faef4>
    510c:	00000221 	0x221
    5110:	11af0601 	beq	t5,t7,6918 <_init-0x687f96e8>
    5114:	06020000 	bltzl	s0,5118 <_init-0x687faee8>
    5118:	000009ac 	0x9ac
    511c:	07a20603 	bltzl	sp,692c <_init-0x687f96d4>
    5120:	00040000 	sll	zero,a0,0x0
    5124:	00104607 	0x104607
    5128:	f32f0700 	0xf32f0700
    512c:	0500000b 	bltz	t0,515c <_init-0x687faea4>
    5130:	00000c52 	0xc52
    5134:	063b0704 	0x63b0704
    5138:	00001831 	tgeu	zero,zero,0x60
    513c:	18df0600 	0x18df0600
    5140:	06010000 	bgez	s0,5144 <_init-0x687faebc>
    5144:	000017e1 	0x17e1
    5148:	18c30602 	0x18c30602
    514c:	06030000 	bgezl	s0,5150 <_init-0x687faeb0>
    5150:	00001956 	0x1956
    5154:	19970604 	0x19970604
    5158:	00050000 	sll	zero,a1,0x0
    515c:	00192a07 	0x192a07
    5160:	25420700 	addiu	v0,t2,1792
    5164:	0500000c 	bltz	t0,5198 <_init-0x687fae68>
    5168:	00000c72 	tlt	zero,zero,0x31
    516c:	064b0704 	tltiu	s2,1796
    5170:	0000034d 	break	0x0,0xd
    5174:	0b010600 	j	c041800 <_init-0x5c7be800>
    5178:	00010000 	sll	zero,at,0x0
    517c:	000cce07 	0xcce07
    5180:	5d4e0700 	0x5d4e0700
    5184:	0500000c 	bltz	t0,51b8 <_init-0x687fae48>
    5188:	00000c92 	0xc92
    518c:	06560704 	0x6560704
    5190:	000004e3 	0x4e3
    5194:	04b20600 	bltzall	a1,6998 <_init-0x687f9668>
    5198:	00010000 	sll	zero,at,0x0
    519c:	000d1d07 	0xd1d07
    51a0:	7d590700 	ext	t9,t2,0x1c,0x1
    51a4:	0c00000c 	jal	30 <_init-0x687fffd0>
    51a8:	00000d44 	0xd44
    51ac:	0d7e07a8 	jal	5f81ea0 <_init-0x6287e160>
    51b0:	00000326 	0x326
    51b4:	00695f07 	0x695f07
    51b8:	23020000 	addi	v0,t8,0
    51bc:	06470d00 	0x6470d00
    51c0:	62070000 	0x62070000
    51c4:	00000069 	0x69
    51c8:	0d042302 	jal	4108c08 <_init-0x646f73f8>
    51cc:	000001fd 	0x1fd
    51d0:	019c6507 	0x19c6507
    51d4:	23020000 	addi	v0,t8,0
    51d8:	02ed0d08 	0x2ed0d08
    51dc:	68070000 	0x68070000
    51e0:	00000069 	0x69
    51e4:	0d102302 	jal	4408c08 <_init-0x643f73f8>
    51e8:	00001190 	0x1190
    51ec:	00696b07 	0x696b07
    51f0:	23020000 	addi	v0,t8,0
    51f4:	069b0d14 	0x69b0d14
    51f8:	6e070000 	0x6e070000
    51fc:	00000d44 	0xd44
    5200:	0d182302 	jal	4608c08 <_init-0x641f73f8>
    5204:	0000042c 	0x42c
    5208:	0d547107 	jal	551c41c <_init-0x632e3be4>
    520c:	23020000 	addi	v0,t8,0
    5210:	02840d58 	0x2840d58
    5214:	74070000 	jalx	1c0000 <_init-0x68640000>
    5218:	00000069 	0x69
    521c:	01982303 	0x1982303
    5220:	000a130d 	break	0xa,0x4c
    5224:	69770700 	0x69770700
    5228:	03000000 	0x3000000
    522c:	0d019c23 	jal	406708c <_init-0x64798f74>
    5230:	00000ea0 	0xea0
    5234:	00697a07 	0x697a07
    5238:	23030000 	addi	v1,t8,0
    523c:	130d01a0 	beq	t8,t5,58c0 <_init-0x687fa740>
    5240:	07000012 	bltz	t8,528c <_init-0x687fad74>
    5244:	0000697d 	0x697d
    5248:	a4230300 	sh	v1,768(at)
    524c:	540a0001 	bnel	zero,t2,5254 <_init-0x687fadac>
    5250:	6900000d 	0x6900000d
    5254:	0b000000 	j	c000000 <_init-0x5c800000>
    5258:	00000035 	0x35
    525c:	640a000f 	0x640a000f
    5260:	a500000d 	sh	zero,13(t0)
    5264:	0b000000 	j	c000000 <_init-0x5c800000>
    5268:	00000035 	0x35
    526c:	be07000f 	cache	0x7,15(s0)
    5270:	07000010 	bltz	t8,52b4 <_init-0x687fad4c>
    5274:	000c9d7e 	0xc9d7e
    5278:	0d940c00 	jal	6503000 <_init-0x622fd000>
    527c:	07080000 	tgei	t8,0
    5280:	03260d88 	0x3260d88
    5284:	84070000 	lh	a3,0(zero)
    5288:	00000069 	0x69
    528c:	0d002302 	jal	4008c08 <_init-0x647f73f8>
    5290:	00000365 	0x365
    5294:	0c728607 	jal	1ca181c <_init-0x66b5e7e4>
    5298:	23020000 	addi	v0,t8,0
    529c:	ed070004 	swc3	$7,4(t0)
    52a0:	07000009 	bltz	t8,52c8 <_init-0x687fad38>
    52a4:	000d6f88 	0xd6f88
    52a8:	0dc40c00 	jal	7103000 <_init-0x616fd000>
    52ac:	07100000 	bltzal	t8,52b0 <_init-0x687fad50>
    52b0:	03260d96 	0x3260d96
    52b4:	92070000 	lbu	a3,0(s0)
    52b8:	00000069 	0x69
    52bc:	0d002302 	jal	4008c08 <_init-0x647f73f8>
    52c0:	0000090d 	break	0x0,0x24
    52c4:	02399507 	0x2399507
    52c8:	23020000 	addi	v0,t8,0
    52cc:	ee070004 	swc3	$7,4(s0)
    52d0:	0700000a 	bltz	t8,52fc <_init-0x687fad04>
    52d4:	000d9f96 	0xd9f96
    52d8:	0df40c00 	jal	7d03000 <_init-0x60afd000>
    52dc:	07180000 	0x7180000
    52e0:	03260da4 	0x3260da4
    52e4:	a0070000 	sb	a3,0(zero)
    52e8:	00000069 	0x69
    52ec:	0d002302 	jal	4008c08 <_init-0x647f73f8>
    52f0:	00000c30 	tge	zero,zero,0x30
    52f4:	01fba307 	0x1fba307
    52f8:	23020000 	addi	v0,t8,0
    52fc:	0f070004 	jal	c1c0010 <_init-0x5c63fff0>
    5300:	0700000c 	bltz	t8,5334 <_init-0x687faccc>
    5304:	000dcfa4 	0xdcfa4
    5308:	0eb00f00 	jal	ac03c00 <_init-0x5dbfc400>
    530c:	041a0000 	0x41a0000
    5310:	07f40000 	0x7f40000
    5314:	0e280dab 	jal	8a036ac <_init-0x5fdfc954>
    5318:	ad070000 	sw	a3,0(t0)
    531c:	00000069 	0x69
    5320:	0e002302 	jal	8008c08 <_init-0x607f73f8>
    5324:	00636468 	0x636468
    5328:	0069b007 	srav	s6,t1,v1
    532c:	23020000 	addi	v0,t8,0
    5330:	0b0c0d04 	j	c303410 <_init-0x5c4fcbf0>
    5334:	b3070000 	0xb3070000
    5338:	00000eb0 	tge	zero,zero,0x3a
    533c:	0d082302 	jal	4208c08 <_init-0x645f73f8>
    5340:	0000063a 	0x63a
    5344:	0c1ab607 	jal	6ad81c <_init-0x681527e4>
    5348:	23020000 	addi	v0,t8,0
    534c:	05880d0c 	tgei	t4,3340
    5350:	ba070000 	swr	a3,0(s0)
    5354:	00000dc4 	0xdc4
    5358:	0d102302 	jal	4408c08 <_init-0x643f73f8>
    535c:	000008ab 	0x8ab
    5360:	0df4bb07 	jal	7d2ec1c <_init-0x60ad13e4>
    5364:	23020000 	addi	v0,t8,0
    5368:	04bf0d20 	synci	3360(a1)
    536c:	bc070000 	cache	0x7,0(zero)
    5370:	00000d64 	0xd64
    5374:	0d382302 	jal	4e08c08 <_init-0x639f73f8>
    5378:	00000916 	0x916
    537c:	0d94bd07 	jal	652f41c <_init-0x622d0be4>
    5380:	23030000 	addi	v1,t8,0
    5384:	960d01e0 	lhu	t5,480(s0)
    5388:	0700000e 	bltz	t8,53c4 <_init-0x687fac3c>
    538c:	000c92bf 	0xc92bf
    5390:	e8230300 	swc2	$3,768(at)
    5394:	2d240d01 	sltiu	a0,t1,3329
    5398:	c2070000 	ll	a3,0(s0)
    539c:	00000ecd 	break	0x0,0x3b
    53a0:	01ec2303 	0x1ec2303
    53a4:	000d9313 	0xd9313
    53a8:	180d0100 	0x180d0100
    53ac:	07000008 	bltz	t8,53d0 <_init-0x687fac30>
    53b0:	000ed3c5 	0xed3c5
    53b4:	f0230300 	0xf0230300
    53b8:	04040001 	0x4040001
    53bc:	00000340 	sll	zero,zero,0xd
    53c0:	000ec714 	0xec714
    53c4:	c7150100 	lwc1	$f21,256(t8)
    53c8:	1500000e 	bnez	t0,5404 <_init-0x687fabfc>
    53cc:	00000069 	0x69
    53d0:	ff040400 	sdc3	$4,1024(t8)
    53d4:	0400000d 	bltz	zero,540c <_init-0x687fabf4>
    53d8:	000eb604 	0xeb604
    53dc:	9a040400 	lwr	a0,1024(s0)
    53e0:	0700000e 	bltz	t8,541c <_init-0x687fabe4>
    53e4:	00000423 	0x423
    53e8:	0dffc607 	jal	7ff181c <_init-0x6080e7e4>
    53ec:	04040000 	0x4040000
    53f0:	00000ed9 	0xed9
    53f4:	000f2f05 	0xf2f05
    53f8:	240a0400 	li	t2,1024
    53fc:	0006ab06 	0x6ab06
    5400:	9a060000 	lwr	a2,0(s0)
    5404:	0100000c 	syscall	0x40000
    5408:	00055106 	0x55106
    540c:	d8060200 	ldc2	$6,512(zero)
    5410:	03000008 	jr	t8
    5414:	00098306 	0x98306
    5418:	16060400 	bne	s0,a2,641c <_init-0x687f9be4>
    541c:	05000010 	bltz	t0,5460 <_init-0x687faba0>
    5420:	00092406 	0x92406
    5424:	ce060600 	pref	0x6,1536(s0)
    5428:	07000006 	bltz	t8,5444 <_init-0x687fabbc>
    542c:	000a6006 	srlv	t4,t2,zero
    5430:	3a060800 	xori	a2,s0,0x800
    5434:	09000011 	j	4000044 <_init-0x647fffbc>
    5438:	09bb0700 	j	6ec1c00 <_init-0x6193e400>
    543c:	310a0000 	andi	t2,t0,0x0
    5440:	00000eea 	0xeea
    5444:	000f4f05 	0xf4f05
    5448:	390a0400 	xori	t2,t0,0x400
    544c:	0002a506 	0x2a506
    5450:	f0060000 	0xf0060000
    5454:	01000004 	sllv	zero,zero,t0
    5458:	0e0e0700 	jal	8381c00 <_init-0x6047e400>
    545c:	3c0a0000 	lui	t2,0x0
    5460:	00000f3a 	0xf3a
    5464:	000fcf0f 	0xfcf0f
    5468:	00069200 	sll	s2,a2,0x8
    546c:	560a1c00 	bnel	s0,t2,c470 <_init-0x687f3b90>
    5470:	0008440d 	break	0x8,0x110
    5474:	2f580a00 	sltiu	t8,k0,2560
    5478:	0200000f 	0x200000f
    547c:	9d0d0023 	0x9d0d0023
    5480:	0a000010 	j	8000040 <_init-0x607fffc0>
    5484:	00002e5a 	0x2e5a
    5488:	04230200 	bgezl	at,5c8c <_init-0x687fa374>
    548c:	000cae0d 	break	0xc,0x2b8
    5490:	695d0a00 	0x695d0a00
    5494:	02000000 	0x2000000
    5498:	e90d0823 	swc2	$13,2083(t0)
    549c:	0a000008 	j	8000020 <_init-0x607fffe0>
    54a0:	0000695f 	0x695f
    54a4:	0c230200 	jal	8c0800 <_init-0x67f3f800>
    54a8:	002d240d 	break	0x2d,0x90
    54ac:	e6620a00 	swc1	$f2,2560(s3)
    54b0:	0200000f 	0x200000f
    54b4:	280d1023 	slti	t5,zero,4131
    54b8:	0a00000e 	j	8000038 <_init-0x607fffc8>
    54bc:	00006965 	0x6965
    54c0:	14230200 	bne	at,v1,5cc4 <_init-0x687fa33c>
    54c4:	00057713 	0x57713
    54c8:	590d0100 	0x590d0100
    54cc:	0a000002 	j	8000008 <_init-0x607ffff8>
    54d0:	000fec68 	0xfec68
    54d4:	18230200 	0x18230200
    54d8:	0fe01400 	jal	f805000 <_init-0x58ffb000>
    54dc:	15010000 	bne	t0,at,54e0 <_init-0x687fab20>
    54e0:	00000fe0 	0xfe0
    54e4:	000f4f15 	0xf4f15
    54e8:	04040000 	0x4040000
    54ec:	00000f5a 	0xf5a
    54f0:	0fcf0404 	jal	f3c1010 <_init-0x5943eff0>
    54f4:	04040000 	0x4040000
    54f8:	00000fba 	0xfba
    54fc:	00056207 	0x56207
    5500:	5a690a00 	0x5a690a00
    5504:	0400000f 	bltz	zero,5544 <_init-0x687faabc>
    5508:	000ff204 	0xff204
    550c:	104e0500 	beq	v0,t6,6910 <_init-0x687f96f0>
    5510:	0c040000 	jal	100000 <_init-0x68700000>
    5514:	04cc062f 	teqi	a2,1583
    5518:	06000000 	bltz	s0,551c <_init-0x687faae4>
    551c:	00000e7f 	0xe7f
    5520:	05090601 	tgeiu	t0,1537
    5524:	06020000 	bltzl	s0,5528 <_init-0x687faad8>
    5528:	00000b6e 	0xb6e
    552c:	01db0603 	0x1db0603
    5530:	06040000 	0x6040000
    5534:	000002c7 	0x2c7
    5538:	116e0605 	beq	t3,t6,6d50 <_init-0x687f92b0>
    553c:	06060000 	0x6060000
    5540:	00000865 	0x865
    5544:	075f0607 	synci	1543(k0)
    5548:	06080000 	tgei	s0,0
    554c:	00000f9b 	0xf9b
    5550:	0a820609 	j	a081824 <_init-0x5e77e7dc>
    5554:	000a0000 	sll	zero,t2,0x0
    5558:	00078007 	srav	s0,a3,zero
    555c:	033b0c00 	0x33b0c00
    5560:	0f000010 	jal	c000040 <_init-0x5c7fffc0>
    5564:	00001096 	0x1096
    5568:	00000aa9 	0xaa9
    556c:	0d420c0c 	jal	5083030 <_init-0x6377cfd0>
    5570:	00000e28 	0xe28
    5574:	0069440c 	syscall	0x1a510
    5578:	23020000 	addi	v0,t8,0
    557c:	2d240d00 	sltiu	a0,t1,3328
    5580:	470c0000 	c1	0x10c0000
    5584:	000010ad 	0x10ad
    5588:	13042302 	beq	t8,a0,e194 <_init-0x687f1e6c>
    558c:	00000a1b 	0xa1b
    5590:	0cbe0d01 	jal	2f83404 <_init-0x6587cbfc>
    5594:	4a0c0000 	c2	0xc0000
    5598:	000010b3 	tltu	zero,zero,0x42
    559c:	00082302 	srl	a0,t0,0xc
    55a0:	0010a714 	0x10a714
    55a4:	a7150100 	sh	s5,256(t8)
    55a8:	15000010 	bnez	t0,55ec <_init-0x687faa14>
    55ac:	0000104e 	0x104e
    55b0:	59040400 	0x59040400
    55b4:	04000010 	bltz	zero,55f8 <_init-0x687faa08>
    55b8:	00109604 	0x109604
    55bc:	81040400 	lb	a0,1024(t0)
    55c0:	07000010 	bltz	t8,5604 <_init-0x687fa9fc>
    55c4:	00000ab2 	tlt	zero,zero,0x2a
    55c8:	10594c0c 	beq	v0,t9,185fc <_init-0x687e7a04>
    55cc:	04040000 	0x4040000
    55d0:	000010b9 	0x10b9
    55d4:	0010df05 	0x10df05
    55d8:	11030400 	beq	t0,v1,65dc <_init-0x687f9a24>
    55dc:	0011ef06 	0x11ef06
    55e0:	0e060000 	jal	8180000 <_init-0x60680000>
    55e4:	01000007 	srav	zero,zero,t0
    55e8:	0ee80700 	jal	ba01c00 <_init-0x5cdfe400>
    55ec:	13030000 	beq	t8,v1,55f0 <_init-0x687faa10>
    55f0:	000010ca 	0x10ca
    55f4:	0011550c 	syscall	0x4554
    55f8:	25031c00 	addiu	v1,t0,7168
    55fc:	000df50d 	break	0xd,0x3d4
    5600:	70190300 	0x70190300
    5604:	02000005 	0x2000005
    5608:	ee0d0023 	swc3	$13,35(s0)
    560c:	0300000d 	break	0x300
    5610:	0005701a 	0x5701a
    5614:	04230200 	bgezl	at,5e18 <_init-0x687fa1e8>
    5618:	000fc20d 	break	0xf,0x308
    561c:	5e1c0300 	0x5e1c0300
    5620:	02000000 	0x2000000
    5624:	0e0d0823 	jal	834208c <_init-0x604bdf74>
    5628:	03000008 	jr	t8
    562c:	00005e1d 	0x5e1d
    5630:	0c230200 	jal	8c0800 <_init-0x67f3f800>
    5634:	000abb0d 	break	0xa,0x2ec
    5638:	69200300 	0x69200300
    563c:	02000000 	0x2000000
    5640:	1b0d1023 	0x1b0d1023
    5644:	03000006 	srlv	zero,zero,t8
    5648:	00006921 	0x6921
    564c:	14230200 	bne	at,v1,5e50 <_init-0x687fa1b0>
    5650:	000dcc0d 	break	0xd,0x330
    5654:	df240300 	ldc3	$4,768(t9)
    5658:	02000010 	0x2000010
    565c:	07001823 	bltz	t8,b6ec <_init-0x687f4914>
    5660:	0000049a 	0x49a
    5664:	10ea2503 	beq	a3,t2,ea74 <_init-0x687f158c>
    5668:	4d0c0000 	lwxc1	$f0,t4(t0)
    566c:	a0000013 	sb	zero,19(zero)
    5670:	7b0d6003 	0x7b0d6003
    5674:	0300000d 	break	0x300
    5678:	0011552a 	0x11552a
    567c:	00230200 	0x230200
    5680:	000ebf0d 	break	0xe,0x2fc
    5684:	692d0300 	0x692d0300
    5688:	02000000 	0x2000000
    568c:	b20d1c23 	0xb20d1c23
    5690:	03000005 	0x3000005
    5694:	00134d30 	tge	zero,s3,0x134
    5698:	20230200 	addi	v1,at,512
    569c:	0007d20d 	break	0x7,0x348
    56a0:	4d310300 	lwxc1	$f12,s1(t1)
    56a4:	02000013 	mtlo	s0
    56a8:	560d2423 	bnel	s0,t5,e738 <_init-0x687f18c8>
    56ac:	0300000a 	movz	zero,t8,zero
    56b0:	00135333 	tltu	zero,s3,0x14c
    56b4:	28230200 	slti	v1,at,512
    56b8:	000f6a0d 	break	0xf,0x1a8
    56bc:	53350300 	beql	t9,s5,62c0 <_init-0x687f9d40>
    56c0:	02000013 	mtlo	s0
    56c4:	270d2c23 	addiu	t5,t8,11299
    56c8:	03000012 	0x3000012
    56cc:	00135336 	tne	zero,s3,0x14c
    56d0:	30230200 	andi	v1,at,0x200
    56d4:	000f840d 	break	0xf,0x210
    56d8:	53370300 	beql	t9,s7,62dc <_init-0x687f9d24>
    56dc:	02000013 	mtlo	s0
    56e0:	c40d3423 	lwc1	$f13,13347(zero)
    56e4:	0300000d 	break	0x300
    56e8:	00135338 	0x135338
    56ec:	38230200 	xori	v1,at,0x200
    56f0:	000f610d 	break	0xf,0x184
    56f4:	53390300 	beql	t9,t9,62f8 <_init-0x687f9d08>
    56f8:	02000013 	mtlo	s0
    56fc:	4f0d3c23 	c3	0x10d3c23
    5700:	03000007 	srav	zero,zero,t8
    5704:	0013533b 	0x13533b
    5708:	40230200 	0x40230200
    570c:	0005280d 	break	0x5,0xa0
    5710:	533c0300 	beql	t9,gp,6314 <_init-0x687f9cec>
    5714:	02000013 	mtlo	s0
    5718:	1c0d4423 	0x1c0d4423
    571c:	0300000b 	movn	zero,t8,zero
    5720:	0013533d 	0x13533d
    5724:	48230200 	0x48230200
    5728:	0008bc0d 	break	0x8,0x2f0
    572c:	533f0300 	beql	t9,ra,6330 <_init-0x687f9cd0>
    5730:	02000013 	mtlo	s0
    5734:	5a0d4c23 	0x5a0d4c23
    5738:	0300000b 	movn	zero,t8,zero
    573c:	00135340 	sll	t2,s3,0xd
    5740:	50230200 	beql	at,v1,5f44 <_init-0x687fa0bc>
    5744:	00044c0d 	break	0x4,0x130
    5748:	53410300 	beql	k0,at,634c <_init-0x687f9cb4>
    574c:	02000013 	mtlo	s0
    5750:	940d5423 	lhu	t5,21539(zero)
    5754:	03000009 	jalr	zero,t8
    5758:	00135342 	srl	t2,s3,0xd
    575c:	58230200 	0x58230200
    5760:	0005d20d 	break	0x5,0x348
    5764:	53430300 	beql	k0,v1,6368 <_init-0x687f9c98>
    5768:	02000013 	mtlo	s0
    576c:	880d5c23 	lwl	t5,23587(zero)
    5770:	0300000d 	break	0x300
    5774:	00135344 	0x135344
    5778:	60230200 	0x60230200
    577c:	000bc00d 	break	0xb,0x300
    5780:	53480300 	beql	k0,t0,6384 <_init-0x687f9c7c>
    5784:	02000013 	mtlo	s0
    5788:	4b0d6423 	c2	0x10d6423
    578c:	0300000c 	syscall	0xc0000
    5790:	0013534a 	0x13534a
    5794:	68230200 	0x68230200
    5798:	002eea0d 	break	0x2e,0x3a8
    579c:	284c0300 	slti	t4,v0,768
    57a0:	0200000b 	movn	zero,s0,zero
    57a4:	300d6c23 	andi	t5,zero,0x6c23
    57a8:	03000005 	0x3000005
    57ac:	000ee44d 	break	0xe,0x391
    57b0:	70230200 	0x70230200
    57b4:	002e640d 	break	0x2e,0x190
    57b8:	674e0300 	0x674e0300
    57bc:	02000007 	srav	zero,zero,s0
    57c0:	640e7423 	0x640e7423
    57c4:	0300676c 	0x300676c
    57c8:	000ffd4f 	0xffd4f
    57cc:	78230200 	0x78230200
    57d0:	00170c0d 	break	0x17,0x30
    57d4:	96500300 	lhu	s0,768(s2)
    57d8:	02000008 	jr	s0
    57dc:	510d7c23 	beql	t0,t5,2486c <_init-0x687db794>
    57e0:	0300002c 	0x300002c
    57e4:	0010c451 	0x10c451
    57e8:	80230300 	lb	v1,768(at)
    57ec:	2e080d01 	sltiu	t0,s0,3329
    57f0:	52030000 	beql	s0,v1,57f4 <_init-0x687fa80c>
    57f4:	00000bed 	0xbed
    57f8:	01842303 	0x1842303
    57fc:	00108e0d 	break	0x10,0x238
    5800:	4d530300 	lwxc1	$f12,s3(t2)
    5804:	03000009 	jalr	zero,t8
    5808:	0d018823 	jal	406208c <_init-0x6479df74>
    580c:	0000028c 	syscall	0xa
    5810:	00695603 	0x695603
    5814:	23030000 	addi	v1,t8,0
    5818:	610d018c 	0x610d018c
    581c:	03000002 	0x3000002
    5820:	00006957 	0x6957
    5824:	90230300 	lbu	v1,768(at)
    5828:	026c0d01 	0x26c0d01
    582c:	58030000 	0x58030000
    5830:	00000069 	0x69
    5834:	01942303 	0x1942303
    5838:	0010b50d 	break	0x10,0x2d4
    583c:	695b0300 	0x695b0300
    5840:	03000000 	0x3000000
    5844:	0d019823 	jal	406608c <_init-0x64799f74>
    5848:	00001055 	0x1055
    584c:	00695e03 	0x695e03
    5850:	23030000 	addi	v1,t8,0
    5854:	0400019c 	bltz	zero,5ec8 <_init-0x687fa138>
    5858:	0004a204 	0x4a204
    585c:	30040400 	andi	a0,zero,0x400
    5860:	07000004 	bltz	t8,5874 <_init-0x687fa78c>
    5864:	000010f4 	teq	zero,zero,0x43
    5868:	11606003 	beqz	t3,1d878 <_init-0x687e2788>
    586c:	d2170000 	0xd2170000
    5870:	01000013 	mtlo	t0
    5874:	000017b2 	tlt	zero,zero,0x5e
    5878:	5e012501 	0x5e012501
    587c:	04000000 	bltz	zero,5880 <_init-0x687fa780>
    5880:	38688015 	xori	t0,v1,0x8015
    5884:	01688017 	0x1688017
    5888:	0333186d 	0x333186d
    588c:	24010000 	li	at,0
    5890:	000013d2 	0x13d2
    5894:	b5196201 	0xb5196201
    5898:	01000010 	0x1000010
    589c:	000b1126 	0xb1126
    58a0:	2b381a00 	slti	t8,t9,6656
    58a4:	27010000 	addiu	at,t8,0
    58a8:	0000064d 	break	0x0,0x19
    58ac:	1b109102 	0x1b109102
    58b0:	000013d8 	0x13d8
    58b4:	68801548 	0x68801548
    58b8:	6880154c 	0x6880154c
    58bc:	0013e91c 	0x13e91c
    58c0:	13f41d00 	beq	ra,s4,ccc4 <_init-0x687f333c>
    58c4:	60010000 	0x60010000
    58c8:	0000881e 	0x881e
    58cc:	13e91c00 	beq	ra,t1,c8d0 <_init-0x687f3730>
    58d0:	f41d0000 	sdc1	$f29,0(zero)
    58d4:	01000013 	mtlo	t0
    58d8:	00000060 	0x60
    58dc:	13590404 	beq	k0,t9,68f0 <_init-0x687f9710>
    58e0:	001f0000 	sll	zero,ra,0x0
    58e4:	98000014 	lwr	zero,20(zero)
    58e8:	01000017 	0x1000017
    58ec:	0b110150 	j	c440540 <_init-0x5c3bfac0>
    58f0:	19010000 	0x19010000
    58f4:	00000df5 	0xdf5
    58f8:	05705101 	bltzal	t3,19d00 <_init-0x687e6300>
    58fc:	6e200000 	0x6e200000
    5900:	01006d75 	0x1006d75
    5904:	00006952 	0x6952
    5908:	28210000 	slti	at,at,0
    590c:	7d000014 	0x7d000014
    5910:	01000019 	multu	t0,zero
    5914:	005e0140 	0x5e0140
    5918:	17380000 	bne	t9,t8,591c <_init-0x687fa6e4>
    591c:	17d06880 	bne	s8,s0,1fb20 <_init-0x687e04e0>
    5920:	6d016880 	0x6d016880
    5924:	00142822 	neg	a1,s4
    5928:	80176800 	lb	s7,26624(zero)
    592c:	80177468 	lb	s7,29800(zero)
    5930:	3a230068 	xori	v1,s1,0x68
    5934:	01000019 	multu	t0,zero
    5938:	005e0198 	0x5e0198
    593c:	21010000 	addi	at,t0,0
    5940:	0000146a 	0x146a
    5944:	0000196b 	0x196b
    5948:	6901be01 	0x6901be01
    594c:	d0000000 	0xd0000000
    5950:	40688017 	0x40688017
    5954:	01688018 	0x1688018
    5958:	170f186d 	bne	t8,t7,bb10 <_init-0x687f44f0>
    595c:	bd010000 	cache	0x1,0(t0)
    5960:	00000b28 	0xb28
    5964:	48185401 	0x48185401
    5968:	01000014 	0x1000014
    596c:	000a90bd 	0xa90bd
    5970:	00550100 	0x550100
    5974:	0014c321 	0x14c321
    5978:	0017cc00 	sll	t9,s7,0x10
    597c:	01d40100 	0x1d40100
    5980:	00000069 	0x69
    5984:	68801840 	0x68801840
    5988:	68801968 	0x68801968
    598c:	0f186d01 	jal	c61b404 <_init-0x5c1e4bfc>
    5990:	01000017 	0x1000017
    5994:	000b28d3 	0xb28d3
    5998:	18540100 	0x18540100
    599c:	00001448 	0x1448
    59a0:	0a90d301 	j	a434c04 <_init-0x5e3cb3fc>
    59a4:	55010000 	bnel	t0,at,59a8 <_init-0x687fa658>
    59a8:	0014c31b 	0x14c31b
    59ac:	80188000 	lb	t8,-32768(zero)
    59b0:	80192c68 	lb	t9,11368(zero)
    59b4:	14d51d68 	bne	a2,s5,cf58 <_init-0x687f30a8>
    59b8:	91020000 	lbu	v0,0(t0)
    59bc:	00b01e18 	0xb01e18
    59c0:	d51d0000 	ldc1	$f29,0(t0)
    59c4:	02000014 	0x2000014
    59c8:	00001891 	0x1891
    59cc:	14ec2400 	bne	a3,t4,e9d0 <_init-0x687f1630>
    59d0:	18910000 	0x18910000
    59d4:	45010000 	bc1t	59d8 <_init-0x687fa628>
    59d8:	005e0101 	0x5e0101
    59dc:	25010000 	addiu	at,t0,0
    59e0:	00001885 	0x1885
    59e4:	94014601 	lhu	at,17921(zero)
    59e8:	2600000d 	addiu	zero,s0,13
    59ec:	00001683 	sra	v0,zero,0x1a
    59f0:	000014fc 	0x14fc
    59f4:	fc0a0001 	sdc3	$10,1(zero)
    59f8:	a0000014 	sb	zero,20(zero)
    59fc:	0b000000 	j	c000000 <_init-0x5c800000>
    5a00:	00000035 	0x35
    5a04:	ec09001f 	swc3	$9,31(zero)
    5a08:	21000014 	addi	zero,t0,20
    5a0c:	0000155a 	0x155a
    5a10:	00001846 	rorv	v1,zero,zero
    5a14:	6901a801 	0x6901a801
    5a18:	68000000 	0x68000000
    5a1c:	90688019 	lbu	t0,-32743(v1)
    5a20:	0168801a 	0x168801a
    5a24:	170f186d 	bne	t8,t7,bbdc <_init-0x687f4424>
    5a28:	a7010000 	sh	at,0(t8)
    5a2c:	00000b28 	0xb28
    5a30:	48185401 	0x48185401
    5a34:	01000014 	0x1000014
    5a38:	000a90a7 	0xa90a7
    5a3c:	1b550100 	0x1b550100
    5a40:	0000155a 	0x155a
    5a44:	688019a8 	0x688019a8
    5a48:	68801a54 	0x68801a54
    5a4c:	00156b1d 	0x156b1d
    5a50:	18910200 	0x18910200
    5a54:	0000c81e 	0xc81e
    5a58:	156b1d00 	bne	t3,t3,ce5c <_init-0x687f31a4>
    5a5c:	91020000 	lbu	v0,0(t0)
    5a60:	00000018 	mult	zero,zero
    5a64:	0015811f 	0x15811f
    5a68:	00185700 	sll	t2,t8,0x1c
    5a6c:	01ee0100 	0x1ee0100
    5a70:	0000005e 	0x5e
    5a74:	18851901 	0x18851901
    5a78:	ef010000 	swc3	$1,0(t8)
    5a7c:	00000d94 	0xd94
    5a80:	00168326 	0x168326
    5a84:	00159100 	sll	s2,s5,0x4
    5a88:	0a000100 	j	8000400 <_init-0x607ffc00>
    5a8c:	00001591 	0x1591
    5a90:	000000a0 	0xa0
    5a94:	0000350b 	0x350b
    5a98:	09002200 	j	4008800 <_init-0x647f7800>
    5a9c:	00001581 	0x1581
    5aa0:	00181b27 	0x181b27
    5aa4:	01360100 	0x1360100
    5aa8:	00005e01 	0x5e01
    5aac:	801a9000 	lb	k0,-28672(zero)
    5ab0:	801ae868 	lb	k0,-6040(zero)
    5ab4:	286d0168 	slti	t5,v1,360
    5ab8:	000015f0 	tge	zero,zero,0x57
    5abc:	000017fc 	0x17fc
    5ac0:	01010b01 	0x1010b01
    5ac4:	68801ae8 	0x68801ae8
    5ac8:	68801bd8 	0x68801bd8
    5acc:	30296d01 	andi	t1,at,0x6d01
    5ad0:	01000005 	0x1000005
    5ad4:	0ee4010a 	jal	b900428 <_init-0x5ceffbd8>
    5ad8:	54010000 	bnel	zero,at,5adc <_init-0x687fa524>
    5adc:	00144829 	0x144829
    5ae0:	010a0100 	0x10a0100
    5ae4:	00000c52 	0xc52
    5ae8:	7a2a5501 	0x7a2a5501
    5aec:	01000018 	mult	t0,zero
    5af0:	0c72010c 	jal	1c80430 <_init-0x66b7fbd0>
    5af4:	91020000 	lbu	v0,0(t0)
    5af8:	33280010 	andi	t0,t9,0x10
    5afc:	0e000016 	jal	8000058 <_init-0x607fffa8>
    5b00:	01000019 	multu	t0,zero
    5b04:	d8010162 	ldc2	$1,354(zero)
    5b08:	c068801b 	ll	t0,-32741(v1)
    5b0c:	0168801c 	0x168801c
    5b10:	0530296d 	bltzal	t1,100c8 <_init-0x687eff38>
    5b14:	61010000 	0x61010000
    5b18:	000ee401 	0xee401
    5b1c:	29540100 	slti	s4,t2,256
    5b20:	00001448 	0x1448
    5b24:	52016101 	beql	s0,at,1df2c <_init-0x687e20d4>
    5b28:	0100000c 	syscall	0x40000
    5b2c:	187a2a55 	0x187a2a55
    5b30:	63010000 	0x63010000
    5b34:	000c7201 	0xc7201
    5b38:	10910200 	beq	a0,s1,633c <_init-0x687f9cc4>
    5b3c:	00302b00 	0x302b00
    5b40:	a9110000 	swl	s1,0(t0)
    5b44:	000000bb 	0xbb
    5b48:	64030501 	0x64030501
    5b4c:	2b688073 	slti	t0,k1,-32653
    5b50:	00000074 	teq	zero,zero,0x1
    5b54:	00e2b511 	0xe2b511
    5b58:	05010000 	bgez	t0,5b5c <_init-0x687fa4a4>
    5b5c:	80736803 	lb	s3,26627(v1)
    5b60:	0a022c68 	j	808b1a0 <_init-0x60774e60>
    5b64:	08010000 	j	40000 <_init-0x687c0000>
    5b68:	000013d2 	0x13d2
    5b6c:	c32c0101 	ll	t4,257(t9)
    5b70:	01000013 	mtlo	t0
    5b74:	00013a09 	0x13a09
    5b78:	2c010100 	sltiu	at,zero,256
    5b7c:	000005c7 	0x5c7
    5b80:	06730a01 	bgezall	s3,8388 <_init-0x687f7c78>
    5b84:	01010000 	0x1010000
    5b88:	0019ae2b 	0x19ae2b
    5b8c:	111c0100 	beq	t0,gp,5f90 <_init-0x687fa070>
    5b90:	0100000b 	movn	zero,t0,zero
    5b94:	73440305 	0x73440305
    5b98:	a00a6880 	sb	t2,26752(zero)
    5b9c:	53000016 	beqzl	t8,5bf8 <_init-0x687fa408>
    5ba0:	0b000009 	j	c000024 <_init-0x5c7fffdc>
    5ba4:	00000035 	0x35
    5ba8:	b12b0002 	0xb12b0002
    5bac:	01000018 	mult	t0,zero
    5bb0:	0016901f 	0x16901f
    5bb4:	03050100 	0x3050100
    5bb8:	68808184 	0x68808184
    5bbc:	00046f00 	sll	t5,a0,0x1c
    5bc0:	bd000200 	cache	0x0,512(t0)
    5bc4:	04000009 	bltz	zero,5bec <_init-0x687fa414>
    5bc8:	000d7001 	movt	t6,zero,$fcc3
    5bcc:	8022a800 	lb	v0,-22528(at)
    5bd0:	801cc068 	lb	gp,-16280(zero)
    5bd4:	00008968 	0x8968
    5bd8:	19f20100 	0x19f20100
    5bdc:	00dc0000 	0xdc0000
    5be0:	00020000 	sll	zero,v0,0x0
    5be4:	01000000 	0x1000000
    5be8:	02040308 	0x2040308
    5bec:	000000bb 	0xbb
    5bf0:	8c020702 	lw	v0,1794(zero)
    5bf4:	04000001 	bltz	zero,5bfc <_init-0x687fa404>
    5bf8:	01910207 	0x1910207
    5bfc:	07040000 	0x7040000
    5c00:	00005804 	sllv	t3,zero,zero
    5c04:	26020400 	addiu	v0,s0,1024
    5c08:	0003c205 	0x3c205
    5c0c:	d6050000 	ldc1	$f5,0(s0)
    5c10:	0100000d 	break	0x100
    5c14:	04860600 	0x4860600
    5c18:	29020000 	slti	v0,t0,0
    5c1c:	00000043 	sra	zero,zero,0x1
    5c20:	746e6907 	jalx	1b9a41c <_init-0x66c65be4>
    5c24:	02050400 	0x2050400
    5c28:	000001b5 	0x1b5
    5c2c:	8c020508 	lw	v0,1288(zero)
    5c30:	04000001 	bltz	zero,5c38 <_init-0x687fa3c8>
    5c34:	01ba0207 	0x1ba0207
    5c38:	05040000 	0x5040000
    5c3c:	00000902 	srl	at,zero,0x4
    5c40:	02060100 	0x2060100
    5c44:	00000149 	0x149
    5c48:	87020502 	lh	v0,1282(t8)
    5c4c:	08000001 	j	4 <_init-0x687ffffc>
    5c50:	00bc0807 	srav	at,gp,a1
    5c54:	05080000 	tgei	t0,0
    5c58:	6d09012c 	0x6d09012c
    5c5c:	05006e69 	bltz	t0,21604 <_init-0x687de9fc>
    5c60:	003c0129 	0x3c0129
    5c64:	23020000 	addi	v0,t8,0
    5c68:	616d0900 	0x616d0900
    5c6c:	2b050078 	slti	a1,t8,120
    5c70:	00003c01 	0x3c01
    5c74:	04230200 	bgezl	at,6478 <_init-0x687f9b88>
    5c78:	19dd0a00 	0x19dd0a00
    5c7c:	2c050000 	sltiu	a1,zero,0
    5c80:	00009401 	0x9401
    5c84:	007f0b00 	0x7f0b00
    5c88:	040c0000 	teqi	zero,0
    5c8c:	0000007f 	0x7f
    5c90:	0000fa04 	0xfa04
    5c94:	a3030400 	sb	v1,1024(t8)
    5c98:	00015305 	0x15305
    5c9c:	31050000 	andi	a1,t0,0x0
    5ca0:	01000001 	movf	zero,t0,$fcc0
    5ca4:	00005b05 	0x5b05
    5ca8:	1a050200 	0x1a050200
    5cac:	03000000 	0x3000000
    5cb0:	00004505 	0x4505
    5cb4:	04000000 	bltz	zero,5cb8 <_init-0x687fa348>
    5cb8:	0000010f 	0x10f
    5cbc:	05b00304 	bltzal	t5,68d0 <_init-0x687f9730>
    5cc0:	000001c3 	sra	zero,zero,0x7
    5cc4:	019e0500 	0x19e0500
    5cc8:	00010000 	sll	zero,at,0x0
    5ccc:	0063040c 	syscall	0x18c10
    5cd0:	260d0000 	addiu	t5,s0,0
    5cd4:	7f000001 	0x7f000001
    5cd8:	0e000000 	jal	8000000 <_init-0x60800000>
    5cdc:	00000035 	0x35
    5ce0:	0c0003ff 	jal	ffc <_init-0x687ff004>
    5ce4:	0000cd04 	0xcd04
    5ce8:	01630f00 	0x1630f00
    5cec:	1a5d0000 	0x1a5d0000
    5cf0:	040c0000 	teqi	zero,0
    5cf4:	1a58103f 	0x1a58103f
    5cf8:	40040000 	mfc0	a0,c0_index
    5cfc:	00000063 	0x63
    5d00:	11002302 	beqz	t0,e90c <_init-0x687f16f4>
    5d04:	006d7573 	tltu	v1,t5,0x1d5
    5d08:	003c4204 	0x3c4204
    5d0c:	23020000 	addi	v0,t8,0
    5d10:	19c81004 	0x19c81004
    5d14:	44040000 	mfc1	a0,$f0
    5d18:	0000010f 	0x10f
    5d1c:	00082302 	srl	a0,t0,0xc
    5d20:	001a6506 	0x1a6506
    5d24:	2c460400 	sltiu	a2,v0,1024
    5d28:	0c000001 	jal	4 <_init-0x687ffffc>
    5d2c:	00016304 	0x16304
    5d30:	01d50f00 	0x1d50f00
    5d34:	1a6d0000 	0x1a6d0000
    5d38:	01180000 	0x1180000
    5d3c:	1a2d101e 	0x1a2d101e
    5d40:	20010000 	addi	at,zero,0
    5d44:	0000002c 	0x2c
    5d48:	10002302 	b	e954 <_init-0x687f16ac>
    5d4c:	00001ac6 	0x1ac6
    5d50:	002c2101 	0x2c2101
    5d54:	23020000 	addi	v0,t8,0
    5d58:	1aa41004 	0x1aa41004
    5d5c:	22010000 	addi	at,s0,0
    5d60:	0000002c 	0x2c
    5d64:	10082302 	beq	zero,t0,e970 <_init-0x687f1690>
    5d68:	000019d5 	0x19d5
    5d6c:	002c2301 	0x2c2301
    5d70:	23020000 	addi	v0,t8,0
    5d74:	19ea100c 	0x19ea100c
    5d78:	24010000 	li	at,0
    5d7c:	0000002c 	0x2c
    5d80:	10102302 	beq	zero,s0,e98c <_init-0x687f1674>
    5d84:	000019bd 	0x19bd
    5d88:	002c2501 	0x2c2501
    5d8c:	23020000 	addi	v0,t8,0
    5d90:	cf060014 	pref	0x6,20(t8)
    5d94:	01000019 	multu	t0,zero
    5d98:	00017426 	0x17426
    5d9c:	02081200 	0x2081200
    5da0:	1a860000 	0x1a860000
    5da4:	7b010000 	0x7b010000
    5da8:	00005801 	movf	t3,zero,$fcc0
    5dac:	801cc000 	lb	gp,-16384(zero)
    5db0:	801db068 	lb	sp,-20376(zero)
    5db4:	136d0168 	beq	k1,t5,6358 <_init-0x687f9ca8>
    5db8:	00000cbe 	0xcbe
    5dbc:	02087a01 	0x2087a01
    5dc0:	60010000 	0x60010000
    5dc4:	d5040c00 	ldc1	$f4,3072(t0)
    5dc8:	14000001 	bnez	zero,5dd0 <_init-0x687fa230>
    5dcc:	00000302 	srl	zero,zero,0xc
    5dd0:	00224b01 	0x224b01
    5dd4:	01b70100 	0x1b70100
    5dd8:	00000063 	0x63
    5ddc:	68801db0 	0x68801db0
    5de0:	688022a8 	0x688022a8
    5de4:	73136d01 	0x73136d01
    5de8:	0100001a 	div	zero,t0,zero
    5dec:	000063b6 	tne	zero,zero,0x18e
    5df0:	13620100 	beq	k1,v0,61f4 <_init-0x687f9e0c>
    5df4:	00003312 	0x3312
    5df8:	0126b601 	0x126b601
    5dfc:	61010000 	0x61010000
    5e00:	001a1615 	0x1a1615
    5e04:	d5b80100 	ldc1	$f24,256(t5)
    5e08:	02000001 	movf	zero,s0,$fcc0
    5e0c:	72161891 	udi1	s0,s6,v1,0x2
    5e10:	01007465 	0x1007465
    5e14:	000063b9 	0x63b9
    5e18:	1a471700 	0x1a471700
    5e1c:	03010000 	0x3010000
    5e20:	80205801 	lb	zero,22529(at)
    5e24:	16831868 	bne	s4,v1,bfc8 <_init-0x687f4038>
    5e28:	03120000 	0x3120000
    5e2c:	05010000 	bgez	t0,5e30 <_init-0x687fa1d0>
    5e30:	80610803 	lb	at,2051(v1)
    5e34:	029e1968 	0x29e1968
    5e38:	03170000 	0x3170000
    5e3c:	1dec0000 	0x1dec0000
    5e40:	1ef46880 	0x1ef46880
    5e44:	281a6880 	slti	k0,zero,26752
    5e48:	1b000003 	blez	t8,5e58 <_init-0x687fa1a8>
    5e4c:	000000e0 	0xe0
    5e50:	00033d1c 	0x33d1c
    5e54:	801eec00 	lb	s8,-5120(zero)
    5e58:	19000068 	blez	t0,5ffc <_init-0x687fa004>
    5e5c:	000002b5 	0x2b5
    5e60:	0000035a 	0x35a
    5e64:	68801fb0 	0x68801fb0
    5e68:	68801fb8 	0x68801fb8
    5e6c:	00036b1a 	0x36b1a
    5e70:	e1190000 	sc	t9,0(t0)
    5e74:	77000002 	jalx	c000008 <_init-0x5c7ffff8>
    5e78:	b8000003 	swr	zero,3(zero)
    5e7c:	1468801f 	bne	v1,t0,fffe5efc <emuqueue+0x977ddc58>
    5e80:	1d688020 	0x1d688020
    5e84:	00000384 	0x384
    5e88:	1e309102 	0x1e309102
    5e8c:	68801fb8 	0x68801fb8
    5e90:	68802014 	0x68802014
    5e94:	0003841d 	0x3841d
    5e98:	30910200 	andi	s1,a0,0x200
    5e9c:	901f0000 	lbu	ra,0(zero)
    5ea0:	40000003 	mfc0	zero,c0_mvpconf1
    5ea4:	50688020 	beql	v1,t0,fffe5f28 <emuqueue+0x977ddc84>
    5ea8:	20688020 	addi	t0,v1,-32736
    5eac:	00000399 	0x399
    5eb0:	68802050 	0x68802050
    5eb4:	68802058 	0x68802058
    5eb8:	0003aa1a 	0x3aa1a
    5ebc:	0d000000 	jal	4000000 <_init-0x64800000>
    5ec0:	00000312 	0x312
    5ec4:	000000c8 	0xc8
    5ec8:	00003521 	0x3521
    5ecc:	0b000400 	j	c001000 <_init-0x5c7ff000>
    5ed0:	00000302 	srl	zero,zero,0xc
    5ed4:	00034522 	0x34522
    5ed8:	001a0c00 	sll	at,k0,0x10
    5edc:	01480100 	0x1480100
    5ee0:	00000058 	0x58
    5ee4:	0cbe2301 	jal	2f88c04 <_init-0x658773fc>
    5ee8:	47010000 	c1	0x1010000
    5eec:	00000208 	0x208
    5ef0:	00168324 	0x168324
    5ef4:	00035500 	sll	t2,v1,0x14
    5ef8:	78250100 	0x78250100
    5efc:	0100001a 	div	zero,t0,zero
    5f00:	550d0075 	bnel	t0,t5,60d8 <_init-0x687f9f28>
    5f04:	c8000003 	lwc2	$0,3(zero)
    5f08:	21000000 	addi	zero,t0,0
    5f0c:	00000035 	0x35
    5f10:	450b0009 	bc1tl	$fcc2,5f38 <_init-0x687fa0c8>
    5f14:	22000003 	addi	zero,s0,3
    5f18:	00000377 	0x377
    5f1c:	00001a9b 	0x1a9b
    5f20:	5801a401 	0x5801a401
    5f24:	01000000 	0x1000000
    5f28:	000cbe23 	0xcbe23
    5f2c:	08a30100 	j	28c0400 <_init-0x65f3fc00>
    5f30:	00000002 	srl	zero,zero,0x0
    5f34:	00039026 	xor	s2,zero,v1
    5f38:	001aba00 	sll	s7,k0,0x8
    5f3c:	01350100 	0x1350100
    5f40:	1a582701 	0x1a582701
    5f44:	36010000 	ori	at,s0,0x0
    5f48:	00000115 	0x115
    5f4c:	1a1f2800 	0x1a1f2800
    5f50:	42010000 	c0	0x10000
    5f54:	b6220101 	0xb6220101
    5f58:	af000003 	sw	zero,3(t8)
    5f5c:	0100001a 	div	zero,t0,zero
    5f60:	005801ac 	0x5801ac
    5f64:	23010000 	addi	at,t8,0
    5f68:	00000cbe 	0xcbe
    5f6c:	0208ab01 	0x208ab01
    5f70:	29000000 	slti	zero,t0,0
    5f74:	00000030 	tge	zero,zero
    5f78:	00d3a903 	0xd3a903
    5f7c:	05010000 	bgez	t0,5f80 <_init-0x687fa080>
    5f80:	80736403 	lb	s3,25603(v1)
    5f84:	00742968 	0x742968
    5f88:	b5030000 	0xb5030000
    5f8c:	000000fa 	0xfa
    5f90:	68030501 	0x68030501
    5f94:	0d688073 	jal	5a201cc <_init-0x62ddfe34>
    5f98:	000003e5 	0x3e5
    5f9c:	0000007f 	0x7f
    5fa0:	372b002a 	ori	t3,t9,0x2a
    5fa4:	01000007 	srav	zero,zero,t0
    5fa8:	0003da16 	0x3da16
    5fac:	29010100 	slti	at,t0,256
    5fb0:	00001a92 	0x1a92
    5fb4:	00631901 	0x631901
    5fb8:	05010000 	bgez	t0,5fbc <_init-0x687fa044>
    5fbc:	80734c03 	lb	s3,19459(v1)
    5fc0:	04140d68 	0x4140d68
    5fc4:	007f0000 	0x7f0000
    5fc8:	35210000 	ori	at,t1,0x0
    5fcc:	7f000000 	ext	zero,t8,0x0,0x1
    5fd0:	0c6a2900 	jal	1a8a400 <_init-0x66d75c00>
    5fd4:	1a010000 	0x1a010000
    5fd8:	00000404 	0x404
    5fdc:	f0030501 	0xf0030501
    5fe0:	29688081 	slti	t0,t3,-32639
    5fe4:	0000162f 	0x162f
    5fe8:	00631b01 	0x631b01
    5fec:	05010000 	bgez	t0,5ff0 <_init-0x687fa010>
    5ff0:	80734803 	lb	s3,18435(v1)
    5ff4:	1a022968 	0x1a022968
    5ff8:	28010000 	slti	at,zero,0
    5ffc:	0000016e 	0x16e
    6000:	74030501 	jalx	c1404 <_init-0x6873ebfc>
    6004:	29688082 	slti	t0,t3,-32638
    6008:	00001a38 	0x1a38
    600c:	016e2901 	0x16e2901
    6010:	05010000 	bgez	t0,6014 <_init-0x687f9fec>
    6014:	80827003 	lb	v0,28675(a0)
    6018:	206f1568 	addi	t7,v1,5480
    601c:	b3010000 	0xb3010000
    6020:	0000046d 	0x46d
    6024:	61000305 	0x61000305
    6028:	bc0b6880 	cache	0xb,26752(zero)
    602c:	00000000 	nop
    6030:	00001efb 	0x1efb
    6034:	0bdd0002 	j	f740008 <_init-0x590bfff8>
    6038:	01040000 	0x1040000
    603c:	00000f1e 	0xf1e
    6040:	68803348 	0x68803348
    6044:	688022a8 	0x688022a8
    6048:	00000089 	0x89
    604c:	00270c01 	0x270c01
    6050:	0000dc00 	sll	k1,zero,0x10
    6054:	26060200 	addiu	a2,s0,512
    6058:	11030000 	beq	t0,v1,605c <_init-0x687f9fa4>
    605c:	00000030 	tge	zero,zero
    6060:	00019103 	sra	s2,at,0x4
    6064:	04070400 	0x4070400
    6068:	00746e69 	0x746e69
    606c:	04050504 	0x4050504
    6070:	00000044 	0x44
    6074:	00000903 	sra	at,zero,0x4
    6078:	06060100 	0x6060100
    607c:	0000007e 	0x7e
    6080:	0743030c 	bgezl	k0,6cb4 <_init-0x687f934c>
    6084:	00003007 	srav	a2,zero,zero
    6088:	00253e03 	0x253e03
    608c:	23020000 	addi	v0,t8,0
    6090:	284b0700 	slti	t3,v0,1792
    6094:	3f030000 	0x3f030000
    6098:	00000025 	move	zero,zero
    609c:	07042302 	0x7042302
    60a0:	00001d1c 	0x1d1c
    60a4:	00254003 	0x254003
    60a8:	23020000 	addi	v0,t8,0
    60ac:	5f020008 	0x5f020008
    60b0:	03000025 	move	zero,t8
    60b4:	00004b43 	sra	t1,zero,0xd
    60b8:	009a0800 	0x9a0800
    60bc:	00440000 	0x440000
    60c0:	9a090000 	lwr	t1,0(s0)
    60c4:	ff000000 	sdc3	$0,0(t8)
    60c8:	8c030003 	lw	v1,3(zero)
    60cc:	04000001 	bltz	zero,60d4 <_init-0x687f9f2c>
    60d0:	00d40607 	0xd40607
    60d4:	03280000 	0x3280000
    60d8:	149e0753 	bne	a0,s8,7e28 <_init-0x687f81d8>
    60dc:	50030000 	beql	zero,v1,60e0 <_init-0x687f9f20>
    60e0:	000000d4 	0xd4
    60e4:	07002302 	bltz	t8,ecf0 <_init-0x687f1310>
    60e8:	00001309 	0x1309
    60ec:	00375103 	0x375103
    60f0:	23020000 	addi	v0,t8,0
    60f4:	13ad0720 	beq	sp,t5,7d78 <_init-0x687f8288>
    60f8:	52030000 	beql	s0,v1,60fc <_init-0x687f9f04>
    60fc:	00000037 	0x37
    6100:	00242302 	ror	a0,a0,0xc
    6104:	0000e408 	0xe408
    6108:	00003700 	sll	a2,zero,0x1c
    610c:	009a0a00 	0x9a0a00
    6110:	00070000 	sll	zero,a3,0x0
    6114:	00141502 	srl	v0,s4,0x14
    6118:	a1530300 	sb	s3,768(t2)
    611c:	0b000000 	j	c000000 <_init-0x5c800000>
    6120:	0000010a 	0x10a
    6124:	0c6d0304 	jal	1b40c10 <_init-0x66cbf3f0>
    6128:	00000357 	0x357
    612c:	0d010c00 	jal	4043000 <_init-0x647bd000>
    6130:	0c010000 	jal	40000 <_init-0x687c0000>
    6134:	0000082e 	0x82e
    6138:	1a020002 	0x1a020002
    613c:	03000003 	0x3000003
    6140:	0000ef72 	tlt	zero,zero,0x3bd
    6144:	01350d00 	0x1350d00
    6148:	04000000 	bltz	zero,614c <_init-0x687f9eb4>
    614c:	930e7b03 	lbu	t6,31491(t8)
    6150:	03000025 	move	zero,t8
    6154:	00013579 	0x13579
    6158:	0cbe0e00 	jal	2f83800 <_init-0x6587c800>
    615c:	7a030000 	0x7a030000
    6160:	0000014d 	break	0x0,0x5
    6164:	01460800 	0x1460800
    6168:	01460000 	0x1460000
    616c:	9a090000 	lwr	t1,0(s0)
    6170:	ff000000 	sdc3	$0,0(t8)
    6174:	00030003 	sra	zero,v1,0x0
    6178:	01000000 	0x1000000
    617c:	015d0808 	0x15d0808
    6180:	015d0000 	0x15d0000
    6184:	9a0a0000 	lwr	t2,0(s0)
    6188:	01000000 	0x1000000
    618c:	00bb0300 	0xbb0300
    6190:	07020000 	bltzl	t8,6194 <_init-0x687f9e6c>
    6194:	0001980f 	0x1980f
    6198:	03040800 	0x3040800
    619c:	1fcd077c 	0x1fcd077c
    61a0:	75030000 	jalx	40c0000 <_init-0x64740000>
    61a4:	00000030 	tge	zero,zero
    61a8:	07002302 	bltz	t8,edb4 <_init-0x687f124c>
    61ac:	00001fc9 	0x1fc9
    61b0:	00307603 	0x307603
    61b4:	23020000 	addi	v0,t8,0
    61b8:	736d1004 	msub	$ac2,k1,t5
    61bc:	7b030067 	0x7b030067
    61c0:	00000115 	0x115
    61c4:	00082302 	srl	a0,t0,0xc
    61c8:	00233202 	ror	a2,v1,0x8
    61cc:	647c0300 	0x647c0300
    61d0:	11000001 	beqz	t0,61d8 <_init-0x687f9e28>
    61d4:	30040504 	andi	a0,zero,0x504
    61d8:	0b000000 	j	c000000 <_init-0x5c800000>
    61dc:	000001c0 	sll	zero,zero,0x7
    61e0:	0c260204 	jal	980810 <_init-0x67e7f7f0>
    61e4:	000003c2 	srl	zero,zero,0xf
    61e8:	0dd60c00 	jal	7583000 <_init-0x6127d000>
    61ec:	00010000 	sll	zero,at,0x0
    61f0:	00048602 	srl	s0,a0,0x18
    61f4:	ab290200 	swl	t1,512(t9)
    61f8:	03000001 	movf	zero,t8,$fcc0
    61fc:	000001b5 	0x1b5
    6200:	8c030508 	lw	v1,1288(zero)
    6204:	04000001 	bltz	zero,620c <_init-0x687f9df4>
    6208:	28cd0207 	slti	t5,a2,519
    620c:	3b020000 	xori	v0,t8,0x0
    6210:	00000037 	0x37
    6214:	0001ba03 	sra	s7,at,0x8
    6218:	03050400 	0x3050400
    621c:	00000149 	0x149
    6220:	87030502 	lh	v1,1282(t8)
    6224:	08000001 	j	4 <_init-0x687ffffc>
    6228:	02211207 	0x2211207
    622c:	14080000 	bne	zero,t0,6230 <_init-0x687f9dd0>
    6230:	6d13012c 	0x6d13012c
    6234:	14006e69 	bnez	zero,21bdc <_init-0x687de424>
    6238:	00300129 	0x300129
    623c:	23020000 	addi	v0,t8,0
    6240:	616d1300 	0x616d1300
    6244:	2b140078 	slti	s4,t8,120
    6248:	00003001 	movf	a2,zero,$fcc0
    624c:	04230200 	bgezl	at,6a50 <_init-0x687f95b0>
    6250:	19dd1400 	0x19dd1400
    6254:	2c140000 	sltiu	s4,zero,0
    6258:	0001f901 	0x1f901
    625c:	33040500 	andi	a0,t8,0x500
    6260:	15000002 	bnez	t0,626c <_init-0x687f9d94>
    6264:	00000044 	0x44
    6268:	00024808 	0x24808
    626c:	00014600 	sll	t0,at,0x18
    6270:	009a0a00 	0x9a0a00
    6274:	000f0000 	sll	zero,t7,0x0
    6278:	0006e602 	srl	gp,a2,0x18
    627c:	30150500 	andi	s5,zero,0x500
    6280:	16000000 	bnez	s0,6284 <_init-0x687f9d7c>
    6284:	0000027c 	0x27c
    6288:	00001e26 	0x1e26
    628c:	07360508 	0x7360508
    6290:	000027d6 	0x27d6
    6294:	02483805 	0x2483805
    6298:	23020000 	addi	v0,t8,0
    629c:	1cfc0700 	0x1cfc0700
    62a0:	3a050000 	xori	a1,s0,0x0
    62a4:	000001e4 	0x1e4
    62a8:	00042302 	srl	a0,a0,0xc
    62ac:	0002a30b 	0x2a30b
    62b0:	a3090400 	sb	t1,1024(t8)
    62b4:	0001530c 	syscall	0x54c
    62b8:	310c0000 	andi	t4,t0,0x0
    62bc:	01000001 	movf	zero,t0,$fcc0
    62c0:	00005b0c 	syscall	0x16c
    62c4:	1a0c0200 	0x1a0c0200
    62c8:	03000000 	0x3000000
    62cc:	0000450c 	syscall	0x114
    62d0:	0b000000 	j	c000000 <_init-0x5c800000>
    62d4:	000002b8 	0x2b8
    62d8:	0cb00904 	jal	2c02410 <_init-0x65bfdbf0>
    62dc:	000001c3 	sra	zero,zero,0x7
    62e0:	019e0c00 	0x19e0c00
    62e4:	00010000 	sll	zero,at,0x0
    62e8:	0002dc0b 	0x2dc0b
    62ec:	2d060400 	sltiu	a2,t0,1024
    62f0:	00212b0c 	syscall	0x84ac
    62f4:	360c0000 	ori	t4,s0,0x0
    62f8:	da00002a 	ldc2	$0,42(s0)
    62fc:	1f330c00 	0x1f330c00
    6300:	01b40000 	0x1b40000
    6304:	001c6c0c 	syscall	0x71b0
    6308:	00028e00 	sll	s1,v0,0x18
    630c:	001d0402 	srl	zero,sp,0x10
    6310:	b8360600 	swr	s6,1536(at)
    6314:	06000002 	bltz	s0,6320 <_init-0x687f9ce0>
    6318:	00000328 	0x328
    631c:	0779130c 	0x779130c
    6320:	00000306 	0x306
    6324:	015d7213 	0x15d7213
    6328:	23020000 	addi	v0,t8,0
    632c:	07b30700 	bgezall	sp,7f30 <_init-0x687f80d0>
    6330:	74130000 	jalx	4c0000 <_init-0x68340000>
    6334:	0000015d 	0x15d
    6338:	07022302 	bltzl	t8,ef44 <_init-0x687f10bc>
    633c:	000002f8 	0x2f8
    6340:	015d7613 	0x15d7613
    6344:	23020000 	addi	v0,t8,0
    6348:	0e220704 	jal	8881c10 <_init-0x5ff7e3f0>
    634c:	78130000 	0x78130000
    6350:	00000328 	0x328
    6354:	00082302 	srl	a0,t0,0xc
    6358:	032e0405 	0x32e0405
    635c:	46150000 	add.s	$f0,$f0,$f21
    6360:	02000001 	movf	zero,s0,$fcc0
    6364:	00000949 	0x949
    6368:	02e77913 	0x2e77913
    636c:	4e080000 	lwxc1	$f0,t0(s0)
    6370:	44000003 	0x44000003
    6374:	0a000000 	j	8000000 <_init-0x60800000>
    6378:	0000009a 	0x9a
    637c:	5e080007 	0x5e080007
    6380:	44000003 	0x44000003
    6384:	0a000000 	j	8000000 <_init-0x60800000>
    6388:	0000009a 	0x9a
    638c:	ad060013 	sw	a2,19(t0)
    6390:	14000003 	bnez	zero,63a0 <_init-0x687f9c60>
    6394:	e807420e 	swc2	$7,16910(zero)
    6398:	0e000002 	jal	8000008 <_init-0x607ffff8>
    639c:	00003739 	0x3739
    63a0:	00230200 	0x230200
    63a4:	00075907 	0x75907
    63a8:	373b0e00 	ori	k1,t9,0xe00
    63ac:	02000000 	0x2000000
    63b0:	64100423 	0x64100423
    63b4:	0e007961 	jal	801e584 <_init-0x607e1a7c>
    63b8:	0000373d 	0x373d
    63bc:	08230200 	j	8c0800 <_init-0x67f3f800>
    63c0:	00065307 	0x65307
    63c4:	373f0e00 	ori	ra,t9,0xe00
    63c8:	02000000 	0x2000000
    63cc:	cd070c23 	pref	0x7,3107(t0)
    63d0:	0e00001f 	jal	800007c <_init-0x607fff84>
    63d4:	00004441 	0x4441
    63d8:	10230200 	beq	at,v1,6bdc <_init-0x687f9424>
    63dc:	0d120200 	jal	4480800 <_init-0x6437f800>
    63e0:	420e0000 	c0	0xe0000
    63e4:	0000035e 	0x35e
    63e8:	0003eb06 	0x3eb06
    63ec:	500e0c00 	beql	zero,t6,93f0 <_init-0x687f6c10>
    63f0:	00096807 	srav	t5,t1,zero
    63f4:	374b0e00 	ori	t3,k0,0xe00
    63f8:	02000000 	0x2000000
    63fc:	25070023 	addiu	a3,t0,35
    6400:	0e00000b 	jal	800002c <_init-0x607fffd4>
    6404:	0000374d 	break	0x0,0xdd
    6408:	04230200 	bgezl	at,6c0c <_init-0x687f93f4>
    640c:	000b6707 	0xb6707
    6410:	374f0e00 	ori	t7,k0,0xe00
    6414:	02000000 	0x2000000
    6418:	02000823 	subu	at,s0,zero
    641c:	000006e2 	0x6e2
    6420:	03b8500e 	0x3b8500e
    6424:	cd0b0000 	pref	0xb,0(t0)
    6428:	04000007 	bltz	zero,6448 <_init-0x687f9bb8>
    642c:	980c1904 	lwr	t4,6404(zero)
    6430:	0000002a 	slt	zero,zero,zero
    6434:	0024ac0c 	syscall	0x92b0
    6438:	0c00e400 	jal	39000 <_init-0x687c7000>
    643c:	000024ba 	0x24ba
    6440:	090c00e5 	j	4300394 <_init-0x644ffc6c>
    6444:	e600001f 	swc1	$f0,31(s0)
    6448:	1bcd0c00 	0x1bcd0c00
    644c:	00e70000 	0xe70000
    6450:	00227f0c 	syscall	0x89fc
    6454:	0c00e800 	jal	3a000 <_init-0x687c6000>
    6458:	00001f74 	teq	zero,zero,0x7d
    645c:	b10c00e9 	0xb10c00e9
    6460:	e800001b 	swc2	$0,27(zero)
    6464:	1ca40c07 	0x1ca40c07
    6468:	07e90000 	tgeiu	ra,0
    646c:	0026be0c 	syscall	0x9af8
    6470:	0c07ea00 	jal	1fa800 <_init-0x68605800>
    6474:	00002293 	0x2293
    6478:	180c07eb 	0x180c07eb
    647c:	ec000020 	swc3	$0,32(zero)
    6480:	28e40c07 	slti	a0,a3,3079
    6484:	07ed0000 	0x7ed0000
    6488:	001c210c 	syscall	0x7084
    648c:	0c07ee00 	jal	1fb800 <_init-0x68604800>
    6490:	000020a0 	0x20a0
    6494:	fb0c07ef 	sdc2	$12,2031(t8)
    6498:	f0000023 	0xf0000023
    649c:	1e7a0c07 	0x1e7a0c07
    64a0:	07f10000 	bgezal	ra,64a4 <_init-0x687f9b5c>
    64a4:	001e640c 	syscall	0x7990
    64a8:	0c07f200 	jal	1fc800 <_init-0x68603800>
    64ac:	00001d0f 	0x1d0f
    64b0:	d20c07f3 	0xd20c07f3
    64b4:	f400001f 	sdc1	$f0,31(zero)
    64b8:	1c910c07 	0x1c910c07
    64bc:	07f50000 	0x7f50000
    64c0:	0029780c 	syscall	0xa5e0
    64c4:	0c07f600 	jal	1fd800 <_init-0x68602800>
    64c8:	0000205b 	0x205b
    64cc:	930c07f7 	lbu	t4,2039(t8)
    64d0:	f8000029 	sdc2	$0,41(zero)
    64d4:	1eeb0c07 	0x1eeb0c07
    64d8:	07f90000 	0x7f90000
    64dc:	001f400c 	syscall	0x7d00
    64e0:	0c07fa00 	jal	1fe800 <_init-0x68601800>
    64e4:	00002914 	0x2914
    64e8:	9f0c07fb 	0x9f0c07fb
    64ec:	fc000026 	sdc3	$0,38(zero)
    64f0:	21d30c07 	addi	s3,t6,3079
    64f4:	07fd0000 	0x7fd0000
    64f8:	0028ac0c 	syscall	0xa2b0
    64fc:	0c07fe00 	jal	1ff800 <_init-0x68600800>
    6500:	00002a73 	tltu	zero,zero,0xa9
    6504:	020c07ff 	0x20c07ff
    6508:	80000020 	lb	zero,32(zero)
    650c:	25e40c08 	addiu	a0,t7,3080
    6510:	0fd00000 	jal	f400000 <_init-0x59400000>
    6514:	001c130c 	syscall	0x704c
    6518:	0c0fd100 	jal	3f4400 <_init-0x6840bc00>
    651c:	00001fb1 	tgeu	zero,zero,0x7e
    6520:	8d0c0fd2 	lw	t4,4050(t0)
    6524:	d300001d 	0xd300001d
    6528:	22d90c0f 	addi	t9,s6,3087
    652c:	0fd40000 	jal	f500000 <_init-0x59300000>
    6530:	0029020c 	syscall	0xa408
    6534:	0c0fd500 	jal	3f5400 <_init-0x6840ac00>
    6538:	0000218e 	0x218e
    653c:	790c0fd6 	0x790c0fd6
    6540:	d700001c 	ldc1	$f0,28(t8)
    6544:	1cdf0c0f 	0x1cdf0c0f
    6548:	0fd80000 	jal	f600000 <_init-0x59200000>
    654c:	0020e50c 	syscall	0x8394
    6550:	0c0fd900 	jal	3f6400 <_init-0x68409c00>
    6554:	00001bbd 	0x1bbd
    6558:	e30c0fda 	sc	t4,4058(t8)
    655c:	db00001b 	ldc2	$0,27(t8)
    6560:	29610c0f 	slti	at,t3,3087
    6564:	0fdc0000 	jal	f700000 <_init-0x59100000>
    6568:	0026830c 	syscall	0x9a0c
    656c:	0c0fdd00 	jal	3f7400 <_init-0x68408c00>
    6570:	000021a1 	0x21a1
    6574:	690c0fde 	0x690c0fde
    6578:	df000027 	ldc3	$0,39(t8)
    657c:	23b50c0f 	addi	s5,sp,3087
    6580:	0fe00000 	jal	f800000 <_init-0x59000000>
    6584:	00215d0c 	syscall	0x8574
    6588:	0c0fe100 	jal	3f8400 <_init-0x68407c00>
    658c:	00001eb2 	tlt	zero,zero,0x7a
    6590:	8d0c0fe2 	lw	t4,4066(t0)
    6594:	e3000027 	sc	zero,39(t8)
    6598:	1e080c0f 	0x1e080c0f
    659c:	0fe40000 	jal	f900000 <_init-0x58f00000>
    65a0:	001dfc0c 	syscall	0x77f0
    65a4:	0c17b800 	jal	5ee000 <_init-0x68212000>
    65a8:	000029a9 	0x29a9
    65ac:	360c1fa0 	ori	t4,s0,0x1fa0
    65b0:	a100001c 	sb	zero,28(t0)
    65b4:	1aea0c1f 	0x1aea0c1f
    65b8:	1fa20000 	0x1fa20000
    65bc:	0022f90c 	syscall	0x8be4
    65c0:	0c1fa300 	jal	7e8c00 <_init-0x68017400>
    65c4:	000023dd 	0x23dd
    65c8:	ed0c1fa4 	swc3	$12,8100(t0)
    65cc:	a5000026 	sh	zero,38(t0)
    65d0:	271c0c1f 	addiu	gp,t8,3103
    65d4:	1fa60000 	0x1fa60000
    65d8:	001b810c 	syscall	0x6e04
    65dc:	0c1fa700 	jal	7e9c00 <_init-0x68016400>
    65e0:	00002892 	0x2892
    65e4:	6a0c1fa8 	0x6a0c1fa8
    65e8:	a9000023 	swl	zero,35(t0)
    65ec:	251b0c1f 	addiu	k1,t0,3103
    65f0:	1faa0000 	0x1faa0000
    65f4:	0028580c 	syscall	0xa160
    65f8:	0c1fab00 	jal	7eac00 <_init-0x68015400>
    65fc:	00001db8 	0x1db8
    6600:	500c1fac 	beql	zero,t4,e4b4 <_init-0x687f1b4c>
    6604:	ad00001e 	sw	zero,30(t0)
    6608:	21770c1f 	addi	s7,t3,3103
    660c:	1fae0000 	0x1fae0000
    6610:	0022e60c 	syscall	0x8b98
    6614:	0c1faf00 	jal	7ebc00 <_init-0x68014400>
    6618:	0000261a 	0x261a
    661c:	240c1fb0 	li	t4,8112
    6620:	b1000022 	0xb1000022
    6624:	213f0c1f 	addi	ra,t1,3103
    6628:	1fb20000 	0x1fb20000
    662c:	0029b90c 	syscall	0xa6e4
    6630:	0c1fb300 	jal	7ecc00 <_init-0x68013400>
    6634:	00001d59 	0x1d59
    6638:	c50c1fb4 	lwc1	$f12,8116(t0)
    663c:	b5000025 	0xb5000025
    6640:	1fe00c1f 	bgtz	ra,96c0 <_init-0x687f6940>
    6644:	1fb60000 	0x1fb60000
    6648:	0028710c 	syscall	0xa1c4
    664c:	0c1fb700 	jal	7edc00 <_init-0x68012400>
    6650:	0000242e 	0x242e
    6654:	980c1fb8 	lwr	t4,8120(zero)
    6658:	b900001e 	swr	zero,30(t0)
    665c:	233d0c1f 	addi	sp,t9,3103
    6660:	1fba0000 	0x1fba0000
    6664:	002aad0c 	syscall	0xaab4
    6668:	0c1fbb00 	jal	7eec00 <_init-0x68011400>
    666c:	00002261 	0x2261
    6670:	5d0c1fbc 	0x5d0c1fbc
    6674:	88000023 	lwl	zero,35(zero)
    6678:	25a40c27 	addiu	a0,t5,3111
    667c:	27890000 	addiu	t1,gp,0
    6680:	0025750c 	syscall	0x95d4
    6684:	0c278a00 	jal	9e2800 <_init-0x67e1d800>
    6688:	00001f88 	0x1f88
    668c:	060c278b 	teqi	s0,10123
    6690:	8c000022 	lw	zero,34(zero)
    6694:	29260c27 	slti	a2,t1,3111
    6698:	278d0000 	addiu	t5,gp,0
    669c:	001d230c 	syscall	0x748c
    66a0:	0c278e00 	jal	9e3800 <_init-0x67e1c800>
    66a4:	00002540 	sll	a0,zero,0x15
    66a8:	440c278f 	0x440c278f
    66ac:	90000029 	lbu	zero,41(zero)
    66b0:	24100c27 	li	s0,3111
    66b4:	27910000 	addiu	s1,gp,0
    66b8:	001c4f0c 	syscall	0x713c
    66bc:	0c279200 	jal	9e4800 <_init-0x67e1b800>
    66c0:	00001b4a 	0x1b4a
    66c4:	180c2793 	0x180c2793
    66c8:	94000023 	lhu	zero,35(zero)
    66cc:	24cd0c27 	addiu	t5,a2,3111
    66d0:	27950000 	addiu	s5,gp,0
    66d4:	001ece0c 	syscall	0x7b38
    66d8:	0c279600 	jal	9e5800 <_init-0x67e1a800>
    66dc:	00001dcc 	syscall	0x77
    66e0:	050c2797 	teqi	t0,10135
    66e4:	98000025 	lwr	zero,37(zero)
    66e8:	1ad30c27 	0x1ad30c27
    66ec:	27990000 	addiu	t9,gp,0
    66f0:	0029d10c 	syscall	0xa744
    66f4:	0c279a00 	jal	9e6800 <_init-0x67e19800>
    66f8:	00002a5d 	0x2a5d
    66fc:	2d0c279b 	sltiu	t4,t0,10139
    6700:	9c000028 	0x9c000028
    6704:	2a0e0c27 	slti	t6,s0,3111
    6708:	279d0000 	addiu	sp,gp,0
    670c:	001cc40c 	syscall	0x7310
    6710:	0c279e00 	jal	9e7800 <_init-0x67e18800>
    6714:	00002384 	0x2384
    6718:	ad0c279f 	sw	t4,10143(t0)
    671c:	a0000020 	sb	zero,32(zero)
    6720:	1b340c27 	0x1b340c27
    6724:	27a10000 	addiu	at,sp,0
    6728:	0029f80c 	syscall	0xa7e0
    672c:	0c27a200 	jal	9e8800 <_init-0x67e17800>
    6730:	00001b18 	0x1b18
    6734:	640c27a3 	0x640c27a3
    6738:	a400001b 	sh	zero,27(zero)
    673c:	203e0c27 	addi	s8,at,3111
    6740:	27a50000 	addiu	a1,sp,0
    6744:	00229f0c 	syscall	0x8a7c
    6748:	0c27a600 	jal	9e9800 <_init-0x67e16800>
    674c:	000020f0 	tge	zero,zero,0x83
    6750:	5c0c27a7 	0x5c0c27a7
    6754:	d8000023 	ldc2	$0,35(zero)
    6758:	26350c36 	addiu	s5,s1,3126
    675c:	36d90000 	ori	t9,s6,0x0
    6760:	001da20c 	syscall	0x7688
    6764:	0c36da00 	jal	db6800 <_init-0x67a49800>
    6768:	000022be 	0x22be
    676c:	420c36db 	c0	0xc36db
    6770:	dc00002a 	ldc3	$0,42(zero)
    6774:	1e2f0c36 	0x1e2f0c36
    6778:	36dd0000 	ori	sp,s6,0x0
    677c:	0028140c 	syscall	0xa050
    6780:	0c36de00 	jal	db7800 <_init-0x67a48800>
    6784:	0000239f 	0x239f
    6788:	eb0c36df 	swc2	$12,14047(t8)
    678c:	e0000021 	sc	zero,33(zero)
    6790:	246b0c36 	addiu	t3,v1,3126
    6794:	36e10000 	ori	at,s7,0x0
    6798:	00210f0c 	syscall	0x843c
    679c:	0c36e200 	jal	db8800 <_init-0x67a47800>
    67a0:	00001b02 	srl	v1,zero,0xc
    67a4:	ce0c36e3 	pref	0xc,14051(s0)
    67a8:	e4000026 	swc1	$f0,38(zero)
    67ac:	21b80c36 	addi	t8,t5,3126
    67b0:	36e50000 	ori	a1,s7,0x0
    67b4:	001d6c0c 	syscall	0x75b0
    67b8:	0c36e600 	jal	db9800 <_init-0x67a46800>
    67bc:	00001bf2 	tlt	zero,zero,0x6f
    67c0:	860c36e7 	lh	t4,14055(s0)
    67c4:	e8000024 	swc2	$0,36(zero)
    67c8:	27f90c36 	addiu	t9,ra,3126
    67cc:	36e90000 	ori	t1,s7,0x0
    67d0:	0024ea0c 	syscall	0x93a8
    67d4:	0c36ea00 	jal	dba800 <_init-0x67a45800>
    67d8:	00001e45 	0x1e45
    67dc:	c70c3ec0 	lwc1	$f12,16064(t8)
    67e0:	c1000023 	ll	zero,35(t0)
    67e4:	29e90c3e 	slti	t1,t7,3134
    67e8:	3ec20000 	0x3ec20000
    67ec:	0027dd0c 	syscall	0x9f74
    67f0:	00c6a800 	0xc6a800
    67f4:	001d3d0c 	syscall	0x74f4
    67f8:	00c6a900 	0xc6a900
    67fc:	20d50200 	addi	s5,a2,512
    6800:	ce040000 	pref	0x4,0(s0)
    6804:	000003f6 	tne	zero,zero,0xf
    6808:	00080d0f 	0x80d0f
    680c:	04040800 	0x4040800
    6810:	1fcd07dd 	0x1fcd07dd
    6814:	d8040000 	ldc2	$4,0(zero)
    6818:	000007cd 	break	0x0,0x1f
    681c:	07002302 	bltz	t8,f428 <_init-0x687f0bd8>
    6820:	00003322 	0x3322
    6824:	0089da04 	0x89da04
    6828:	23020000 	addi	v0,t8,0
    682c:	28d30704 	slti	s3,a2,1796
    6830:	dc040000 	ldc3	$4,0(zero)
    6834:	000001d9 	0x1d9
    6838:	08842303 	j	2108c0c <_init-0x666f73f4>
    683c:	20ca0200 	addi	t2,a2,512
    6840:	dd040000 	ldc3	$4,0(t0)
    6844:	000007d8 	0x7d8
    6848:	0008450b 	0x8450b
    684c:	e2040400 	sc	a0,1024(s0)
    6850:	001cb10c 	syscall	0x72c4
    6854:	860c0000 	lh	t4,0(s0)
    6858:	0100002a 	slt	zero,t0,zero
    685c:	001fa00c 	syscall	0x7e80
    6860:	7c0c0200 	ext	t4,zero,0x8,0x1
    6864:	03000020 	add	zero,t8,zero
    6868:	0026600c 	syscall	0x9980
    686c:	510c0400 	beql	t0,t4,7870 <_init-0x687f8790>
    6870:	0500001f 	bltz	t0,68f0 <_init-0x687f9710>
    6874:	27e80200 	addiu	t0,ra,512
    6878:	ed040000 	swc3	$4,0(t0)
    687c:	00000818 	mult	$ac1,zero,zero
    6880:	0008760f 	0x8760f
    6884:	04040400 	0x4040400
    6888:	1fcd07fb 	0x1fcd07fb
    688c:	f8040000 	sdc2	$4,0(zero)
    6890:	00000845 	0x845
    6894:	07002302 	bltz	t8,f4a0 <_init-0x687f0b60>
    6898:	00003322 	0x3322
    689c:	0089fa04 	0x89fa04
    68a0:	23020000 	addi	v0,t8,0
    68a4:	a1020004 	sb	v0,4(t0)
    68a8:	0400002a 	bltz	zero,6954 <_init-0x687f96ac>
    68ac:	000850fb 	0x850fb
    68b0:	08b71600 	j	2dc5800 <_init-0x65a3a800>
    68b4:	0de30000 	jal	78c0000 <_init-0x60f40000>
    68b8:	07090000 	tgeiu	t8,0
    68bc:	1fcd0753 	0x1fcd0753
    68c0:	55070000 	bnel	t0,a3,68c4 <_init-0x687f973c>
    68c4:	00000146 	0x146
    68c8:	10002302 	b	f4d4 <_init-0x687f0b2c>
    68cc:	07006469 	bltz	t8,1fa74 <_init-0x687e058c>
    68d0:	00003057 	0x3057
    68d4:	01230200 	0x1230200
    68d8:	0002c007 	srav	t8,v0,zero
    68dc:	a5590700 	sh	t9,1792(t2)
    68e0:	02000001 	movf	zero,s0,$fcc0
    68e4:	02000523 	0x2000523
    68e8:	00000386 	0x386
    68ec:	08815b07 	j	2056c1c <_init-0x667a93e4>
    68f0:	7d060000 	ext	a2,t0,0x0,0x1
    68f4:	25000009 	addiu	zero,t0,9
    68f8:	65078107 	0x65078107
    68fc:	07000011 	bltz	t8,6944 <_init-0x687f96bc>
    6900:	0008b764 	0x8b764
    6904:	00230200 	0x230200
    6908:	00093707 	0x93707
    690c:	eb670700 	swc2	$7,1792(k1)
    6910:	02000001 	movf	zero,s0,$fcc0
    6914:	78070923 	0x78070923
    6918:	07000009 	bltz	t8,6940 <_init-0x687f96c0>
    691c:	0001eb69 	0x1eb69
    6920:	0b230200 	j	c8c0800 <_init-0x5bf3f800>
    6924:	07007810 	bltz	t8,24968 <_init-0x687db698>
    6928:	0001eb6b 	0x1eb6b
    692c:	0d230200 	jal	48c0800 <_init-0x63f3f800>
    6930:	07007910 	bltz	t8,24d74 <_init-0x687db28c>
    6934:	0001eb6d 	0x1eb6d
    6938:	0f230200 	jal	c8c0800 <_init-0x5bf3f800>
    693c:	0010d607 	0x10d607
    6940:	eb700700 	swc2	$16,1792(k1)
    6944:	02000001 	movf	zero,s0,$fcc0
    6948:	b9071123 	swr	a3,4387(t0)
    694c:	0700000b 	bltz	t8,697c <_init-0x687f9684>
    6950:	0001eb72 	tlt	zero,at,0x3ad
    6954:	13230200 	beq	t9,v1,7158 <_init-0x687f8ea8>
    6958:	000b2c07 	0xb2c07
    695c:	30740700 	andi	s4,v1,0x700
    6960:	02000000 	0x2000000
    6964:	06071523 	0x6071523
    6968:	07000008 	bltz	t8,698c <_init-0x687f9674>
    696c:	00014676 	tne	zero,at,0x119
    6970:	19230200 	0x19230200
    6974:	00070707 	0x70707
    6978:	46780700 	c1	0x780700
    697c:	02000001 	movf	zero,s0,$fcc0
    6980:	db071a23 	ldc2	$7,6691(t8)
    6984:	0700000e 	bltz	t8,69c0 <_init-0x687f9640>
    6988:	00015d7a 	0x15d7a
    698c:	1b230200 	0x1b230200
    6990:	000ce007 	srav	gp,t4,zero
    6994:	307d0700 	andi	sp,v1,0x700
    6998:	02000000 	0x2000000
    699c:	ba071d23 	swr	a3,7459(s0)
    69a0:	07000002 	bltz	t8,69ac <_init-0x687f9654>
    69a4:	0000307f 	0x307f
    69a8:	21230200 	addi	v1,t1,512
    69ac:	0ced0200 	jal	3b40800 <_init-0x64cbf800>
    69b0:	81070000 	lb	a3,0(t0)
    69b4:	000008c2 	srl	at,zero,0x3
    69b8:	000a6d06 	0xa6d06
    69bc:	df072500 	ldc3	$7,9472(t8)
    69c0:	00116507 	0x116507
    69c4:	b7bd0700 	0xb7bd0700
    69c8:	02000008 	jr	s0
    69cc:	78100023 	0x78100023
    69d0:	ebbf0700 	swc2	$31,1792(sp)
    69d4:	02000001 	movf	zero,s0,$fcc0
    69d8:	79100923 	0x79100923
    69dc:	ebc10700 	swc2	$1,1792(s8)
    69e0:	02000001 	movf	zero,s0,$fcc0
    69e4:	d6070b23 	ldc1	$f7,2851(s0)
    69e8:	07000010 	bltz	t8,6a2c <_init-0x687f95d4>
    69ec:	0001ebc3 	sra	sp,at,0xf
    69f0:	0d230200 	jal	48c0800 <_init-0x63f3f800>
    69f4:	000bb907 	0xbb907
    69f8:	ebc50700 	swc2	$5,1792(s8)
    69fc:	02000001 	movf	zero,s0,$fcc0
    6a00:	73070f23 	0x73070f23
    6a04:	07000003 	bltz	t8,6a14 <_init-0x687f95ec>
    6a08:	000030c7 	0x30c7
    6a0c:	11230200 	beq	t1,v1,7210 <_init-0x687f8df0>
    6a10:	000b2c07 	0xb2c07
    6a14:	30c90700 	andi	t1,a2,0x700
    6a18:	02000000 	0x2000000
    6a1c:	06071523 	0x6071523
    6a20:	07000008 	bltz	t8,6a44 <_init-0x687f95bc>
    6a24:	000146cb 	0x146cb
    6a28:	19230200 	0x19230200
    6a2c:	0009a107 	0x9a107
    6a30:	46cd0700 	add.ps	$f28,$f0,$f13
    6a34:	02000001 	movf	zero,s0,$fcc0
    6a38:	9b071a23 	lwr	a3,6691(t8)
    6a3c:	0700000e 	bltz	t8,6a78 <_init-0x687f9588>
    6a40:	000146cf 	0x146cf
    6a44:	1b230200 	0x1b230200
    6a48:	000bb407 	0xbb407
    6a4c:	46d10700 	add.ps	$f28,$f0,$f17
    6a50:	02000001 	movf	zero,s0,$fcc0
    6a54:	9d071c23 	0x9d071c23
    6a58:	07000010 	bltz	t8,6a9c <_init-0x687f9564>
    6a5c:	00015dd5 	0x15dd5
    6a60:	1d230200 	0x1d230200
    6a64:	00030c07 	0x30c07
    6a68:	46d70700 	add.ps	$f28,$f0,$f23
    6a6c:	02000001 	movf	zero,s0,$fcc0
    6a70:	58071f23 	0x58071f23
    6a74:	07000006 	bltz	t8,6a90 <_init-0x687f9570>
    6a78:	000044d9 	0x44d9
    6a7c:	20230200 	addi	v1,at,512
    6a80:	000d3807 	srav	a3,t5,zero
    6a84:	5ddb0700 	0x5ddb0700
    6a88:	02000001 	movf	zero,s0,$fcc0
    6a8c:	00072123 	0x72123
    6a90:	07000003 	bltz	t8,6aa0 <_init-0x687f9560>
    6a94:	00015ddd 	0x15ddd
    6a98:	23230200 	addi	v1,t9,512
    6a9c:	08c60200 	j	3180800 <_init-0x6567f800>
    6aa0:	df070000 	ldc3	$7,0(t8)
    6aa4:	00000988 	0x988
    6aa8:	000adf06 	0xadf06
    6aac:	f1071400 	0xf1071400
    6ab0:	00116507 	0x116507
    6ab4:	b7e90700 	0xb7e90700
    6ab8:	02000008 	jr	s0
    6abc:	78100023 	0x78100023
    6ac0:	ebea0700 	swc2	$10,1792(ra)
    6ac4:	02000001 	movf	zero,s0,$fcc0
    6ac8:	79100923 	0x79100923
    6acc:	ebeb0700 	swc2	$11,1792(ra)
    6ad0:	02000001 	movf	zero,s0,$fcc0
    6ad4:	d6070b23 	ldc1	$f7,2851(s0)
    6ad8:	07000010 	bltz	t8,6b1c <_init-0x687f94e4>
    6adc:	0001ebec 	0x1ebec
    6ae0:	0d230200 	jal	48c0800 <_init-0x63f3f800>
    6ae4:	000bb907 	0xbb907
    6ae8:	ebed0700 	swc2	$13,1792(ra)
    6aec:	02000001 	movf	zero,s0,$fcc0
    6af0:	06070f23 	0x6070f23
    6af4:	07000008 	bltz	t8,6b18 <_init-0x687f94e8>
    6af8:	000146ee 	0x146ee
    6afc:	11230200 	beq	t1,v1,7300 <_init-0x687f8d00>
    6b00:	00094207 	0x94207
    6b04:	5def0700 	0x5def0700
    6b08:	02000001 	movf	zero,s0,$fcc0
    6b0c:	02001223 	0x2001223
    6b10:	0000037e 	0x37e
    6b14:	0a78f107 	j	9e3c41c <_init-0x5e9c3be4>
    6b18:	a1120000 	sb	s2,0(t0)
    6b1c:	2900000b 	slti	zero,t0,11
    6b20:	10011307 	beq	zero,at,b740 <_init-0x687f48c0>
    6b24:	fa070078 	sdc2	$7,120(s0)
    6b28:	000001eb 	0x1eb
    6b2c:	10002302 	b	f738 <_init-0x687f08c8>
    6b30:	fc070079 	sdc3	$7,121(zero)
    6b34:	000001eb 	0x1eb
    6b38:	07022302 	bltzl	t8,f744 <_init-0x687f08bc>
    6b3c:	000010d6 	0x10d6
    6b40:	01ebfe07 	0x1ebfe07
    6b44:	23020000 	addi	v0,t8,0
    6b48:	0bb91704 	j	ee45c10 <_init-0x599ba3f0>
    6b4c:	00070000 	sll	zero,a3,0x0
    6b50:	0001eb01 	0x1eb01
    6b54:	06230200 	bgezl	s1,7358 <_init-0x687f8ca8>
    6b58:	000b2c17 	0xb2c17
    6b5c:	01020700 	0x1020700
    6b60:	00000030 	tge	zero,zero
    6b64:	17082302 	bne	t8,t0,f770 <_init-0x687f0890>
    6b68:	00000806 	srlv	at,zero,zero
    6b6c:	46010407 	c1	0x10407
    6b70:	02000001 	movf	zero,s0,$fcc0
    6b74:	07170c23 	0x7170c23
    6b78:	07000007 	bltz	t8,6b98 <_init-0x687f9468>
    6b7c:	01460106 	0x1460106
    6b80:	23020000 	addi	v0,t8,0
    6b84:	0edb170d 	jal	b6c5c34 <_init-0x5d13a3cc>
    6b88:	08070000 	j	1c0000 <_init-0x68640000>
    6b8c:	00015d01 	0x15d01
    6b90:	0e230200 	jal	88c0800 <_init-0x5ff3f800>
    6b94:	000ce017 	0xce017
    6b98:	010b0700 	0x10b0700
    6b9c:	00000030 	tge	zero,zero
    6ba0:	17102302 	bne	t8,s0,f7ac <_init-0x687f0854>
    6ba4:	000002ba 	0x2ba
    6ba8:	30010d07 	andi	at,zero,0xd07
    6bac:	02000000 	0x2000000
    6bb0:	58171423 	0x58171423
    6bb4:	07000006 	bltz	t8,6bd0 <_init-0x687f9430>
    6bb8:	0146010f 	0x146010f
    6bbc:	23020000 	addi	v0,t8,0
    6bc0:	08011718 	j	45c60 <_init-0x687ba3a0>
    6bc4:	11070000 	beq	t0,a3,6bc8 <_init-0x687f9438>
    6bc8:	00023801 	0x23801
    6bcc:	19230200 	0x19230200
    6bd0:	0ddb1400 	jal	76c5000 <_init-0x6113b000>
    6bd4:	13070000 	beq	t8,a3,6bd8 <_init-0x687f9428>
    6bd8:	000aea01 	0xaea01
    6bdc:	a1040500 	sb	a0,1280(t0)
    6be0:	0b00000b 	j	c00002c <_init-0x5c7fffd4>
    6be4:	00000bd4 	0xbd4
    6be8:	0c210f04 	jal	843c10 <_init-0x67fbc3f0>
    6bec:	00000ec7 	0xec7
    6bf0:	0ad00c00 	j	b403000 <_init-0x5d3fd000>
    6bf4:	0c010000 	jal	40000 <_init-0x687c0000>
    6bf8:	000006bd 	0x6bd
    6bfc:	10a40c02 	beq	a1,a0,9c08 <_init-0x687f63f8>
    6c00:	00030000 	sll	zero,v1,0x0
    6c04:	00110502 	srl	zero,s1,0x14
    6c08:	b3260f00 	0xb3260f00
    6c0c:	0b00000b 	j	c00002c <_init-0x5c7fffd4>
    6c10:	00000bee 	0xbee
    6c14:	0c2e0f04 	jal	b83c10 <_init-0x67c7c3f0>
    6c18:	00000e32 	tlt	zero,zero,0x38
    6c1c:	8d020000 	lw	v0,0(t0)
    6c20:	0f000007 	jal	c00001c <_init-0x5c7fffe4>
    6c24:	000bdf30 	tge	zero,t3,0x37c
    6c28:	0c6e1600 	jal	1b85800 <_init-0x66c7a800>
    6c2c:	119b0000 	beq	t4,k1,6c30 <_init-0x687f93d0>
    6c30:	0f180000 	jal	c600000 <_init-0x5c200000>
    6c34:	1fcd075c 	0x1fcd075c
    6c38:	5e0f0000 	0x5e0f0000
    6c3c:	00000bd4 	0xbd4
    6c40:	07002302 	bltz	t8,f84c <_init-0x687f07b4>
    6c44:	0000083d 	0x83d
    6c48:	015d600f 	0x15d600f
    6c4c:	23020000 	addi	v0,t8,0
    6c50:	0d580704 	jal	5601c10 <_init-0x631fe3f0>
    6c54:	620f0000 	0x620f0000
    6c58:	0000015d 	0x15d
    6c5c:	07062302 	0x7062302
    6c60:	0000033c 	0x33c
    6c64:	003e640f 	0x3e640f
    6c68:	23020000 	addi	v0,t8,0
    6c6c:	2d240708 	sltiu	a0,t1,1800
    6c70:	670f0000 	0x670f0000
    6c74:	00000c85 	0xc85
    6c78:	070c2302 	teqi	t8,8962
    6c7c:	00000e28 	0xe28
    6c80:	00376a0f 	0x376a0f
    6c84:	23020000 	addi	v0,t8,0
    6c88:	0c391810 	jal	e46040 <_init-0x679b9fc0>
    6c8c:	07010000 	bgez	t8,6c90 <_init-0x687f9370>
    6c90:	00000259 	0x259
    6c94:	0c8b6d0f 	jal	22db43c <_init-0x66524bc4>
    6c98:	23020000 	addi	v0,t8,0
    6c9c:	7f190014 	0x7f190014
    6ca0:	0100000c 	syscall	0x40000
    6ca4:	000c7f1a 	0xc7f1a
    6ca8:	0bee1a00 	j	fb86800 <_init-0x58c79800>
    6cac:	05000000 	bltz	t0,6cb0 <_init-0x687f9350>
    6cb0:	000bf904 	0xbf904
    6cb4:	6e040500 	0x6e040500
    6cb8:	0500000c 	bltz	t0,6cec <_init-0x687f9314>
    6cbc:	000c5904 	0xc5904
    6cc0:	11a50200 	beq	t5,a1,74c4 <_init-0x687f8b3c>
    6cc4:	6e0f0000 	0x6e0f0000
    6cc8:	00000bf9 	0xbf9
    6ccc:	0c910405 	jal	2441014 <_init-0x663befec>
    6cd0:	cf0b0000 	pref	0xb,0(t8)
    6cd4:	0400000c 	bltz	zero,6d08 <_init-0x687f92f8>
    6cd8:	320c2310 	andi	t4,s0,0x2310
    6cdc:	00000002 	srl	zero,zero,0x0
    6ce0:	0008860c 	syscall	0x2218
    6ce4:	800c0100 	lb	t4,256(zero)
    6ce8:	02000010 	0x2000010
    6cec:	0012050c 	syscall	0x4814
    6cf0:	770c0300 	jalx	c300c00 <_init-0x5c4ff400>
    6cf4:	04000002 	bltz	zero,6d00 <_init-0x687f9300>
    6cf8:	0010290c 	syscall	0x40a4
    6cfc:	02000500 	0x2000500
    6d00:	000003c8 	0x3c8
    6d04:	0ca22a10 	jal	288a840 <_init-0x65f757c0>
    6d08:	010b0000 	0x10b0000
    6d0c:	0400000d 	bltz	zero,6d44 <_init-0x687f92bc>
    6d10:	ea0c3610 	swc2	$12,13840(s0)
    6d14:	00000005 	0x5
    6d18:	000fd10c 	syscall	0x3f44
    6d1c:	ed0c0100 	swc3	$12,256(t0)
    6d20:	02000006 	srlv	zero,zero,s0
    6d24:	0005940c 	syscall	0x1650
    6d28:	fd0c0300 	sdc3	$12,768(t0)
    6d2c:	04000003 	bltz	zero,6d3c <_init-0x687f92c4>
    6d30:	02970200 	0x2970200
    6d34:	3c100000 	lui	s0,0x0
    6d38:	00000cda 	0xcda
    6d3c:	000d9d16 	0xd9d16
    6d40:	00067c00 	sll	t7,a2,0x10
    6d44:	4b102400 	c2	0x1102400
    6d48:	001fcd07 	0x1fcd07
    6d4c:	cf4e1000 	pref	0xe,4096(k0)
    6d50:	0200000c 	syscall	0x80000
    6d54:	b4070023 	0xb4070023
    6d58:	10000003 	b	6d68 <_init-0x687f9298>
    6d5c:	00003e51 	0x3e51
    6d60:	04230200 	bgezl	at,7564 <_init-0x687f8a9c>
    6d64:	00111407 	0x111407
    6d68:	3e541000 	0x3e541000
    6d6c:	02000000 	0x2000000
    6d70:	c2070823 	ll	a3,2083(s0)
    6d74:	1000000a 	b	6da0 <_init-0x687f9260>
    6d78:	00003e56 	0x3e56
    6d7c:	0c230200 	jal	8c0800 <_init-0x67f3f800>
    6d80:	000e2807 	srav	a1,t6,zero
    6d84:	37591000 	ori	t9,k0,0x1000
    6d88:	02000000 	0x2000000
    6d8c:	24071023 	li	a3,4131
    6d90:	1000002d 	b	6e48 <_init-0x687f91b8>
    6d94:	000db45c 	0xdb45c
    6d98:	14230200 	bne	at,v1,759c <_init-0x687f8a64>
    6d9c:	0003b807 	srav	s7,v1,zero
    6da0:	2d5f1000 	sltiu	ra,t2,4096
    6da4:	02000002 	0x2000002
    6da8:	72071823 	0x72071823
    6dac:	10000006 	b	6dc8 <_init-0x687f9238>
    6db0:	00022d62 	0x22d62
    6db4:	1c230200 	0x1c230200
    6db8:	00112318 	0x112318
    6dbc:	be070100 	cache	0x7,256(s0)
    6dc0:	1000000c 	b	6df4 <_init-0x687f920c>
    6dc4:	000dba65 	0xdba65
    6dc8:	20230200 	addi	v1,at,512
    6dcc:	0dae1900 	jal	6b86400 <_init-0x61c79c00>
    6dd0:	1a010000 	0x1a010000
    6dd4:	00000dae 	0xdae
    6dd8:	000d011a 	0xd011a
    6ddc:	04050000 	0x4050000
    6de0:	00000d0c 	syscall	0x34
    6de4:	0d9d0405 	jal	6741014 <_init-0x620befec>
    6de8:	04050000 	0x4050000
    6dec:	00000d88 	0xd88
    6df0:	000ae402 	srl	gp,t2,0x10
    6df4:	0c661000 	jal	1984000 <_init-0x66e7c000>
    6df8:	0500000d 	bltz	t0,6e30 <_init-0x687f91d0>
    6dfc:	000dc004 	sllv	t8,t5,zero
    6e00:	d7040500 	ldc1	$f4,1280(t8)
    6e04:	1b00000d 	blez	t8,6e3c <_init-0x687f91c4>
    6e08:	00000dec 	0xdec
    6e0c:	00003701 	0x3701
    6e10:	01a31a00 	0x1a31a00
    6e14:	371a0000 	ori	k0,t8,0x0
    6e18:	00000000 	nop
    6e1c:	03330405 	0x3330405
    6e20:	24020000 	li	v0,0
    6e24:	0c000008 	jal	20 <_init-0x687fffe0>
    6e28:	000dd14a 	0xdd14a
    6e2c:	0e721600 	jal	9c85800 <_init-0x5eb7a800>
    6e30:	0f160000 	jal	c580000 <_init-0x5c280000>
    6e34:	0c1c0000 	jal	700000 <_init-0x68100000>
    6e38:	02c00751 	0x2c00751
    6e3c:	530c0000 	beql	t8,t4,6e40 <_init-0x687f91c0>
    6e40:	00000037 	0x37
    6e44:	07002302 	bltz	t8,fa50 <_init-0x687f05b0>
    6e48:	00000fc9 	0xfc9
    6e4c:	0037560c 	syscall	0xdd58
    6e50:	23020000 	addi	v0,t8,0
    6e54:	10100704 	beq	zero,s0,8a68 <_init-0x687f7598>
    6e58:	590c0000 	0x590c0000
    6e5c:	00000037 	0x37
    6e60:	07082302 	tgei	t8,8962
    6e64:	00000f76 	tne	zero,zero,0x3d
    6e68:	00375c0c 	syscall	0xdd70
    6e6c:	23020000 	addi	v0,t8,0
    6e70:	0d4c070c 	jal	5301c30 <_init-0x634fe3d0>
    6e74:	5f0c0000 	0x5f0c0000
    6e78:	00000037 	0x37
    6e7c:	07102302 	bltzal	t8,fa88 <_init-0x687f0578>
    6e80:	00002d24 	0x2d24
    6e84:	0df2620c 	jal	7c98830 <_init-0x60b677d0>
    6e88:	23020000 	addi	v0,t8,0
    6e8c:	06001814 	bltz	s0,cee0 <_init-0x687f3120>
    6e90:	07010000 	bgez	t8,6e94 <_init-0x687f916c>
    6e94:	00000844 	0x844
    6e98:	0e72650c 	jal	9c99430 <_init-0x5eb66bd0>
    6e9c:	23020000 	addi	v0,t8,0
    6ea0:	04050018 	0x4050018
    6ea4:	00000e5d 	0xe5d
    6ea8:	000f1d02 	srl	v1,t7,0x14
    6eac:	fd670c00 	sdc3	$7,3072(t3)
    6eb0:	0b00000d 	j	c000034 <_init-0x5c7fffcc>
    6eb4:	00000ed4 	0xed4
    6eb8:	0c300b04 	jal	c02c10 <_init-0x67bfd3f0>
    6ebc:	00000206 	0x206
    6ec0:	11be0c00 	beq	t5,s8,9ec4 <_init-0x687f613c>
    6ec4:	0c010000 	jal	40000 <_init-0x687c0000>
    6ec8:	00000ff9 	0xff9
    6ecc:	0ea80c02 	jal	aa03008 <_init-0x5ddfcff8>
    6ed0:	0c030000 	jal	c0000 <_init-0x68740000>
    6ed4:	00000435 	0x435
    6ed8:	07db0c04 	0x7db0c04
    6edc:	0c050000 	jal	140000 <_init-0x686c0000>
    6ee0:	000009d6 	0x9d6
    6ee4:	0bcc0c06 	j	f303018 <_init-0x594fcfe8>
    6ee8:	0c070000 	jal	1c0000 <_init-0x68640000>
    6eec:	00000b8e 	0xb8e
    6ef0:	03910c08 	0x3910c08
    6ef4:	0c090000 	jal	240000 <_init-0x685c0000>
    6ef8:	00000d65 	0xd65
    6efc:	0ba70c0a 	j	e9c3028 <_init-0x59e3cfd8>
    6f00:	000b0000 	sll	zero,t3,0x0
    6f04:	00066202 	srl	t4,a2,0x8
    6f08:	833e0b00 	lb	s8,2816(t9)
    6f0c:	0b00000e 	j	c000038 <_init-0x5c7fffc8>
    6f10:	00000f24 	0xf24
    6f14:	0c4e0b04 	jal	1382c10 <_init-0x6747d3f0>
    6f18:	000008f6 	tne	zero,zero,0x23
    6f1c:	02400c00 	0x2400c00
    6f20:	0c010000 	jal	40000 <_init-0x687c0000>
    6f24:	00000894 	0x894
    6f28:	0a310c02 	j	8c43008 <_init-0x5fbbcff8>
    6f2c:	0c030000 	jal	c0000 <_init-0x68740000>
    6f30:	00000be3 	0xbe3
    6f34:	0da40c04 	jal	6903010 <_init-0x61efcff0>
    6f38:	0c050000 	jal	140000 <_init-0x686c0000>
    6f3c:	00000ef7 	0xef7
    6f40:	0f240c06 	jal	c903018 <_init-0x5befcfe8>
    6f44:	0c070000 	jal	1c0000 <_init-0x68640000>
    6f48:	00000f43 	sra	at,zero,0x1d
    6f4c:	114a0c08 	beq	t2,t2,9f70 <_init-0x687f6090>
    6f50:	00090000 	sll	zero,t1,0x0
    6f54:	00121802 	srl	v1,s2,0x0
    6f58:	df5a0b00 	ldc3	$26,2816(k0)
    6f5c:	1600000e 	bnez	s0,6f98 <_init-0x687f9068>
    6f60:	00000f88 	0xf88
    6f64:	00000cc3 	sra	at,zero,0x13
    6f68:	07610b14 	bgez	k1,9bbc <_init-0x687f6444>
    6f6c:	00001fcd 	break	0x0,0x7f
    6f70:	0ed4630b 	jal	b518c2c <_init-0x5d2e73d4>
    6f74:	23020000 	addi	v0,t8,0
    6f78:	0e280700 	jal	8a01c00 <_init-0x5fdfe400>
    6f7c:	660b0000 	0x660b0000
    6f80:	00000037 	0x37
    6f84:	07042302 	0x7042302
    6f88:	00002d24 	0x2d24
    6f8c:	0f9f690b 	jal	e7da42c <_init-0x5a025bd4>
    6f90:	23020000 	addi	v0,t8,0
    6f94:	10b90708 	beq	a1,t9,8bb8 <_init-0x687f7448>
    6f98:	6c0b0000 	0x6c0b0000
    6f9c:	00000fa5 	0xfa5
    6fa0:	180c2302 	0x180c2302
    6fa4:	00000457 	0x457
    6fa8:	02590701 	0x2590701
    6fac:	6f0b0000 	0x6f0b0000
    6fb0:	00000fab 	0xfab
    6fb4:	00102302 	srl	a0,s0,0xc
    6fb8:	000f9919 	0xf9919
    6fbc:	991a0100 	lwr	k0,256(t0)
    6fc0:	1a00000f 	blez	s0,7000 <_init-0x687f9000>
    6fc4:	00000f24 	0xf24
    6fc8:	2f040500 	sltiu	a0,t8,1280
    6fcc:	0500000f 	bltz	t0,700c <_init-0x687f8ff4>
    6fd0:	000f8804 	sllv	s1,t7,zero
    6fd4:	78040500 	0x78040500
    6fd8:	0500000e 	bltz	t0,7014 <_init-0x687f8fec>
    6fdc:	000f7304 	0xf7304
    6fe0:	0c740200 	jal	1d00800 <_init-0x66aff800>
    6fe4:	710b0000 	madd	t0,t3
    6fe8:	00000f2f 	0xf2f
    6fec:	0fb10405 	jal	ec41014 <_init-0x59bbefec>
    6ff0:	53160000 	beql	t8,s6,6ff4 <_init-0x687f900c>
    6ff4:	6b000010 	0x6b000010
    6ff8:	24000005 	li	zero,5
    6ffc:	11072112 	beq	t0,a3,f448 <_init-0x687f0bb8>
    7000:	12000006 	beqz	s0,701c <_init-0x687f8fe4>
    7004:	00003722 	0x3722
    7008:	00230200 	0x230200
    700c:	00046a07 	0x46a07
    7010:	37231200 	ori	v1,t9,0x1200
    7014:	02000000 	0x2000000
    7018:	2d070423 	sltiu	a3,t0,1059
    701c:	12000007 	beqz	s0,703c <_init-0x687f8fc4>
    7020:	00003724 	0x3724
    7024:	08230200 	j	8c0800 <_init-0x67f3f800>
    7028:	002d2407 	0x2d2407
    702c:	6a261200 	0x6a261200
    7030:	02000010 	0x2000010
    7034:	28070c23 	slti	a3,zero,3107
    7038:	1200000e 	beqz	s0,7074 <_init-0x687f8f8c>
    703c:	00003729 	0x3729
    7040:	10230200 	beq	at,v1,7844 <_init-0x687f87bc>
    7044:	0005b207 	0x5b207
    7048:	372a1200 	ori	t2,t9,0x1200
    704c:	02000000 	0x2000000
    7050:	cd071423 	pref	0x7,5155(t0)
    7054:	1200001f 	beqz	s0,70d4 <_init-0x687f8f2c>
    7058:	0000372b 	0x372b
    705c:	18230200 	0x18230200
    7060:	00054807 	srav	t1,a1,zero
    7064:	372c1200 	ori	t4,t9,0x1200
    7068:	02000000 	0x2000000
    706c:	b9181c23 	swr	t8,7203(t0)
    7070:	01000007 	srav	zero,zero,t0
    7074:	000cb607 	0xcb607
    7078:	702e1200 	0x702e1200
    707c:	02000010 	0x2000010
    7080:	19002023 	blez	t0,f110 <_init-0x687f0ef0>
    7084:	00001064 	0x1064
    7088:	10641a01 	beq	v1,a0,d890 <_init-0x687f2770>
    708c:	371a0000 	ori	k0,t8,0x0
    7090:	00000000 	nop
    7094:	0fc20405 	jal	f081014 <_init-0x5977efec>
    7098:	04050000 	0x4050000
    709c:	00001053 	0x1053
    70a0:	103e0405 	beq	at,s8,80b8 <_init-0x687f7f48>
    70a4:	86020000 	lh	v0,0(s0)
    70a8:	12000006 	beqz	s0,70c4 <_init-0x687f8f3c>
    70ac:	000fc22f 	0xfc22f
    70b0:	76040500 	jalx	8101400 <_init-0x606fec00>
    70b4:	0b000010 	j	c000040 <_init-0x5c7fffc0>
    70b8:	000010ae 	0x10ae
    70bc:	0c290d04 	jal	a43410 <_init-0x67dbcbf0>
    70c0:	00000b37 	0xb37
    70c4:	02210c00 	0x2210c00
    70c8:	0c010000 	jal	40000 <_init-0x687c0000>
    70cc:	000011af 	0x11af
    70d0:	09ac0c02 	j	6b03008 <_init-0x61cfcff8>
    70d4:	0c030000 	jal	c0000 <_init-0x68740000>
    70d8:	000007a2 	0x7a2
    70dc:	46020004 	c1	0x20004
    70e0:	0d000010 	jal	4000040 <_init-0x647fffc0>
    70e4:	0010872f 	0x10872f
    70e8:	10ce0b00 	beq	a2,t6,9cec <_init-0x687f6314>
    70ec:	0d040000 	jal	4100000 <_init-0x64700000>
    70f0:	034d0c4b 	0x34d0c4b
    70f4:	0c000000 	jal	0 <_init-0x68800000>
    70f8:	00000b01 	0xb01
    70fc:	ce020001 	pref	0x2,1(s0)
    7100:	0d00000c 	jal	4000030 <_init-0x647fffd0>
    7104:	0010b94e 	0x10b94e
    7108:	10ee0b00 	beq	a3,t6,9d0c <_init-0x687f62f4>
    710c:	0d040000 	jal	4100000 <_init-0x64700000>
    7110:	04e30c56 	bgezl	a3,a26c <_init-0x687f5d94>
    7114:	0c000000 	jal	0 <_init-0x68800000>
    7118:	000004b2 	tlt	zero,zero,0x12
    711c:	1d020001 	0x1d020001
    7120:	0d00000d 	jal	4000034 <_init-0x647fffcc>
    7124:	0010d959 	0x10d959
    7128:	11a00600 	beqz	t5,892c <_init-0x687f76d4>
    712c:	0da80000 	jal	6a00000 <_init-0x61e00000>
    7130:	0326077e 	0x326077e
    7134:	5f0d0000 	0x5f0d0000
    7138:	00000037 	0x37
    713c:	07002302 	bltz	t8,fd48 <_init-0x687f02b8>
    7140:	00000647 	0x647
    7144:	0037620d 	break	0x37,0x188
    7148:	23020000 	addi	v0,t8,0
    714c:	01fd0704 	0x1fd0704
    7150:	650d0000 	0x650d0000
    7154:	0000033e 	0x33e
    7158:	07082302 	tgei	t8,8962
    715c:	000002ed 	0x2ed
    7160:	0037680d 	break	0x37,0x1a0
    7164:	23020000 	addi	v0,t8,0
    7168:	11900710 	beq	t4,s0,8dac <_init-0x687f7254>
    716c:	6b0d0000 	0x6b0d0000
    7170:	00000037 	0x37
    7174:	07142302 	0x7142302
    7178:	0000069b 	0x69b
    717c:	11a06e0d 	beqz	t5,229b4 <_init-0x687dd64c>
    7180:	23020000 	addi	v0,t8,0
    7184:	042c0718 	teqi	at,1816
    7188:	710d0000 	madd	t0,t5
    718c:	000011b0 	tge	zero,zero,0x46
    7190:	07582302 	0x7582302
    7194:	00000284 	0x284
    7198:	0037740d 	break	0x37,0x1d0
    719c:	23030000 	addi	v1,t8,0
    71a0:	13070198 	beq	t8,a3,7804 <_init-0x687f87fc>
    71a4:	0d00000a 	jal	4000028 <_init-0x647fffd8>
    71a8:	00003777 	0x3777
    71ac:	9c230300 	0x9c230300
    71b0:	0ea00701 	jal	a801c04 <_init-0x5dffe3fc>
    71b4:	7a0d0000 	0x7a0d0000
    71b8:	00000037 	0x37
    71bc:	01a02303 	0x1a02303
    71c0:	00121307 	0x121307
    71c4:	377d0d00 	ori	sp,k1,0xd00
    71c8:	03000000 	0x3000000
    71cc:	0001a423 	0x1a423
    71d0:	0011b008 	0x11b008
    71d4:	00003700 	sll	a2,zero,0x1c
    71d8:	009a0a00 	0x9a0a00
    71dc:	000f0000 	sll	zero,t7,0x0
    71e0:	0011c008 	0x11c008
    71e4:	00003e00 	sll	a3,zero,0x18
    71e8:	009a0a00 	0x9a0a00
    71ec:	000f0000 	sll	zero,t7,0x0
    71f0:	0010be02 	srl	s7,s0,0x18
    71f4:	f97e0d00 	sdc2	$30,3328(t3)
    71f8:	06000010 	bltz	s0,723c <_init-0x687f8dc4>
    71fc:	000011f0 	tge	zero,zero,0x47
    7200:	07880d08 	tgei	gp,3336
    7204:	00000326 	0x326
    7208:	0037840d 	break	0x37,0x210
    720c:	23020000 	addi	v0,t8,0
    7210:	03650700 	0x3650700
    7214:	860d0000 	lh	t5,0(s0)
    7218:	000010ce 	0x10ce
    721c:	00042302 	srl	a0,a0,0xc
    7220:	0009ed02 	srl	sp,t1,0x14
    7224:	cb880d00 	lwc2	$8,3328(gp)
    7228:	06000011 	bltz	s0,7270 <_init-0x687f8d90>
    722c:	00001220 	0x1220
    7230:	07960d10 	0x7960d10
    7234:	00000326 	0x326
    7238:	0037920d 	break	0x37,0x248
    723c:	23020000 	addi	v0,t8,0
    7240:	090d0700 	j	4341c00 <_init-0x644be400>
    7244:	950d0000 	lhu	t5,0(t0)
    7248:	000003eb 	0x3eb
    724c:	00042302 	srl	a0,a0,0xc
    7250:	000aee02 	srl	sp,t2,0x18
    7254:	fb960d00 	sdc2	$22,3328(gp)
    7258:	06000011 	bltz	s0,72a0 <_init-0x687f8d60>
    725c:	00001250 	0x1250
    7260:	07a40d18 	0x7a40d18
    7264:	00000326 	0x326
    7268:	0037a00d 	break	0x37,0x280
    726c:	23020000 	addi	v0,t8,0
    7270:	0c300700 	jal	c01c00 <_init-0x67bfe400>
    7274:	a30d0000 	sb	t5,0(t8)
    7278:	000003ad 	0x3ad
    727c:	00042302 	srl	a0,a0,0xc
    7280:	000c0f02 	srl	at,t4,0x1c
    7284:	2ba40d00 	slti	a0,sp,3328
    7288:	16000012 	bnez	s0,72d4 <_init-0x687f8d2c>
    728c:	0000130c 	syscall	0x4c
    7290:	0000041a 	0x41a
    7294:	07ab0df4 	tltiu	sp,3572
    7298:	00000e28 	0xe28
    729c:	0037ad0d 	break	0x37,0x2b4
    72a0:	23020000 	addi	v0,t8,0
    72a4:	64681000 	0x64681000
    72a8:	b00d0063 	0xb00d0063
    72ac:	00000037 	0x37
    72b0:	07042302 	0x7042302
    72b4:	00000b0c 	syscall	0x2c
    72b8:	130cb30d 	beq	t8,t4,ffff3ef0 <emuqueue+0x977ebc4c>
    72bc:	23020000 	addi	v0,t8,0
    72c0:	063a0708 	0x63a0708
    72c4:	b60d0000 	0xb60d0000
    72c8:	000010ae 	0x10ae
    72cc:	070c2302 	teqi	t8,8962
    72d0:	00000588 	0x588
    72d4:	1220ba0d 	beqz	s1,ffff5b0c <emuqueue+0x977ed868>
    72d8:	23020000 	addi	v0,t8,0
    72dc:	08ab0710 	j	2ac1c40 <_init-0x65d3e3c0>
    72e0:	bb0d0000 	swr	t5,0(t8)
    72e4:	00001250 	0x1250
    72e8:	07202302 	bltz	t9,fef4 <_init-0x687f010c>
    72ec:	000004bf 	0x4bf
    72f0:	11c0bc0d 	beqz	t6,ffff6328 <emuqueue+0x977ee084>
    72f4:	23020000 	addi	v0,t8,0
    72f8:	09160738 	j	4581ce0 <_init-0x6427e320>
    72fc:	bd0d0000 	cache	0xd,0(t0)
    7300:	000011f0 	tge	zero,zero,0x47
    7304:	01e02303 	0x1e02303
    7308:	000e9607 	0xe9607
    730c:	eebf0d00 	swc3	$31,3328(s5)
    7310:	03000010 	0x3000010
    7314:	0701e823 	bgez	t8,13a4 <_init-0x687fec5c>
    7318:	00002d24 	0x2d24
    731c:	1329c20d 	beq	t9,t1,ffff7b54 <emuqueue+0x977ef8b0>
    7320:	23030000 	addi	v1,t8,0
    7324:	931801ec 	lbu	t8,492(t8)
    7328:	0100000d 	break	0x100
    732c:	00081807 	srav	v1,t0,zero
    7330:	2fc50d00 	sltiu	a1,s8,3328
    7334:	03000013 	mtlo	t8
    7338:	0001f023 	negu	s8,at
    733c:	097d0405 	j	5f41014 <_init-0x628befec>
    7340:	23190000 	addi	t9,t8,0
    7344:	01000013 	mtlo	t0
    7348:	0013231a 	0x13231a
    734c:	00371a00 	0x371a00
    7350:	05000000 	bltz	t0,7354 <_init-0x687f8cac>
    7354:	00125b04 	0x125b04
    7358:	12040500 	beq	s0,a0,875c <_init-0x687f78a4>
    735c:	05000013 	bltz	t0,73ac <_init-0x687f8c54>
    7360:	0012f604 	0x12f604
    7364:	04230200 	bgezl	at,7b68 <_init-0x687f8498>
    7368:	c60d0000 	lwc1	$f13,0(s0)
    736c:	0000125b 	0x125b
    7370:	13350405 	beq	t9,s5,8388 <_init-0x687f7c78>
    7374:	8b0b0000 	lwl	t3,0(t8)
    7378:	04000013 	bltz	zero,73c8 <_init-0x687f8c38>
    737c:	ab0c2408 	swl	t4,9224(t8)
    7380:	00000006 	srlv	zero,zero,zero
    7384:	000c9a0c 	syscall	0x3268
    7388:	510c0100 	beql	t0,t4,778c <_init-0x687f8874>
    738c:	02000005 	0x2000005
    7390:	0008d80c 	syscall	0x2360
    7394:	830c0300 	lb	t4,768(t8)
    7398:	04000009 	bltz	zero,73c0 <_init-0x687f8c40>
    739c:	0010160c 	syscall	0x4058
    73a0:	240c0500 	li	t4,1280
    73a4:	06000009 	bltz	s0,73cc <_init-0x687f8c34>
    73a8:	0006ce0c 	syscall	0x1b38
    73ac:	600c0700 	0x600c0700
    73b0:	0800000a 	j	28 <_init-0x687fffd8>
    73b4:	00113a0c 	syscall	0x44e8
    73b8:	02000900 	0x2000900
    73bc:	000009bb 	0x9bb
    73c0:	13463108 	beq	k0,a2,137e4 <_init-0x687ec81c>
    73c4:	ab0b0000 	swl	t3,0(t8)
    73c8:	04000013 	bltz	zero,7418 <_init-0x687f8be8>
    73cc:	a50c3908 	sh	t4,14600(t0)
    73d0:	00000002 	srl	zero,zero,0x0
    73d4:	0004f00c 	syscall	0x13c0
    73d8:	02000100 	0x2000100
    73dc:	00000e0e 	0xe0e
    73e0:	13963c08 	beq	gp,s6,16404 <_init-0x687e9bfc>
    73e4:	e9060000 	swc2	$6,0(t0)
    73e8:	0c000013 	jal	4c <_init-0x687fffb4>
    73ec:	44074e08 	0x44074e08
    73f0:	08000008 	j	20 <_init-0x687fffe0>
    73f4:	00138b46 	0x138b46
    73f8:	00230200 	0x230200
    73fc:	00109d07 	0x109d07
    7400:	5d480800 	0x5d480800
    7404:	02000001 	movf	zero,s0,$fcc0
    7408:	c7070423 	lwc1	$f7,1059(t8)
    740c:	08000014 	j	50 <_init-0x687fffb0>
    7410:	0000374b 	0x374b
    7414:	08230200 	j	8c0800 <_init-0x67f3f800>
    7418:	14b90200 	bne	a1,t9,7c1c <_init-0x687f83e4>
    741c:	4e080000 	lwxc1	$f0,t0(s0)
    7420:	000013b6 	tne	zero,zero,0x4e
    7424:	00146916 	0x146916
    7428:	00069200 	sll	s2,a2,0x8
    742c:	56081c00 	bnel	s0,t0,e430 <_init-0x687f1bd0>
    7430:	00084407 	0x84407
    7434:	8b580800 	lwl	t8,2048(k0)
    7438:	02000013 	mtlo	s0
    743c:	9d070023 	0x9d070023
    7440:	08000010 	j	40 <_init-0x687fffc0>
    7444:	00015d5a 	0x15d5a
    7448:	04230200 	bgezl	at,7c4c <_init-0x687f83b4>
    744c:	000cae07 	0xcae07
    7450:	375d0800 	ori	sp,k0,0x800
    7454:	02000000 	0x2000000
    7458:	e9070823 	swc2	$7,2083(t0)
    745c:	08000008 	j	20 <_init-0x687fffe0>
    7460:	0000375f 	0x375f
    7464:	0c230200 	jal	8c0800 <_init-0x67f3f800>
    7468:	002d2407 	0x2d2407
    746c:	80620800 	lb	v0,2048(v1)
    7470:	02000014 	0x2000014
    7474:	28071023 	slti	a3,zero,4131
    7478:	0800000e 	j	38 <_init-0x687fffc8>
    747c:	00003765 	0x3765
    7480:	14230200 	bne	at,v1,7c84 <_init-0x687f837c>
    7484:	00057718 	0x57718
    7488:	59070100 	0x59070100
    748c:	08000002 	j	8 <_init-0x687ffff8>
    7490:	00148668 	0x148668
    7494:	18230200 	0x18230200
    7498:	147a1900 	bne	v1,k0,d89c <_init-0x687f2764>
    749c:	1a010000 	0x1a010000
    74a0:	0000147a 	0x147a
    74a4:	0013ab1a 	0x13ab1a
    74a8:	04050000 	0x4050000
    74ac:	000013f4 	teq	zero,zero,0x4f
    74b0:	14690405 	bne	v1,t1,84c8 <_init-0x687f7b38>
    74b4:	04050000 	0x4050000
    74b8:	00001454 	0x1454
    74bc:	00056202 	srl	t4,a1,0x8
    74c0:	f4690800 	sdc1	$f9,2048(v1)
    74c4:	05000013 	bltz	t0,7514 <_init-0x687f8aec>
    74c8:	00148c04 	0x148c04
    74cc:	14e80b00 	bne	a3,t0,a0d0 <_init-0x687f5f30>
    74d0:	11040000 	beq	t0,a0,74d4 <_init-0x687f8b2c>
    74d4:	04cc0c2f 	teqi	a2,3119
    74d8:	0c000000 	jal	0 <_init-0x68800000>
    74dc:	00000e7f 	0xe7f
    74e0:	05090c01 	tgeiu	t0,3073
    74e4:	0c020000 	jal	80000 <_init-0x68780000>
    74e8:	00000b6e 	0xb6e
    74ec:	01db0c03 	0x1db0c03
    74f0:	0c040000 	jal	100000 <_init-0x68700000>
    74f4:	000002c7 	0x2c7
    74f8:	116e0c05 	beq	t3,t6,a510 <_init-0x687f5af0>
    74fc:	0c060000 	jal	180000 <_init-0x68680000>
    7500:	00000865 	0x865
    7504:	075f0c07 	synci	3079(k0)
    7508:	0c080000 	jal	200000 <_init-0x68600000>
    750c:	00000f9b 	0xf9b
    7510:	0a820c09 	j	a083024 <_init-0x5e77cfdc>
    7514:	000a0000 	sll	zero,t2,0x0
    7518:	00078002 	srl	s0,a3,0x0
    751c:	9d3b1100 	0x9d3b1100
    7520:	16000014 	bnez	s0,7574 <_init-0x687f8a8c>
    7524:	00001530 	tge	zero,zero,0x54
    7528:	00000aa9 	0xaa9
    752c:	0742110c 	bltzl	k0,b960 <_init-0x687f46a0>
    7530:	00000e28 	0xe28
    7534:	00374411 	0x374411
    7538:	23020000 	addi	v0,t8,0
    753c:	2d240700 	sltiu	a0,t1,1792
    7540:	47110000 	c1	0x1110000
    7544:	00001547 	0x1547
    7548:	18042302 	0x18042302
    754c:	00000a1b 	0xa1b
    7550:	0cbe0701 	jal	2f81c04 <_init-0x6587e3fc>
    7554:	4a110000 	c2	0x110000
    7558:	0000154d 	break	0x0,0x55
    755c:	00082302 	srl	a0,t0,0xc
    7560:	00154119 	0x154119
    7564:	411a0100 	0x411a0100
    7568:	1a000015 	blez	s0,75c0 <_init-0x687f8a40>
    756c:	000014e8 	0x14e8
    7570:	f3040500 	0xf3040500
    7574:	05000014 	bltz	t0,75c8 <_init-0x687f8a38>
    7578:	00153004 	sllv	a2,s5,zero
    757c:	1b040500 	0x1b040500
    7580:	02000015 	0x2000015
    7584:	00000ab2 	tlt	zero,zero,0x2a
    7588:	14f34c11 	bne	a3,s3,1a5d0 <_init-0x687e5a30>
    758c:	04050000 	0x4050000
    7590:	00001553 	0x1553
    7594:	0015790b 	0x15790b
    7598:	110a0400 	beq	t0,t2,859c <_init-0x687f7a64>
    759c:	0011ef0c 	syscall	0x47bc
    75a0:	0e0c0000 	jal	8300000 <_init-0x60500000>
    75a4:	01000007 	srav	zero,zero,t0
    75a8:	0ee80200 	jal	ba00800 <_init-0x5cdff800>
    75ac:	130a0000 	beq	t8,t2,75b0 <_init-0x687f8a50>
    75b0:	00001564 	0x1564
    75b4:	0015ef06 	0x15ef06
    75b8:	250a1c00 	addiu	t2,t0,7168
    75bc:	000df507 	0xdf507
    75c0:	ad190a00 	sw	t9,2560(t0)
    75c4:	0200000b 	movn	zero,s0,zero
    75c8:	ee070023 	swc3	$7,35(s0)
    75cc:	0a00000d 	j	8000034 <_init-0x607fffcc>
    75d0:	000bad1a 	0xbad1a
    75d4:	04230200 	bgezl	at,7dd8 <_init-0x687f8228>
    75d8:	000fc207 	0xfc207
    75dc:	c01c0a00 	ll	gp,2560(zero)
    75e0:	02000001 	movf	zero,s0,$fcc0
    75e4:	0e070823 	jal	81c208c <_init-0x6063df74>
    75e8:	0a000008 	j	8000020 <_init-0x607fffe0>
    75ec:	0001c01d 	0x1c01d
    75f0:	0c230200 	jal	8c0800 <_init-0x67f3f800>
    75f4:	000abb07 	0xabb07
    75f8:	37200a00 	ori	zero,t9,0xa00
    75fc:	02000000 	0x2000000
    7600:	1b071023 	0x1b071023
    7604:	0a000006 	j	8000018 <_init-0x607fffe8>
    7608:	00003721 	0x3721
    760c:	14230200 	bne	at,v1,7e10 <_init-0x687f81f0>
    7610:	000dcc07 	0xdcc07
    7614:	79240a00 	0x79240a00
    7618:	02000015 	0x2000015
    761c:	02001823 	subu	v1,s0,zero
    7620:	0000049a 	0x49a
    7624:	1584250a 	bne	t4,a0,10a50 <_init-0x687ef5b0>
    7628:	e7060000 	swc1	$f6,0(t8)
    762c:	a0000017 	sb	zero,23(zero)
    7630:	7b07600a 	0x7b07600a
    7634:	0a00000d 	j	8000034 <_init-0x607fffcc>
    7638:	0015ef2a 	0x15ef2a
    763c:	00230200 	0x230200
    7640:	000ebf07 	0xebf07
    7644:	372d0a00 	ori	t5,t9,0xa00
    7648:	02000000 	0x2000000
    764c:	b2071c23 	0xb2071c23
    7650:	0a000005 	j	8000014 <_init-0x607fffec>
    7654:	0017e730 	tge	zero,s7,0x39c
    7658:	20230200 	addi	v1,at,512
    765c:	0007d207 	0x7d207
    7660:	e7310a00 	swc1	$f17,2560(t9)
    7664:	02000017 	0x2000017
    7668:	56072423 	bnel	s0,a3,106f8 <_init-0x687ef908>
    766c:	0a00000a 	j	8000028 <_init-0x607fffd8>
    7670:	0017ed33 	tltu	zero,s7,0x3b4
    7674:	28230200 	slti	v1,at,512
    7678:	000f6a07 	0xf6a07
    767c:	ed350a00 	swc3	$21,2560(t1)
    7680:	02000017 	0x2000017
    7684:	27072c23 	addiu	a3,t8,11299
    7688:	0a000012 	j	8000048 <_init-0x607fffb8>
    768c:	0017ed36 	tne	zero,s7,0x3b4
    7690:	30230200 	andi	v1,at,0x200
    7694:	000f8407 	0xf8407
    7698:	ed370a00 	swc3	$23,2560(t1)
    769c:	02000017 	0x2000017
    76a0:	c4073423 	lwc1	$f7,13347(zero)
    76a4:	0a00000d 	j	8000034 <_init-0x607fffcc>
    76a8:	0017ed38 	0x17ed38
    76ac:	38230200 	xori	v1,at,0x200
    76b0:	000f6107 	0xf6107
    76b4:	ed390a00 	swc3	$25,2560(t1)
    76b8:	02000017 	0x2000017
    76bc:	4f073c23 	c3	0x1073c23
    76c0:	0a000007 	j	800001c <_init-0x607fffe4>
    76c4:	0017ed3b 	0x17ed3b
    76c8:	40230200 	0x40230200
    76cc:	00052807 	srav	a1,a1,zero
    76d0:	ed3c0a00 	swc3	$28,2560(t1)
    76d4:	02000017 	0x2000017
    76d8:	1c074423 	0x1c074423
    76dc:	0a00000b 	j	800002c <_init-0x607fffd4>
    76e0:	0017ed3d 	0x17ed3d
    76e4:	48230200 	0x48230200
    76e8:	0008bc07 	0x8bc07
    76ec:	ed3f0a00 	swc3	$31,2560(t1)
    76f0:	02000017 	0x2000017
    76f4:	5a074c23 	0x5a074c23
    76f8:	0a00000b 	j	800002c <_init-0x607fffd4>
    76fc:	0017ed40 	sll	sp,s7,0x15
    7700:	50230200 	beql	at,v1,7f04 <_init-0x687f80fc>
    7704:	00044c07 	0x44c07
    7708:	ed410a00 	swc3	$1,2560(t2)
    770c:	02000017 	0x2000017
    7710:	94075423 	lhu	a3,21539(zero)
    7714:	0a000009 	j	8000024 <_init-0x607fffdc>
    7718:	0017ed42 	srl	sp,s7,0x15
    771c:	58230200 	0x58230200
    7720:	0005d207 	0x5d207
    7724:	ed430a00 	swc3	$3,2560(t2)
    7728:	02000017 	0x2000017
    772c:	88075c23 	lwl	a3,23587(zero)
    7730:	0a00000d 	j	8000034 <_init-0x607fffcc>
    7734:	0017ed44 	0x17ed44
    7738:	60230200 	0x60230200
    773c:	000bc007 	srav	t8,t3,zero
    7740:	ed480a00 	swc3	$8,2560(t2)
    7744:	02000017 	0x2000017
    7748:	4b076423 	c2	0x1076423
    774c:	0a00000c 	j	8000030 <_init-0x607fffd0>
    7750:	0017ed4a 	0x17ed4a
    7754:	68230200 	0x68230200
    7758:	002eea07 	0x2eea07
    775c:	bc4c0a00 	cache	0xc,2560(v0)
    7760:	0200000f 	0x200000f
    7764:	30076c23 	andi	a3,zero,0x6c23
    7768:	0a000005 	j	8000014 <_init-0x607fffec>
    776c:	0013404d 	break	0x13,0x101
    7770:	70230200 	0x70230200
    7774:	002e6407 	0x2e6407
    7778:	9c4e0a00 	0x9c4e0a00
    777c:	0200000c 	syscall	0x80000
    7780:	64107423 	0x64107423
    7784:	0a00676c 	j	8019db0 <_init-0x607e6250>
    7788:	0014974f 	0x14974f
    778c:	78230200 	0x78230200
    7790:	00170c07 	0x170c07
    7794:	cb500a00 	lwc2	$16,2560(k0)
    7798:	0200000d 	break	0x200
    779c:	51077c23 	beql	t0,a3,2682c <_init-0x687d97d4>
    77a0:	0a00002c 	j	80000b0 <_init-0x607fff50>
    77a4:	00155e51 	0x155e51
    77a8:	80230300 	lb	v1,768(at)
    77ac:	2e080701 	sltiu	t0,s0,1793
    77b0:	520a0000 	beql	s0,t2,77b4 <_init-0x687f884c>
    77b4:	00001081 	0x1081
    77b8:	01842303 	0x1842303
    77bc:	00108e07 	0x108e07
    77c0:	ec530a00 	swc3	$19,2560(v0)
    77c4:	0300000d 	break	0x300
    77c8:	07018823 	bgez	t8,fffe9858 <emuqueue+0x977e15b4>
    77cc:	0000028c 	syscall	0xa
    77d0:	0037560a 	0x37560a
    77d4:	23030000 	addi	v1,t8,0
    77d8:	6107018c 	0x6107018c
    77dc:	0a000002 	j	8000008 <_init-0x607ffff8>
    77e0:	00003757 	0x3757
    77e4:	90230300 	lbu	v1,768(at)
    77e8:	026c0701 	0x26c0701
    77ec:	580a0000 	0x580a0000
    77f0:	00000037 	0x37
    77f4:	01942303 	0x1942303
    77f8:	0010b507 	0x10b507
    77fc:	375b0a00 	ori	k1,k0,0xa00
    7800:	03000000 	0x3000000
    7804:	07019823 	bgez	t8,fffed894 <emuqueue+0x977e55f0>
    7808:	00001055 	0x1055
    780c:	00375e0a 	0x375e0a
    7810:	23030000 	addi	v1,t8,0
    7814:	0500019c 	bltz	t0,7e88 <_init-0x687f8178>
    7818:	000adf04 	0xadf04
    781c:	6d040500 	0x6d040500
    7820:	0200000a 	movz	zero,s0,zero
    7824:	000010f4 	teq	zero,zero,0x43
    7828:	15fa600a 	bne	t7,k0,1f854 <_init-0x687e07ac>
    782c:	501c0000 	beql	zero,gp,7830 <_init-0x687f87d0>
    7830:	01000022 	sub	zero,t0,zero
    7834:	01c0014b 	0x1c0014b
    7838:	22a80000 	addi	t0,s5,0
    783c:	22fc6880 	addi	gp,s7,26752
    7840:	6d016880 	0x6d016880
    7844:	0027a81c 	0x27a81c
    7848:	01570100 	0x1570100
    784c:	000001c0 	sll	zero,zero,0x7
    7850:	688022fc 	0x688022fc
    7854:	68802338 	0x68802338
    7858:	531d6d01 	beql	t8,sp,22c60 <_init-0x687dd3a0>
    785c:	01000018 	mult	t0,zero
    7860:	00002449 	0x2449
    7864:	37016401 	ori	at,t8,0x6401
    7868:	38000000 	xori	zero,zero,0x0
    786c:	5c688023 	0x5c688023
    7870:	01688024 	and	s0,t3,t0
    7874:	06771e6d 	0x6771e6d
    7878:	63010000 	0x63010000
    787c:	0000003e 	0x3e
    7880:	1d006001 	bgtz	t0,1f888 <_init-0x687e0778>
    7884:	0000187c 	0x187c
    7888:	00202601 	0x202601
    788c:	01940100 	0x1940100
    7890:	0000003e 	0x3e
    7894:	6880245c 	0x6880245c
    7898:	68802520 	0x68802520
    789c:	381e6d01 	xori	s8,zero,0x6d01
    78a0:	01000020 	add	zero,t0,zero
    78a4:	00003793 	0x3793
    78a8:	00540100 	0x540100
    78ac:	0018b61f 	0x18b61f
    78b0:	28c20100 	slti	v0,a2,256
    78b4:	0d010000 	jal	4040000 <_init-0x647c0000>
    78b8:	00370101 	0x370101
    78bc:	25200000 	addiu	zero,t1,0
    78c0:	25946880 	addiu	s4,t4,26752
    78c4:	6d016880 	0x6d016880
    78c8:	001fc420 	0x1fc420
    78cc:	010c0100 	0x10c0100
    78d0:	000018b6 	tne	zero,zero,0x62
    78d4:	6d216001 	0x6d216001
    78d8:	01006773 	tltu	t0,zero,0x19d
    78dc:	0198010e 	0x198010e
    78e0:	91020000 	lbu	v0,0(t0)
    78e4:	04050010 	0x4050010
    78e8:	00000198 	0x198
    78ec:	0019141d 	0x19141d
    78f0:	26520100 	addiu	s2,s2,256
    78f4:	36010000 	ori	at,s0,0x0
    78f8:	0001c001 	movt	t8,zero,$fcc0
    78fc:	80259400 	lb	a1,-27648(at)
    7900:	8028bc68 	lb	t0,-17304(at)
    7904:	226d0168 	addi	t5,s3,360
    7908:	00001914 	0x1914
    790c:	688025dc 	0x688025dc
    7910:	688027b4 	0x688027b4
    7914:	00192523 	0x192523
    7918:	01002400 	0x1002400
    791c:	30250000 	andi	a1,at,0x0
    7920:	02000019 	multu	s0,zero
    7924:	3b251891 	xori	a1,t9,0x1891
    7928:	03000019 	multu	t8,zero
    792c:	2508d891 	addiu	t0,t0,-10095
    7930:	00001946 	0x1946
    7934:	08a09103 	j	282440c <_init-0x65fdbbf4>
    7938:	00195125 	0x195125
    793c:	b8910300 	swr	s1,768(a0)
    7940:	00000008 	jr	zero
    7944:	00196726 	0x196726
    7948:	001de200 	sll	gp,sp,0x8
    794c:	01bf0100 	0x1bf0100
    7950:	000001c0 	sll	zero,zero,0x7
    7954:	23d82701 	addi	t8,s8,9985
    7958:	be010000 	cache	0x1,0(s0)
    795c:	00001967 	0x1967
    7960:	67736d28 	0x67736d28
    7964:	98c00100 	lwr	zero,256(a2)
    7968:	29000001 	slti	zero,t0,1
    796c:	00002038 	0x2038
    7970:	0037c101 	0x37c101
    7974:	e3290000 	sc	t1,0(t9)
    7978:	01000012 	0x1000012
    797c:	00034ec2 	srl	t1,v1,0x1b
    7980:	27ca2900 	addiu	t2,s8,10496
    7984:	c3010000 	ll	at,0(t8)
    7988:	000000d4 	0xd4
    798c:	0016832a 	0x16832a
    7990:	00197d00 	sll	t7,t9,0x14
    7994:	05000100 	bltz	t0,7d98 <_init-0x687f8268>
    7998:	0000e404 	0xe404
    799c:	197d0800 	0x197d0800
    79a0:	02330000 	0x2330000
    79a4:	9a0a0000 	lwr	t2,0(s0)
    79a8:	19000000 	blez	t0,79ac <_init-0x687f8654>
    79ac:	196d1500 	0x196d1500
    79b0:	e62b0000 	swc1	$f11,0(s1)
    79b4:	01000019 	multu	t0,zero
    79b8:	00001f1d 	0x1f1d
    79bc:	01019901 	0x1019901
    79c0:	688028bc 	0x688028bc
    79c4:	68802920 	0x68802920
    79c8:	b3206d01 	0xb3206d01
    79cc:	01000013 	mtlo	t0
    79d0:	00370198 	0x370198
    79d4:	91030000 	lbu	v1,0(t0)
    79d8:	6d2110b0 	0x6d2110b0
    79dc:	01006773 	tltu	t0,zero,0x19d
    79e0:	080d019a 	j	340668 <_init-0x684bf998>
    79e4:	91020000 	lbu	v0,0(t0)
    79e8:	30312c10 	andi	s1,at,0x2c10
    79ec:	9b010000 	lwr	at,0(t8)
    79f0:	00025301 	0x25301
    79f4:	98910300 	lwr	s1,768(a0)
    79f8:	21252c08 	addi	a1,t1,11272
    79fc:	9c010000 	0x9c010000
    7a00:	00087601 	0x87601
    7a04:	a0910300 	sb	s1,768(a0)
    7a08:	03132d08 	0x3132d08
    7a0c:	9d010000 	0x9d010000
    7a10:	0001c001 	movt	t8,zero,$fcc0
    7a14:	292b0000 	slti	t3,t1,0
    7a18:	0100001a 	div	zero,t0,zero
    7a1c:	00001b9c 	0x1b9c
    7a20:	0101ae01 	0x101ae01
    7a24:	68802920 	0x68802920
    7a28:	68802a20 	0x68802a20
    7a2c:	de2d6d01 	ldc3	$13,27905(s1)
    7a30:	01000028 	0x1000028
    7a34:	02dc01af 	0x2dc01af
    7a38:	6f210000 	0x6f210000
    7a3c:	b001006e 	0xb001006e
    7a40:	0001c001 	movt	t8,zero,$fcc0
    7a44:	98910300 	lwr	s1,768(a0)
    7a48:	736d2108 	0x736d2108
    7a4c:	b1010067 	0xb1010067
    7a50:	00080d01 	0x80d01
    7a54:	10910200 	beq	a0,s1,8258 <_init-0x687f7da8>
    7a58:	1a6e2b00 	0x1a6e2b00
    7a5c:	3d010000 	0x3d010000
    7a60:	01000027 	nor	zero,t0,zero
    7a64:	200101e1 	addi	at,zero,481
    7a68:	0868802a 	j	1a200a8 <_init-0x66ddff58>
    7a6c:	0168802b 	sltu	s0,t3,t0
    7a70:	6468216d 	0x6468216d
    7a74:	e2010063 	sc	at,99(s0)
    7a78:	00003701 	0x3701
    7a7c:	21600100 	addi	zero,t3,256
    7a80:	01006e6f 	0x1006e6f
    7a84:	01c001e3 	0x1c001e3
    7a88:	91030000 	lbu	v1,0(t0)
    7a8c:	6d210898 	0x6d210898
    7a90:	01006773 	tltu	t0,zero,0x19d
    7a94:	080d01e4 	j	340790 <_init-0x684bf870>
    7a98:	91020000 	lbu	v0,0(t0)
    7a9c:	952b0010 	lhu	t3,16(t1)
    7aa0:	0100001a 	div	zero,t0,zero
    7aa4:	00002136 	tne	zero,zero,0x84
    7aa8:	01021301 	0x1021301
    7aac:	68802b08 	0x68802b08
    7ab0:	68802be4 	0x68802be4
    7ab4:	de2c6d01 	ldc3	$12,27905(s1)
    7ab8:	01000028 	0x1000028
    7abc:	02dc0214 	0x2dc0214
    7ac0:	52010000 	beql	s0,at,7ac4 <_init-0x687f853c>
    7ac4:	1acd1f00 	0x1acd1f00
    7ac8:	54010000 	bnel	zero,at,7acc <_init-0x687f8534>
    7acc:	01000027 	nor	zero,t0,zero
    7ad0:	37010234 	ori	at,t8,0x234
    7ad4:	e4000000 	swc1	$f0,0(zero)
    7ad8:	1868802b 	0x1868802b
    7adc:	0168802c 	0x168802c
    7ae0:	736d216d 	0x736d216d
    7ae4:	35010067 	ori	at,t0,0x67
    7ae8:	00019802 	srl	s3,at,0x0
    7aec:	10910200 	beq	a0,s1,82f0 <_init-0x687f7d10>
    7af0:	0003132d 	0x3132d
    7af4:	02360100 	0x2360100
    7af8:	00000037 	0x37
    7afc:	1b051f00 	0x1b051f00
    7b00:	a2010000 	sb	at,0(s0)
    7b04:	01000024 	and	zero,t0,zero
    7b08:	37010242 	ori	at,t8,0x242
    7b0c:	18000000 	blez	zero,7b10 <_init-0x687f84f0>
    7b10:	5068802c 	beql	v1,t0,fffe7bc4 <emuqueue+0x977df920>
    7b14:	0168802c 	0x168802c
    7b18:	736d216d 	0x736d216d
    7b1c:	43010067 	c0	0x1010067
    7b20:	00019802 	srl	s3,at,0x0
    7b24:	10910200 	beq	a0,s1,8328 <_init-0x687f7cd8>
    7b28:	0003132d 	0x3132d
    7b2c:	02440100 	0x2440100
    7b30:	00000037 	0x37
    7b34:	1b3d1f00 	0x1b3d1f00
    7b38:	b5010000 	0xb5010000
    7b3c:	01000026 	xor	zero,t0,zero
    7b40:	37010253 	ori	at,t8,0x253
    7b44:	50000000 	beqzl	zero,7b48 <_init-0x687f84b8>
    7b48:	c068802c 	ll	t0,-32724(v1)
    7b4c:	0168802c 	0x168802c
    7b50:	736d216d 	0x736d216d
    7b54:	54010067 	bnel	zero,at,7cf4 <_init-0x687f830c>
    7b58:	00019802 	srl	s3,at,0x0
    7b5c:	10910200 	beq	a0,s1,8360 <_init-0x687f7ca0>
    7b60:	0003132d 	0x3132d
    7b64:	02550100 	0x2550100
    7b68:	00000037 	0x37
    7b6c:	1b831f00 	0x1b831f00
    7b70:	2d010000 	sltiu	at,t0,0
    7b74:	0100002a 	slt	zero,t0,zero
    7b78:	3701026e 	ori	at,t8,0x26e
    7b7c:	c0000000 	ll	zero,0(zero)
    7b80:	3468802c 	ori	t0,v1,0x802c
    7b84:	0168802d 	0x168802d
    7b88:	2761206d 	addiu	at,k1,8301
    7b8c:	6d010000 	0x6d010000
    7b90:	00022d02 	srl	a1,v0,0x14
    7b94:	21600100 	addi	zero,t3,256
    7b98:	0067736d 	0x67736d
    7b9c:	98026f01 	lwr	v0,28417(zero)
    7ba0:	02000001 	movf	zero,s0,$fcc0
    7ba4:	132d1091 	beq	t9,t5,bdec <_init-0x687f4214>
    7ba8:	01000003 	0x1000003
    7bac:	00370270 	tge	at,s7,0x9
    7bb0:	1f000000 	bgtz	t8,7bb4 <_init-0x687f844c>
    7bb4:	00001bcb 	0x1bcb
    7bb8:	00253601 	0x253601
    7bbc:	02840100 	0x2840100
    7bc0:	00003701 	0x3701
    7bc4:	802d3400 	lb	t5,13312(at)
    7bc8:	802d9468 	lb	t5,-27544(at)
    7bcc:	216d0168 	addi	t5,t3,360
    7bd0:	0067736d 	0x67736d
    7bd4:	98028501 	lwr	v0,-31487(zero)
    7bd8:	02000001 	movf	zero,s0,$fcc0
    7bdc:	8c2c1091 	lw	t4,4241(at)
    7be0:	01000029 	0x1000029
    7be4:	01980285 	0x1980285
    7be8:	91030000 	lbu	v1,0(t0)
    7bec:	132d0898 	beq	t9,t5,9e50 <_init-0x687f61b0>
    7bf0:	01000003 	0x1000003
    7bf4:	00370286 	0x370286
    7bf8:	1f000000 	bgtz	t8,7bfc <_init-0x687f8404>
    7bfc:	00001c03 	sra	v1,zero,0x10
    7c00:	001f0001 	0x1f0001
    7c04:	02970100 	0x2970100
    7c08:	00003701 	0x3701
    7c0c:	802d9400 	lb	t5,-27648(at)
    7c10:	802dc868 	lb	t5,-14232(at)
    7c14:	216d0168 	addi	t5,t3,360
    7c18:	0067736d 	0x67736d
    7c1c:	98029801 	lwr	v0,-26623(zero)
    7c20:	02000001 	movf	zero,s0,$fcc0
    7c24:	132d1091 	beq	t9,t5,be6c <_init-0x687f4194>
    7c28:	01000003 	0x1000003
    7c2c:	00370299 	0x370299
    7c30:	1f000000 	bgtz	t8,7c34 <_init-0x687f83cc>
    7c34:	00001c4d 	break	0x0,0x71
    7c38:	00246201 	0x246201
    7c3c:	02a30100 	0x2a30100
    7c40:	00003701 	0x3701
    7c44:	802dc800 	lb	t5,-14336(at)
    7c48:	802eac68 	lb	t6,-21400(at)
    7c4c:	2c6d0168 	sltiu	t5,v1,360
    7c50:	0000036c 	0x36c
    7c54:	3702a401 	ori	v0,t8,0xa401
    7c58:	03000000 	0x3000000
    7c5c:	21089891 	addi	t0,t0,-26479
    7c60:	0067736d 	0x67736d
    7c64:	9802a501 	lwr	v0,-23295(zero)
    7c68:	02000001 	movf	zero,s0,$fcc0
    7c6c:	132c1091 	beq	t9,t4,beb4 <_init-0x687f414c>
    7c70:	01000003 	0x1000003
    7c74:	003702a6 	0x3702a6
    7c78:	60010000 	0x60010000
    7c7c:	1ca71f00 	0x1ca71f00
    7c80:	f8010000 	sdc2	$1,0(zero)
    7c84:	01000025 	move	zero,t0
    7c88:	370102c6 	ori	at,t8,0x2c6
    7c8c:	ac000000 	sw	zero,0(zero)
    7c90:	7468802e 	jalx	1a200b8 <_init-0x66ddff48>
    7c94:	0168802f 	0x168802f
    7c98:	2038206d 	addi	t8,at,8301
    7c9c:	c5010000 	lwc1	$f1,0(t0)
    7ca0:	00003702 	srl	a2,zero,0x1c
    7ca4:	b0910300 	0xb0910300
    7ca8:	736d2108 	0x736d2108
    7cac:	c7010067 	lwc1	$f1,103(t8)
    7cb0:	00019802 	srl	s3,at,0x0
    7cb4:	18910200 	0x18910200
    7cb8:	0003132c 	0x3132c
    7cbc:	02c80100 	0x2c80100
    7cc0:	00000037 	0x37
    7cc4:	832e6101 	lb	t6,24833(t9)
    7cc8:	b7000016 	0xb7000016
    7ccc:	0100001c 	0x100001c
    7cd0:	61500305 	0x61500305
    7cd4:	08006880 	j	1a200 <_init-0x687e5e00>
    7cd8:	00001cb7 	0x1cb7
    7cdc:	00000233 	tltu	zero,zero,0x8
    7ce0:	00009a0a 	0x9a0a
    7ce4:	15000d00 	bnez	t0,b0e8 <_init-0x687f4f18>
    7ce8:	00001ca7 	0x1ca7
    7cec:	001d161f 	0x1d161f
    7cf0:	28f00100 	slti	s0,a3,256
    7cf4:	db010000 	ldc2	$1,0(t8)
    7cf8:	00370102 	ror	zero,s7,0x4
    7cfc:	2f740000 	sltiu	s4,k1,0
    7d00:	303c6880 	andi	gp,at,0x6880
    7d04:	6d016880 	0x6d016880
    7d08:	00203820 	add	a3,at,zero
    7d0c:	02da0100 	0x2da0100
    7d10:	00000037 	0x37
    7d14:	08b09103 	j	2c2440c <_init-0x65bdbbf4>
    7d18:	67736d21 	0x67736d21
    7d1c:	02dc0100 	0x2dc0100
    7d20:	00000198 	0x198
    7d24:	2c189102 	sltiu	t8,zero,-28414
    7d28:	00000313 	0x313
    7d2c:	3702dd01 	ori	v0,t8,0xdd01
    7d30:	01000000 	0x1000000
    7d34:	16832e61 	bne	s4,v1,136bc <_init-0x687ec944>
    7d38:	1d260000 	0x1d260000
    7d3c:	05010000 	bgez	t0,7d40 <_init-0x687f82c0>
    7d40:	80616003 	lb	at,24579(v1)
    7d44:	26080068 	addiu	t0,s0,104
    7d48:	3300001d 	andi	zero,t8,0x1d
    7d4c:	0a000002 	j	8000008 <_init-0x607ffff8>
    7d50:	0000009a 	0x9a
    7d54:	16150011 	bne	s0,s5,7d9c <_init-0x687f8264>
    7d58:	1f00001d 	bgtz	t8,7dd0 <_init-0x687f8230>
    7d5c:	00001d71 	tgeu	zero,zero,0x75
    7d60:	0027bb01 	0x27bb01
    7d64:	02f00100 	0x2f00100
    7d68:	00003701 	0x3701
    7d6c:	80303c00 	lb	s0,15360(at)
    7d70:	80318868 	lb	s1,-30616(at)
    7d74:	216d0168 	addi	t5,t3,360
    7d78:	0067736d 	0x67736d
    7d7c:	9802f101 	lwr	v0,-3839(zero)
    7d80:	02000001 	movf	zero,s0,$fcc0
    7d84:	132c1091 	beq	t9,t4,bfcc <_init-0x687f4034>
    7d88:	01000003 	0x1000003
    7d8c:	003702f2 	tlt	at,s7,0xb
    7d90:	62010000 	0x62010000
    7d94:	0012e32d 	0x12e32d
    7d98:	02f30100 	0x2f30100
    7d9c:	0000003e 	0x3e
    7da0:	1da62f00 	0x1da62f00
    7da4:	16210000 	bne	s1,at,7da8 <_init-0x687f8258>
    7da8:	19010000 	0x19010000
    7dac:	31880103 	andi	t0,t4,0x103
    7db0:	32106880 	andi	s0,s0,0x6880
    7db4:	6d016880 	0x6d016880
    7db8:	002ed820 	add	k1,at,t6
    7dbc:	03180100 	0x3180100
    7dc0:	000017ed 	0x17ed
    7dc4:	eb2c5401 	swc2	$12,21505(t9)
    7dc8:	01000013 	mtlo	t0
    7dcc:	13e9031a 	beq	ra,t1,8a38 <_init-0x687f75c8>
    7dd0:	91020000 	lbu	v0,0(t0)
    7dd4:	ec1f0010 	swc3	$31,16(zero)
    7dd8:	0100001d 	0x100001d
    7ddc:	00002785 	0x2785
    7de0:	01012201 	0x1012201
    7de4:	00000030 	tge	zero,zero
    7de8:	68803210 	0x68803210
    7dec:	688032f8 	0x688032f8
    7df0:	4a206d01 	c2	0x206d01
    7df4:	0100001c 	0x100001c
    7df8:	01a30121 	0x1a30121
    7dfc:	54010000 	bnel	zero,at,7e00 <_init-0x687f8200>
    7e00:	72726530 	0x72726530
    7e04:	01230100 	0x1230100
    7e08:	00000037 	0x37
    7e0c:	67736d21 	0x67736d21
    7e10:	01240100 	0x1240100
    7e14:	00000198 	0x198
    7e18:	00109102 	srl	s2,s0,0x4
    7e1c:	001e202f 	0x1e202f
    7e20:	00164f00 	sll	t1,s6,0x1c
    7e24:	03260100 	0x3260100
    7e28:	8032f801 	lb	s2,-2047(at)
    7e2c:	80334868 	lb	s3,18536(at)
    7e30:	316d0168 	andi	t5,t3,0x168
    7e34:	00676c64 	0x676c64
    7e38:	97032501 	lhu	v1,9473(t8)
    7e3c:	01000014 	0x1000014
    7e40:	14482054 	bne	v0,t0,ff94 <_init-0x687f006c>
    7e44:	25010000 	addiu	at,t0,0
    7e48:	0013ab03 	sra	s5,s3,0xc
    7e4c:	00550100 	0x550100
    7e50:	00003032 	tlt	zero,zero,0xc0
    7e54:	7ca90900 	ext	t1,a1,0x4,0x2
    7e58:	01000002 	0x1000002
    7e5c:	73640305 	0x73640305
    7e60:	74326880 	jalx	c9a200 <_init-0x67b65e00>
    7e64:	09000000 	j	4000000 <_init-0x64800000>
    7e68:	0002a3b5 	0x2a3b5
    7e6c:	03050100 	0x3050100
    7e70:	68807368 	0x68807368
    7e74:	000a0233 	tltu	zero,t2,0x8
    7e78:	510f0100 	beql	t0,t7,827c <_init-0x687f7d84>
    7e7c:	0100001e 	0x100001e
    7e80:	f3040501 	0xf3040501
    7e84:	33000017 	andi	zero,t8,0x17
    7e88:	000011e2 	0x11e2
    7e8c:	00371001 	0x371001
    7e90:	01010000 	0x1010000
    7e94:	00073733 	tltu	zero,a3,0xdc
    7e98:	89110100 	lwl	s1,256(t0)
    7e9c:	01000000 	0x1000000
    7ea0:	1a923301 	0x1a923301
    7ea4:	12010000 	beq	s0,at,7ea8 <_init-0x687f8158>
    7ea8:	00000037 	0x37
    7eac:	9b320101 	lwr	s2,257(t9)
    7eb0:	01000025 	move	zero,t0
    7eb4:	00007e15 	0x7e15
    7eb8:	03050100 	0x3050100
    7ebc:	688082a4 	0x688082a4
    7ec0:	000e6932 	tlt	zero,t6,0x1a4
    7ec4:	0a160100 	j	8580400 <_init-0x6027fc00>
    7ec8:	01000001 	movf	zero,t0,$fcc0
    7ecc:	82780305 	lb	t8,773(s3)
    7ed0:	c3326880 	ll	s2,26752(t9)
    7ed4:	01000013 	mtlo	t0
    7ed8:	0000e417 	0xe417
    7edc:	03050100 	0x3050100
    7ee0:	6880827c 	0x6880827c
    7ee4:	00054832 	tlt	zero,a1,0x120
    7ee8:	37180100 	ori	t8,t8,0x100
    7eec:	01000000 	0x1000000
    7ef0:	73500305 	0x73500305
    7ef4:	6f346880 	0x6f346880
    7ef8:	01000020 	add	zero,t0,zero
    7efc:	001ed71c 	0x1ed71c
    7f00:	1c030500 	0x1c030500
    7f04:	15688061 	bne	t3,t0,fffe808c <emuqueue+0x977dfde8>
    7f08:	00000221 	0x221
    7f0c:	00206d34 	teq	at,zero,0x1b4
    7f10:	d71e0100 	ldc1	$f30,256(t8)
    7f14:	0500001e 	bltz	t0,7f90 <_init-0x687f8070>
    7f18:	80612c03 	lb	at,11267(v1)
    7f1c:	22413468 	addi	at,s2,13416
    7f20:	20010000 	addi	at,zero,0
    7f24:	00001ed7 	0x1ed7
    7f28:	61240305 	0x61240305
    7f2c:	df006880 	ldc3	$0,26752(t8)
    7f30:	02000021 	move	zero,s0
    7f34:	000e9600 	sll	s2,t6,0x18
    7f38:	8a010400 	lwl	at,1024(s0)
    7f3c:	d8000013 	ldc2	$0,19(zero)
    7f40:	48688046 	mfhc2	t0,0x8046
    7f44:	89688033 	lwl	t0,-32717(t3)
    7f48:	01000000 	0x1000000
    7f4c:	00002c10 	0x2c10
    7f50:	000000dc 	0xdc
    7f54:	00000002 	srl	zero,zero,0x0
    7f58:	03080100 	0x3080100
    7f5c:	00bb0204 	0xbb0204
    7f60:	07020000 	bltzl	t8,7f64 <_init-0x687f809c>
    7f64:	00018c02 	srl	s1,at,0x10
    7f68:	02070400 	0x2070400
    7f6c:	00000191 	0x191
    7f70:	04040704 	0x4040704
    7f74:	0000003c 	0x3c
    7f78:	00005e05 	0x5e05
    7f7c:	26020400 	addiu	v0,s0,1024
    7f80:	0003c206 	0x3c206
    7f84:	d6060000 	ldc1	$f6,0(s0)
    7f88:	0100000d 	break	0x100
    7f8c:	04860700 	0x4860700
    7f90:	29020000 	slti	v0,t0,0
    7f94:	00000049 	0x49
    7f98:	746e6908 	jalx	1b9a420 <_init-0x66c65be0>
    7f9c:	02050400 	0x2050400
    7fa0:	000001b5 	0x1b5
    7fa4:	8c020508 	lw	v0,1288(zero)
    7fa8:	04000001 	bltz	zero,7fb0 <_init-0x687f8050>
    7fac:	28cd0707 	slti	t5,a2,1799
    7fb0:	3b020000 	xori	v0,t8,0x0
    7fb4:	00000069 	0x69
    7fb8:	0001ba02 	srl	s7,at,0x8
    7fbc:	02050400 	0x2050400
    7fc0:	00000009 	jalr	zero,zero
    7fc4:	49020601 	bc2fl	97cc <_init-0x687f6834>
    7fc8:	02000001 	movf	zero,s0,$fcc0
    7fcc:	01870205 	0x1870205
    7fd0:	07080000 	tgei	t8,0
    7fd4:	00ab0404 	0xab0404
    7fd8:	90090000 	lbu	t1,0(zero)
    7fdc:	04000000 	bltz	zero,7fe0 <_init-0x687f8020>
    7fe0:	00009004 	sllv	s2,zero,zero
    7fe4:	00c60a00 	0xc60a00
    7fe8:	00250000 	0x250000
    7fec:	350b0000 	ori	t3,t0,0x0
    7ff0:	0f000000 	jal	c000000 <_init-0x5c800000>
    7ff4:	00ed0500 	0xed0500
    7ff8:	18040000 	0x18040000
    7ffc:	015306a3 	0x15306a3
    8000:	06000000 	bltz	s0,8004 <_init-0x687f7ffc>
    8004:	00000131 	tgeu	zero,zero,0x4
    8008:	005b0601 	0x5b0601
    800c:	06020000 	bltzl	s0,8010 <_init-0x687f7ff0>
    8010:	0000001a 	div	zero,zero,zero
    8014:	00450603 	0x450603
    8018:	00000000 	nop
    801c:	00010205 	0x10205
    8020:	b0180400 	0xb0180400
    8024:	0001c306 	0x1c306
    8028:	9e060000 	0x9e060000
    802c:	01000001 	movf	zero,t0,$fcc0
    8030:	25040400 	addiu	a0,t0,1024
    8034:	05000000 	bltz	t0,8038 <_init-0x687f7fc8>
    8038:	0000012c 	0x12c
    803c:	062d1204 	0x62d1204
    8040:	0000212b 	0x212b
    8044:	2a360600 	slti	s6,s1,1536
    8048:	00da0000 	0xda0000
    804c:	001f3306 	0x1f3306
    8050:	0601b400 	bgez	s0,ffff5054 <emuqueue+0x977ecdb0>
    8054:	00001c6c 	0x1c6c
    8058:	0700028e 	bltz	t8,8a94 <_init-0x687f756c>
    805c:	00001d04 	0x1d04
    8060:	01083612 	0x1083612
    8064:	04040000 	0x4040000
    8068:	00000069 	0x69
    806c:	00014e0a 	0x14e0a
    8070:	00009000 	sll	s2,zero,0x0
    8074:	00350c00 	0x350c00
    8078:	03ff0000 	0x3ff0000
    807c:	01690500 	0x1690500
    8080:	19040000 	0x19040000
    8084:	0357066d 	0x357066d
    8088:	06000000 	bltz	s0,808c <_init-0x687f7f74>
    808c:	00000d01 	0xd01
    8090:	082e0601 	j	b81804 <_init-0x67c7e7fc>
    8094:	00020000 	sll	zero,v0,0x0
    8098:	00031a07 	0x31a07
    809c:	4e721900 	c3	0x721900
    80a0:	0d000001 	jal	4000004 <_init-0x647ffffc>
    80a4:	000001b5 	0x1b5
    80a8:	0e790e0c 	jal	9e43830 <_init-0x5e9bc7d0>
    80ac:	00000306 	0x306
    80b0:	002e720e 	0x2e720e
    80b4:	23020000 	addi	v0,t8,0
    80b8:	07b30e00 	bgezall	sp,b8bc <_init-0x687f4744>
    80bc:	740e0000 	jalx	380000 <_init-0x68480000>
    80c0:	0000002e 	0x2e
    80c4:	0e022302 	jal	8088c08 <_init-0x607773f8>
    80c8:	000002f8 	0x2f8
    80cc:	002e760e 	0x2e760e
    80d0:	23020000 	addi	v0,t8,0
    80d4:	0e220e04 	jal	8883810 <_init-0x5ff7c7f0>
    80d8:	780e0000 	0x780e0000
    80dc:	000001b5 	0x1b5
    80e0:	00082302 	srl	a0,t0,0xc
    80e4:	01bb0404 	0x1bb0404
    80e8:	25090000 	addiu	t1,t0,0
    80ec:	07000000 	bltz	t8,80f0 <_init-0x687f7f10>
    80f0:	00000949 	0x949
    80f4:	0174790e 	0x174790e
    80f8:	f10f0000 	0xf10f0000
    80fc:	04000001 	bltz	zero,8104 <_init-0x687f7efc>
    8100:	7010590f 	0x7010590f
    8104:	2c540f00 	sltiu	s4,v0,3840
    8108:	10000000 	b	810c <_init-0x687f7ef4>
    810c:	560f0076 	bnel	s0,t7,82e8 <_init-0x687f7d18>
    8110:	00000069 	0x69
    8114:	002ea411 	0x2ea411
    8118:	3c580f00 	0x3c580f00
    811c:	00000000 	nop
    8120:	0002320d 	break	0x2,0xc8
    8124:	5a0f0c00 	0x5a0f0c00
    8128:	002b990e 	0x2b990e
    812c:	69470f00 	0x69470f00
    8130:	02000000 	0x2000000
    8134:	860e0023 	lh	t6,35(s0)
    8138:	0f00002d 	jal	c0000b4 <_init-0x5c7fff4c>
    813c:	00002e49 	0x2e49
    8140:	04230200 	bgezl	at,8944 <_init-0x687f76bc>
    8144:	002c740e 	0x2c740e
    8148:	2e4b0f00 	sltiu	t3,s2,3840
    814c:	02000000 	0x2000000
    8150:	be0e0623 	cache	0xe,1571(s0)
    8154:	0f00000c 	jal	c000030 <_init-0x5c7fffd0>
    8158:	0001cb59 	0x1cb59
    815c:	08230200 	j	8c0800 <_init-0x67f3f800>
    8160:	2d2d0700 	sltiu	t5,t1,1792
    8164:	5a0f0000 	0x5a0f0000
    8168:	000001f1 	tgeu	zero,zero,0x7
    816c:	02320404 	0x2320404
    8170:	530a0000 	beql	t8,t2,8174 <_init-0x687f7e8c>
    8174:	90000002 	lbu	zero,2(zero)
    8178:	0b000000 	j	c000000 <_init-0x5c800000>
    817c:	00000035 	0x35
    8180:	a20d0007 	sb	t5,7(s0)
    8184:	14000002 	bnez	zero,8190 <_init-0x687f7e70>
    8188:	e80e4208 	swc2	$14,16904(zero)
    818c:	08000002 	j	8 <_init-0x687ffff8>
    8190:	00006939 	0x6939
    8194:	00230200 	0x230200
    8198:	0007590e 	0x7590e
    819c:	693b0800 	0x693b0800
    81a0:	02000000 	0x2000000
    81a4:	64120423 	0x64120423
    81a8:	08007961 	j	1e584 <_init-0x687e1a7c>
    81ac:	0000693d 	0x693d
    81b0:	08230200 	j	8c0800 <_init-0x67f3f800>
    81b4:	0006530e 	0x6530e
    81b8:	693f0800 	0x693f0800
    81bc:	02000000 	0x2000000
    81c0:	cd0e0c23 	pref	0xe,3107(t0)
    81c4:	0800001f 	j	7c <_init-0x687fff84>
    81c8:	00009041 	0x9041
    81cc:	10230200 	beq	at,v1,89d0 <_init-0x687f7630>
    81d0:	0d120700 	jal	4481c00 <_init-0x6437e400>
    81d4:	42080000 	c0	0x80000
    81d8:	00000253 	0x253
    81dc:	0002e00d 	break	0x2,0x380
    81e0:	50080c00 	beql	zero,t0,b1e4 <_init-0x687f4e1c>
    81e4:	0009680e 	0x9680e
    81e8:	694b0800 	0x694b0800
    81ec:	02000000 	0x2000000
    81f0:	250e0023 	addiu	t6,t0,35
    81f4:	0800000b 	j	2c <_init-0x687fffd4>
    81f8:	0000694d 	break	0x0,0x1a5
    81fc:	04230200 	bgezl	at,8a00 <_init-0x687f7600>
    8200:	000b670e 	0xb670e
    8204:	694f0800 	0x694f0800
    8208:	02000000 	0x2000000
    820c:	07000823 	bltz	t8,a29c <_init-0x687f5d64>
    8210:	000006e2 	0x6e2
    8214:	02ad5008 	0x2ad5008
    8218:	bd050000 	cache	0x5,0(t0)
    821c:	04000003 	bltz	zero,822c <_init-0x687f7dd4>
    8220:	39061f11 	xori	a2,t0,0x1f11
    8224:	00000013 	mtlo	zero
    8228:	00161806 	srlv	v1,s6,zero
    822c:	0c060100 	jal	180400 <_init-0x6867fc00>
    8230:	02000014 	0x2000014
    8234:	00151406 	0x151406
    8238:	ff060400 	sdc3	$6,1024(t8)
    823c:	08000015 	j	54 <_init-0x687fffac>
    8240:	00160f06 	0x160f06
    8244:	1c061000 	0x1c061000
    8248:	20000015 	addi	zero,zero,21
    824c:	00160806 	srlv	at,s6,zero
    8250:	0600c000 	bltz	s0,ffff8254 <emuqueue+0x977effb0>
    8254:	00001324 	0x1324
    8258:	73060180 	0x73060180
    825c:	80000013 	lb	zero,19(zero)
    8260:	12380602 	beq	s1,t8,9a6c <_init-0x687f6594>
    8264:	04800000 	bltz	a0,8268 <_init-0x687f7d98>
    8268:	0015a906 	0x15a906
    826c:	06088000 	tgei	s0,-32768
    8270:	0000137d 	0x137d
    8274:	68061080 	0x68061080
    8278:	80000015 	lb	zero,21(zero)
    827c:	15750620 	bne	t3,s5,9b00 <_init-0x687f6500>
    8280:	c0800000 	ll	zero,0(a0)
    8284:	15820600 	bne	t4,v0,9a88 <_init-0x687f6578>
    8288:	80800000 	lb	zero,0(a0)
    828c:	158f0601 	bne	t4,t7,9a94 <_init-0x687f656c>
    8290:	80800000 	lb	zero,0(a0)
    8294:	15250602 	bne	t1,a1,9aa0 <_init-0x687f6560>
    8298:	80800000 	lb	zero,0(a0)
    829c:	159c0604 	bne	t4,gp,9ab0 <_init-0x687f6550>
    82a0:	80800000 	lb	zero,0(a0)
    82a4:	15320608 	bne	t1,s2,9ac8 <_init-0x687f6538>
    82a8:	80800000 	lb	zero,0(a0)
    82ac:	127e0610 	beq	s3,s8,9af0 <_init-0x687f6510>
    82b0:	80800000 	lb	zero,0(a0)
    82b4:	128c0620 	beq	s4,t4,9b38 <_init-0x687f64c8>
    82b8:	80800000 	lb	zero,0(a0)
    82bc:	9a0600c0 	lwr	a2,192(s0)
    82c0:	80000012 	lb	zero,18(zero)
    82c4:	06018080 	bgez	s0,fffe84c8 <emuqueue+0x977e0224>
    82c8:	000012a8 	0x12a8
    82cc:	02808080 	0x2808080
    82d0:	0012b606 	0x12b606
    82d4:	80808000 	lb	zero,-32768(a0)
    82d8:	13ba0604 	beq	sp,k0,9aec <_init-0x687f6514>
    82dc:	80800000 	lb	zero,0(a0)
    82e0:	c4060880 	lwc1	$f6,2176(zero)
    82e4:	80000012 	lb	zero,18(zero)
    82e8:	00108080 	sll	s0,s0,0x2
    82ec:	00138807 	srav	s1,s3,zero
    82f0:	eb3d1100 	swc2	$29,4352(t9)
    82f4:	05000002 	bltz	t0,8300 <_init-0x687f7d00>
    82f8:	0000079f 	0x79f
    82fc:	06191304 	0x6191304
    8300:	00002a98 	0x2a98
    8304:	24ac0600 	addiu	t4,a1,1536
    8308:	00e40000 	0xe40000
    830c:	0024ba06 	0x24ba06
    8310:	0600e500 	bltz	s0,1714 <_init-0x687fe8ec>
    8314:	00001f09 	0x1f09
    8318:	cd0600e6 	pref	0x6,230(t0)
    831c:	e700001b 	swc1	$f0,27(t8)
    8320:	227f0600 	addi	ra,s3,1536
    8324:	00e80000 	0xe80000
    8328:	001f7406 	0x1f7406
    832c:	0600e900 	bltz	s0,2730 <_init-0x687fd8d0>
    8330:	00001bb1 	tgeu	zero,zero,0x6e
    8334:	a40607e8 	sh	a2,2024(zero)
    8338:	e900001c 	swc2	$0,28(t0)
    833c:	26be0607 	addiu	s8,s5,1543
    8340:	07ea0000 	tlti	ra,0
    8344:	00229306 	0x229306
    8348:	0607eb00 	0x607eb00
    834c:	00002018 	0x2018
    8350:	e40607ec 	swc1	$f6,2028(zero)
    8354:	ed000028 	swc3	$0,40(t0)
    8358:	1c210607 	0x1c210607
    835c:	07ee0000 	tnei	ra,0
    8360:	0020a006 	srlv	s4,zero,at
    8364:	0607ef00 	0x607ef00
    8368:	000023fb 	0x23fb
    836c:	7a0607f0 	0x7a0607f0
    8370:	f100001e 	0xf100001e
    8374:	1e640607 	0x1e640607
    8378:	07f20000 	bltzall	ra,837c <_init-0x687f7c84>
    837c:	001d0f06 	0x1d0f06
    8380:	0607f300 	0x607f300
    8384:	00001fd2 	0x1fd2
    8388:	910607f4 	lbu	a2,2036(t0)
    838c:	f500001c 	sdc1	$f0,28(t0)
    8390:	29780607 	slti	t8,t3,1543
    8394:	07f60000 	0x7f60000
    8398:	00205b06 	0x205b06
    839c:	0607f700 	0x607f700
    83a0:	00002993 	0x2993
    83a4:	eb0607f8 	swc2	$6,2040(t8)
    83a8:	f900001e 	sdc2	$0,30(t0)
    83ac:	1f400607 	bgtz	k0,9bcc <_init-0x687f6434>
    83b0:	07fa0000 	0x7fa0000
    83b4:	00291406 	0x291406
    83b8:	0607fb00 	0x607fb00
    83bc:	0000269f 	0x269f
    83c0:	d30607fc 	0xd30607fc
    83c4:	fd000021 	sdc3	$0,33(t0)
    83c8:	28ac0607 	slti	t4,a1,1543
    83cc:	07fe0000 	0x7fe0000
    83d0:	002a7306 	0x2a7306
    83d4:	0607ff00 	0x607ff00
    83d8:	00002002 	srl	a0,zero,0x0
    83dc:	e4060880 	swc1	$f6,2176(zero)
    83e0:	d0000025 	0xd0000025
    83e4:	1c13060f 	0x1c13060f
    83e8:	0fd10000 	jal	f440000 <_init-0x593c0000>
    83ec:	001fb106 	0x1fb106
    83f0:	060fd200 	0x60fd200
    83f4:	00001d8d 	break	0x0,0x76
    83f8:	d9060fd3 	ldc2	$6,4051(t0)
    83fc:	d4000022 	ldc1	$f0,34(zero)
    8400:	2902060f 	slti	v0,t0,1551
    8404:	0fd50000 	jal	f540000 <_init-0x592c0000>
    8408:	00218e06 	0x218e06
    840c:	060fd600 	0x60fd600
    8410:	00001c79 	0x1c79
    8414:	df060fd7 	ldc3	$6,4055(t8)
    8418:	d800001c 	ldc2	$0,28(zero)
    841c:	20e5060f 	addi	a1,a3,1551
    8420:	0fd90000 	jal	f640000 <_init-0x591c0000>
    8424:	001bbd06 	0x1bbd06
    8428:	060fda00 	0x60fda00
    842c:	00001be3 	0x1be3
    8430:	61060fdb 	0x61060fdb
    8434:	dc000029 	ldc3	$0,41(zero)
    8438:	2683060f 	addiu	v1,s4,1551
    843c:	0fdd0000 	jal	f740000 <_init-0x590c0000>
    8440:	0021a106 	0x21a106
    8444:	060fde00 	0x60fde00
    8448:	00002769 	0x2769
    844c:	b5060fdf 	0xb5060fdf
    8450:	e0000023 	sc	zero,35(zero)
    8454:	215d060f 	addi	sp,t2,1551
    8458:	0fe10000 	jal	f840000 <_init-0x58fc0000>
    845c:	001eb206 	0x1eb206
    8460:	060fe200 	0x60fe200
    8464:	0000278d 	break	0x0,0x9e
    8468:	08060fe3 	j	183f8c <_init-0x6867c074>
    846c:	e400001e 	swc1	$f0,30(zero)
    8470:	1dfc060f 	0x1dfc060f
    8474:	17b80000 	bne	sp,t8,8478 <_init-0x687f7b88>
    8478:	0029a906 	0x29a906
    847c:	061fa000 	synci	-24576(s0)
    8480:	00001c36 	tne	zero,zero,0x70
    8484:	ea061fa1 	swc2	$6,8097(s0)
    8488:	a200001a 	sb	zero,26(s0)
    848c:	22f9061f 	addi	t9,s7,1567
    8490:	1fa30000 	0x1fa30000
    8494:	0023dd06 	0x23dd06
    8498:	061fa400 	synci	-23552(s0)
    849c:	000026ed 	0x26ed
    84a0:	1c061fa5 	0x1c061fa5
    84a4:	a6000027 	sh	zero,39(s0)
    84a8:	1b81061f 	0x1b81061f
    84ac:	1fa70000 	0x1fa70000
    84b0:	00289206 	0x289206
    84b4:	061fa800 	synci	-22528(s0)
    84b8:	0000236a 	0x236a
    84bc:	1b061fa9 	0x1b061fa9
    84c0:	aa000025 	swl	zero,37(s0)
    84c4:	2858061f 	slti	t8,v0,1567
    84c8:	1fab0000 	0x1fab0000
    84cc:	001db806 	srlv	s7,sp,zero
    84d0:	061fac00 	synci	-21504(s0)
    84d4:	00001e50 	0x1e50
    84d8:	77061fad 	jalx	c187eb4 <_init-0x5c67814c>
    84dc:	ae000021 	sw	zero,33(s0)
    84e0:	22e6061f 	addi	a2,s7,1567
    84e4:	1faf0000 	0x1faf0000
    84e8:	00261a06 	0x261a06
    84ec:	061fb000 	synci	-20480(s0)
    84f0:	00002224 	0x2224
    84f4:	3f061fb1 	0x3f061fb1
    84f8:	b2000021 	0xb2000021
    84fc:	29b9061f 	slti	t9,t5,1567
    8500:	1fb30000 	0x1fb30000
    8504:	001d5906 	0x1d5906
    8508:	061fb400 	synci	-19456(s0)
    850c:	000025c5 	0x25c5
    8510:	e0061fb5 	sc	a2,8117(zero)
    8514:	b600001f 	0xb600001f
    8518:	2871061f 	slti	s1,v1,1567
    851c:	1fb70000 	0x1fb70000
    8520:	00242e06 	0x242e06
    8524:	061fb800 	synci	-18432(s0)
    8528:	00001e98 	0x1e98
    852c:	3d061fb9 	0x3d061fb9
    8530:	ba000023 	swr	zero,35(s0)
    8534:	2aad061f 	slti	t5,s5,1567
    8538:	1fbb0000 	0x1fbb0000
    853c:	00226106 	0x226106
    8540:	061fbc00 	synci	-17408(s0)
    8544:	0000235d 	0x235d
    8548:	a4062788 	sh	a2,10120(zero)
    854c:	89000025 	lwl	zero,37(t0)
    8550:	25750627 	addiu	s5,t3,1575
    8554:	278a0000 	addiu	t2,gp,0
    8558:	001f8806 	srlv	s1,ra,zero
    855c:	06278b00 	0x6278b00
    8560:	00002206 	0x2206
    8564:	2606278c 	addiu	a2,s0,10124
    8568:	8d000029 	lw	zero,41(t0)
    856c:	1d230627 	0x1d230627
    8570:	278e0000 	addiu	t6,gp,0
    8574:	00254006 	srlv	t0,a1,at
    8578:	06278f00 	0x6278f00
    857c:	00002944 	0x2944
    8580:	10062790 	beq	zero,a2,123c4 <_init-0x687edc3c>
    8584:	91000024 	lbu	zero,36(t0)
    8588:	1c4f0627 	0x1c4f0627
    858c:	27920000 	addiu	s2,gp,0
    8590:	001b4a06 	0x1b4a06
    8594:	06279300 	0x6279300
    8598:	00002318 	0x2318
    859c:	cd062794 	pref	0x6,10132(t0)
    85a0:	95000024 	lhu	zero,36(t0)
    85a4:	1ece0627 	0x1ece0627
    85a8:	27960000 	addiu	s6,gp,0
    85ac:	001dcc06 	0x1dcc06
    85b0:	06279700 	0x6279700
    85b4:	00002505 	0x2505
    85b8:	d3062798 	0xd3062798
    85bc:	9900001a 	lwr	zero,26(t0)
    85c0:	29d10627 	slti	s1,t6,1575
    85c4:	279a0000 	addiu	k0,gp,0
    85c8:	002a5d06 	0x2a5d06
    85cc:	06279b00 	0x6279b00
    85d0:	0000282d 	0x282d
    85d4:	0e06279c 	jal	8189e70 <_init-0x60676190>
    85d8:	9d00002a 	0x9d00002a
    85dc:	1cc40627 	0x1cc40627
    85e0:	279e0000 	addiu	s8,gp,0
    85e4:	00238406 	0x238406
    85e8:	06279f00 	0x6279f00
    85ec:	000020ad 	0x20ad
    85f0:	340627a0 	li	a2,0x27a0
    85f4:	a100001b 	sb	zero,27(t0)
    85f8:	29f80627 	slti	t8,t7,1575
    85fc:	27a20000 	addiu	v0,sp,0
    8600:	001b1806 	srlv	v1,k1,zero
    8604:	0627a300 	0x627a300
    8608:	00001b64 	0x1b64
    860c:	3e0627a4 	0x3e0627a4
    8610:	a5000020 	sh	zero,32(t0)
    8614:	229f0627 	addi	ra,s4,1575
    8618:	27a60000 	addiu	a2,sp,0
    861c:	0020f006 	srlv	s8,zero,at
    8620:	0627a700 	0x627a700
    8624:	0000235c 	0x235c
    8628:	350636d8 	ori	a2,t0,0x36d8
    862c:	d9000026 	ldc2	$0,38(t0)
    8630:	1da20636 	0x1da20636
    8634:	36da0000 	ori	k0,s6,0x0
    8638:	0022be06 	0x22be06
    863c:	0636db00 	0x636db00
    8640:	00002a42 	srl	a1,zero,0x9
    8644:	2f0636dc 	sltiu	a2,t8,14044
    8648:	dd00001e 	ldc3	$0,30(t0)
    864c:	28140636 	slti	s4,zero,1590
    8650:	36de0000 	ori	s8,s6,0x0
    8654:	00239f06 	0x239f06
    8658:	0636df00 	0x636df00
    865c:	000021eb 	0x21eb
    8660:	6b0636e0 	0x6b0636e0
    8664:	e1000024 	sc	zero,36(t0)
    8668:	210f0636 	addi	t7,t0,1590
    866c:	36e20000 	ori	v0,s7,0x0
    8670:	001b0206 	0x1b0206
    8674:	0636e300 	0x636e300
    8678:	000026ce 	0x26ce
    867c:	b80636e4 	swr	a2,14052(zero)
    8680:	e5000021 	swc1	$f0,33(t0)
    8684:	1d6c0636 	0x1d6c0636
    8688:	36e60000 	ori	a2,s7,0x0
    868c:	001bf206 	0x1bf206
    8690:	0636e700 	0x636e700
    8694:	00002486 	0x2486
    8698:	f90636e8 	sdc2	$6,14056(t0)
    869c:	e9000027 	swc2	$0,39(t0)
    86a0:	24ea0636 	addiu	t2,a3,1590
    86a4:	36ea0000 	ori	t2,s7,0x0
    86a8:	001e4506 	0x1e4506
    86ac:	063ec000 	0x63ec000
    86b0:	000023c7 	0x23c7
    86b4:	e9063ec1 	swc2	$6,16065(t0)
    86b8:	c2000029 	ll	zero,41(s0)
    86bc:	27dd063e 	addiu	sp,s8,1598
    86c0:	c6a80000 	lwc1	$f8,0(s5)
    86c4:	1d3d0600 	0x1d3d0600
    86c8:	c6a90000 	lwc1	$f9,0(s5)
    86cc:	d5070000 	ldc1	$f7,0(t0)
    86d0:	13000020 	beqz	t8,8754 <_init-0x687f78ac>
    86d4:	0003c8ce 	0x3c8ce
    86d8:	07df1300 	synci	4864(s8)
    86dc:	04080000 	tgei	zero,0
    86e0:	cd0edd13 	pref	0xe,-8941(t0)
    86e4:	1300001f 	beqz	t8,8764 <_init-0x687f789c>
    86e8:	00079fd8 	0x79fd8
    86ec:	00230200 	0x230200
    86f0:	0033220e 	0x33220e
    86f4:	3dda1300 	0x3dda1300
    86f8:	02000001 	movf	zero,s0,$fcc0
    86fc:	d30e0423 	0xd30e0423
    8700:	13000028 	beqz	t8,87a4 <_init-0x687f785c>
    8704:	00007edc 	0x7edc
    8708:	84230300 	lh	v1,768(at)
    870c:	ca070008 	lwc2	$7,8(s0)
    8710:	13000020 	beqz	t8,8794 <_init-0x687f786c>
    8714:	0007aadd 	0x7aadd
    8718:	08170500 	j	5c1400 <_init-0x6823ec00>
    871c:	13040000 	beq	t8,a0,8720 <_init-0x687f78e0>
    8720:	1cb106e2 	0x1cb106e2
    8724:	06000000 	bltz	s0,8728 <_init-0x687f78d8>
    8728:	00002a86 	0x2a86
    872c:	1fa00601 	bgtz	sp,9f34 <_init-0x687f60cc>
    8730:	06020000 	bltzl	s0,8734 <_init-0x687f78cc>
    8734:	0000207c 	0x207c
    8738:	26600603 	addiu	zero,s3,1539
    873c:	06040000 	0x6040000
    8740:	00001f51 	0x1f51
    8744:	e8070005 	swc2	$7,5(zero)
    8748:	13000027 	beqz	t8,87e8 <_init-0x687f7818>
    874c:	0007eaed 	0x7eaed
    8750:	08481300 	j	1204c00 <_init-0x675fb400>
    8754:	04040000 	0x4040000
    8758:	cd0efb13 	pref	0xe,-1261(t0)
    875c:	1300001f 	beqz	t8,87dc <_init-0x687f7824>
    8760:	000817f8 	0x817f8
    8764:	00230200 	0x230200
    8768:	0033220e 	0x33220e
    876c:	3dfa1300 	0x3dfa1300
    8770:	02000001 	movf	zero,s0,$fcc0
    8774:	07000423 	bltz	t8,9804 <_init-0x687f67fc>
    8778:	00002aa1 	0x2aa1
    877c:	0822fb13 	j	8bec4c <_init-0x67f413b4>
    8780:	a5050000 	sh	a1,0(t0)
    8784:	04000008 	bltz	zero,87a8 <_init-0x687f7858>
    8788:	9f061b10 	0x9f061b10
    878c:	00000013 	mtlo	zero
    8790:	0015f106 	0x15f106
    8794:	80808000 	lb	zero,-32768(a0)
    8798:	4f060280 	lwxc1	$f10,a2(t8)
    879c:	80000014 	lb	zero,20(zero)
    87a0:	01808080 	0x1808080
    87a4:	0014e006 	srlv	gp,s4,zero
    87a8:	80808000 	lb	zero,-32768(a0)
    87ac:	d50600c0 	ldc1	$f6,192(t0)
    87b0:	80000015 	lb	zero,21(zero)
    87b4:	06208080 	bltz	s1,fffe89b8 <emuqueue+0x977e0714>
    87b8:	000014cf 	0x14cf
    87bc:	10808080 	beqz	a0,fffe89c0 <emuqueue+0x977e071c>
    87c0:	00142706 	0x142706
    87c4:	80808000 	lb	zero,-32768(a0)
    87c8:	13920608 	beq	gp,s2,9fec <_init-0x687f6014>
    87cc:	80800000 	lb	zero,0(a0)
    87d0:	0003f880 	sll	ra,v1,0x2
    87d4:	0015b607 	0x15b607
    87d8:	53251000 	beql	t9,a1,c7dc <_init-0x687f3824>
    87dc:	0d000008 	jal	4000020 <_init-0x647fffe0>
    87e0:	000008d5 	0x8d5
    87e4:	122c1008 	beq	s1,t4,c808 <_init-0x687f37f8>
    87e8:	006c6176 	tne	v1,t4,0x185
    87ec:	03bd2a10 	0x3bd2a10
    87f0:	23020000 	addi	v0,t8,0
    87f4:	1fcd0e00 	0x1fcd0e00
    87f8:	2b100000 	slti	s0,t8,0
    87fc:	000008a5 	0x8a5
    8800:	00042302 	srl	a0,a0,0xc
    8804:	00125707 	0x125707
    8808:	b02c1000 	0xb02c1000
    880c:	04000008 	bltz	zero,8830 <_init-0x687f77d0>
    8810:	0007df04 	0x7df04
    8814:	09070500 	j	41c1400 <_init-0x6463ec00>
    8818:	17040000 	bne	t8,a0,881c <_init-0x687f77e4>
    881c:	2eaa0624 	sltiu	t2,s5,1572
    8820:	06000000 	bltz	s0,8824 <_init-0x687f77dc>
    8824:	00002de7 	0x2de7
    8828:	2c7c0601 	sltiu	gp,v1,1537
    882c:	06020000 	bltzl	s0,8830 <_init-0x687f77d0>
    8830:	00002e8b 	0x2e8b
    8834:	c5070003 	lwc1	$f7,3(t0)
    8838:	1700002c 	bnez	t8,88ec <_init-0x687f7714>
    883c:	0008e629 	0x8e629
    8840:	09491400 	j	5245000 <_init-0x635bb000>
    8844:	1a5d0000 	0x1a5d0000
    8848:	040c0000 	teqi	zero,0
    884c:	1a580e3f 	0x1a580e3f
    8850:	40040000 	mfc0	a0,c0_index
    8854:	00000069 	0x69
    8858:	12002302 	beqz	s0,11464 <_init-0x687eeb9c>
    885c:	006d7573 	tltu	v1,t5,0x1d5
    8860:	003c4204 	0x3c4204
    8864:	23020000 	addi	v0,t8,0
    8868:	19c80e04 	0x19c80e04
    886c:	44040000 	mfc1	a0,$f0
    8870:	00000137 	0x137
    8874:	00082302 	srl	a0,t0,0xc
    8878:	001a6507 	0x1a6507
    887c:	12460400 	beq	s2,a2,9880 <_init-0x687f6780>
    8880:	14000009 	bnez	zero,88a8 <_init-0x687f7758>
    8884:	0000098a 	0x98a
    8888:	00000de3 	0xde3
    888c:	0e530409 	jal	94c1024 <_init-0x5f33efdc>
    8890:	00001fcd 	break	0x0,0x7f
    8894:	00255504 	0x255504
    8898:	23020000 	addi	v0,t8,0
    889c:	64691200 	0x64691200
    88a0:	3c570400 	0x3c570400
    88a4:	02000000 	0x2000000
    88a8:	c00e0123 	ll	t6,291(zero)
    88ac:	04000002 	bltz	zero,88b8 <_init-0x687f7748>
    88b0:	00004359 	0x4359
    88b4:	05230200 	bgezl	t1,90b8 <_init-0x687f6f48>
    88b8:	03860700 	0x3860700
    88bc:	5b040000 	0x5b040000
    88c0:	00000954 	0x954
    88c4:	000a500d 	break	0xa,0x140
    88c8:	81042500 	lb	a0,9472(t0)
    88cc:	0011650e 	0x11650e
    88d0:	8a640400 	lwl	a0,1024(s3)
    88d4:	02000009 	jalr	zero,s0
    88d8:	370e0023 	ori	t6,t8,0x23
    88dc:	04000009 	bltz	zero,8904 <_init-0x687f76fc>
    88e0:	00009767 	0x9767
    88e4:	09230200 	j	48c0800 <_init-0x63f3f800>
    88e8:	0009780e 	0x9780e
    88ec:	97690400 	lhu	t1,1024(k1)
    88f0:	02000000 	0x2000000
    88f4:	78120b23 	0x78120b23
    88f8:	976b0400 	lhu	t3,1024(k1)
    88fc:	02000000 	0x2000000
    8900:	79120d23 	0x79120d23
    8904:	976d0400 	lhu	t5,1024(k1)
    8908:	02000000 	0x2000000
    890c:	d60e0f23 	ldc1	$f14,3875(s0)
    8910:	04000010 	bltz	zero,8954 <_init-0x687f76ac>
    8914:	00009770 	tge	zero,zero,0x25d
    8918:	11230200 	beq	t1,v1,911c <_init-0x687f6ee4>
    891c:	000bb90e 	0xbb90e
    8920:	97720400 	lhu	s2,1024(k1)
    8924:	02000000 	0x2000000
    8928:	2c0e1323 	sltiu	t6,zero,4899
    892c:	0400000b 	bltz	zero,895c <_init-0x687f76a4>
    8930:	00003c74 	teq	zero,zero,0xf1
    8934:	15230200 	bne	t1,v1,9138 <_init-0x687f6ec8>
    8938:	0008060e 	0x8060e
    893c:	25760400 	addiu	s6,t3,1024
    8940:	02000000 	0x2000000
    8944:	070e1923 	tnei	t8,6435
    8948:	04000007 	bltz	zero,8968 <_init-0x687f7698>
    894c:	00002578 	0x2578
    8950:	1a230200 	0x1a230200
    8954:	000edb0e 	0xedb0e
    8958:	2e7a0400 	sltiu	k0,s3,1024
    895c:	02000000 	0x2000000
    8960:	e00e1b23 	sc	t6,6947(zero)
    8964:	0400000c 	bltz	zero,8998 <_init-0x687f7668>
    8968:	00003c7d 	0x3c7d
    896c:	1d230200 	0x1d230200
    8970:	0002ba0e 	0x2ba0e
    8974:	3c7f0400 	0x3c7f0400
    8978:	02000000 	0x2000000
    897c:	07002123 	bltz	t8,10e0c <_init-0x687ef1f4>
    8980:	00000ced 	0xced
    8984:	09958104 	j	6560410 <_init-0x6229fbf0>
    8988:	400d0000 	mfc0	t5,c0_index
    898c:	2500000b 	addiu	zero,t0,11
    8990:	650edf04 	0x650edf04
    8994:	04000011 	bltz	zero,89dc <_init-0x687f7624>
    8998:	00098abd 	0x98abd
    899c:	00230200 	0x230200
    89a0:	04007812 	bltz	zero,269ec <_init-0x687d9614>
    89a4:	000097bf 	0x97bf
    89a8:	09230200 	j	48c0800 <_init-0x63f3f800>
    89ac:	04007912 	bltz	zero,26df8 <_init-0x687d9208>
    89b0:	000097c1 	0x97c1
    89b4:	0b230200 	j	c8c0800 <_init-0x5bf3f800>
    89b8:	0010d60e 	0x10d60e
    89bc:	97c30400 	lhu	v1,1024(s8)
    89c0:	02000000 	0x2000000
    89c4:	b90e0d23 	swr	t6,3363(t0)
    89c8:	0400000b 	bltz	zero,89f8 <_init-0x687f7608>
    89cc:	000097c5 	0x97c5
    89d0:	0f230200 	jal	c8c0800 <_init-0x5bf3f800>
    89d4:	0003730e 	0x3730e
    89d8:	3cc70400 	0x3cc70400
    89dc:	02000000 	0x2000000
    89e0:	2c0e1123 	sltiu	t6,zero,4387
    89e4:	0400000b 	bltz	zero,8a14 <_init-0x687f75ec>
    89e8:	00003cc9 	0x3cc9
    89ec:	15230200 	bne	t1,v1,91f0 <_init-0x687f6e10>
    89f0:	0008060e 	0x8060e
    89f4:	25cb0400 	addiu	t3,t6,1024
    89f8:	02000000 	0x2000000
    89fc:	a10e1923 	sb	t6,6435(t0)
    8a00:	04000009 	bltz	zero,8a28 <_init-0x687f75d8>
    8a04:	000025cd 	break	0x0,0x97
    8a08:	1a230200 	0x1a230200
    8a0c:	000e9b0e 	0xe9b0e
    8a10:	25cf0400 	addiu	t7,t6,1024
    8a14:	02000000 	0x2000000
    8a18:	b40e1b23 	0xb40e1b23
    8a1c:	0400000b 	bltz	zero,8a4c <_init-0x687f75b4>
    8a20:	000025d1 	0x25d1
    8a24:	1c230200 	0x1c230200
    8a28:	00109d0e 	0x109d0e
    8a2c:	2ed50400 	sltiu	s5,s6,1024
    8a30:	02000000 	0x2000000
    8a34:	0c0e1d23 	jal	38748c <_init-0x68478b74>
    8a38:	04000003 	bltz	zero,8a48 <_init-0x687f75b8>
    8a3c:	000025d7 	0x25d7
    8a40:	1f230200 	0x1f230200
    8a44:	0006580e 	0x6580e
    8a48:	90d90400 	lbu	t9,1024(a2)
    8a4c:	02000000 	0x2000000
    8a50:	380e2023 	xori	t6,zero,0x2023
    8a54:	0400000d 	bltz	zero,8a8c <_init-0x687f7574>
    8a58:	00002edb 	0x2edb
    8a5c:	21230200 	addi	v1,t1,512
    8a60:	0003000e 	0x3000e
    8a64:	2edd0400 	sltiu	sp,s6,1024
    8a68:	02000000 	0x2000000
    8a6c:	07002323 	bltz	t8,116fc <_init-0x687ee904>
    8a70:	000008c6 	0x8c6
    8a74:	0a5bdf04 	j	96f7c10 <_init-0x5f1083f0>
    8a78:	b20d0000 	0xb20d0000
    8a7c:	1400000b 	bnez	zero,8aac <_init-0x687f7554>
    8a80:	650ef104 	0x650ef104
    8a84:	04000011 	bltz	zero,8acc <_init-0x687f7534>
    8a88:	00098ae9 	0x98ae9
    8a8c:	00230200 	0x230200
    8a90:	04007812 	bltz	zero,26adc <_init-0x687d9524>
    8a94:	000097ea 	0x97ea
    8a98:	09230200 	j	48c0800 <_init-0x63f3f800>
    8a9c:	04007912 	bltz	zero,26ee8 <_init-0x687d9118>
    8aa0:	000097eb 	0x97eb
    8aa4:	0b230200 	j	c8c0800 <_init-0x5bf3f800>
    8aa8:	0010d60e 	0x10d60e
    8aac:	97ec0400 	lhu	t4,1024(ra)
    8ab0:	02000000 	0x2000000
    8ab4:	b90e0d23 	swr	t6,3363(t0)
    8ab8:	0400000b 	bltz	zero,8ae8 <_init-0x687f7518>
    8abc:	000097ed 	0x97ed
    8ac0:	0f230200 	jal	c8c0800 <_init-0x5bf3f800>
    8ac4:	0008060e 	0x8060e
    8ac8:	25ee0400 	addiu	t6,t7,1024
    8acc:	02000000 	0x2000000
    8ad0:	420e1123 	c0	0xe1123
    8ad4:	04000009 	bltz	zero,8afc <_init-0x687f7504>
    8ad8:	00002eef 	0x2eef
    8adc:	12230200 	beq	s1,v1,92e0 <_init-0x687f6d20>
    8ae0:	037e0700 	0x37e0700
    8ae4:	f1040000 	0xf1040000
    8ae8:	00000b4b 	0xb4b
    8aec:	000c7415 	0xc7415
    8af0:	13042900 	beq	t8,a0,12ef4 <_init-0x687ed10c>
    8af4:	00781201 	0x781201
    8af8:	0097fa04 	0x97fa04
    8afc:	23020000 	addi	v0,t8,0
    8b00:	00791200 	0x791200
    8b04:	0097fc04 	0x97fc04
    8b08:	23020000 	addi	v0,t8,0
    8b0c:	10d60e02 	beq	a2,s6,c318 <_init-0x687f3ce8>
    8b10:	fe040000 	sdc3	$4,0(s0)
    8b14:	00000097 	0x97
    8b18:	16042302 	bne	s0,a0,11724 <_init-0x687ee8dc>
    8b1c:	00000bb9 	0xbb9
    8b20:	97010004 	lhu	at,4(t8)
    8b24:	02000000 	0x2000000
    8b28:	2c160623 	sltiu	s6,zero,1571
    8b2c:	0400000b 	bltz	zero,8b5c <_init-0x687f74a4>
    8b30:	003c0102 	ror	zero,gp,0x4
    8b34:	23020000 	addi	v0,t8,0
    8b38:	08061608 	j	185820 <_init-0x6867a7e0>
    8b3c:	04040000 	0x4040000
    8b40:	00002501 	0x2501
    8b44:	0c230200 	jal	8c0800 <_init-0x67f3f800>
    8b48:	00070716 	0x70716
    8b4c:	01060400 	0x1060400
    8b50:	00000025 	move	zero,zero
    8b54:	160d2302 	bne	s0,t5,11760 <_init-0x687ee8a0>
    8b58:	00000edb 	0xedb
    8b5c:	2e010804 	sltiu	at,s0,2052
    8b60:	02000000 	0x2000000
    8b64:	e0160e23 	sc	s6,3619(zero)
    8b68:	0400000c 	bltz	zero,8b9c <_init-0x687f7464>
    8b6c:	003c010b 	0x3c010b
    8b70:	23020000 	addi	v0,t8,0
    8b74:	02ba1610 	0x2ba1610
    8b78:	0d040000 	jal	4100000 <_init-0x64700000>
    8b7c:	00003c01 	0x3c01
    8b80:	14230200 	bne	at,v1,9384 <_init-0x687f6c7c>
    8b84:	00065816 	0x65816
    8b88:	010f0400 	0x10f0400
    8b8c:	00000025 	move	zero,zero
    8b90:	16182302 	bne	s0,t8,1179c <_init-0x687ee864>
    8b94:	00000801 	movf	at,zero,$fcc0
    8b98:	b6011104 	0xb6011104
    8b9c:	02000000 	0x2000000
    8ba0:	17001923 	bnez	t8,f030 <_init-0x687f0fd0>
    8ba4:	00000ddb 	0xddb
    8ba8:	bd011304 	cache	0x1,4868(t0)
    8bac:	0400000b 	bltz	zero,8bdc <_init-0x687f7424>
    8bb0:	00094904 	0x94904
    8bb4:	74040400 	jalx	101000 <_init-0x686ff000>
    8bb8:	0d00000c 	jal	4000030 <_init-0x647fffd0>
    8bbc:	00000cc9 	0xcc9
    8bc0:	12321608 	beq	s1,s2,e3e4 <_init-0x687f1c1c>
    8bc4:	27160078 	addiu	s6,t8,120
    8bc8:	00000097 	0x97
    8bcc:	12002302 	beqz	s0,117d8 <_init-0x687ee828>
    8bd0:	2a160079 	slti	s6,s0,121
    8bd4:	00000097 	0x97
    8bd8:	0e022302 	jal	8088c08 <_init-0x607773f8>
    8bdc:	000010d6 	0x10d6
    8be0:	00972d16 	0x972d16
    8be4:	23020000 	addi	v0,t8,0
    8be8:	0bb90e04 	j	ee43810 <_init-0x599bc7f0>
    8bec:	30160000 	andi	s6,zero,0x0
    8bf0:	00000097 	0x97
    8bf4:	00062302 	srl	a0,a2,0xc
    8bf8:	002c3e07 	0x2c3e07
    8bfc:	8c321600 	lw	s2,5632(at)
    8c00:	0500000c 	bltz	t0,8c34 <_init-0x687f73cc>
    8c04:	00000cf5 	0xcf5
    8c08:	06301504 	bltzal	s1,e01c <_init-0x687f1fe4>
    8c0c:	00000c91 	0xc91
    8c10:	096d0600 	j	5b41800 <_init-0x62cbe800>
    8c14:	06010000 	bgez	s0,8c18 <_init-0x687f73e8>
    8c18:	00000c04 	0xc04
    8c1c:	0a4a0602 	j	9281808 <_init-0x5f57e7f8>
    8c20:	00030000 	sll	zero,v1,0x0
    8c24:	00106207 	0x106207
    8c28:	d4351500 	ldc1	$f21,5376(at)
    8c2c:	0500000c 	bltz	t0,8c60 <_init-0x687f73a0>
    8c30:	00000d7b 	0xd7b
    8c34:	061e1404 	0x61e1404
    8c38:	00000d3e 	0xd3e
    8c3c:	08490600 	j	1241800 <_init-0x675be800>
    8c40:	06010000 	bgez	s0,8c44 <_init-0x687f73bc>
    8c44:	000007f2 	tlt	zero,zero,0x1f
    8c48:	03a80602 	0x3a80602
    8c4c:	06030000 	bgezl	s0,8c50 <_init-0x687f73b0>
    8c50:	00000474 	teq	zero,zero,0x11
    8c54:	05370604 	0x5370604
    8c58:	06050000 	0x6050000
    8c5c:	00000f8d 	break	0x0,0x3e
    8c60:	05dd0606 	0x5dd0606
    8c64:	06070000 	0x6070000
    8c68:	00000e02 	srl	at,zero,0x18
    8c6c:	10e70608 	beq	a3,a3,a490 <_init-0x687f5b70>
    8c70:	06090000 	tgeiu	s0,0
    8c74:	000005b9 	0x5b9
    8c78:	0c7f060a 	jal	1fc1828 <_init-0x6683e7d8>
    8c7c:	060b0000 	tltiu	s0,0
    8c80:	00000e73 	tltu	zero,zero,0x39
    8c84:	0d2d060c 	jal	4b41830 <_init-0x63cbe7d0>
    8c88:	060d0000 	0x60d0000
    8c8c:	00000743 	sra	zero,zero,0x1d
    8c90:	0c22060e 	jal	881838 <_init-0x67f7e7c8>
    8c94:	060f0000 	0x60f0000
    8c98:	00000216 	0x216
    8c9c:	095b0610 	j	56c1840 <_init-0x6313e7c0>
    8ca0:	06110000 	bgezal	s0,8ca4 <_init-0x687f735c>
    8ca4:	00000fe9 	0xfe9
    8ca8:	74070012 	jalx	1c0048 <_init-0x6863ffb8>
    8cac:	1400000a 	bnez	zero,8cd8 <_init-0x687f7328>
    8cb0:	000d0049 	0xd0049
    8cb4:	0db90d00 	jal	6e43400 <_init-0x619bcc00>
    8cb8:	14100000 	bne	zero,s0,8cbc <_init-0x687f7344>
    8cbc:	0dfd0e5d 	jal	7f43974 <_init-0x608bc68c>
    8cc0:	5a140000 	0x5a140000
    8cc4:	00000cc9 	0xcc9
    8cc8:	0e002302 	jal	8008c08 <_init-0x607f73f8>
    8ccc:	00000e22 	0xe22
    8cd0:	01025b14 	0x1025b14
    8cd4:	23020000 	addi	v0,t8,0
    8cd8:	2bfb0e08 	slti	k1,ra,3592
    8cdc:	5c140000 	0x5c140000
    8ce0:	0000005e 	0x5e
    8ce4:	000c2302 	srl	a0,t4,0xc
    8ce8:	002d3e07 	0x2d3e07
    8cec:	865d1400 	lh	sp,5120(s2)
    8cf0:	0d00000d 	jal	4000034 <_init-0x647fffcc>
    8cf4:	00000de9 	0xde9
    8cf8:	0e671408 	jal	99c5020 <_init-0x5ee3afe0>
    8cfc:	00000e9b 	0xe9b
    8d00:	0d7b6514 	jal	5ed9450 <_init-0x62926bb0>
    8d04:	23020000 	addi	v0,t8,0
    8d08:	0dfb0e00 	jal	7ec3800 <_init-0x6093c800>
    8d0c:	66140000 	0x66140000
    8d10:	00000cf5 	0xcf5
    8d14:	00042302 	srl	a0,a0,0xc
    8d18:	00085507 	0x85507
    8d1c:	c4671400 	lwc1	$f7,5120(v1)
    8d20:	0500000d 	bltz	t0,8d58 <_init-0x687f72a8>
    8d24:	00000e0f 	0xe0f
    8d28:	066e1404 	tnei	s3,5124
    8d2c:	00000b4b 	0xb4b
    8d30:	0e4a0600 	jal	9281800 <_init-0x5f57e800>
    8d34:	06010000 	bgez	s0,8d38 <_init-0x687f72c8>
    8d38:	00000722 	0x722
    8d3c:	5b070002 	0x5b070002
    8d40:	1400000c 	bnez	zero,8d74 <_init-0x687f728c>
    8d44:	000df475 	0xdf475
    8d48:	0e3b0500 	jal	8ec1400 <_init-0x5f93ec00>
    8d4c:	09040000 	j	4100000 <_init-0x64700000>
    8d50:	0ec70621 	jal	b1c1884 <_init-0x5d63e77c>
    8d54:	06000000 	bltz	s0,8d58 <_init-0x687f72a8>
    8d58:	00000ad0 	0xad0
    8d5c:	06bd0601 	0x6bd0601
    8d60:	06020000 	bltzl	s0,8d64 <_init-0x687f729c>
    8d64:	000010a4 	0x10a4
    8d68:	05070003 	0x5070003
    8d6c:	09000011 	j	4000044 <_init-0x647fffbc>
    8d70:	000e1a26 	0xe1a26
    8d74:	0e550500 	jal	9541400 <_init-0x5f2bec00>
    8d78:	09040000 	j	4100000 <_init-0x64700000>
    8d7c:	0e32062e 	jal	8c818b8 <_init-0x5fb7e748>
    8d80:	00000000 	nop
    8d84:	00078d07 	0x78d07
    8d88:	46300900 	add.d	$f4,$f1,$f16
    8d8c:	0d00000e 	jal	4000038 <_init-0x647fffc8>
    8d90:	00000e93 	0xe93
    8d94:	0e540908 	jal	9502420 <_init-0x5f2fdbe0>
    8d98:	00001fcd 	break	0x0,0x7f
    8d9c:	0e3b4f09 	jal	8ed3c24 <_init-0x5f92c3dc>
    8da0:	23020000 	addi	v0,t8,0
    8da4:	083d0e00 	j	f43800 <_init-0x678bc800>
    8da8:	51090000 	beql	t0,t1,8dac <_init-0x687f7254>
    8dac:	0000002e 	0x2e
    8db0:	0e042302 	jal	8108c08 <_init-0x606f73f8>
    8db4:	00000d58 	0xd58
    8db8:	002e5309 	0x2e5309
    8dbc:	23020000 	addi	v0,t8,0
    8dc0:	8a070006 	lwl	a3,6(s0)
    8dc4:	0900002b 	j	40000ac <_init-0x647fff54>
    8dc8:	000e6054 	0xe6054
    8dcc:	0f131400 	jal	c4c5000 <_init-0x5c33b000>
    8dd0:	119b0000 	beq	t4,k1,8dd4 <_init-0x687f722c>
    8dd4:	09180000 	j	4600000 <_init-0x64200000>
    8dd8:	1fcd0e5c 	0x1fcd0e5c
    8ddc:	5e090000 	0x5e090000
    8de0:	00000e3b 	0xe3b
    8de4:	0e002302 	jal	8008c08 <_init-0x607f73f8>
    8de8:	0000083d 	0x83d
    8dec:	002e6009 	0x2e6009
    8df0:	23020000 	addi	v0,t8,0
    8df4:	0d580e04 	jal	5603810 <_init-0x631fc7f0>
    8df8:	62090000 	0x62090000
    8dfc:	0000002e 	0x2e
    8e00:	0e062302 	jal	8188c08 <_init-0x606773f8>
    8e04:	0000033c 	0x33c
    8e08:	00b06409 	0xb06409
    8e0c:	23020000 	addi	v0,t8,0
    8e10:	2d240e08 	sltiu	a0,t1,3592
    8e14:	67090000 	0x67090000
    8e18:	00000f2a 	0xf2a
    8e1c:	0e0c2302 	jal	8308c08 <_init-0x604f73f8>
    8e20:	00000e28 	0xe28
    8e24:	00696a09 	0x696a09
    8e28:	23020000 	addi	v0,t8,0
    8e2c:	0c391810 	jal	e46040 <_init-0x679b9fc0>
    8e30:	0e010000 	jal	8040000 <_init-0x607c0000>
    8e34:	00000259 	0x259
    8e38:	0f306d09 	jal	cc1b424 <_init-0x5bbe4bdc>
    8e3c:	23020000 	addi	v0,t8,0
    8e40:	24190014 	li	t9,20
    8e44:	0100000f 	0x100000f
    8e48:	000f241a 	0xf241a
    8e4c:	0e551a00 	jal	9546800 <_init-0x5f2b9800>
    8e50:	04000000 	bltz	zero,8e54 <_init-0x687f71ac>
    8e54:	000e9e04 	0xe9e04
    8e58:	13040400 	beq	t8,a0,9e5c <_init-0x687f61a4>
    8e5c:	0400000f 	bltz	zero,8e9c <_init-0x687f7164>
    8e60:	000efe04 	0xefe04
    8e64:	11a50700 	beq	t5,a1,aa68 <_init-0x687f5598>
    8e68:	6e090000 	0x6e090000
    8e6c:	00000e9e 	0xe9e
    8e70:	0f360404 	jal	cd81010 <_init-0x5ba7eff0>
    8e74:	74050000 	jalx	140000 <_init-0x686c0000>
    8e78:	0400000f 	bltz	zero,8eb8 <_init-0x687f7148>
    8e7c:	3206230b 	andi	a2,s0,0x230b
    8e80:	00000002 	srl	zero,zero,0x0
    8e84:	00088606 	0x88606
    8e88:	80060100 	lb	a2,256(zero)
    8e8c:	02000010 	0x2000010
    8e90:	00120506 	0x120506
    8e94:	77060300 	jalx	c180c00 <_init-0x5c67f400>
    8e98:	04000002 	bltz	zero,8ea4 <_init-0x687f715c>
    8e9c:	00102906 	0x102906
    8ea0:	07000500 	bltz	t8,a2a4 <_init-0x687f5d5c>
    8ea4:	000003c8 	0x3c8
    8ea8:	0f472a0b 	jal	d1ca82c <_init-0x5b6357d4>
    8eac:	a6050000 	sh	a1,0(s0)
    8eb0:	0400000f 	bltz	zero,8ef0 <_init-0x687f7110>
    8eb4:	ea06360b 	swc2	$6,13835(s0)
    8eb8:	00000005 	0x5
    8ebc:	000fd106 	0xfd106
    8ec0:	ed060100 	swc3	$6,256(t0)
    8ec4:	02000006 	srlv	zero,zero,s0
    8ec8:	00059406 	0x59406
    8ecc:	fd060300 	sdc3	$6,768(t0)
    8ed0:	04000003 	bltz	zero,8ee0 <_init-0x687f7120>
    8ed4:	02970700 	0x2970700
    8ed8:	3c0b0000 	lui	t3,0x0
    8edc:	00000f7f 	0xf7f
    8ee0:	00104214 	0x104214
    8ee4:	00067c00 	sll	t7,a2,0x10
    8ee8:	4b0b2400 	c2	0x10b2400
    8eec:	001fcd0e 	0x1fcd0e
    8ef0:	744e0b00 	jalx	1382c00 <_init-0x6747d400>
    8ef4:	0200000f 	0x200000f
    8ef8:	b40e0023 	0xb40e0023
    8efc:	0b000003 	j	c00000c <_init-0x5c7ffff4>
    8f00:	0000b051 	0xb051
    8f04:	04230200 	bgezl	at,9708 <_init-0x687f68f8>
    8f08:	0011140e 	0x11140e
    8f0c:	b0540b00 	0xb0540b00
    8f10:	02000000 	0x2000000
    8f14:	c20e0823 	ll	t6,2083(s0)
    8f18:	0b00000a 	j	c000028 <_init-0x5c7fffd8>
    8f1c:	0000b056 	0xb056
    8f20:	0c230200 	jal	8c0800 <_init-0x67f3f800>
    8f24:	000e280e 	0xe280e
    8f28:	69590b00 	0x69590b00
    8f2c:	02000000 	0x2000000
    8f30:	240e1023 	li	t6,4131
    8f34:	0b00002d 	j	c0000b4 <_init-0x5c7fff4c>
    8f38:	0010595c 	0x10595c
    8f3c:	14230200 	bne	at,v1,9740 <_init-0x687f68c0>
    8f40:	0003b80e 	0x3b80e
    8f44:	a55f0b00 	sh	ra,2816(t2)
    8f48:	02000000 	0x2000000
    8f4c:	720e1823 	0x720e1823
    8f50:	0b000006 	j	c000018 <_init-0x5c7fffe8>
    8f54:	0000a562 	0xa562
    8f58:	1c230200 	0x1c230200
    8f5c:	00112318 	0x112318
    8f60:	be0e0100 	cache	0xe,256(s0)
    8f64:	0b00000c 	j	c000030 <_init-0x5c7fffd0>
    8f68:	00105f65 	0x105f65
    8f6c:	20230200 	addi	v1,at,512
    8f70:	10531900 	beq	v0,s3,f374 <_init-0x687f0c8c>
    8f74:	1a010000 	0x1a010000
    8f78:	00001053 	0x1053
    8f7c:	000fa61a 	0xfa61a
    8f80:	04040000 	0x4040000
    8f84:	00000fb1 	tgeu	zero,zero,0x3e
    8f88:	10420404 	beq	v0,v0,9f9c <_init-0x687f6064>
    8f8c:	04040000 	0x4040000
    8f90:	0000102d 	0x102d
    8f94:	000ae407 	0xae407
    8f98:	b1660b00 	0xb1660b00
    8f9c:	0400000f 	bltz	zero,8fdc <_init-0x687f7024>
    8fa0:	00106504 	0x106504
    8fa4:	7c040400 	ext	a0,zero,0x10,0x1
    8fa8:	1b000010 	blez	t8,8fec <_init-0x687f7014>
    8fac:	00001091 	0x1091
    8fb0:	00006901 	0x6901
    8fb4:	002c1a00 	0x2c1a00
    8fb8:	691a0000 	0x691a0000
    8fbc:	00000000 	nop
    8fc0:	01c00404 	0x1c00404
    8fc4:	24070000 	li	a3,0
    8fc8:	06000008 	bltz	s0,8fec <_init-0x687f7014>
    8fcc:	0010764a 	0x10764a
    8fd0:	11171400 	beq	t0,s7,dfd4 <_init-0x687f202c>
    8fd4:	0f160000 	jal	c580000 <_init-0x5c280000>
    8fd8:	061c0000 	0x61c0000
    8fdc:	02c00e51 	0x2c00e51
    8fe0:	53060000 	beql	t8,a2,8fe4 <_init-0x687f701c>
    8fe4:	00000069 	0x69
    8fe8:	0e002302 	jal	8008c08 <_init-0x607f73f8>
    8fec:	00000fc9 	0xfc9
    8ff0:	00695606 	0x695606
    8ff4:	23020000 	addi	v0,t8,0
    8ff8:	10100e04 	beq	zero,s0,c80c <_init-0x687f37f4>
    8ffc:	59060000 	0x59060000
    9000:	00000069 	0x69
    9004:	0e082302 	jal	8208c08 <_init-0x605f73f8>
    9008:	00000f76 	tne	zero,zero,0x3d
    900c:	00695c06 	0x695c06
    9010:	23020000 	addi	v0,t8,0
    9014:	0d4c0e0c 	jal	5303830 <_init-0x634fc7d0>
    9018:	5f060000 	0x5f060000
    901c:	00000069 	0x69
    9020:	0e102302 	jal	8408c08 <_init-0x603f73f8>
    9024:	00002d24 	0x2d24
    9028:	10976206 	beq	a0,s7,21844 <_init-0x687de7bc>
    902c:	23020000 	addi	v0,t8,0
    9030:	06001814 	bltz	s0,f084 <_init-0x687f0f7c>
    9034:	0e010000 	jal	8040000 <_init-0x607c0000>
    9038:	00000844 	0x844
    903c:	11176506 	beq	t0,s7,22458 <_init-0x687ddba8>
    9040:	23020000 	addi	v0,t8,0
    9044:	04040018 	0x4040018
    9048:	00001102 	srl	v0,zero,0x4
    904c:	000f1d07 	0xf1d07
    9050:	a2670600 	sb	a3,1536(s3)
    9054:	05000010 	bltz	t0,9098 <_init-0x687f6f68>
    9058:	00001179 	0x1179
    905c:	06300504 	bltzal	s1,a470 <_init-0x687f5b90>
    9060:	00000206 	0x206
    9064:	11be0600 	beq	t5,s8,a868 <_init-0x687f5798>
    9068:	06010000 	bgez	s0,906c <_init-0x687f6f94>
    906c:	00000ff9 	0xff9
    9070:	0ea80602 	jal	aa01808 <_init-0x5ddfe7f8>
    9074:	06030000 	bgezl	s0,9078 <_init-0x687f6f88>
    9078:	00000435 	0x435
    907c:	07db0604 	0x7db0604
    9080:	06050000 	0x6050000
    9084:	000009d6 	0x9d6
    9088:	0bcc0606 	j	f301818 <_init-0x594fe7e8>
    908c:	06070000 	0x6070000
    9090:	00000b8e 	0xb8e
    9094:	03910608 	0x3910608
    9098:	06090000 	tgeiu	s0,0
    909c:	00000d65 	0xd65
    90a0:	0ba7060a 	j	e9c1828 <_init-0x59e3e7d8>
    90a4:	000b0000 	sll	zero,t3,0x0
    90a8:	00066207 	0x66207
    90ac:	283e0500 	slti	s8,at,1280
    90b0:	05000011 	bltz	t0,90f8 <_init-0x687f6f08>
    90b4:	000011c9 	0x11c9
    90b8:	064e0504 	tnei	s2,1284
    90bc:	000008f6 	tne	zero,zero,0x23
    90c0:	02400600 	0x2400600
    90c4:	06010000 	bgez	s0,90c8 <_init-0x687f6f38>
    90c8:	00000894 	0x894
    90cc:	0a310602 	j	8c41808 <_init-0x5fbbe7f8>
    90d0:	06030000 	bgezl	s0,90d4 <_init-0x687f6f2c>
    90d4:	00000be3 	0xbe3
    90d8:	0da40604 	jal	6901810 <_init-0x61efe7f0>
    90dc:	06050000 	0x6050000
    90e0:	00000ef7 	0xef7
    90e4:	0f240606 	jal	c901818 <_init-0x5befe7e8>
    90e8:	06070000 	0x6070000
    90ec:	00000f43 	sra	at,zero,0x1d
    90f0:	114a0608 	beq	t2,t2,a914 <_init-0x687f56ec>
    90f4:	00090000 	sll	zero,t1,0x0
    90f8:	00121807 	srav	v1,s2,zero
    90fc:	845a0500 	lh	k0,1280(v0)
    9100:	14000011 	bnez	zero,9148 <_init-0x687f6eb8>
    9104:	0000122d 	0x122d
    9108:	00000cc3 	sra	at,zero,0x13
    910c:	0e610514 	jal	9841450 <_init-0x5efbebb0>
    9110:	00001fcd 	break	0x0,0x7f
    9114:	11796305 	beq	t3,t9,21d2c <_init-0x687de2d4>
    9118:	23020000 	addi	v0,t8,0
    911c:	0e280e00 	jal	8a03800 <_init-0x5fdfc800>
    9120:	66050000 	0x66050000
    9124:	00000069 	0x69
    9128:	0e042302 	jal	8108c08 <_init-0x606f73f8>
    912c:	00002d24 	0x2d24
    9130:	12446905 	beq	s2,a0,23548 <_init-0x687dcab8>
    9134:	23020000 	addi	v0,t8,0
    9138:	10b90e08 	beq	a1,t9,c95c <_init-0x687f36a4>
    913c:	6c050000 	0x6c050000
    9140:	0000124a 	0x124a
    9144:	180c2302 	0x180c2302
    9148:	00000457 	0x457
    914c:	02590e01 	0x2590e01
    9150:	6f050000 	0x6f050000
    9154:	00001250 	0x1250
    9158:	00102302 	srl	a0,s0,0xc
    915c:	00123e19 	0x123e19
    9160:	3e1a0100 	0x3e1a0100
    9164:	1a000012 	blez	s0,91b0 <_init-0x687f6e50>
    9168:	000011c9 	0x11c9
    916c:	d4040400 	ldc1	$f4,1024(zero)
    9170:	04000011 	bltz	zero,91b8 <_init-0x687f6e48>
    9174:	00122d04 	0x122d04
    9178:	1d040400 	0x1d040400
    917c:	04000011 	bltz	zero,91c4 <_init-0x687f6e3c>
    9180:	00121804 	sllv	v1,s2,zero
    9184:	0c740700 	jal	1d01c00 <_init-0x66afe400>
    9188:	71050000 	madd	t0,a1
    918c:	000011d4 	0x11d4
    9190:	12560404 	beq	s2,s6,a1a4 <_init-0x687f5e5c>
    9194:	f8140000 	sdc2	$20,0(zero)
    9198:	6b000012 	0x6b000012
    919c:	24000005 	li	zero,5
    91a0:	110e210d 	beq	t0,t6,115d8 <_init-0x687eea28>
    91a4:	0d000006 	jal	4000018 <_init-0x647fffe8>
    91a8:	00006922 	0x6922
    91ac:	00230200 	0x230200
    91b0:	00046a0e 	0x46a0e
    91b4:	69230d00 	0x69230d00
    91b8:	02000000 	0x2000000
    91bc:	2d0e0423 	sltiu	t6,t0,1059
    91c0:	0d000007 	jal	400001c <_init-0x647fffe4>
    91c4:	00006924 	0x6924
    91c8:	08230200 	j	8c0800 <_init-0x67f3f800>
    91cc:	002d240e 	0x2d240e
    91d0:	0f260d00 	jal	c983400 <_init-0x5be7cc00>
    91d4:	02000013 	mtlo	s0
    91d8:	280e0c23 	slti	t6,zero,3107
    91dc:	0d00000e 	jal	4000038 <_init-0x647fffc8>
    91e0:	00006929 	0x6929
    91e4:	10230200 	beq	at,v1,99e8 <_init-0x687f6618>
    91e8:	0005b20e 	0x5b20e
    91ec:	692a0d00 	0x692a0d00
    91f0:	02000000 	0x2000000
    91f4:	cd0e1423 	pref	0xe,5155(t0)
    91f8:	0d00001f 	jal	400007c <_init-0x647fff84>
    91fc:	0000692b 	0x692b
    9200:	18230200 	0x18230200
    9204:	0005480e 	0x5480e
    9208:	692c0d00 	0x692c0d00
    920c:	02000000 	0x2000000
    9210:	b9181c23 	swr	t8,7203(t0)
    9214:	01000007 	srav	zero,zero,t0
    9218:	000cb60e 	0xcb60e
    921c:	152e0d00 	bne	t1,t6,c620 <_init-0x687f39e0>
    9220:	02000013 	mtlo	s0
    9224:	19002023 	blez	t0,112b4 <_init-0x687eed4c>
    9228:	00001309 	0x1309
    922c:	13091a01 	beq	t8,t1,fa34 <_init-0x687f05cc>
    9230:	691a0000 	0x691a0000
    9234:	00000000 	nop
    9238:	12670404 	beq	s3,a3,a24c <_init-0x687f5db4>
    923c:	04040000 	0x4040000
    9240:	000012f8 	0x12f8
    9244:	12e30404 	beq	s7,v1,a258 <_init-0x687f5da8>
    9248:	86070000 	lh	a3,0(s0)
    924c:	0d000006 	jal	4000018 <_init-0x647fffe8>
    9250:	0012672f 	0x12672f
    9254:	133b0500 	beq	t9,k1,a658 <_init-0x687f59a8>
    9258:	0d040000 	jal	4100000 <_init-0x64700000>
    925c:	2b9f0634 	slti	ra,gp,1588
    9260:	06000000 	bltz	s0,9264 <_init-0x687f6d9c>
    9264:	00002b17 	0x2b17
    9268:	4a070001 	c2	0x70001
    926c:	0d00002e 	jal	40000b8 <_init-0x647fff48>
    9270:	00132639 	0x132639
    9274:	1b040400 	0x1b040400
    9278:	05000013 	bltz	t0,92c8 <_init-0x687f6d38>
    927c:	00001373 	tltu	zero,zero,0x4d
    9280:	06290704 	tgeiu	s1,1796
    9284:	00000b37 	0xb37
    9288:	02210600 	0x2210600
    928c:	06010000 	bgez	s0,9290 <_init-0x687f6d70>
    9290:	000011af 	0x11af
    9294:	09ac0602 	j	6b01808 <_init-0x61cfe7f8>
    9298:	06030000 	bgezl	s0,929c <_init-0x687f6d64>
    929c:	000007a2 	0x7a2
    92a0:	46070004 	c1	0x70004
    92a4:	07000010 	bltz	t8,92e8 <_init-0x687f6d18>
    92a8:	00134c2f 	0x134c2f
    92ac:	13930500 	beq	gp,s3,a6b0 <_init-0x687f5950>
    92b0:	07040000 	0x7040000
    92b4:	034d064b 	0x34d064b
    92b8:	06000000 	bltz	s0,92bc <_init-0x687f6d44>
    92bc:	00000b01 	0xb01
    92c0:	ce070001 	pref	0x7,1(s0)
    92c4:	0700000c 	bltz	t8,92f8 <_init-0x687f6d08>
    92c8:	00137e4e 	0x137e4e
    92cc:	13b30500 	beq	sp,s3,a6d0 <_init-0x687f5930>
    92d0:	07040000 	0x7040000
    92d4:	04e30656 	bgezl	a3,ac30 <_init-0x687f53d0>
    92d8:	06000000 	bltz	s0,92dc <_init-0x687f6d24>
    92dc:	000004b2 	tlt	zero,zero,0x12
    92e0:	1d070001 	0x1d070001
    92e4:	0700000d 	bltz	t8,931c <_init-0x687f6ce4>
    92e8:	00139e59 	0x139e59
    92ec:	14650d00 	bne	v1,a1,c6f0 <_init-0x687f3910>
    92f0:	07a80000 	tgei	sp,0
    92f4:	03260e7e 	0x3260e7e
    92f8:	5f070000 	0x5f070000
    92fc:	00000069 	0x69
    9300:	0e002302 	jal	8008c08 <_init-0x607f73f8>
    9304:	00000647 	0x647
    9308:	00696207 	0x696207
    930c:	23020000 	addi	v0,t8,0
    9310:	01fd0e04 	0x1fd0e04
    9314:	65070000 	0x65070000
    9318:	00000243 	sra	zero,zero,0x9
    931c:	0e082302 	jal	8208c08 <_init-0x605f73f8>
    9320:	000002ed 	0x2ed
    9324:	00696807 	srav	t5,t1,v1
    9328:	23020000 	addi	v0,t8,0
    932c:	11900e10 	beq	t4,s0,cb70 <_init-0x687f3490>
    9330:	6b070000 	0x6b070000
    9334:	00000069 	0x69
    9338:	0e142302 	jal	8508c08 <_init-0x602f73f8>
    933c:	0000069b 	0x69b
    9340:	14656e07 	bne	v1,a1,24b60 <_init-0x687db4a0>
    9344:	23020000 	addi	v0,t8,0
    9348:	042c0e18 	teqi	at,3608
    934c:	71070000 	madd	t0,a3
    9350:	00001475 	0x1475
    9354:	0e582302 	jal	9608c08 <_init-0x5f1f73f8>
    9358:	00000284 	0x284
    935c:	00697407 	0x697407
    9360:	23030000 	addi	v1,t8,0
    9364:	130e0198 	beq	t8,t6,99c8 <_init-0x687f6638>
    9368:	0700000a 	bltz	t8,9394 <_init-0x687f6c6c>
    936c:	00006977 	0x6977
    9370:	9c230300 	0x9c230300
    9374:	0ea00e01 	jal	a803804 <_init-0x5dffc7fc>
    9378:	7a070000 	0x7a070000
    937c:	00000069 	0x69
    9380:	01a02303 	0x1a02303
    9384:	0012130e 	0x12130e
    9388:	697d0700 	0x697d0700
    938c:	03000000 	0x3000000
    9390:	0001a423 	0x1a423
    9394:	0014750a 	0x14750a
    9398:	00006900 	sll	t5,zero,0x4
    939c:	00350b00 	0x350b00
    93a0:	000f0000 	sll	zero,t7,0x0
    93a4:	0014850a 	0x14850a
    93a8:	0000b000 	sll	s6,zero,0x0
    93ac:	00350b00 	0x350b00
    93b0:	000f0000 	sll	zero,t7,0x0
    93b4:	0010be07 	0x10be07
    93b8:	be7e0700 	cache	0x1e,1792(s3)
    93bc:	0d000013 	jal	400004c <_init-0x647fffb4>
    93c0:	000014b5 	0x14b5
    93c4:	0e880708 	jal	a201c20 <_init-0x5e5fe3e0>
    93c8:	00000326 	0x326
    93cc:	00698407 	0x698407
    93d0:	23020000 	addi	v0,t8,0
    93d4:	03650e00 	0x3650e00
    93d8:	86070000 	lh	a3,0(s0)
    93dc:	00001393 	0x1393
    93e0:	00042302 	srl	a0,a0,0xc
    93e4:	0009ed07 	0x9ed07
    93e8:	90880700 	lbu	t0,1792(a0)
    93ec:	0d000014 	jal	4000050 <_init-0x647fffb0>
    93f0:	000014e5 	0x14e5
    93f4:	0e960710 	jal	a581c40 <_init-0x5e27e3c0>
    93f8:	00000326 	0x326
    93fc:	00699207 	0x699207
    9400:	23020000 	addi	v0,t8,0
    9404:	090d0e00 	j	4343800 <_init-0x644bc800>
    9408:	95070000 	lhu	a3,0(t0)
    940c:	000002e0 	0x2e0
    9410:	00042302 	srl	a0,a0,0xc
    9414:	000aee07 	0xaee07
    9418:	c0960700 	ll	s6,1792(a0)
    941c:	0d000014 	jal	4000050 <_init-0x647fffb0>
    9420:	00001515 	0x1515
    9424:	0ea40718 	jal	a901c60 <_init-0x5defe3a0>
    9428:	00000326 	0x326
    942c:	0069a007 	srav	s4,t1,v1
    9430:	23020000 	addi	v0,t8,0
    9434:	0c300e00 	jal	c03800 <_init-0x67bfc800>
    9438:	a3070000 	sb	a3,0(t8)
    943c:	000002a2 	0x2a2
    9440:	00042302 	srl	a0,a0,0xc
    9444:	000c0f07 	0xc0f07
    9448:	f0a40700 	0xf0a40700
    944c:	14000014 	bnez	zero,94a0 <_init-0x687f6b60>
    9450:	000015d1 	0x15d1
    9454:	0000041a 	0x41a
    9458:	0eab07f4 	jal	aac1fd0 <_init-0x5dd3e030>
    945c:	00000e28 	0xe28
    9460:	0069ad07 	0x69ad07
    9464:	23020000 	addi	v0,t8,0
    9468:	64681200 	0x64681200
    946c:	b0070063 	0xb0070063
    9470:	00000069 	0x69
    9474:	0e042302 	jal	8108c08 <_init-0x606f73f8>
    9478:	00000b0c 	syscall	0x2c
    947c:	15d1b307 	bne	t6,s1,ffff609c <emuqueue+0x977eddf8>
    9480:	23020000 	addi	v0,t8,0
    9484:	063a0e08 	0x63a0e08
    9488:	b6070000 	0xb6070000
    948c:	00001373 	tltu	zero,zero,0x4d
    9490:	0e0c2302 	jal	8308c08 <_init-0x604f73f8>
    9494:	00000588 	0x588
    9498:	14e5ba07 	bne	a3,a1,ffff7cb8 <emuqueue+0x977efa14>
    949c:	23020000 	addi	v0,t8,0
    94a0:	08ab0e10 	j	2ac3840 <_init-0x65d3c7c0>
    94a4:	bb070000 	swr	a3,0(t8)
    94a8:	00001515 	0x1515
    94ac:	0e202302 	jal	8808c08 <_init-0x5fff73f8>
    94b0:	000004bf 	0x4bf
    94b4:	1485bc07 	bne	a0,a1,ffff84d4 <emuqueue+0x977f0230>
    94b8:	23020000 	addi	v0,t8,0
    94bc:	09160e38 	j	45838e0 <_init-0x6427c720>
    94c0:	bd070000 	cache	0x7,0(t0)
    94c4:	000014b5 	0x14b5
    94c8:	01e02303 	0x1e02303
    94cc:	000e960e 	0xe960e
    94d0:	b3bf0700 	0xb3bf0700
    94d4:	03000013 	mtlo	t8
    94d8:	0e01e823 	jal	807a08c <_init-0x60785f74>
    94dc:	00002d24 	0x2d24
    94e0:	15eec207 	bne	t7,t6,ffff9d00 <emuqueue+0x977f1a5c>
    94e4:	23030000 	addi	v1,t8,0
    94e8:	931801ec 	lbu	t8,492(t8)
    94ec:	0100000d 	break	0x100
    94f0:	0008180e 	0x8180e
    94f4:	f4c50700 	sdc1	$f5,1792(a2)
    94f8:	03000015 	0x3000015
    94fc:	0001f023 	negu	s8,at
    9500:	0a500404 	j	9401010 <_init-0x5f3feff0>
    9504:	e8190000 	swc2	$25,0(zero)
    9508:	01000015 	0x1000015
    950c:	0015e81a 	0x15e81a
    9510:	00691a00 	0x691a00
    9514:	04000000 	bltz	zero,9518 <_init-0x687f6ae8>
    9518:	00152004 	sllv	a0,s5,zero
    951c:	d7040400 	ldc1	$f4,1024(t8)
    9520:	04000015 	bltz	zero,9578 <_init-0x687f6a88>
    9524:	0015bb04 	0x15bb04
    9528:	04230700 	bgezl	at,b12c <_init-0x687f4ed4>
    952c:	c6070000 	lwc1	$f7,0(s0)
    9530:	00001520 	0x1520
    9534:	15fa0404 	bne	t7,k0,a548 <_init-0x687f5ab8>
    9538:	50050000 	beql	zero,a1,953c <_init-0x687f6ac4>
    953c:	04000016 	bltz	zero,9598 <_init-0x687f6a68>
    9540:	ab06240a 	swl	a2,9226(t8)
    9544:	00000006 	srlv	zero,zero,zero
    9548:	000c9a06 	0xc9a06
    954c:	51060100 	beql	t0,a2,9950 <_init-0x687f66b0>
    9550:	02000005 	0x2000005
    9554:	0008d806 	srlv	k1,t0,zero
    9558:	83060300 	lb	a2,768(t8)
    955c:	04000009 	bltz	zero,9584 <_init-0x687f6a7c>
    9560:	00101606 	0x101606
    9564:	24060500 	li	a2,1280
    9568:	06000009 	bltz	s0,9590 <_init-0x687f6a70>
    956c:	0006ce06 	0x6ce06
    9570:	60060700 	0x60060700
    9574:	0800000a 	j	28 <_init-0x687fffd8>
    9578:	00113a06 	0x113a06
    957c:	07000900 	bltz	t8,b980 <_init-0x687f4680>
    9580:	000009bb 	0x9bb
    9584:	160b310a 	bne	s0,t3,159b0 <_init-0x687ea650>
    9588:	70050000 	madd	zero,a1
    958c:	04000016 	bltz	zero,95e8 <_init-0x687f6a18>
    9590:	a506390a 	sh	a2,14602(t0)
    9594:	00000002 	srl	zero,zero,0x0
    9598:	0004f006 	srlv	s8,a0,zero
    959c:	07000100 	bltz	t8,99a0 <_init-0x687f6660>
    95a0:	00000e0e 	0xe0e
    95a4:	165b3c0a 	bne	s2,k1,185d0 <_init-0x687e7a30>
    95a8:	ae0d0000 	sw	t5,0(s0)
    95ac:	0c000016 	jal	58 <_init-0x687fffa8>
    95b0:	440e4e0a 	0x440e4e0a
    95b4:	0a000008 	j	8000020 <_init-0x607fffe0>
    95b8:	00165046 	rorv	t2,s6,zero
    95bc:	00230200 	0x230200
    95c0:	00109d0e 	0x109d0e
    95c4:	2e480a00 	sltiu	t0,s2,2560
    95c8:	02000000 	0x2000000
    95cc:	c70e0423 	lwc1	$f14,1059(t8)
    95d0:	0a000014 	j	8000050 <_init-0x607fffb0>
    95d4:	0000694b 	0x694b
    95d8:	08230200 	j	8c0800 <_init-0x67f3f800>
    95dc:	14b90700 	bne	a1,t9,b1e0 <_init-0x687f4e20>
    95e0:	4e0a0000 	lwxc1	$f0,t2(s0)
    95e4:	0000167b 	0x167b
    95e8:	00172e14 	0x172e14
    95ec:	00069200 	sll	s2,a2,0x8
    95f0:	560a1c00 	bnel	s0,t2,105f4 <_init-0x687efa0c>
    95f4:	0008440e 	0x8440e
    95f8:	50580a00 	beql	v0,t8,bdfc <_init-0x687f4204>
    95fc:	02000016 	0x2000016
    9600:	9d0e0023 	0x9d0e0023
    9604:	0a000010 	j	8000040 <_init-0x607fffc0>
    9608:	00002e5a 	0x2e5a
    960c:	04230200 	bgezl	at,9e10 <_init-0x687f61f0>
    9610:	000cae0e 	0xcae0e
    9614:	695d0a00 	0x695d0a00
    9618:	02000000 	0x2000000
    961c:	e90e0823 	swc2	$14,2083(t0)
    9620:	0a000008 	j	8000020 <_init-0x607fffe0>
    9624:	0000695f 	0x695f
    9628:	0c230200 	jal	8c0800 <_init-0x67f3f800>
    962c:	002d240e 	0x2d240e
    9630:	45620a00 	0x45620a00
    9634:	02000017 	0x2000017
    9638:	280e1023 	slti	t6,zero,4131
    963c:	0a00000e 	j	8000038 <_init-0x607fffc8>
    9640:	00006965 	0x6965
    9644:	14230200 	bne	at,v1,9e48 <_init-0x687f61b8>
    9648:	00057718 	0x57718
    964c:	590e0100 	0x590e0100
    9650:	0a000002 	j	8000008 <_init-0x607ffff8>
    9654:	00174b68 	0x174b68
    9658:	18230200 	0x18230200
    965c:	173f1900 	bne	t9,ra,fa60 <_init-0x687f05a0>
    9660:	1a010000 	0x1a010000
    9664:	0000173f 	0x173f
    9668:	0016701a 	0x16701a
    966c:	04040000 	0x4040000
    9670:	000016b9 	0x16b9
    9674:	172e0404 	bne	t9,t6,a688 <_init-0x687f5978>
    9678:	04040000 	0x4040000
    967c:	00001719 	0x1719
    9680:	00056207 	0x56207
    9684:	b9690a00 	swr	t1,2560(t3)
    9688:	04000016 	bltz	zero,96e4 <_init-0x687f691c>
    968c:	00175104 	0x175104
    9690:	17ad0500 	bne	sp,t5,aa94 <_init-0x687f556c>
    9694:	0c040000 	jal	100000 <_init-0x68700000>
    9698:	04cc062f 	teqi	a2,1583
    969c:	06000000 	bltz	s0,96a0 <_init-0x687f6960>
    96a0:	00000e7f 	0xe7f
    96a4:	05090601 	tgeiu	t0,1537
    96a8:	06020000 	bltzl	s0,96ac <_init-0x687f6954>
    96ac:	00000b6e 	0xb6e
    96b0:	01db0603 	0x1db0603
    96b4:	06040000 	0x6040000
    96b8:	000002c7 	0x2c7
    96bc:	116e0605 	beq	t3,t6,aed4 <_init-0x687f512c>
    96c0:	06060000 	0x6060000
    96c4:	00000865 	0x865
    96c8:	075f0607 	synci	1543(k0)
    96cc:	06080000 	tgei	s0,0
    96d0:	00000f9b 	0xf9b
    96d4:	0a820609 	j	a081824 <_init-0x5e77e7dc>
    96d8:	000a0000 	sll	zero,t2,0x0
    96dc:	00078007 	srav	s0,a3,zero
    96e0:	623b0c00 	0x623b0c00
    96e4:	14000017 	bnez	zero,9744 <_init-0x687f68bc>
    96e8:	000017f5 	0x17f5
    96ec:	00000aa9 	0xaa9
    96f0:	0e420c0c 	jal	9083030 <_init-0x5f77cfd0>
    96f4:	00000e28 	0xe28
    96f8:	0069440c 	syscall	0x1a510
    96fc:	23020000 	addi	v0,t8,0
    9700:	2d240e00 	sltiu	a0,t1,3584
    9704:	470c0000 	c1	0x10c0000
    9708:	0000180c 	syscall	0x60
    970c:	18042302 	0x18042302
    9710:	00000a1b 	0xa1b
    9714:	0cbe0e01 	jal	2f83804 <_init-0x6587c7fc>
    9718:	4a0c0000 	c2	0xc0000
    971c:	00001812 	mflo	v1
    9720:	00082302 	srl	a0,t0,0xc
    9724:	00180619 	0x180619
    9728:	061a0100 	0x61a0100
    972c:	1a000018 	blez	s0,9790 <_init-0x687f6870>
    9730:	000017ad 	0x17ad
    9734:	b8040400 	swr	a0,1024(zero)
    9738:	04000017 	bltz	zero,9798 <_init-0x687f6868>
    973c:	0017f504 	0x17f504
    9740:	e0040400 	sc	a0,1024(zero)
    9744:	07000017 	bltz	t8,97a4 <_init-0x687f685c>
    9748:	00000ab2 	tlt	zero,zero,0x2a
    974c:	17b84c0c 	bne	sp,t8,1c780 <_init-0x687e3880>
    9750:	04040000 	0x4040000
    9754:	00001818 	mult	$ac3,zero,zero
    9758:	00183e05 	0x183e05
    975c:	11030400 	beq	t0,v1,a760 <_init-0x687f58a0>
    9760:	0011ef06 	0x11ef06
    9764:	0e060000 	jal	8180000 <_init-0x60680000>
    9768:	01000007 	srav	zero,zero,t0
    976c:	0ee80700 	jal	ba01c00 <_init-0x5cdfe400>
    9770:	13030000 	beq	t8,v1,9774 <_init-0x687f688c>
    9774:	00001829 	0x1829
    9778:	0018b40d 	break	0x18,0x2d0
    977c:	25031c00 	addiu	v1,t0,7168
    9780:	000df50e 	0xdf50e
    9784:	86190300 	lh	t9,768(s0)
    9788:	0200000c 	syscall	0x80000
    978c:	ee0e0023 	swc3	$14,35(s0)
    9790:	0300000d 	break	0x300
    9794:	000c861a 	0xc861a
    9798:	04230200 	bgezl	at,9f9c <_init-0x687f6064>
    979c:	000fc20e 	0xfc20e
    97a0:	5e1c0300 	0x5e1c0300
    97a4:	02000000 	0x2000000
    97a8:	0e0e0823 	jal	838208c <_init-0x6047df74>
    97ac:	03000008 	jr	t8
    97b0:	00005e1d 	0x5e1d
    97b4:	0c230200 	jal	8c0800 <_init-0x67f3f800>
    97b8:	000abb0e 	0xabb0e
    97bc:	69200300 	0x69200300
    97c0:	02000000 	0x2000000
    97c4:	1b0e1023 	0x1b0e1023
    97c8:	03000006 	srlv	zero,zero,t8
    97cc:	00006921 	0x6921
    97d0:	14230200 	bne	at,v1,9fd4 <_init-0x687f602c>
    97d4:	000dcc0e 	0xdcc0e
    97d8:	3e240300 	0x3e240300
    97dc:	02000018 	mult	s0,zero
    97e0:	07001823 	bltz	t8,f870 <_init-0x687f0790>
    97e4:	0000049a 	0x49a
    97e8:	18492503 	0x18492503
    97ec:	ac0d0000 	sw	t5,0(zero)
    97f0:	a000001a 	sb	zero,26(zero)
    97f4:	7b0e6003 	0x7b0e6003
    97f8:	0300000d 	break	0x300
    97fc:	0018b42a 	0x18b42a
    9800:	00230200 	0x230200
    9804:	000ebf0e 	0xebf0e
    9808:	692d0300 	0x692d0300
    980c:	02000000 	0x2000000
    9810:	b20e1c23 	0xb20e1c23
    9814:	03000005 	0x3000005
    9818:	001aac30 	tge	zero,k0,0x2b0
    981c:	20230200 	addi	v1,at,512
    9820:	0007d20e 	0x7d20e
    9824:	ac310300 	sw	s1,768(at)
    9828:	0200001a 	div	zero,s0,zero
    982c:	560e2423 	bnel	s0,t6,128bc <_init-0x687ed744>
    9830:	0300000a 	movz	zero,t8,zero
    9834:	001ab233 	tltu	zero,k0,0x2c8
    9838:	28230200 	slti	v1,at,512
    983c:	000f6a0e 	0xf6a0e
    9840:	b2350300 	0xb2350300
    9844:	0200001a 	div	zero,s0,zero
    9848:	270e2c23 	addiu	t6,t8,11299
    984c:	03000012 	0x3000012
    9850:	001ab236 	tne	zero,k0,0x2c8
    9854:	30230200 	andi	v1,at,0x200
    9858:	000f840e 	0xf840e
    985c:	b2370300 	0xb2370300
    9860:	0200001a 	div	zero,s0,zero
    9864:	c40e3423 	lwc1	$f14,13347(zero)
    9868:	0300000d 	break	0x300
    986c:	001ab238 	0x1ab238
    9870:	38230200 	xori	v1,at,0x200
    9874:	000f610e 	0xf610e
    9878:	b2390300 	0xb2390300
    987c:	0200001a 	div	zero,s0,zero
    9880:	4f0e3c23 	c3	0x10e3c23
    9884:	03000007 	srav	zero,zero,t8
    9888:	001ab23b 	0x1ab23b
    988c:	40230200 	0x40230200
    9890:	0005280e 	0x5280e
    9894:	b23c0300 	0xb23c0300
    9898:	0200001a 	div	zero,s0,zero
    989c:	1c0e4423 	0x1c0e4423
    98a0:	0300000b 	movn	zero,t8,zero
    98a4:	001ab23d 	0x1ab23d
    98a8:	48230200 	0x48230200
    98ac:	0008bc0e 	0x8bc0e
    98b0:	b23f0300 	0xb23f0300
    98b4:	0200001a 	div	zero,s0,zero
    98b8:	5a0e4c23 	0x5a0e4c23
    98bc:	0300000b 	movn	zero,t8,zero
    98c0:	001ab240 	sll	s6,k0,0x9
    98c4:	50230200 	beql	at,v1,a0c8 <_init-0x687f5f38>
    98c8:	00044c0e 	0x44c0e
    98cc:	b2410300 	0xb2410300
    98d0:	0200001a 	div	zero,s0,zero
    98d4:	940e5423 	lhu	t6,21539(zero)
    98d8:	03000009 	jalr	zero,t8
    98dc:	001ab242 	srl	s6,k0,0x9
    98e0:	58230200 	0x58230200
    98e4:	0005d20e 	0x5d20e
    98e8:	b2430300 	0xb2430300
    98ec:	0200001a 	div	zero,s0,zero
    98f0:	880e5c23 	lwl	t6,23587(zero)
    98f4:	0300000d 	break	0x300
    98f8:	001ab244 	0x1ab244
    98fc:	60230200 	0x60230200
    9900:	000bc00e 	0xbc00e
    9904:	b2480300 	0xb2480300
    9908:	0200001a 	div	zero,s0,zero
    990c:	4b0e6423 	c2	0x10e6423
    9910:	0300000c 	syscall	0xc0000
    9914:	001ab24a 	0x1ab24a
    9918:	68230200 	0x68230200
    991c:	002eea0e 	0x2eea0e
    9920:	614c0300 	0x614c0300
    9924:	02000012 	0x2000012
    9928:	300e6c23 	andi	t6,zero,0x6c23
    992c:	03000005 	0x3000005
    9930:	0016054d 	break	0x16,0x15
    9934:	70230200 	0x70230200
    9938:	002e640e 	0x2e640e
    993c:	414e0300 	0x414e0300
    9940:	0200000f 	0x200000f
    9944:	64127423 	0x64127423
    9948:	0300676c 	0x300676c
    994c:	00175c4f 	0x175c4f
    9950:	78230200 	0x78230200
    9954:	00170c0e 	0x170c0e
    9958:	70500300 	0x70500300
    995c:	02000010 	0x2000010
    9960:	510e7c23 	beql	t0,t6,289f0 <_init-0x687d7610>
    9964:	0300002c 	0x300002c
    9968:	00182351 	0x182351
    996c:	80230300 	lb	v1,768(at)
    9970:	2e080e01 	sltiu	t0,s0,3585
    9974:	52030000 	beql	s0,v1,9978 <_init-0x687f6688>
    9978:	00001346 	0x1346
    997c:	01842303 	0x1842303
    9980:	00108e0e 	0x108e0e
    9984:	91530300 	lbu	s3,768(t2)
    9988:	03000010 	0x3000010
    998c:	0e018823 	jal	806208c <_init-0x6079df74>
    9990:	0000028c 	syscall	0xa
    9994:	00695603 	0x695603
    9998:	23030000 	addi	v1,t8,0
    999c:	610e018c 	0x610e018c
    99a0:	03000002 	0x3000002
    99a4:	00006957 	0x6957
    99a8:	90230300 	lbu	v1,768(at)
    99ac:	026c0e01 	0x26c0e01
    99b0:	58030000 	0x58030000
    99b4:	00000069 	0x69
    99b8:	01942303 	0x1942303
    99bc:	0010b50e 	0x10b50e
    99c0:	695b0300 	0x695b0300
    99c4:	03000000 	0x3000000
    99c8:	0e019823 	jal	806608c <_init-0x60799f74>
    99cc:	00001055 	0x1055
    99d0:	00695e03 	0x695e03
    99d4:	23030000 	addi	v1,t8,0
    99d8:	0400019c 	bltz	zero,a04c <_init-0x687f5fb4>
    99dc:	000bb204 	0xbb204
    99e0:	40040400 	0x40040400
    99e4:	0700000b 	bltz	t8,9a14 <_init-0x687f65ec>
    99e8:	000010f4 	teq	zero,zero,0x43
    99ec:	18bf6003 	0x18bf6003
    99f0:	eb1c0000 	swc2	$28,0(t8)
    99f4:	1200001a 	beqz	s0,9a60 <_init-0x687f65a0>
    99f8:	0100002e 	0x100002e
    99fc:	005e015d 	0x5e015d
    9a00:	33480000 	andi	t0,k0,0x0
    9a04:	33746880 	andi	s4,k1,0x6880
    9a08:	6d016880 	0x6d016880
    9a0c:	0003331d 	0x3331d
    9a10:	eb5c0100 	swc2	$28,256(k0)
    9a14:	0100001a 	div	zero,t0,zero
    9a18:	04040054 	0x4040054
    9a1c:	00001ab8 	0x1ab8
    9a20:	001b221e 	0x1b221e
    9a24:	002bbc00 	0x2bbc00
    9a28:	01660100 	0x1660100
    9a2c:	68803374 	0x68803374
    9a30:	6880337c 	0x6880337c
    9a34:	641d6d01 	0x641d6d01
    9a38:	0100002e 	0x100002e
    9a3c:	000f4165 	0xf4165
    9a40:	1d540100 	0x1d540100
    9a44:	00001448 	0x1448
    9a48:	00696501 	0x696501
    9a4c:	55010000 	bnel	t0,at,9a50 <_init-0x687f65b0>
    9a50:	1b4c1f00 	0x1b4c1f00
    9a54:	5a010000 	0x5a010000
    9a58:	0100002e 	0x100002e
    9a5c:	005e0172 	tlt	v0,s8,0x5
    9a60:	337c0000 	andi	gp,k1,0x0
    9a64:	342c6880 	ori	t4,at,0x6880
    9a68:	6d016880 	0x6d016880
    9a6c:	002b5d20 	0x2b5d20
    9a70:	93730100 	lbu	s3,256(k1)
    9a74:	0200000e 	0x200000e
    9a78:	1f001091 	bgtz	t8,dcc0 <_init-0x687f2340>
    9a7c:	00001b75 	0x1b75
    9a80:	002e3801 	0x2e3801
    9a84:	01870100 	0x1870100
    9a88:	0000005e 	0x5e
    9a8c:	6880342c 	0x6880342c
    9a90:	6880348c 	0x6880348c
    9a94:	13206d01 	beqz	t9,24e9c <_init-0x687db164>
    9a98:	01000003 	0x1000003
    9a9c:	00005e88 	0x5e88
    9aa0:	00550100 	0x550100
    9aa4:	001ba61e 	0x1ba61e
    9aa8:	002ddc00 	0x2ddc00
    9aac:	019f0100 	0x19f0100
    9ab0:	6880348c 	0x6880348c
    9ab4:	68803550 	0x68803550
    9ab8:	511d6d01 	beql	t0,sp,24ec0 <_init-0x687db140>
    9abc:	0100002c 	0x100002c
    9ac0:	0018239e 	0x18239e
    9ac4:	1d540100 	0x1d540100
    9ac8:	00001448 	0x1448
    9acc:	17ad9e01 	bne	sp,t5,ffff12d4 <emuqueue+0x977e9030>
    9ad0:	55010000 	bnel	t0,at,9ad4 <_init-0x687f652c>
    9ad4:	2e002100 	sltiu	zero,s0,8448
    9ad8:	c8010000 	lwc2	$1,0(zero)
    9adc:	00005e01 	0x5e01
    9ae0:	80355000 	lb	s5,20480(at)
    9ae4:	8035e068 	lb	s5,-8088(at)
    9ae8:	216d0168 	addi	t5,t3,360
    9aec:	00002ad4 	0x2ad4
    9af0:	5e01ec01 	0x5e01ec01
    9af4:	e0000000 	sc	zero,0(zero)
    9af8:	38688035 	xori	t0,v1,0x8035
    9afc:	01688036 	tne	t3,t0,0x200
    9b00:	1c031e6d 	0x1c031e6d
    9b04:	2bc80000 	slti	t0,s8,0
    9b08:	db010000 	ldc2	$1,0(t8)
    9b0c:	80363801 	lb	s6,14337(at)
    9b10:	80365468 	lb	s6,21608(at)
    9b14:	1d6d0168 	0x1d6d0168
    9b18:	00002e08 	0x2e08
    9b1c:	1346da01 	beq	k0,a2,324 <_init-0x687ffcdc>
    9b20:	54010000 	bnel	zero,at,9b24 <_init-0x687f64dc>
    9b24:	0014481d 	0x14481d
    9b28:	3bda0100 	xori	k0,s8,0x100
    9b2c:	01000013 	mtlo	t0
    9b30:	01220055 	0x1220055
    9b34:	00002ee0 	0x2ee0
    9b38:	5e01f701 	0x5e01f701
    9b3c:	54000000 	bnezl	zero,9b40 <_init-0x687f64c0>
    9b40:	cc688036 	pref	0x8,-32714(v1)
    9b44:	01688036 	tne	t3,t0,0x200
    9b48:	1c45236d 	0x1c45236d
    9b4c:	a2010000 	sb	at,0(s0)
    9b50:	0100002c 	0x100002c
    9b54:	5e010108 	0x5e010108
    9b58:	cc000000 	pref	0x0,0(zero)
    9b5c:	30688036 	andi	t0,v1,0x8036
    9b60:	01688037 	0x1688037
    9b64:	0313246d 	0x313246d
    9b68:	09010000 	j	4040000 <_init-0x647c0000>
    9b6c:	00005e01 	0x5e01
    9b70:	00550100 	0x550100
    9b74:	001c7925 	0x1c7925
    9b78:	002b6a00 	0x2b6a00
    9b7c:	01190100 	0x1190100
    9b80:	80373001 	lb	s7,12289(at)
    9b84:	80373868 	lb	s7,14440(at)
    9b88:	266d0168 	addiu	t5,s3,360
    9b8c:	00002eea 	0x2eea
    9b90:	61011801 	0x61011801
    9b94:	01000012 	0x1000012
    9b98:	14482654 	bne	v0,t0,134ec <_init-0x687ecb14>
    9b9c:	18010000 	0x18010000
    9ba0:	0011c901 	0x11c901
    9ba4:	00550100 	0x550100
    9ba8:	001d3d25 	0x1d3d25
    9bac:	002d1400 	0x2d1400
    9bb0:	01600100 	0x1600100
    9bb4:	80373801 	lb	s7,14337(at)
    9bb8:	8039a868 	lb	t9,-22424(at)
    9bbc:	266d0168 	addiu	t5,s3,360
    9bc0:	00001fc4 	0x1fc4
    9bc4:	3d015f01 	0x3d015f01
    9bc8:	01000002 	0x1000002
    9bcc:	6f742760 	0x6f742760
    9bd0:	61010070 	0x61010070
    9bd4:	00006901 	0x6901
    9bd8:	28530100 	slti	s3,v0,256
    9bdc:	00002db6 	tne	zero,zero,0xb6
    9be0:	ec01a801 	swc3	$1,-22527(zero)
    9be4:	29688038 	slti	t0,t3,-32712
    9be8:	00001cfe 	0x1cfe
    9bec:	00001d3d 	0x1d3d
    9bf0:	68803800 	0x68803800
    9bf4:	68803868 	0x68803868
    9bf8:	001d4f2a 	0x1d4f2a
    9bfc:	01202b00 	0x1202b00
    9c00:	5b2c0000 	0x5b2c0000
    9c04:	2d00001d 	sltiu	zero,t0,29
    9c08:	00001d68 	0x1d68
    9c0c:	68803824 	0x68803824
    9c10:	68803868 	0x68803868
    9c14:	001d7a2e 	0x1d7a2e
    9c18:	2f520100 	sltiu	s2,k0,256
    9c1c:	68803828 	0x68803828
    9c20:	68803868 	0x68803868
    9c24:	001d862c 	0x1d862c
    9c28:	00000000 	nop
    9c2c:	1d1a3000 	0x1d1a3000
    9c30:	389c0000 	xori	gp,a0,0x0
    9c34:	38e46880 	xori	a0,a3,0x6880
    9c38:	74246880 	jalx	91a200 <_init-0x67ee5e00>
    9c3c:	01000012 	0x1000012
    9c40:	1d930176 	0x1d930176
    9c44:	54010000 	bnel	zero,at,9c48 <_init-0x687f63b8>
    9c48:	1d992d00 	0x1d992d00
    9c4c:	39180000 	xori	t8,t0,0x0
    9c50:	39386880 	xori	t8,t1,0x6880
    9c54:	ab2a6880 	swl	t2,26752(t9)
    9c58:	2f00001d 	sltiu	zero,t8,29
    9c5c:	68803918 	0x68803918
    9c60:	68803938 	0x68803938
    9c64:	001db72c 	0x1db72c
    9c68:	00000000 	nop
    9c6c:	001d6831 	tgeu	zero,sp,0x1a0
    9c70:	002d8b00 	0x2d8b00
    9c74:	01310100 	0x1310100
    9c78:	00005e01 	0x5e01
    9c7c:	c4320100 	lwc1	$f18,256(at)
    9c80:	0100001f 	0x100001f
    9c84:	023d0130 	tge	s1,sp,0x4
    9c88:	13330000 	beq	t9,s3,9c8c <_init-0x687f6374>
    9c8c:	01000003 	0x1000003
    9c90:	005e0132 	tlt	v0,s8,0x4
    9c94:	31000000 	andi	zero,t0,0x0
    9c98:	00001d93 	0x1d93
    9c9c:	00002cb5 	0x2cb5
    9ca0:	01011e01 	0x1011e01
    9ca4:	0000005e 	0x5e
    9ca8:	12743201 	beq	s3,s4,164b0 <_init-0x687e9b50>
    9cac:	1d010000 	0x1d010000
    9cb0:	001d9301 	0x1d9301
    9cb4:	03133300 	0x3133300
    9cb8:	1f010000 	0x1f010000
    9cbc:	00005e01 	0x5e01
    9cc0:	04040000 	0x4040000
    9cc4:	000008d5 	0x8d5
    9cc8:	001dc431 	tgeu	zero,sp,0x310
    9ccc:	002b3f00 	0x2b3f00
    9cd0:	014d0100 	0x14d0100
    9cd4:	00005e01 	0x5e01
    9cd8:	c4320100 	lwc1	$f18,256(at)
    9cdc:	0100001f 	0x100001f
    9ce0:	023d014c 	syscall	0x8f405
    9ce4:	13330000 	beq	t9,s3,9ce8 <_init-0x687f6318>
    9ce8:	01000003 	0x1000003
    9cec:	005e014e 	0x5e014e
    9cf0:	34000000 	li	zero,0x0
    9cf4:	00001dee 	0x1dee
    9cf8:	00002e6c 	0x2e6c
    9cfc:	0101ae01 	0x101ae01
    9d00:	0000005e 	0x5e
    9d04:	688039a8 	0x688039a8
    9d08:	68803b4c 	0x68803b4c
    9d0c:	33246d01 	andi	a0,t9,0x6d01
    9d10:	01000003 	0x1000003
    9d14:	1aeb01af 	0x1aeb01af
    9d18:	60010000 	0x60010000
    9d1c:	1e273400 	0x1e273400
    9d20:	2d9b0000 	sltiu	k1,t4,0
    9d24:	50010000 	beql	zero,at,9d28 <_init-0x687f62d8>
    9d28:	005e0102 	0x5e0102
    9d2c:	3b4c0000 	xori	t4,k0,0x0
    9d30:	3ca06880 	0x3ca06880
    9d34:	6d016880 	0x6d016880
    9d38:	0028de24 	0x28de24
    9d3c:	02510100 	0x2510100
    9d40:	0000012c 	0x12c
    9d44:	58246001 	0x58246001
    9d48:	0100001a 	div	zero,t0,zero
    9d4c:	1e270252 	0x1e270252
    9d50:	91020000 	lbu	v0,0(t0)
    9d54:	380a0010 	xori	t2,zero,0x10
    9d58:	9000001e 	lbu	zero,30(zero)
    9d5c:	0c000000 	jal	0 <_init-0x68800000>
    9d60:	00000035 	0x35
    9d64:	350001ff 	ori	zero,t0,0x1ff
    9d68:	00002dc0 	sll	a1,zero,0x17
    9d6c:	01028701 	0x1028701
    9d70:	0000005e 	0x5e
    9d74:	68803ca0 	0x68803ca0
    9d78:	68803d14 	0x68803d14
    9d7c:	01366d01 	0x1366d01
    9d80:	00002b03 	sra	a1,zero,0xc
    9d84:	01031801 	0x1031801
    9d88:	68803d14 	0x68803d14
    9d8c:	68803d44 	0x68803d44
    9d90:	c0346d01 	ll	s4,27905(at)
    9d94:	9400001e 	lhu	zero,30(zero)
    9d98:	0100002c 	0x100002c
    9d9c:	69010377 	0x69010377
    9da0:	44000000 	mfc1	zero,$f0
    9da4:	d068803d 	0xd068803d
    9da8:	01688040 	0x1688040
    9dac:	736d376d 	0x736d376d
    9db0:	76010067 	jalx	804019c <_init-0x607bfe64>
    9db4:	0008e003 	sra	gp,t0,0x0
    9db8:	27610100 	addiu	at,k1,256
    9dbc:	78010074 	0x78010074
    9dc0:	00084803 	sra	t1,t0,0x0
    9dc4:	10910200 	beq	a0,s1,a5c8 <_init-0x687f5a38>
    9dc8:	001ec02d 	0x1ec02d
    9dcc:	803e8400 	lb	s8,-31744(at)
    9dd0:	803ff068 	lb	ra,-3992(at)
    9dd4:	1ed23868 	0x1ed23868
    9dd8:	91030000 	lbu	v1,0(t0)
    9ddc:	382b0898 	xori	t3,at,0x898
    9de0:	38000001 	xori	zero,zero,0x1
    9de4:	00001ed2 	0x1ed2
    9de8:	08989103 	j	262440c <_init-0x661dbbf4>
    9dec:	31000000 	andi	zero,t0,0x0
    9df0:	00001edf 	0x1edf
    9df4:	00002cda 	0x2cda
    9df8:	01031f01 	0x1031f01
    9dfc:	0000005e 	0x5e
    9e00:	2b313301 	slti	s1,t9,13057
    9e04:	20010000 	addi	at,zero,0
    9e08:	000de903 	sra	sp,t5,0x4
    9e0c:	15390000 	bne	t1,t9,9e10 <_init-0x687f61f0>
    9e10:	0100001f 	0x100001f
    9e14:	00002c21 	0x2c21
    9e18:	0103aa01 	0x103aa01
    9e1c:	688040d0 	0x688040d0
    9e20:	68804144 	0x68804144
    9e24:	f5266d01 	sdc1	$f6,27905(t1)
    9e28:	0100000d 	break	0x100
    9e2c:	0c8603a9 	jal	2180ea4 <_init-0x6667f15c>
    9e30:	54010000 	bnel	zero,at,9e34 <_init-0x687f61cc>
    9e34:	002c6e24 	0x2c6e24
    9e38:	03ab0100 	0x3ab0100
    9e3c:	00000db9 	0xdb9
    9e40:	00109102 	srl	s2,s0,0x4
    9e44:	001f4b39 	0x1f4b39
    9e48:	2c580100 	sltiu	t8,v0,256
    9e4c:	bb010000 	swr	at,0(t8)
    9e50:	41440103 	0x41440103
    9e54:	41b86880 	0x41b86880
    9e58:	6d016880 	0x6d016880
    9e5c:	000df526 	0xdf526
    9e60:	03ba0100 	0x3ba0100
    9e64:	00000c86 	0xc86
    9e68:	6e245401 	0x6e245401
    9e6c:	0100002c 	0x100002c
    9e70:	0db903bc 	jal	6e40ef0 <_init-0x619bf110>
    9e74:	91020000 	lbu	v0,0(t0)
    9e78:	7b230010 	0x7b230010
    9e7c:	01000020 	add	zero,t0,zero
    9e80:	00002ac5 	0x2ac5
    9e84:	0103c901 	0x103c901
    9e88:	00000069 	0x69
    9e8c:	688041b8 	0x688041b8
    9e90:	688046d8 	0x688046d8
    9e94:	723a6d01 	0x723a6d01
    9e98:	01007465 	0x1007465
    9e9c:	006903ca 	0x6903ca
    9ea0:	6d270000 	0x6d270000
    9ea4:	01006773 	tltu	t0,zero,0x19d
    9ea8:	07df03cb 	synci	971(s8)
    9eac:	91020000 	lbu	v0,0(t0)
    9eb0:	2e2d2820 	sltiu	t5,s1,10272
    9eb4:	e9010000 	swc2	$1,0(t0)
    9eb8:	8041f803 	lb	at,-2045(v0)
    9ebc:	1fd02968 	0x1fd02968
    9ec0:	207b0000 	addi	k1,v1,0
    9ec4:	41d80000 	wrpgpr	zero,t8
    9ec8:	41f86880 	0x41f86880
    9ecc:	8d386880 	lw	t8,26752(t1)
    9ed0:	01000020 	add	zero,t0,zero
    9ed4:	20992c63 	addi	t9,a0,11363
    9ed8:	a5380000 	sh	t8,0(t1)
    9edc:	03000020 	add	zero,t8,zero
    9ee0:	2b08a891 	slti	t0,t8,-22383
    9ee4:	00000150 	0x150
    9ee8:	00208d38 	0x208d38
    9eec:	2c630100 	sltiu	v1,v1,256
    9ef0:	00002099 	0x2099
    9ef4:	0020a538 	0x20a538
    9ef8:	a8910300 	swl	s1,768(a0)
    9efc:	29000008 	slti	zero,t0,8
    9f00:	00002032 	tlt	zero,zero,0x80
    9f04:	000020b2 	tlt	zero,zero,0x82
    9f08:	688041f8 	0x688041f8
    9f0c:	688042b0 	0x688042b0
    9f10:	0020c438 	0x20c438
    9f14:	2b520100 	slti	s2,k0,256
    9f18:	00000180 	sll	zero,zero,0x6
    9f1c:	0020c438 	0x20c438
    9f20:	29520100 	slti	s2,t2,256
    9f24:	00002016 	0x2016
    9f28:	000020d1 	0x20d1
    9f2c:	68804228 	0x68804228
    9f30:	68804238 	0x68804238
    9f34:	0020e22c 	0x20e22c
    9f38:	01a82b00 	0x1a82b00
    9f3c:	e22c0000 	sc	t4,0(s1)
    9f40:	00000020 	add	zero,zero,zero
    9f44:	20ee3b00 	addi	t6,a3,15104
    9f48:	42400000 	c0	0x400000
    9f4c:	42506880 	c0	0x506880
    9f50:	fc3b6880 	sdc3	$27,26752(at)
    9f54:	80000020 	lb	zero,32(zero)
    9f58:	84688042 	lh	t0,-32702(v1)
    9f5c:	00688042 	0x688042
    9f60:	20602900 	addi	zero,v1,10496
    9f64:	21090000 	addi	t1,t0,0
    9f68:	43c80000 	c0	0x1c80000
    9f6c:	44646880 	0x44646880
    9f70:	1b386880 	0x1b386880
    9f74:	03000021 	move	zero,t8
    9f78:	2f08b891 	sltiu	t0,t8,-18287
    9f7c:	688043c8 	0x688043c8
    9f80:	68804464 	0x68804464
    9f84:	00211b38 	0x211b38
    9f88:	b8910300 	swr	s1,768(a0)
    9f8c:	3b000008 	xori	zero,t8,0x8
    9f90:	00002128 	0x2128
    9f94:	68804464 	0x68804464
    9f98:	688044ac 	0x688044ac
    9f9c:	0021353b 	0x21353b
    9fa0:	80461000 	lb	a2,4096(v0)
    9fa4:	80463468 	lb	a2,13416(v0)
    9fa8:	b2310068 	0xb2310068
    9fac:	71000020 	clz	zero,t0
    9fb0:	0100002d 	0x100002d
    9fb4:	5e0101cd 	0x5e0101cd
    9fb8:	01000000 	0x1000000
    9fbc:	00033333 	tltu	zero,v1,0xcc
    9fc0:	01ce0100 	0x1ce0100
    9fc4:	00001aeb 	0x1aeb
    9fc8:	002d6733 	tltu	at,t5,0x19c
    9fcc:	01cf0100 	0x1cf0100
    9fd0:	00000907 	0x907
    9fd4:	002cf133 	tltu	at,t4,0x3c4
    9fd8:	01d00100 	0x1d00100
    9fdc:	000016ae 	0x16ae
    9fe0:	20d13100 	addi	s1,a2,12544
    9fe4:	2cfd0000 	sltiu	sp,a3,0
    9fe8:	d1010000 	0xd1010000
    9fec:	005e0102 	0x5e0102
    9ff0:	3a010000 	xori	at,s0,0x0
    9ff4:	00746572 	tlt	v1,s4,0x195
    9ff8:	5e02d201 	0x5e02d201
    9ffc:	00000000 	nop
    a000:	0020ee3c 	0x20ee3c
    a004:	002c0100 	0x2c0100
    a008:	01bc0100 	0x1bc0100
    a00c:	0000005e 	0x5e
    a010:	03133d01 	0x3133d01
    a014:	bd010000 	cache	0x1,0(t0)
    a018:	0000005e 	0x5e
    a01c:	2ec23e00 	sltiu	v0,s6,15872
    a020:	bf010000 	cache	0x1,0(t8)
    a024:	005e0102 	0x5e0102
    a028:	3f010000 	0x3f010000
    a02c:	00002d4d 	break	0x0,0xb5
    a030:	5e014e01 	0x5e014e01
    a034:	01000000 	0x1000000
    a038:	00212831 	tgeu	at,at,0xa0
    a03c:	002ae600 	0x2ae600
    a040:	02a00100 	0x2a00100
    a044:	00005e01 	0x5e01
    a048:	58330100 	0x58330100
    a04c:	0100001a 	div	zero,t0,zero
    a050:	1e2702a1 	0x1e2702a1
    a054:	3f000000 	0x3f000000
    a058:	00002bd6 	0x2bd6
    a05c:	5e013801 	0x5e013801
    a060:	01000000 	0x1000000
    a064:	002c493f 	0x2c493f
    a068:	01930100 	0x1930100
    a06c:	0000005e 	0x5e
    a070:	00304001 	movf	t0,at,$fcc4
    a074:	a9180000 	swl	t8,0(t0)
    a078:	000000c6 	0xc6
    a07c:	64030501 	0x64030501
    a080:	40688073 	0x40688073
    a084:	00000074 	teq	zero,zero,0x1
    a088:	00edb518 	0xedb518
    a08c:	05010000 	bgez	t0,a090 <_init-0x687f5f70>
    a090:	80736803 	lb	s3,26627(v1)
    a094:	2bee4068 	slti	t6,ra,16488
    a098:	07010000 	bgez	t8,a09c <_init-0x687f5f64>
    a09c:	00000069 	0x69
    a0a0:	60030501 	0x60030501
    a0a4:	40688073 	0x40688073
    a0a8:	000005c7 	0x5c7
    a0ac:	0e0f0801 	jal	83c2004 <_init-0x6043dffc>
    a0b0:	05010000 	bgez	t0,a0b4 <_init-0x687f5f4c>
    a0b4:	80735c03 	lb	s3,23555(v1)
    a0b8:	0a024068 	j	80901a0 <_init-0x6076fe60>
    a0bc:	09010000 	j	4040000 <_init-0x647c0000>
    a0c0:	00001aeb 	0x1aeb
    a0c4:	58030501 	0x58030501
    a0c8:	40688073 	0x40688073
    a0cc:	00002b7d 	0x2b7d
    a0d0:	005e0a01 	0x5e0a01
    a0d4:	05010000 	bgez	t0,a0d8 <_init-0x687f5f28>
    a0d8:	80735403 	lb	s3,21507(v1)
    a0dc:	0e694168 	jal	9a505a0 <_init-0x5edafa60>
    a0e0:	0b010000 	j	c040000 <_init-0x5c7c0000>
    a0e4:	00000169 	0x169
    a0e8:	2f410101 	sltiu	at,k0,257
    a0ec:	01000016 	0x1000016
    a0f0:	0000690c 	syscall	0x1a4
    a0f4:	41010100 	bc0t	a4f8 <_init-0x687f5b08>
    a0f8:	00001a02 	srl	v1,zero,0x8
    a0fc:	0c800d01 	jal	2003404 <_init-0x667fcbfc>
    a100:	01010000 	0x1010000
    a104:	001a3841 	0x1a3841
    a108:	800e0100 	lb	t6,256(zero)
    a10c:	0100000c 	syscall	0x40000
    a110:	04780001 	0x4780001
    a114:	00020000 	sll	zero,v0,0x0
    a118:	0000122a 	0x122a
    a11c:	193a0104 	0x193a0104
    a120:	49640000 	0x49640000
    a124:	46d86880 	add.ps	$f2,$f13,$f24
    a128:	00896880 	0x896880
    a12c:	aa010000 	swl	at,0(s0)
    a130:	dc00002f 	ldc3	$0,47(zero)
    a134:	02000000 	0x2000000
    a138:	000000bb 	0xbb
    a13c:	91020702 	lbu	v0,1794(t0)
    a140:	04000001 	bltz	zero,a148 <_init-0x687f5eb8>
    a144:	6e690307 	0x6e690307
    a148:	05040074 	0x5040074
    a14c:	0001b502 	srl	s6,at,0x14
    a150:	02050800 	0x2050800
    a154:	0000018c 	syscall	0x6
    a158:	ba020704 	swr	v0,1796(s0)
    a15c:	04000001 	bltz	zero,a164 <_init-0x687f5e9c>
    a160:	55040405 	bnel	t0,a0,b178 <_init-0x687f4e88>
    a164:	02000000 	0x2000000
    a168:	00000009 	jalr	zero,zero
    a16c:	e6050601 	swc1	$f5,1537(s0)
    a170:	03000006 	srlv	zero,zero,t8
    a174:	00002c15 	0x2c15
    a178:	00900600 	0x900600
    a17c:	1e260000 	0x1e260000
    a180:	03080000 	0x3080000
    a184:	27d60736 	addiu	s6,s8,1846
    a188:	38030000 	xori	v1,zero,0x0
    a18c:	0000005c 	0x5c
    a190:	07002302 	bltz	t8,12d9c <_init-0x687ed264>
    a194:	00001cfc 	0x1cfc
    a198:	00483a03 	0x483a03
    a19c:	23020000 	addi	v0,t8,0
    a1a0:	00020004 	sllv	zero,v0,zero
    a1a4:	01000000 	0x1000000
    a1a8:	02040808 	0x2040808
    a1ac:	0000018c 	syscall	0x6
    a1b0:	49020704 	bc2fl	bdc4 <_init-0x687f423c>
    a1b4:	02000001 	movf	zero,s0,$fcc0
    a1b8:	01870205 	0x1870205
    a1bc:	07080000 	tgei	t8,0
    a1c0:	00b40404 	0xb40404
    a1c4:	55090000 	bnel	t0,t1,a1c8 <_init-0x687f5e38>
    a1c8:	0a000000 	j	8000000 <_init-0x60800000>
    a1cc:	000000e0 	0xe0
    a1d0:	0ba30604 	j	e8c1810 <_init-0x59f3e7f0>
    a1d4:	00000153 	0x153
    a1d8:	01310b00 	0x1310b00
    a1dc:	0b010000 	j	c040000 <_init-0x5c7c0000>
    a1e0:	0000005b 	0x5b
    a1e4:	001a0b02 	srl	at,k0,0xc
    a1e8:	0b030000 	j	c0c0000 <_init-0x5c740000>
    a1ec:	00000045 	0x45
    a1f0:	f50a0000 	sdc1	$f10,0(t0)
    a1f4:	04000000 	bltz	zero,a1f8 <_init-0x687f5e08>
    a1f8:	c30bb006 	ll	t3,-20474(t8)
    a1fc:	00000001 	movf	zero,zero,$fcc0
    a200:	00019e0b 	0x19e0b
    a204:	06000100 	bltz	s0,a608 <_init-0x687f59f8>
    a208:	0000013a 	0x13a
    a20c:	00002fe5 	0x2fe5
    a210:	07220510 	bltzl	t9,b654 <_init-0x687f49ac>
    a214:	00002f1a 	0x2f1a
    a218:	00482505 	0x482505
    a21c:	23020000 	addi	v0,t8,0
    a220:	2fbd0700 	sltiu	sp,sp,1792
    a224:	27050000 	addiu	a1,t8,0
    a228:	00000048 	0x48
    a22c:	07042302 	0x7042302
    a230:	00002f8f 	0x2f8f
    a234:	00482905 	0x482905
    a238:	23020000 	addi	v0,t8,0
    a23c:	2fc70708 	sltiu	a3,s8,1800
    a240:	2b050000 	slti	a1,t8,0
    a244:	00000048 	0x48
    a248:	000c2302 	srl	a0,t4,0xc
    a24c:	002f1405 	0x2f1405
    a250:	33320500 	andi	s2,t9,0x500
    a254:	05000000 	bltz	t0,a258 <_init-0x687f5da8>
    a258:	00002606 	0x2606
    a25c:	002c1102 	ror	v0,t4,0x4
    a260:	7b0c0000 	0x7b0c0000
    a264:	2b000001 	slti	zero,t8,1
    a268:	0400002f 	bltz	zero,a328 <_init-0x687f5cd8>
    a26c:	07070402 	0x7070402
    a270:	00000677 	0x677
    a274:	017b0804 	sllv	at,k1,t3
    a278:	23020000 	addi	v0,t8,0
    a27c:	2ef30700 	sltiu	s3,s7,1792
    a280:	09040000 	j	4100000 <_init-0x64700000>
    a284:	00000097 	0x97
    a288:	04802303 	bltz	a0,12e98 <_init-0x687ed168>
    a28c:	018c0d00 	0x18c0d00
    a290:	00550000 	0x550000
    a294:	990e0000 	lwr	t6,0(t0)
    a298:	ff000000 	sdc3	$0,0(t8)
    a29c:	f8050001 	sdc2	$5,1(zero)
    a2a0:	0400002e 	bltz	zero,a35c <_init-0x687f5ca4>
    a2a4:	0001500b 	movn	t2,zero,at
    a2a8:	01f30f00 	0x1f30f00
    a2ac:	7d010000 	ext	at,t0,0x0,0x1
    a2b0:	0100002f 	0x100002f
    a2b4:	00330122 	0x330122
    a2b8:	46d80000 	add.ps	$f0,$f0,$f24
    a2bc:	46f86880 	c1	0xf86880
    a2c0:	6d016880 	0x6d016880
    a2c4:	002f2310 	0x2f2310
    a2c8:	f3210100 	0xf3210100
    a2cc:	01000001 	movf	zero,t0,$fcc0
    a2d0:	1fc41054 	0x1fc41054
    a2d4:	21010000 	addi	at,t0,0
    a2d8:	0000004f 	0x4f
    a2dc:	6c115501 	0x6c115501
    a2e0:	01006e65 	0x1006e65
    a2e4:	00003321 	0x3321
    a2e8:	12560100 	beq	s2,s6,a6ec <_init-0x687f5914>
    a2ec:	00002fdc 	0x2fdc
    a2f0:	00332301 	0x332301
    a2f4:	91020000 	lbu	v0,0(t0)
    a2f8:	2fd21310 	sltiu	s2,s8,4880
    a2fc:	24010000 	li	at,0
    a300:	00000033 	tltu	zero,zero
    a304:	45040400 	bc1f	$fcc1,b308 <_init-0x687f4cf8>
    a308:	0f000001 	jal	c000004 <_init-0x5c7ffffc>
    a30c:	00000255 	0x255
    a310:	002f6d01 	0x2f6d01
    a314:	012f0100 	0x12f0100
    a318:	00000033 	tltu	zero,zero
    a31c:	688046f8 	0x688046f8
    a320:	68804750 	0x68804750
    a324:	23106d01 	addi	s0,t8,27905
    a328:	0100002f 	0x100002f
    a32c:	0001f32e 	0x1f32e
    a330:	10620100 	beq	v1,v0,a734 <_init-0x687f58cc>
    a334:	00001fc4 	0x1fc4
    a338:	004f2e01 	0x4f2e01
    a33c:	61010000 	0x61010000
    a340:	6e656c11 	0x6e656c11
    a344:	332e0100 	andi	t6,t9,0x100
    a348:	01000000 	0x1000000
    a34c:	2fdc1260 	sltiu	gp,s8,4704
    a350:	30010000 	andi	at,zero,0x0
    a354:	00000033 	tltu	zero,zero
    a358:	13109102 	beq	t8,s0,fffee764 <emuqueue+0x977e64c0>
    a35c:	00002fd2 	0x2fd2
    a360:	00333101 	0x333101
    a364:	0f000000 	jal	c000000 <_init-0x5c800000>
    a368:	000002cb 	0x2cb
    a36c:	00302101 	0x302101
    a370:	013d0100 	0x13d0100
    a374:	00000033 	tltu	zero,zero
    a378:	68804750 	0x68804750
    a37c:	688047e4 	0x688047e4
    a380:	23106d01 	addi	s0,t8,27905
    a384:	0100002f 	0x100002f
    a388:	0001f33c 	0x1f33c
    a38c:	10630100 	beq	v1,v1,a790 <_init-0x687f5870>
    a390:	00001fc4 	0x1fc4
    a394:	004f3c01 	0x4f3c01
    a398:	61010000 	0x61010000
    a39c:	6e656c11 	0x6e656c11
    a3a0:	333c0100 	andi	gp,t9,0x100
    a3a4:	01000000 	0x1000000
    a3a8:	30311060 	andi	s1,at,0x1060
    a3ac:	3c010000 	lui	at,0x0
    a3b0:	00000033 	tltu	zero,zero
    a3b4:	dc126201 	ldc3	$18,25089(zero)
    a3b8:	0100002f 	0x100002f
    a3bc:	0000333e 	0x333e
    a3c0:	20910200 	addi	s1,a0,512
    a3c4:	74657214 	jalx	195c850 <_init-0x66ea37b0>
    a3c8:	333f0100 	andi	ra,t9,0x100
    a3cc:	15000000 	bnez	t0,a3d0 <_init-0x687f5c30>
    a3d0:	01007374 	teq	t0,zero,0x1cd
    a3d4:	00006740 	sll	t4,zero,0x1d
    a3d8:	18910200 	0x18910200
    a3dc:	03190f00 	0x3190f00
    a3e0:	9a010000 	lwr	at,0(s0)
    a3e4:	0100002f 	0x100002f
    a3e8:	0033014f 	0x33014f
    a3ec:	47e40000 	c1	0x1e40000
    a3f0:	48106880 	0x48106880
    a3f4:	6d016880 	0x6d016880
    a3f8:	002f2310 	0x2f2310
    a3fc:	f34e0100 	0xf34e0100
    a400:	01000001 	movf	zero,t0,$fcc0
    a404:	1fc41054 	0x1fc41054
    a408:	4e010000 	lwxc1	$f0,at(s0)
    a40c:	0000004f 	0x4f
    a410:	6c115501 	0x6c115501
    a414:	01006e65 	0x1006e65
    a418:	0000334e 	0x334e
    a41c:	13560100 	beq	k0,s6,a820 <_init-0x687f57e0>
    a420:	00000d53 	0xd53
    a424:	00335001 	0x335001
    a428:	0f000000 	jal	c000000 <_init-0x5c800000>
    a42c:	00000342 	srl	zero,zero,0xd
    a430:	002f5a01 	0x2f5a01
    a434:	015d0100 	0x15d0100
    a438:	00000033 	tltu	zero,zero
    a43c:	68804810 	0x68804810
    a440:	68804838 	0x68804838
    a444:	23106d01 	addi	s0,t8,27905
    a448:	0100002f 	0x100002f
    a44c:	0001f35c 	0x1f35c
    a450:	00540100 	0x540100
    a454:	00036b0f 	0x36b0f
    a458:	30390100 	andi	t9,at,0x100
    a45c:	6c010000 	0x6c010000
    a460:	00003301 	0x3301
    a464:	80483800 	lb	t0,14336(v0)
    a468:	80487468 	lb	t0,29800(v0)
    a46c:	106d0168 	beq	v1,t5,aa10 <_init-0x687f55f0>
    a470:	00002f23 	0x2f23
    a474:	036b6b01 	0x36b6b01
    a478:	60010000 	0x60010000
    a47c:	8c040400 	lw	a0,1024(zero)
    a480:	0f000001 	jal	c000004 <_init-0x5c7ffffc>
    a484:	000003a5 	0x3a5
    a488:	002fed01 	0x2fed01
    a48c:	01770100 	0x1770100
    a490:	00000033 	tltu	zero,zero
    a494:	68804874 	0x68804874
    a498:	6880489c 	0x6880489c
    a49c:	23106d01 	addi	s0,t8,27905
    a4a0:	0100002f 	0x100002f
    a4a4:	00036b76 	tne	zero,v1,0x1ad
    a4a8:	13540100 	beq	k0,s4,a8ac <_init-0x687f5754>
    a4ac:	0000301c 	0x301c
    a4b0:	00337801 	0x337801
    a4b4:	0f000000 	jal	c000000 <_init-0x5c800000>
    a4b8:	00000413 	0x413
    a4bc:	002f4801 	0x2f4801
    a4c0:	01110100 	0x1110100
    a4c4:	00000033 	tltu	zero,zero
    a4c8:	6880489c 	0x6880489c
    a4cc:	68804964 	0x68804964
    a4d0:	23106d01 	addi	s0,t8,27905
    a4d4:	0100002f 	0x100002f
    a4d8:	0001f310 	0x1f310
    a4dc:	10620100 	beq	v1,v0,a8e0 <_init-0x687f5720>
    a4e0:	00000677 	0x677
    a4e4:	00ae1001 	0xae1001
    a4e8:	61010000 	0x61010000
    a4ec:	00335912 	0x335912
    a4f0:	f5130100 	sdc1	$f19,256(t0)
    a4f4:	02000000 	0x2000000
    a4f8:	13161091 	beq	t8,s6,e740 <_init-0x687f18c0>
    a4fc:	a8000004 	swl	zero,4(zero)
    a500:	ac688048 	sw	t0,-32696(v1)
    a504:	17688048 	bne	k1,t0,fffea628 <emuqueue+0x977e2384>
    a508:	00000424 	0x424
    a50c:	00042f17 	0x42f17
    a510:	01c01800 	0x1c01800
    a514:	3a190000 	xori	t9,s0,0x0
    a518:	1a000004 	blez	s0,a52c <_init-0x687f5ad4>
    a51c:	00000445 	0x445
    a520:	00006001 	movf	t4,zero,$fcc0
    a524:	04511b00 	bgezal	v0,11128 <_init-0x687eeed8>
    a528:	2fff0000 	sltiu	ra,ra,0
    a52c:	82010000 	lb	at,0(s0)
    a530:	00013a01 	0x13a01
    a534:	3f1c0100 	0x3f1c0100
    a538:	0100002f 	0x100002f
    a53c:	0000ae81 	0xae81
    a540:	33591c00 	andi	t9,k0,0x1c00
    a544:	81010000 	lb	at,0(t0)
    a548:	00000451 	0x451
    a54c:	00301013 	0x301013
    a550:	33830100 	andi	v1,gp,0x100
    a554:	13000000 	beqz	t8,a558 <_init-0x687f5aa8>
    a558:	00002f0d 	break	0x0,0xbc
    a55c:	013a8401 	0x13a8401
    a560:	04000000 	bltz	zero,a564 <_init-0x687f5a9c>
    a564:	0000f504 	0xf504
    a568:	00301d00 	0x301d00
    a56c:	a9060000 	swl	a2,0(t0)
    a570:	000000b9 	0xb9
    a574:	64030501 	0x64030501
    a578:	1d688073 	0x1d688073
    a57c:	00000074 	teq	zero,zero,0x1
    a580:	00e0b506 	0xe0b506
    a584:	05010000 	bgez	t0,a588 <_init-0x687f5a78>
    a588:	80736803 	lb	s3,26627(v1)
    a58c:	00fa0068 	0xfa0068
    a590:	00020000 	sll	zero,v0,0x0
    a594:	00001396 	0x1396
    a598:	1a6c0104 	0x1a6c0104
    a59c:	4ea40000 	lwxc1	$f0,a0(s5)
    a5a0:	4e9c6880 	c3	0x9c6880
    a5a4:	00896880 	0x896880
    a5a8:	a4010000 	sh	at,0(zero)
    a5ac:	4a000030 	c2	0x30
    a5b0:	02000030 	tge	s0,zero
    a5b4:	00000000 	nop
    a5b8:	04030801 	bgezl	zero,c5c0 <_init-0x687f3a40>
    a5bc:	0000bb02 	srl	s7,zero,0xc
    a5c0:	02070200 	0x2070200
    a5c4:	0000018c 	syscall	0x6
    a5c8:	91020704 	lbu	v0,1796(t0)
    a5cc:	04000001 	bltz	zero,a5d4 <_init-0x687f5a2c>
    a5d0:	6e690407 	0x6e690407
    a5d4:	05040074 	0x5040074
    a5d8:	0001b502 	srl	s6,at,0x14
    a5dc:	02050800 	0x2050800
    a5e0:	0000018c 	syscall	0x6
    a5e4:	ba020704 	swr	v0,1796(s0)
    a5e8:	04000001 	bltz	zero,a5f0 <_init-0x687f5a10>
    a5ec:	00090205 	0x90205
    a5f0:	06010000 	bgez	s0,a5f4 <_init-0x687f5a0c>
    a5f4:	00014902 	srl	t1,at,0x4
    a5f8:	02050200 	0x2050200
    a5fc:	00000187 	0x187
    a600:	9b050708 	lwr	a1,1800(t8)
    a604:	04000000 	bltz	zero,a608 <_init-0x687f59f8>
    a608:	5306a302 	beql	t8,a2,ffff3214 <emuqueue+0x977eaf70>
    a60c:	00000001 	movf	zero,zero,$fcc0
    a610:	00013106 	0x13106
    a614:	5b060100 	0x5b060100
    a618:	02000000 	0x2000000
    a61c:	00001a06 	0x1a06
    a620:	45060300 	bc1fl	$fcc1,b224 <_init-0x687f4ddc>
    a624:	00000000 	nop
    a628:	00b00500 	0xb00500
    a62c:	02040000 	0x2040000
    a630:	01c306b0 	tge	t6,v1,0x1a
    a634:	06000000 	bltz	s0,a638 <_init-0x687f59c8>
    a638:	0000019e 	0x19e
    a63c:	d9070001 	ldc2	$7,1(t0)
    a640:	01000000 	0x1000000
    a644:	00003097 	0x3097
    a648:	43011c01 	c0	0x1011c01
    a64c:	9c000000 	0x9c000000
    a650:	a468804e 	sh	t0,-32690(v1)
    a654:	0168804e 	0x168804e
    a658:	0e22086d 	jal	88821b4 <_init-0x5ff7de4c>
    a65c:	1b010000 	0x1b010000
    a660:	0000002c 	0x2c
    a664:	09005401 	j	4015004 <_init-0x647eaffc>
    a668:	00000030 	tge	zero,zero
    a66c:	0074a902 	0x74a902
    a670:	05010000 	bgez	t0,a674 <_init-0x687f598c>
    a674:	80736403 	lb	s3,25603(v1)
    a678:	00740968 	0x740968
    a67c:	b5020000 	0xb5020000
    a680:	0000009b 	0x9b
    a684:	68030501 	0x68030501
    a688:	00688073 	tltu	v1,t0,0x201
    a68c:	000007b3 	tltu	zero,zero,0x1e
    a690:	14160002 	bne	zero,s6,a69c <_init-0x687f5964>
    a694:	01040000 	0x1040000
    a698:	00001ace 	0x1ace
    a69c:	688051dc 	0x688051dc
    a6a0:	68804ea4 	0x68804ea4
    a6a4:	00000089 	0x89
    a6a8:	0033a801 	0x33a801
    a6ac:	00304a00 	0x304a00
    a6b0:	00000200 	sll	zero,zero,0x8
    a6b4:	08010000 	j	40000 <_init-0x687c0000>
    a6b8:	bb020403 	swr	v0,1027(t8)
    a6bc:	02000000 	0x2000000
    a6c0:	018c0207 	0x18c0207
    a6c4:	07040000 	0x7040000
    a6c8:	00019102 	srl	s2,at,0x4
    a6cc:	04070400 	0x4070400
    a6d0:	00746e69 	0x746e69
    a6d4:	b5020504 	0xb5020504
    a6d8:	08000001 	j	4 <_init-0x687ffffc>
    a6dc:	018c0205 	0x18c0205
    a6e0:	07040000 	0x7040000
    a6e4:	0028cd05 	0x28cd05
    a6e8:	433b0700 	c0	0x13b0700
    a6ec:	02000000 	0x2000000
    a6f0:	000001ba 	0x1ba
    a6f4:	09020504 	j	4081410 <_init-0x6477ebf0>
    a6f8:	01000000 	0x1000000
    a6fc:	01490206 	0x1490206
    a700:	05020000 	bltzl	t0,a704 <_init-0x687f58fc>
    a704:	00018702 	srl	s0,at,0x1c
    a708:	06070800 	0x6070800
    a70c:	00008504 	0x8504
    a710:	08010700 	j	41c00 <_init-0x687be400>
    a714:	0000006a 	0x6a
    a718:	006a0406 	0x6a0406
    a71c:	a2090000 	sb	t1,0(s0)
    a720:	6a000000 	0x6a000000
    a724:	0a000000 	j	8000000 <_init-0x60800000>
    a728:	00000035 	0x35
    a72c:	bd0b0003 	cache	0xb,3(t0)
    a730:	a3000000 	sb	zero,0(t8)
    a734:	04000031 	bltz	zero,a7fc <_init-0x687f5804>
    a738:	e90c2b06 	swc2	$12,11014(t0)
    a73c:	06000032 	bltz	s0,a808 <_init-0x687f57f8>
    a740:	0000432d 	0x432d
    a744:	00230200 	0x230200
    a748:	00d80b00 	0xd80b00
    a74c:	312e0000 	andi	t6,t1,0x0
    a750:	05040000 	0x5040000
    a754:	320a0c1e 	andi	t2,s0,0xc1e
    a758:	20050000 	addi	a1,zero,0
    a75c:	00000043 	sra	zero,zero,0x1
    a760:	00002302 	srl	a0,zero,0xc
    a764:	0000ed0d 	break	0x0,0x3b4
    a768:	7e030400 	ext	v1,s0,0x10,0x1
    a76c:	00323c0e 	0x323c0e
    a770:	af0e0000 	sw	t6,0(t8)
    a774:	01000031 	tgeu	t0,zero
    a778:	335e0500 	andi	s8,k0,0x500
    a77c:	83030000 	lb	v1,0(t8)
    a780:	000000d8 	0xd8
    a784:	00011f0d 	break	0x1,0x7c
    a788:	a3030400 	sb	v1,1024(t8)
    a78c:	0001530e 	0x1530e
    a790:	310e0000 	andi	t6,t0,0x0
    a794:	01000001 	movf	zero,t0,$fcc0
    a798:	00005b0e 	0x5b0e
    a79c:	1a0e0200 	0x1a0e0200
    a7a0:	03000000 	0x3000000
    a7a4:	0000450e 	0x450e
    a7a8:	0d000000 	jal	4000000 <_init-0x64800000>
    a7ac:	00000134 	teq	zero,zero,0x4
    a7b0:	0eb00304 	jal	ac00c10 <_init-0x5dbff3f0>
    a7b4:	000001c3 	sra	zero,zero,0x7
    a7b8:	019e0e00 	0x19e0e00
    a7bc:	00010000 	sll	zero,at,0x0
    a7c0:	00326005 	0x326005
    a7c4:	43bb0300 	c0	0x1bb0300
    a7c8:	0f000000 	jal	c000000 <_init-0x5c800000>
    a7cc:	000001c6 	0x1c6
    a7d0:	0cd50324 	jal	3540c90 <_init-0x652bf370>
    a7d4:	000033f6 	tne	zero,zero,0xcf
    a7d8:	0092c403 	0x92c403
    a7dc:	23020000 	addi	v0,t8,0
    a7e0:	339e0c00 	andi	s8,gp,0xc00
    a7e4:	c6030000 	lwc1	$f3,0(s0)
    a7e8:	0000002c 	0x2c
    a7ec:	0c042302 	jal	108c08 <_init-0x686f73f8>
    a7f0:	000032bf 	0x32bf
    a7f4:	0043c803 	0x43c803
    a7f8:	23020000 	addi	v0,t8,0
    a7fc:	32800c08 	andi	zero,s4,0xc08
    a800:	ca030000 	lwc2	$3,0(s0)
    a804:	0000003c 	0x3c
    a808:	0c0c2302 	jal	308c08 <_init-0x684f73f8>
    a80c:	00003167 	0x3167
    a810:	0043cc03 	0x43cc03
    a814:	23020000 	addi	v0,t8,0
    a818:	31350c10 	andi	s5,t1,0xc10
    a81c:	ce030000 	pref	0x3,0(s0)
    a820:	00000043 	sra	zero,zero,0x1
    a824:	0c142302 	jal	508c08 <_init-0x682f73f8>
    a828:	0000314f 	0x314f
    a82c:	00a2d003 	0xa2d003
    a830:	23020000 	addi	v0,t8,0
    a834:	340b0c18 	li	t3,0xc18
    a838:	d2030000 	0xd2030000
    a83c:	00000043 	sra	zero,zero,0x1
    a840:	0c1c2302 	jal	708c08 <_init-0x680f73f8>
    a844:	00003230 	tge	zero,zero,0xc8
    a848:	00edd403 	0xedd403
    a84c:	23020000 	addi	v0,t8,0
    a850:	a6050020 	sh	a1,32(s0)
    a854:	03000032 	tlt	t8,zero
    a858:	00013fd5 	0x13fd5
    a85c:	01f91000 	0x1f91000
    a860:	03040000 	0x3040000
    a864:	70110139 	0x70110139
    a868:	03006469 	0x3006469
    a86c:	002e0137 	0x2e0137
    a870:	23020000 	addi	v0,t8,0
    a874:	69741100 	0x69741100
    a878:	38030064 	xori	v1,zero,0x64
    a87c:	00002e01 	0x2e01
    a880:	02230200 	0x2230200
    a884:	021b1200 	0x21b1200
    a888:	03040000 	0x3040000
    a88c:	0113013b 	0x113013b
    a890:	03000034 	teq	t8,zero
    a894:	01d10139 	0x1d10139
    a898:	26130000 	addiu	s3,s0,0
    a89c:	03000031 	tgeu	t8,zero
    a8a0:	003c013a 	0x3c013a
    a8a4:	14000000 	bnez	zero,a8a8 <_init-0x687f5758>
    a8a8:	00003219 	0x3219
    a8ac:	f9013b03 	sdc2	$1,15107(t0)
    a8b0:	14000001 	bnez	zero,a8b8 <_init-0x687f5748>
    a8b4:	000030e5 	0x30e5
    a8b8:	1b014103 	0x1b014103
    a8bc:	14000002 	bnez	zero,a8c8 <_init-0x687f5738>
    a8c0:	000030b0 	tge	zero,zero,0xc2
    a8c4:	3f014703 	0x3f014703
    a8c8:	06000002 	bltz	s0,a8d4 <_init-0x687f572c>
    a8cc:	00024504 	0x24504
    a8d0:	03171500 	0x3171500
    a8d4:	32f80000 	andi	t8,s7,0x0
    a8d8:	03800000 	0x3800000
    a8dc:	fc0c0147 	sdc3	$12,327(zero)
    a8e0:	04000033 	bltz	zero,a9b0 <_init-0x687f5650>
    a8e4:	00023f5c 	0x23f5c
    a8e8:	00230200 	0x230200
    a8ec:	0031f00c 	syscall	0xc7c0
    a8f0:	335e0400 	andi	s8,k0,0x400
    a8f4:	02000002 	0x2000002
    a8f8:	cc0c0423 	pref	0xc,1059(zero)
    a8fc:	04000030 	bltz	zero,a9c0 <_init-0x687f5640>
    a900:	00022760 	0x22760
    a904:	08230200 	j	8c0800 <_init-0x67f3f800>
    a908:	0033e90c 	syscall	0xcfa4
    a90c:	6a620400 	0x6a620400
    a910:	02000000 	0x2000000
    a914:	9d0c0c23 	0x9d0c0c23
    a918:	04000032 	bltz	zero,a9e4 <_init-0x687f561c>
    a91c:	00006a64 	0x6a64
    a920:	0d230200 	jal	48c0800 <_init-0x63f3f800>
    a924:	0032c90c 	syscall	0xcb24
    a928:	a5660400 	sh	a2,1024(t3)
    a92c:	02000003 	0x2000003
    a930:	260c1023 	addiu	t4,s0,4131
    a934:	04000032 	bltz	zero,aa00 <_init-0x687f5600>
    a938:	00023368 	0x23368
    a93c:	14230200 	bne	at,v1,b140 <_init-0x687f4ec0>
    a940:	0031450c 	syscall	0xc514
    a944:	4e6a0400 	lwxc1	$f16,t2(s3)
    a948:	02000003 	0x2000003
    a94c:	170c1823 	bne	t8,t4,109dc <_init-0x687ef624>
    a950:	04000033 	bltz	zero,aa20 <_init-0x687f55e0>
    a954:	0003ab6c 	0x3ab6c
    a958:	1c230200 	0x1c230200
    a95c:	00312d0c 	syscall	0xc4b4
    a960:	bd6e0400 	cache	0xe,1024(t3)
    a964:	02000000 	0x2000000
    a968:	510c4423 	beql	t0,t4,1b9f8 <_init-0x687e4608>
    a96c:	04000033 	bltz	zero,aa3c <_init-0x687f55c4>
    a970:	0001c670 	tge	zero,at,0x319
    a974:	48230200 	0x48230200
    a978:	0033b20c 	syscall	0xcec8
    a97c:	66720400 	0x66720400
    a980:	02000003 	0x2000003
    a984:	6f0c6c23 	0x6f0c6c23
    a988:	04000032 	bltz	zero,aa54 <_init-0x687f55ac>
    a98c:	00004374 	teq	zero,zero,0x10d
    a990:	74230200 	jalx	8c0800 <_init-0x67f3f800>
    a994:	0032110c 	syscall	0xc844
    a998:	2c760400 	sltiu	s6,v1,1024
    a99c:	02000000 	0x2000000
    a9a0:	0b007823 	j	c01e08c <_init-0x5c7e1f74>
    a9a4:	0000034e 	0x34e
    a9a8:	00003339 	0x3339
    a9ac:	0c41040c 	jal	1041030 <_init-0x677befd0>
    a9b0:	000033fc 	0x33fc
    a9b4:	034e4304 	0x34e4304
    a9b8:	23020000 	addi	v0,t8,0
    a9bc:	32b50c00 	andi	s5,s5,0xc00
    a9c0:	45040000 	bc1f	$fcc1,a9c4 <_init-0x687f563c>
    a9c4:	00000360 	0x360
    a9c8:	0c042302 	jal	108c08 <_init-0x686f73f8>
    a9cc:	00003120 	0x3120
    a9d0:	002c4704 	0x2c4704
    a9d4:	23020000 	addi	v0,t8,0
    a9d8:	04060008 	0x4060008
    a9dc:	00000317 	0x317
    a9e0:	00036016 	0x36016
    a9e4:	2c170100 	sltiu	s7,zero,256
    a9e8:	00000000 	nop
    a9ec:	03540406 	0x3540406
    a9f0:	8f0b0000 	lw	t3,0(t8)
    a9f4:	8a000003 	lwl	zero,3(s0)
    a9f8:	08000032 	j	c8 <_init-0x687fff38>
    a9fc:	db0c4f04 	ldc2	$12,20228(t8)
    aa00:	04000033 	bltz	zero,aad0 <_init-0x687f5530>
    aa04:	00039f51 	0x39f51
    aa08:	00230200 	0x230200
    aa0c:	67726118 	0x67726118
    aa10:	2c530400 	sltiu	s3,v0,1024
    aa14:	02000000 	0x2000000
    aa18:	19000423 	blez	t0,baa8 <_init-0x687f4558>
    aa1c:	0000039f 	0x39f
    aa20:	00002c01 	0x2c01
    aa24:	002c1700 	0x2c1700
    aa28:	06000000 	bltz	s0,aa2c <_init-0x687f55d4>
    aa2c:	00038f04 	0x38f04
    aa30:	2c040600 	sltiu	a0,zero,1536
    aa34:	09000000 	j	4000000 <_init-0x64800000>
    aa38:	000003bb 	0x3bb
    aa3c:	0000002c 	0x2c
    aa40:	0000350a 	0x350a
    aa44:	0f000900 	jal	c002400 <_init-0x5c7fdc00>
    aa48:	000003e0 	0x3e0
    aa4c:	18390208 	0x18390208
    aa50:	00646974 	teq	v1,a0,0x1a5
    aa54:	02273702 	0x2273702
    aa58:	23020000 	addi	v0,t8,0
    aa5c:	339e0c00 	andi	s8,gp,0xc00
    aa60:	38020000 	xori	v0,zero,0x0
    aa64:	0000002c 	0x2c
    aa68:	00042302 	srl	a0,a0,0xc
    aa6c:	0031d905 	0x31d905
    aa70:	bb390200 	swr	t9,512(t9)
    aa74:	0f000003 	jal	c00000c <_init-0x5c7ffff4>
    aa78:	00000410 	0x410
    aa7c:	0c400208 	jal	1000820 <_init-0x677ff7e0>
    aa80:	000032d2 	0x32d2
    aa84:	00433e02 	0x433e02
    aa88:	23020000 	addi	v0,t8,0
    aa8c:	33d00c00 	andi	s0,s8,0xc00
    aa90:	3f020000 	0x3f020000
    aa94:	00000360 	0x360
    aa98:	00042302 	srl	a0,a0,0xc
    aa9c:	0030ef05 	0x30ef05
    aaa0:	eb400200 	swc2	$0,512(k0)
    aaa4:	0b000003 	j	c00000c <_init-0x5c7ffff4>
    aaa8:	00000452 	0x452
    aaac:	0000337e 	0x337e
    aab0:	0c46020c 	jal	1180830 <_init-0x6767f7d0>
    aab4:	000033fc 	0x33fc
    aab8:	04524802 	bltzall	v0,1cac4 <_init-0x687e353c>
    aabc:	23020000 	addi	v0,t8,0
    aac0:	32b50c00 	andi	s5,s5,0xc00
    aac4:	4a020000 	c2	0x20000
    aac8:	00000468 	0x468
    aacc:	0c042302 	jal	108c08 <_init-0x686f73f8>
    aad0:	00003120 	0x3120
    aad4:	002c4c02 	ror	t1,t4,0x10
    aad8:	23020000 	addi	v0,t8,0
    aadc:	04060008 	0x4060008
    aae0:	0000041b 	0x41b
    aae4:	00046819 	0x46819
    aae8:	00430100 	0x430100
    aaec:	2c170000 	sltiu	s7,zero,0
    aaf0:	00000000 	nop
    aaf4:	04580406 	0x4580406
    aaf8:	5a0f0000 	0x5a0f0000
    aafc:	ec000005 	swc3	$0,5(zero)
    ab00:	020c6202 	0x20c6202
    ab04:	02000031 	tgeu	s0,zero
    ab08:	00023352 	0x23352
    ab0c:	00230200 	0x230200
    ab10:	0031740c 	syscall	0xc5d0
    ab14:	34530200 	ori	s3,v0,0x200
    ab18:	02000001 	movf	zero,s0,$fcc0
    ab1c:	970c0423 	lhu	t4,1059(t8)
    ab20:	02000030 	tge	s0,zero
    ab24:	00046854 	0x46854
    ab28:	08230200 	j	8c0800 <_init-0x67f3f800>
    ab2c:	00336c0c 	syscall	0xcdb0
    ab30:	5a550200 	0x5a550200
    ab34:	02000005 	0x2000005
    ab38:	f50c0c23 	sdc1	$f12,3107(t0)
    ab3c:	02000031 	tgeu	s0,zero
    ab40:	00004356 	0x4356
    ab44:	10230200 	beq	at,v1,b348 <_init-0x687f4cb8>
    ab48:	0030d20c 	syscall	0xc348
    ab4c:	43570200 	c0	0x1570200
    ab50:	02000000 	0x2000000
    ab54:	120c1423 	beq	s0,t4,fbe4 <_init-0x687f041c>
    ab58:	02000031 	tgeu	s0,zero
    ab5c:	00056058 	0x56058
    ab60:	18230200 	0x18230200
    ab64:	0032540c 	syscall	0xc950
    ab68:	43590200 	c0	0x1590200
    ab6c:	02000000 	0x2000000
    ab70:	0d0c5823 	jal	431608c <_init-0x644e9f74>
    ab74:	02000031 	tgeu	s0,zero
    ab78:	0005705a 	0x5705a
    ab7c:	5c230200 	0x5c230200
    ab80:	0033120c 	syscall	0xcc48
    ab84:	705b0200 	0x705b0200
    ab88:	02000005 	0x2000005
    ab8c:	580c6023 	0x580c6023
    ab90:	0200001a 	div	zero,s0,zero
    ab94:	00008c5c 	0x8c5c
    ab98:	64230200 	0x64230200
    ab9c:	0031e70c 	syscall	0xc79c
    aba0:	435d0200 	c0	0x15d0200
    aba4:	02000000 	0x2000000
    aba8:	8c0c6823 	lw	t4,26659(zero)
    abac:	02000031 	tgeu	s0,zero
    abb0:	0005765e 	0x5765e
    abb4:	6c230200 	0x6c230200
    abb8:	0031450c 	syscall	0xc514
    abbc:	525f0200 	beql	s2,ra,b3c0 <_init-0x687f4c40>
    abc0:	03000004 	sllv	zero,zero,t8
    abc4:	0c01bc23 	jal	6f08c <_init-0x68790f74>
    abc8:	00003197 	0x3197
    abcc:	05866002 	0x5866002
    abd0:	23030000 	addi	v1,t8,0
    abd4:	da0c01c0 	ldc2	$12,448(s0)
    abd8:	02000032 	tlt	s0,zero
    abdc:	00004361 	0x4361
    abe0:	e8230300 	swc2	$3,768(at)
    abe4:	04060001 	0x4060001
    abe8:	000003e0 	0x3e0
    abec:	00057009 	0x57009
    abf0:	00005800 	sll	t3,zero,0x0
    abf4:	00350a00 	0x350a00
    abf8:	000f0000 	sll	zero,t7,0x0
    abfc:	008c0406 	0x8c0406
    ac00:	86090000 	lh	t1,0(s0)
    ac04:	10000005 	b	ac1c <_init-0x687f53e4>
    ac08:	0a000004 	j	8000010 <_init-0x607ffff0>
    ac0c:	00000035 	0x35
    ac10:	96090009 	lhu	t1,9(s0)
    ac14:	7f000005 	0x7f000005
    ac18:	0a000000 	j	8000000 <_init-0x60800000>
    ac1c:	00000035 	0x35
    ac20:	bf050009 	cache	0x5,9(t8)
    ac24:	02000033 	tltu	s0,zero
    ac28:	00046e62 	0x46e62
    ac2c:	05eb1a00 	tltiu	t7,6656
    ac30:	0e010000 	jal	8040000 <_init-0x607c0000>
    ac34:	01000033 	tltu	t0,zero
    ac38:	4ea40127 	c3	0xa40127
    ac3c:	4f006880 	c3	0x1006880
    ac40:	6d016880 	0x6d016880
    ac44:	0033121b 	0x33121b
    ac48:	70260100 	0x70260100
    ac4c:	01000005 	0x1000005
    ac50:	32051b54 	andi	a1,s0,0x1b54
    ac54:	26010000 	addiu	at,s0,0
    ac58:	00000043 	sra	zero,zero,0x1
    ac5c:	731c5501 	0x731c5501
    ac60:	0100001a 	div	zero,t0,zero
    ac64:	00004328 	0x4328
    ac68:	1d530100 	0x1d530100
    ac6c:	29010069 	slti	at,t0,105
    ac70:	00000043 	sra	zero,zero,0x1
    ac74:	1e005201 	bgtz	s0,1f47c <_init-0x687e0b84>
    ac78:	0000066d 	0x66d
    ac7c:	00317e01 	0x317e01
    ac80:	013f0100 	0x13f0100
    ac84:	0000002c 	0x2c
    ac88:	68804f00 	0x68804f00
    ac8c:	68804fcc 	0x68804fcc
    ac90:	be1b6d01 	cache	0x1b,27905(s0)
    ac94:	0100000c 	syscall	0x40000
    ac98:	00002c3e 	0x2c3e
    ac9c:	1f540100 	0x1f540100
    aca0:	00746572 	tlt	v1,s4,0x195
    aca4:	00434001 	0x434001
    aca8:	731c0000 	madd	t8,gp
    acac:	0100001a 	div	zero,t0,zero
    acb0:	00004341 	0x4341
    acb4:	1c600100 	bgtz	v1,b0b8 <_init-0x687f4f48>
    acb8:	0000332a 	0x332a
    acbc:	066d4201 	0x66d4201
    acc0:	52010000 	beql	s0,at,acc4 <_init-0x687f533c>
    acc4:	0033121c 	0x33121c
    acc8:	70430100 	0x70430100
    accc:	01000005 	0x1000005
    acd0:	315a2061 	andi	k0,t2,0x2061
    acd4:	06830000 	bgezl	s4,acd8 <_init-0x687f5328>
    acd8:	05010000 	bgez	t0,acdc <_init-0x687f5324>
    acdc:	80617403 	lb	at,29699(v1)
    ace0:	4f242168 	msub.s	$f5,$f25,$f4,$f4
    ace4:	4f586880 	c3	0x1586880
    ace8:	d21c6880 	0xd21c6880
    acec:	01000031 	tgeu	t0,zero
    acf0:	00003c48 	0x3c48
    acf4:	00600100 	0x600100
    acf8:	96040600 	lhu	a0,1536(s0)
    acfc:	09000005 	j	4000014 <_init-0x647fffec>
    ad00:	00000683 	sra	zero,zero,0x1a
    ad04:	00000087 	0x87
    ad08:	0000350a 	0x350a
    ad0c:	08000d00 	j	3400 <_init-0x687fcc00>
    ad10:	00000673 	tltu	zero,zero,0x19
    ad14:	00077d1e 	0x77d1e
    ad18:	33960100 	andi	s6,gp,0x100
    ad1c:	60010000 	0x60010000
    ad20:	00004301 	0x4301
    ad24:	804fcc00 	lb	t7,-13312(v0)
    ad28:	8051dc68 	lb	s1,-9112(v0)
    ad2c:	1b6d0168 	0x1b6d0168
    ad30:	000030be 	0x30be
    ad34:	008c5f01 	0x8c5f01
    ad38:	61010000 	0x61010000
    ad3c:	0033121b 	0x33121b
    ad40:	705f0100 	0x705f0100
    ad44:	01000005 	0x1000005
    ad48:	310d1b62 	andi	t5,t0,0x1b62
    ad4c:	5f010000 	0x5f010000
    ad50:	00000570 	tge	zero,zero,0x15
    ad54:	511c6001 	beql	t0,gp,22d5c <_init-0x687dd2a4>
    ad58:	01000033 	tltu	t0,zero
    ad5c:	0001c661 	0x1c661
    ad60:	10910200 	beq	a0,s1,b564 <_init-0x687f4a9c>
    ad64:	6469741d 	0x6469741d
    ad68:	27620100 	addiu	v0,k1,256
    ad6c:	02000002 	0x2000002
    ad70:	c31c3c91 	ll	gp,15505(t8)
    ad74:	01000030 	tge	t0,zero
    ad78:	00004363 	0x4363
    ad7c:	22600100 	addi	zero,s3,256
    ad80:	00000313 	0x313
    ad84:	00436401 	0x436401
    ad88:	c71c0000 	lwc1	$f28,0(t8)
    ad8c:	01000031 	tgeu	t0,zero
    ad90:	00004365 	0x4365
    ad94:	38910200 	xori	s1,a0,0x200
    ad98:	00315a20 	0x315a20
    ad9c:	00078d00 	sll	s1,a3,0x14
    ada0:	03050100 	0x3050100
    ada4:	68806184 	0x68806184
    ada8:	00073323 	0x73323
    adac:	0001e800 	sll	sp,at,0x0
    adb0:	332a1c00 	andi	t2,t9,0x1c00
    adb4:	82010000 	lb	at,0(s0)
    adb8:	0000066d 	0x66d
    adbc:	23005301 	addi	zero,t8,21249
    adc0:	0000074a 	0x74a
    adc4:	00000200 	sll	zero,zero,0x8
    adc8:	0031d21c 	0x31d21c
    adcc:	3ca70100 	0x3ca70100
    add0:	01000000 	0x1000000
    add4:	65240060 	0x65240060
    add8:	68000007 	0x68000007
    addc:	8c688051 	lw	t0,-32687(v1)
    ade0:	1c688051 	0x1c688051
    ade4:	000031d2 	0x31d2
    ade8:	003c6e01 	0x3c6e01
    adec:	60010000 	0x60010000
    adf0:	51a42100 	beql	t5,a0,131f4 <_init-0x687ece0c>
    adf4:	51dc6880 	beql	t6,gp,24ff8 <_init-0x687db008>
    adf8:	d21c6880 	0xd21c6880
    adfc:	01000031 	tgeu	t0,zero
    ae00:	00003c87 	0x3c87
    ae04:	00600100 	0x600100
    ae08:	078d0900 	0x78d0900
    ae0c:	00870000 	0x870000
    ae10:	350a0000 	ori	t2,t0,0x0
    ae14:	07000000 	bltz	t8,ae18 <_init-0x687f51e8>
    ae18:	077d0800 	0x77d0800
    ae1c:	30250000 	andi	a1,at,0x0
    ae20:	03000000 	0x3000000
    ae24:	0000f8a9 	0xf8a9
    ae28:	03050100 	0x3050100
    ae2c:	68807364 	0x68807364
    ae30:	00007425 	0x7425
    ae34:	1fb50300 	0x1fb50300
    ae38:	01000001 	movf	zero,t0,$fcc0
    ae3c:	73680305 	0x73680305
    ae40:	Address 0xae40 is out of bounds.

Disassembly of section .debug_line:

00000000 <.debug_line>:
       0:	00000078 	0x78
       4:	00510002 	0x510002
       8:	01010000 	0x1010000
       c:	000a0efb 	0xa0efb
      10:	01010101 	0x1010101
      14:	01000000 	0x1000000
      18:	2e2e2f2e 	sltiu	t6,s1,12078
      1c:	2f2e2e2f 	sltiu	t6,t9,11823
      20:	2e2f2e2e 	sltiu	t7,s1,11822
      24:	73702f2e 	0x73702f2e
      28:	65725f70 	0x65725f70
      2c:	6e692f6c 	0x6e692f6c
      30:	64756c63 	0x64756c63
      34:	696c2f65 	0x696c2f65
      38:	732f6362 	0x732f6362
      3c:	00007379 	0x7379
      40:	655f6d65 	0x655f6d65
      44:	6e69676e 	0x6e69676e
      48:	00632e65 	0x632e65
      4c:	74000000 	jalx	0 <_init-0x68800000>
      50:	73657079 	0x73657079
      54:	0100682e 	0x100682e
      58:	00000000 	nop
      5c:	00200205 	0x200205
      60:	cd036880 	pref	0x3,26752(t0)
      64:	50030100 	beql	zero,v1,468 <_init-0x687ffb98>
      68:	47300347 	c1	0x1300347
      6c:	03475003 	0x3475003
      70:	03804730 	tge	gp,zero,0x11c
      74:	02a9080c 	syscall	0xaa420
      78:	01010010 	0x1010010
      7c:	0000023e 	0x23e
      80:	01d40002 	0x1d40002
      84:	01010000 	0x1010000
      88:	000a0efb 	0xa0efb
      8c:	01010101 	0x1010101
      90:	01000000 	0x1000000
      94:	2e2e2f2e 	sltiu	t6,s1,12078
      98:	2f2e2e2f 	sltiu	t6,t9,11823
      9c:	2e2f2e2e 	sltiu	t7,s1,11822
      a0:	73702f2e 	0x73702f2e
      a4:	65725f70 	0x65725f70
      a8:	6e692f6c 	0x6e692f6c
      ac:	64756c63 	0x64756c63
      b0:	63752f65 	0x63752f65
      b4:	2e2f736f 	sltiu	t7,s1,29551
      b8:	696c2f2e 	0x696c2f2e
      bc:	2e006362 	sltiu	zero,s0,25442
      c0:	2f2e2e2f 	sltiu	t6,t9,11823
      c4:	2e2f2e2e 	sltiu	t7,s1,11822
      c8:	2e2e2f2e 	sltiu	t6,s1,12078
      cc:	7361632f 	0x7361632f
      d0:	6e692f65 	0x6e692f65
      d4:	64756c63 	0x64756c63
      d8:	2f2e0065 	sltiu	t6,t9,101
      dc:	2e2f2e2e 	sltiu	t7,s1,11822
      e0:	2e2e2f2e 	sltiu	t6,s1,12078
      e4:	2f2e2e2f 	sltiu	t6,t9,11823
      e8:	65736163 	0x65736163
      ec:	636e692f 	0x636e692f
      f0:	6564756c 	0x6564756c
      f4:	6d6f632f 	0x6d6f632f
      f8:	756e6f6d 	jalx	5b9bdb4 <_init-0x62c6424c>
      fc:	2f2e0069 	sltiu	t6,t9,105
     100:	2e2f2e2e 	sltiu	t7,s1,11822
     104:	2e2e2f2e 	sltiu	t6,s1,12078
     108:	2f2e2e2f 	sltiu	t6,t9,11823
     10c:	5f707370 	0x5f707370
     110:	2f6c6572 	sltiu	t4,k1,25970
     114:	6c636e69 	0x6c636e69
     118:	00656475 	0x656475
     11c:	2e2e2f2e 	sltiu	t6,s1,12078
     120:	2f2e2e2f 	sltiu	t6,t9,11823
     124:	2e2f2e2e 	sltiu	t7,s1,11822
     128:	73702f2e 	0x73702f2e
     12c:	65725f70 	0x65725f70
     130:	6e692f6c 	0x6e692f6c
     134:	64756c63 	0x64756c63
     138:	75672f65 	jalx	59cbd94 <_init-0x62e3426c>
     13c:	2f2e0069 	sltiu	t6,t9,105
     140:	2e2f2e2e 	sltiu	t7,s1,11822
     144:	2e2e2f2e 	sltiu	t6,s1,12078
     148:	2f2e2e2f 	sltiu	t6,t9,11823
     14c:	5f707370 	0x5f707370
     150:	2f6c6572 	sltiu	t4,k1,25970
     154:	6c636e69 	0x6c636e69
     158:	2f656475 	sltiu	a1,k1,25717
     15c:	6362696c 	0x6362696c
     160:	7379732f 	0x7379732f
     164:	6d650000 	0x6d650000
     168:	7269665f 	udi15	s3,t1,t4,0x19
     16c:	6c5f7473 	0x6c5f7473
     170:	6c657665 	0x6c657665
     174:	6e656d5f 	0x6e656d5f
     178:	00632e75 	0x632e75
     17c:	74000000 	jalx	0 <_init-0x68800000>
     180:	73657079 	0x73657079
     184:	0100682e 	0x100682e
     188:	6d650000 	0x6d650000
     18c:	74616c75 	jalx	185b1d4 <_init-0x66fa4e2c>
     190:	735f726f 	0x735f726f
     194:	656e6563 	0x656e6563
     198:	0000682e 	0x682e
     19c:	74730000 	jalx	1cc0000 <_init-0x66b40000>
     1a0:	2e656c79 	sltiu	a1,s3,27769
     1a4:	00020068 	0x20068
     1a8:	6e656d00 	0x6e656d00
     1ac:	65697675 	0x65697675
     1b0:	00682e77 	0x682e77
     1b4:	6d000003 	0x6d000003
     1b8:	2e756e65 	sltiu	s5,s3,28261
     1bc:	00030068 	0x30068
     1c0:	6a646100 	0x6a646100
     1c4:	2e747375 	sltiu	s4,s3,29557
     1c8:	00030068 	0x30068
     1cc:	63747200 	0x63747200
     1d0:	0400682e 	bltz	zero,1a28c <_init-0x687e5d74>
     1d4:	65680000 	0x65680000
     1d8:	61626461 	0x61626461
     1dc:	00682e72 	tlt	v1,t0,0xb9
     1e0:	64000003 	0x64000003
     1e4:	6f6c6169 	0x6f6c6169
     1e8:	00682e67 	0x682e67
     1ec:	64000003 	0x64000003
     1f0:	696c7269 	0x696c7269
     1f4:	682e7473 	0x682e7473
     1f8:	00000300 	sll	zero,zero,0xc
     1fc:	6267736d 	0x6267736d
     200:	682e786f 	0x682e786f
     204:	00000300 	sll	zero,zero,0xc
     208:	756c6f76 	jalx	5b1bdd8 <_init-0x62ce4228>
     20c:	6162656d 	0x6162656d
     210:	00682e72 	tlt	v1,t0,0xb9
     214:	67000003 	0x67000003
     218:	695f6975 	0x695f6975
     21c:	682e636e 	0x682e636e
     220:	00000500 	sll	zero,zero,0x14
     224:	69737566 	0x69737566
     228:	682e6e6f 	0x682e6e6f
     22c:	00000200 	sll	zero,zero,0x8
     230:	6e617274 	0x6e617274
     234:	616d6973 	0x616d6973
     238:	682e6567 	0x682e6567
     23c:	00000400 	sll	zero,zero,0x10
     240:	65707974 	0x65707974
     244:	00682e73 	tltu	v1,t0,0xb9
     248:	65000006 	0x65000006
     24c:	616c756d 	0x616c756d
     250:	2e726f74 	sltiu	s2,s3,28532
     254:	00040068 	0x40068
     258:	05000000 	bltz	t0,25c <_init-0x687ffda4>
     25c:	80006402 	lb	zero,25602(zero)
     260:	011c0368 	0x11c0368
     264:	804bebf3 	lb	t3,-5133(v0)
     268:	03b98147 	0x3b98147
     26c:	7603470a 	jalx	80d1c28 <_init-0x6072e3d8>
     270:	4649817f 	c1	0x49817f
     274:	48484548 	0x48484548
     278:	03854c48 	0x3854c48
     27c:	0349477a 	0x349477a
     280:	78037f11 	0x78037f11
     284:	ba807108 	swr	zero,28936(s4)
     288:	084881b8 	j	12206e0 <_init-0x675df920>
     28c:	b8818274 	swr	at,-32140(a0)
     290:	434bf2bb 	c0	0x14bf2bb
     294:	44f3434b 	0x44f3434b
     298:	7f1c03b7 	0x7f1c03b7
     29c:	39086703 	xori	t0,t0,0x6703
     2a0:	f03a0880 	0xf03a0880
     2a4:	08817208 	j	205c820 <_init-0x667a37e0>
     2a8:	03487d3e 	0x3487d3e
     2ac:	7003470f 	0x7003470f
     2b0:	84493908 	lh	t1,14600(v0)
     2b4:	7a038780 	0x7a038780
     2b8:	000802ef 	0x802ef
     2bc:	03e10101 	0x3e10101
     2c0:	00020000 	sll	zero,v0,0x0
     2c4:	000001eb 	0x1eb
     2c8:	0efb0101 	jal	bec0404 <_init-0x5c93fbfc>
     2cc:	0101000a 	movz	zero,t0,at
     2d0:	00000101 	0x101
     2d4:	2f2e0100 	sltiu	t6,t9,256
     2d8:	2e2f2e2e 	sltiu	t7,s1,11822
     2dc:	2e2e2f2e 	sltiu	t6,s1,12078
     2e0:	2f2e2e2f 	sltiu	t6,t9,11823
     2e4:	5f707370 	0x5f707370
     2e8:	2f6c6572 	sltiu	t4,k1,25970
     2ec:	6c636e69 	0x6c636e69
     2f0:	2f656475 	sltiu	a1,k1,25717
     2f4:	736f6375 	0x736f6375
     2f8:	2f2e2e2f 	sltiu	t6,t9,11823
     2fc:	6362696c 	0x6362696c
     300:	2e2f2e00 	sltiu	t7,s1,11776
     304:	2e2e2f2e 	sltiu	t6,s1,12078
     308:	2f2e2e2f 	sltiu	t6,t9,11823
     30c:	632f2e2e 	0x632f2e2e
     310:	2f657361 	sltiu	a1,k1,29537
     314:	6c636e69 	0x6c636e69
     318:	2f656475 	sltiu	a1,k1,25717
     31c:	6d6d6f63 	0x6d6d6f63
     320:	69756e6f 	0x69756e6f
     324:	2e2f2e00 	sltiu	t7,s1,11776
     328:	2e2e2f2e 	sltiu	t6,s1,12078
     32c:	2f2e2e2f 	sltiu	t6,t9,11823
     330:	632f2e2e 	0x632f2e2e
     334:	2f657361 	sltiu	a1,k1,29537
     338:	6c636e69 	0x6c636e69
     33c:	00656475 	0x656475
     340:	2e2e2f2e 	sltiu	t6,s1,12078
     344:	2f2e2e2f 	sltiu	t6,t9,11823
     348:	2e2f2e2e 	sltiu	t7,s1,11822
     34c:	73702f2e 	0x73702f2e
     350:	65725f70 	0x65725f70
     354:	6e692f6c 	0x6e692f6c
     358:	64756c63 	0x64756c63
     35c:	2f2e0065 	sltiu	t6,t9,101
     360:	2e2f2e2e 	sltiu	t7,s1,11822
     364:	2e2e2f2e 	sltiu	t6,s1,12078
     368:	2f2e2e2f 	sltiu	t6,t9,11823
     36c:	5f707370 	0x5f707370
     370:	2f6c6572 	sltiu	t4,k1,25970
     374:	6c636e69 	0x6c636e69
     378:	2f656475 	sltiu	a1,k1,25717
     37c:	00697567 	0x697567
     380:	2e2e2f2e 	sltiu	t6,s1,12078
     384:	2f2e2e2f 	sltiu	t6,t9,11823
     388:	2e2f2e2e 	sltiu	t7,s1,11822
     38c:	73702f2e 	0x73702f2e
     390:	65725f70 	0x65725f70
     394:	6e692f6c 	0x6e692f6c
     398:	64756c63 	0x64756c63
     39c:	696c2f65 	0x696c2f65
     3a0:	732f6362 	0x732f6362
     3a4:	00007379 	0x7379
     3a8:	665f6d65 	0x665f6d65
     3ac:	7472756f 	jalx	1c9d5bc <_init-0x66b62a44>
     3b0:	656c5f68 	0x656c5f68
     3b4:	5f6c6576 	0x5f6c6576
     3b8:	756e656d 	jalx	5b995b4 <_init-0x62c66a4c>
     3bc:	0000632e 	0x632e
     3c0:	79740000 	0x79740000
     3c4:	2e736570 	sltiu	s3,s3,25968
     3c8:	00010068 	0x10068
     3cc:	6e656d00 	0x6e656d00
     3d0:	65697675 	0x65697675
     3d4:	00682e77 	0x682e77
     3d8:	6d000002 	0x6d000002
     3dc:	2e756e65 	sltiu	s5,s3,28261
     3e0:	00020068 	0x20068
     3e4:	756d6500 	jalx	5b59400 <_init-0x62ca6c00>
     3e8:	6f74616c 	0x6f74616c
     3ec:	63735f72 	0x63735f72
     3f0:	2e656e65 	sltiu	a1,s3,28261
     3f4:	00000068 	0x68
     3f8:	79747300 	0x79747300
     3fc:	682e656c 	0x682e656c
     400:	00000300 	sll	zero,zero,0xc
     404:	756a6461 	jalx	5a99184 <_init-0x62d66e7c>
     408:	682e7473 	0x682e7473
     40c:	00000200 	sll	zero,zero,0x8
     410:	2e637472 	sltiu	v1,s3,29810
     414:	00040068 	0x40068
     418:	61656800 	0x61656800
     41c:	72616264 	0x72616264
     420:	0200682e 	0x200682e
     424:	69640000 	0x69640000
     428:	676f6c61 	0x676f6c61
     42c:	0200682e 	0x200682e
     430:	69640000 	0x69640000
     434:	73696c72 	0x73696c72
     438:	00682e74 	teq	v1,t0,0xb9
     43c:	6d000002 	0x6d000002
     440:	6f626773 	0x6f626773
     444:	00682e78 	0x682e78
     448:	76000002 	jalx	8000008 <_init-0x607ffff8>
     44c:	6d756c6f 	0x6d756c6f
     450:	72616265 	0x72616265
     454:	0200682e 	0x200682e
     458:	75670000 	jalx	59c0000 <_init-0x62e40000>
     45c:	6e695f69 	0x6e695f69
     460:	00682e63 	0x682e63
     464:	66000005 	0x66000005
     468:	6f697375 	0x6f697375
     46c:	00682e6e 	0x682e6e
     470:	74000003 	jalx	c <_init-0x687ffff4>
     474:	736e6172 	0x736e6172
     478:	67616d69 	0x67616d69
     47c:	00682e65 	0x682e65
     480:	64000004 	0x64000004
     484:	6d5f7672 	0x6d5f7672
     488:	682e7061 	0x682e7061
     48c:	00000300 	sll	zero,zero,0xc
     490:	2e79656b 	sltiu	t9,s3,25963
     494:	00040068 	0x40068
     498:	70797400 	0x70797400
     49c:	682e7365 	0x682e7365
     4a0:	00000600 	sll	zero,zero,0x18
     4a4:	6c756d65 	0x6c756d65
     4a8:	726f7461 	0x726f7461
     4ac:	0400682e 	bltz	zero,1a568 <_init-0x687e5a98>
     4b0:	00000000 	nop
     4b4:	028c0205 	0x28c0205
     4b8:	c0036880 	ll	v1,26752(zero)
     4bc:	03f10100 	0x3f10100
     4c0:	037f00de 	0x37f00de
     4c4:	03477fa2 	0x3477fa2
     4c8:	477f00de 	c1	0x17f00de
     4cc:	7f7fa503 	0x7f7fa503
     4d0:	00db03f2 	tlt	a2,k1,0xf
     4d4:	a2037108 	sb	v1,28936(s0)
     4d8:	82b77f7f 	lb	s7,32639(s5)
     4dc:	0800e803 	j	3a00c <_init-0x687c5ff4>
     4e0:	00fe0371 	tgeu	a3,s8,0xd
     4e4:	0f34027f 	jal	cd009fc <_init-0x5baff604>
     4e8:	030f2c02 	0x30f2c02
     4ec:	1503ef09 	bne	t0,v1,ffffc114 <emuqueue+0x977f3e70>
     4f0:	7f62037f 	0x7f62037f
     4f4:	18037108 	0x18037108
     4f8:	680385ef 	0x680385ef
     4fc:	7f18037f 	0x7f18037f
     500:	037f7403 	0x37f7403
     504:	6e037f0c 	0x6e037f0c
     508:	7f12037f 	0x7f12037f
     50c:	71087703 	0x71087703
     510:	03470903 	0x3470903
     514:	0f037f71 	jal	c0dfdc4 <_init-0x5c72023c>
     518:	7f650347 	0x7f650347
     51c:	7c471b03 	0x7c471b03
     520:	7dde034a 	0x7dde034a
     524:	434b437f 	c0	0x14b437f
     528:	434b434b 	c0	0x14b434b
     52c:	8180e508 	lb	zero,-6904(t4)
     530:	03472803 	0x3472803
     534:	28034758 	slti	v1,zero,18264
     538:	475a037f 	c1	0x15a037f
     53c:	03472603 	0x3472603
     540:	b8807f5c 	swr	zero,32604(a0)
     544:	82b88180 	lb	t8,-32384(s5)
     548:	30021e03 	andi	v0,zero,0x1e03
     54c:	ef848001 	swc3	$4,-32767(gp)
     550:	7308f081 	0x7308f081
     554:	08b8f145 	j	2e3c514 <_init-0x659c3aec>
     558:	ab08b8ab 	swl	t0,-18261(t8)
     55c:	b8ab08b8 	swr	t3,2232(a1)
     560:	08b8ab08 	j	2e2ac20 <_init-0x659d53e0>
     564:	ab08b8ab 	swl	t0,-18261(t8)
     568:	112c02b8 	beq	t1,t4,104c <_init-0x687fefb4>
     56c:	f448454b 	sdc1	$f8,17739(v0)
     570:	45ba4bb6 	0x45ba4bb6
     574:	b57f0903 	0xb57f0903
     578:	867d7f49 	lh	sp,32585(s3)
     57c:	49484482 	0x49484482
     580:	f5ef2103 	sdc1	$f15,8451(t7)
     584:	477903b8 	c1	0x17903b8
     588:	08f180f5 	j	3c603d4 <_init-0x64b9fc2c>
     58c:	e703b7e1 	swc1	$f3,-18463(t8)
     590:	03487f00 	0x3487f00
     594:	28027f9c 	slti	v0,zero,32668
     598:	08874701 	j	21d1c04 <_init-0x6662e3fc>
     59c:	0f2c023f 	jal	cb008fc <_init-0x5bcff704>
     5a0:	7f7f2e03 	0x7f7f2e03
     5a4:	7f00d903 	0x7f00d903
     5a8:	027ef303 	0x27ef303
     5ac:	dc030124 	ldc3	$3,292(zero)
     5b0:	aa037f00 	swl	v1,32512(s0)
     5b4:	0128027f 	0x128027f
     5b8:	1f03e108 	0x1f03e108
     5bc:	be474f7f 	cache	0x7,20351(s2)
     5c0:	7f11037f 	0x7f11037f
     5c4:	82814780 	lb	at,18304(s4)
     5c8:	7f8347f5 	0x7f8347f5
     5cc:	7f00dd03 	0x7f00dd03
     5d0:	464c4482 	c1	0x4c4482
     5d4:	46807ff0 	c1	0x807ff0
     5d8:	48814748 	0x48814748
     5dc:	7f7fa003 	0x7f7fa003
     5e0:	037f3503 	0x37f3503
     5e4:	98037f15 	lwr	v1,32533(zero)
     5e8:	2c027f7f 	sltiu	v0,zero,32639
     5ec:	b7720812 	0xb7720812
     5f0:	080b0380 	j	2c0e00 <_init-0x6853f200>
     5f4:	770380a9 	jalx	c0e02a4 <_init-0x5c71fd5c>
     5f8:	7fb503ef 	0x7fb503ef
     5fc:	03b880ef 	0x3b880ef
     600:	827f7f0a 	lb	ra,32522(s3)
     604:	47472403 	c1	0x1472403
     608:	7fef5903 	0x7fef5903
     60c:	4b7f2303 	c2	0x17f2303
     610:	ef700347 	swc3	$16,839(k1)
     614:	47471003 	c1	0x1471003
     618:	ef00f803 	swc3	$0,-2045(t8)
     61c:	ef7f9803 	swc3	$31,-26621(k1)
     620:	7f00e503 	0x7f00e503
     624:	7f980382 	0x7f980382
     628:	00e2037f 	0xe2037f
     62c:	9803857f 	lwr	v1,-31361(zero)
     630:	df037f7f 	ldc3	$3,32639(t8)
     634:	09037f00 	j	40dfc00 <_init-0x64720400>
     638:	7f98037f 	0x7f98037f
     63c:	00dc037f 	0xdc037f
     640:	7f0c037f 	0x7f0c037f
     644:	7f7f9803 	0x7f7f9803
     648:	7f00d903 	0x7f00d903
     64c:	037f0f03 	0x37f0f03
     650:	037f7f98 	0x37f7f98
     654:	037f00d6 	0x37f00d6
     658:	98037f12 	lwr	v1,32530(zero)
     65c:	58037f7f 	0x58037f7f
     660:	4718037f 	c1	0x118037f
     664:	03390847 	0x3390847
     668:	1403ef6c 	bne	zero,v1,ffffc41c <emuqueue+0x977f4178>
     66c:	64034747 	0x64034747
     670:	471c03ef 	c1	0x11c03ef
     674:	28026003 	slti	v0,zero,24579
     678:	47200301 	c1	0x1200301
     67c:	01af0347 	0x1af0347
     680:	497dbaef 	0x497dbaef
     684:	35088547 	ori	t0,t0,0x8547
     688:	03ef4ab8 	0x3ef4ab8
     68c:	82487f5b 	lb	t0,32603(s2)
     690:	03720881 	0x3720881
     694:	82817f0a 	lb	at,32522(s4)
     698:	81817b44 	lb	at,31556(t4)
     69c:	08024482 	j	91208 <_init-0x6876edf8>
     6a0:	6e010100 	0x6e010100
     6a4:	02000003 	0x2000003
     6a8:	0001d500 	sll	k0,at,0x14
     6ac:	fb010100 	sdc2	$1,256(t8)
     6b0:	01000a0e 	0x1000a0e
     6b4:	00010101 	0x10101
     6b8:	2e010000 	sltiu	at,s0,0
     6bc:	2f2e2e2f 	sltiu	t6,t9,11823
     6c0:	2e2f2e2e 	sltiu	t7,s1,11822
     6c4:	2e2e2f2e 	sltiu	t6,s1,12078
     6c8:	7073702f 	0x7073702f
     6cc:	6c65725f 	0x6c65725f
     6d0:	636e692f 	0x636e692f
     6d4:	6564756c 	0x6564756c
     6d8:	6f63752f 	0x6f63752f
     6dc:	2e2e2f73 	sltiu	t6,s1,12147
     6e0:	62696c2f 	0x62696c2f
     6e4:	2f2e0063 	sltiu	t6,t9,99
     6e8:	2e2f2e2e 	sltiu	t7,s1,11822
     6ec:	2e2e2f2e 	sltiu	t6,s1,12078
     6f0:	2f2e2e2f 	sltiu	t6,t9,11823
     6f4:	65736163 	0x65736163
     6f8:	636e692f 	0x636e692f
     6fc:	6564756c 	0x6564756c
     700:	2e2f2e00 	sltiu	t7,s1,11776
     704:	2e2e2f2e 	sltiu	t6,s1,12078
     708:	2f2e2e2f 	sltiu	t6,t9,11823
     70c:	632f2e2e 	0x632f2e2e
     710:	2f657361 	sltiu	a1,k1,29537
     714:	6c636e69 	0x6c636e69
     718:	2f656475 	sltiu	a1,k1,25717
     71c:	6d6d6f63 	0x6d6d6f63
     720:	69756e6f 	0x69756e6f
     724:	2e2f2e00 	sltiu	t7,s1,11776
     728:	2e2e2f2e 	sltiu	t6,s1,12078
     72c:	2f2e2e2f 	sltiu	t6,t9,11823
     730:	702f2e2e 	0x702f2e2e
     734:	725f7073 	0x725f7073
     738:	692f6c65 	0x692f6c65
     73c:	756c636e 	jalx	5b18db8 <_init-0x62ce7248>
     740:	2e006564 	sltiu	zero,s0,25956
     744:	2f2e2e2f 	sltiu	t6,t9,11823
     748:	2e2f2e2e 	sltiu	t7,s1,11822
     74c:	2e2e2f2e 	sltiu	t6,s1,12078
     750:	7073702f 	0x7073702f
     754:	6c65725f 	0x6c65725f
     758:	636e692f 	0x636e692f
     75c:	6564756c 	0x6564756c
     760:	6975672f 	0x6975672f
     764:	2e2f2e00 	sltiu	t7,s1,11776
     768:	2e2e2f2e 	sltiu	t6,s1,12078
     76c:	2f2e2e2f 	sltiu	t6,t9,11823
     770:	702f2e2e 	0x702f2e2e
     774:	725f7073 	0x725f7073
     778:	692f6c65 	0x692f6c65
     77c:	756c636e 	jalx	5b18db8 <_init-0x62ce7248>
     780:	6c2f6564 	0x6c2f6564
     784:	2f636269 	sltiu	v1,k1,25193
     788:	00737973 	tltu	v1,s3,0x1e5
     78c:	5f6d6500 	0x5f6d6500
     790:	6f636573 	0x6f636573
     794:	6c5f646e 	0x6c5f646e
     798:	6c657665 	0x6c657665
     79c:	6e656d5f 	0x6e656d5f
     7a0:	00632e75 	0x632e75
     7a4:	74000000 	jalx	0 <_init-0x68800000>
     7a8:	73657079 	0x73657079
     7ac:	0100682e 	0x100682e
     7b0:	6d650000 	0x6d650000
     7b4:	74616c75 	jalx	185b1d4 <_init-0x66fa4e2c>
     7b8:	735f726f 	0x735f726f
     7bc:	656e6563 	0x656e6563
     7c0:	0000682e 	0x682e
     7c4:	74730000 	jalx	1cc0000 <_init-0x66b40000>
     7c8:	2e656c79 	sltiu	a1,s3,27769
     7cc:	00020068 	0x20068
     7d0:	6e656d00 	0x6e656d00
     7d4:	65697675 	0x65697675
     7d8:	00682e77 	0x682e77
     7dc:	6d000003 	0x6d000003
     7e0:	2e756e65 	sltiu	s5,s3,28261
     7e4:	00030068 	0x30068
     7e8:	6a646100 	0x6a646100
     7ec:	2e747375 	sltiu	s4,s3,29557
     7f0:	00030068 	0x30068
     7f4:	63747200 	0x63747200
     7f8:	0400682e 	bltz	zero,1a8b4 <_init-0x687e574c>
     7fc:	65680000 	0x65680000
     800:	61626461 	0x61626461
     804:	00682e72 	tlt	v1,t0,0xb9
     808:	64000003 	0x64000003
     80c:	6f6c6169 	0x6f6c6169
     810:	00682e67 	0x682e67
     814:	64000003 	0x64000003
     818:	696c7269 	0x696c7269
     81c:	682e7473 	0x682e7473
     820:	00000300 	sll	zero,zero,0xc
     824:	6267736d 	0x6267736d
     828:	682e786f 	0x682e786f
     82c:	00000300 	sll	zero,zero,0xc
     830:	756c6f76 	jalx	5b1bdd8 <_init-0x62ce4228>
     834:	6162656d 	0x6162656d
     838:	00682e72 	tlt	v1,t0,0xb9
     83c:	67000003 	0x67000003
     840:	695f6975 	0x695f6975
     844:	682e636e 	0x682e636e
     848:	00000500 	sll	zero,zero,0x14
     84c:	69737566 	0x69737566
     850:	682e6e6f 	0x682e6e6f
     854:	00000200 	sll	zero,zero,0x8
     858:	6e617274 	0x6e617274
     85c:	616d6973 	0x616d6973
     860:	682e6567 	0x682e6567
     864:	00000400 	sll	zero,zero,0x10
     868:	65707974 	0x65707974
     86c:	00682e73 	tltu	v1,t0,0xb9
     870:	65000006 	0x65000006
     874:	616c756d 	0x616c756d
     878:	2e726f74 	sltiu	s2,s3,28532
     87c:	00040068 	0x40068
     880:	05000000 	bltz	t0,884 <_init-0x687ff77c>
     884:	800cbc02 	lb	t4,-17406(zero)
     888:	012e0368 	0x12e0368
     88c:	4b434b43 	c2	0x1434b43
     890:	08434b43 	j	10d2d0c <_init-0x6772d2f4>
     894:	03818075 	0x3818075
     898:	5203472e 	beql	s0,v1,12554 <_init-0x687edaac>
     89c:	7f2e0347 	0x7f2e0347
     8a0:	03475403 	0x3475403
     8a4:	5603472c 	bnel	s0,v1,12558 <_init-0x687edaa8>
     8a8:	80b8807f 	lb	t8,-32641(a1)
     8ac:	8084b881 	lb	a0,-18303(a0)
     8b0:	021f0381 	0x21f0381
     8b4:	85800128 	lh	zero,296(t4)
     8b8:	45493b08 	0x45493b08
     8bc:	45f1434b 	0x45f1434b
     8c0:	844a4649 	lh	t2,17993(v0)
     8c4:	45444c42 	0x45444c42
     8c8:	49424a49 	0x49424a49
     8cc:	ab08864a 	swl	t0,-31158(t8)
     8d0:	49434b45 	0x49434b45
     8d4:	49494646 	0x49494646
     8d8:	45494581 	0x45494581
     8dc:	b84c4549 	swr	t4,17737(v0)
     8e0:	08b5f187 	j	2d7c61c <_init-0x65a839e4>
     8e4:	487b8377 	mfhc2	k1,0x8377
     8e8:	81a9084a 	lb	t1,2122(t5)
     8ec:	ef5a0382 	swc3	$26,898(k0)
     8f0:	45f14549 	0x45f14549
     8f4:	25034649 	addiu	v1,t0,17993
     8f8:	7fad037f 	0x7fad037f
     8fc:	08f0a908 	j	3c2a420 <_init-0x64bd5be0>
     900:	da03473c 	ldc2	$3,18236(s0)
     904:	03477f00 	0x3477f00
     908:	f27f7fa9 	0xf27f7fa9
     90c:	0800d603 	j	3580c <_init-0x687ca7f4>
     910:	7fa70371 	0x7fa70371
     914:	0382b77f 	0x382b77f
     918:	710801b5 	0x710801b5
     91c:	ea86b7bf 	swc2	$6,-18497(s4)
     920:	03b74b80 	0x3b74b80
     924:	7e7f00f0 	dpau.h.qbl	$ac0,s3,ra
     928:	86484648 	lh	t0,17992(s2)
     92c:	4a8080ea 	c2	0x8080ea
     930:	160380f5 	bne	s0,v1,fffe0d08 <emuqueue+0x977d8a64>
     934:	780380ef 	0x780380ef
     938:	03474f7f 	0x3474f7f
     93c:	82847f70 	lb	a0,32624(s4)
     940:	7f480345 	0x7f480345
     944:	03b74748 	0x3b74748
     948:	74037f15 	jalx	dfc54 <_init-0x687203ac>
     94c:	8684b7b7 	lh	a0,-18505(s4)
     950:	48ef5003 	mthc2	t7,$10,3
     954:	1603b747 	bne	s0,v1,fffee674 <emuqueue+0x977e63d0>
     958:	b774037f 	0xb774037f
     95c:	038684b7 	0x38684b7
     960:	0380ef6e 	0x380ef6e
     964:	b303b711 	0xb303b711
     968:	444aef7f 	0x444aef7f
     96c:	3003b782 	andi	v1,zero,0xb782
     970:	0853037f 	j	14c0dfc <_init-0x6733f204>
     974:	7f81b739 	0x7f81b739
     978:	487f0903 	mfhc2	ra,0x903
     97c:	b8464846 	swr	a2,18502(v0)
     980:	817f4846 	lb	ra,18502(t3)
     984:	48eeb108 	mthc2	t6,0xb108
     988:	47484680 	c1	0x1484680
     98c:	7f140381 	0x7f140381
     990:	7f7f7403 	0x7f7f7403
     994:	59038684 	0x59038684
     998:	4648467f 	c1	0x48467f
     99c:	10037ff0 	beq	zero,v1,20960 <_init-0x687df6a0>
     9a0:	7f7a037f 	0x7f7a037f
     9a4:	03154002 	0x3154002
     9a8:	037f7fa4 	0x37f7fa4
     9ac:	70034710 	udi0	zero,v1,t0,0x1c
     9b0:	47100347 	c1	0x1100347
     9b4:	457f7203 	0x457f7203
     9b8:	03b71003 	0x3b71003
     9bc:	28037f72 	slti	v1,zero,32626
     9c0:	66033908 	0x66033908
     9c4:	03817108 	0x3817108
     9c8:	03ef01cd 	break	0x3ef,0x7
     9cc:	037f7eb3 	tltu	k1,ra,0x1fa
     9d0:	4a7f01c8 	c2	0x7f01c8
     9d4:	f0484a44 	0xf0484a44
     9d8:	47484680 	c1	0x1484680
     9dc:	7ec80381 	0x7ec80381
     9e0:	7f74037f 	0x7f74037f
     9e4:	0386847f 	0x386847f
     9e8:	03807f6e 	0x3807f6e
     9ec:	b0037f11 	0xb0037f11
     9f0:	47487f7f 	c1	0x1487f7f
     9f4:	7f2203b7 	0x7f2203b7
     9f8:	b7b77403 	0xb7b77403
     9fc:	6e038684 	0x6e038684
     a00:	110380ef 	beq	t0,v1,fffe0dc0 <emuqueue+0x977d8b1c>
     a04:	01ea03b7 	0x1ea03b7
     a08:	86b7bfef 	lh	s7,-16401(s5)
     a0c:	b74b80ea 	0xb74b80ea
     a10:	01000802 	0x1000802
     a14:	00035701 	0x35701
     a18:	d4000200 	ldc1	$f0,512(zero)
     a1c:	01000001 	movf	zero,t0,$fcc0
     a20:	0a0efb01 	j	83bec04 <_init-0x604413fc>
     a24:	01010100 	0x1010100
     a28:	00000001 	movf	zero,zero,$fcc0
     a2c:	2e2f2e01 	sltiu	t7,s1,11777
     a30:	2e2e2f2e 	sltiu	t6,s1,12078
     a34:	2f2e2e2f 	sltiu	t6,t9,11823
     a38:	702f2e2e 	0x702f2e2e
     a3c:	725f7073 	0x725f7073
     a40:	692f6c65 	0x692f6c65
     a44:	756c636e 	jalx	5b18db8 <_init-0x62ce7248>
     a48:	752f6564 	jalx	4bd9590 <_init-0x63c26a70>
     a4c:	2f736f63 	sltiu	s3,k1,28515
     a50:	6c2f2e2e 	0x6c2f2e2e
     a54:	00636269 	0x636269
     a58:	2e2e2f2e 	sltiu	t6,s1,12078
     a5c:	2f2e2e2f 	sltiu	t6,t9,11823
     a60:	2e2f2e2e 	sltiu	t7,s1,11822
     a64:	61632f2e 	0x61632f2e
     a68:	692f6573 	0x692f6573
     a6c:	756c636e 	jalx	5b18db8 <_init-0x62ce7248>
     a70:	2e006564 	sltiu	zero,s0,25956
     a74:	2f2e2e2f 	sltiu	t6,t9,11823
     a78:	2e2f2e2e 	sltiu	t7,s1,11822
     a7c:	2e2e2f2e 	sltiu	t6,s1,12078
     a80:	7361632f 	0x7361632f
     a84:	6e692f65 	0x6e692f65
     a88:	64756c63 	0x64756c63
     a8c:	6f632f65 	0x6f632f65
     a90:	6e6f6d6d 	0x6e6f6d6d
     a94:	2e006975 	sltiu	zero,s0,26997
     a98:	2f2e2e2f 	sltiu	t6,t9,11823
     a9c:	2e2f2e2e 	sltiu	t7,s1,11822
     aa0:	2e2e2f2e 	sltiu	t6,s1,12078
     aa4:	7073702f 	0x7073702f
     aa8:	6c65725f 	0x6c65725f
     aac:	636e692f 	0x636e692f
     ab0:	6564756c 	0x6564756c
     ab4:	2e2f2e00 	sltiu	t7,s1,11776
     ab8:	2e2e2f2e 	sltiu	t6,s1,12078
     abc:	2f2e2e2f 	sltiu	t6,t9,11823
     ac0:	702f2e2e 	0x702f2e2e
     ac4:	725f7073 	0x725f7073
     ac8:	692f6c65 	0x692f6c65
     acc:	756c636e 	jalx	5b18db8 <_init-0x62ce7248>
     ad0:	672f6564 	0x672f6564
     ad4:	2e006975 	sltiu	zero,s0,26997
     ad8:	2f2e2e2f 	sltiu	t6,t9,11823
     adc:	2e2f2e2e 	sltiu	t7,s1,11822
     ae0:	2e2e2f2e 	sltiu	t6,s1,12078
     ae4:	7073702f 	0x7073702f
     ae8:	6c65725f 	0x6c65725f
     aec:	636e692f 	0x636e692f
     af0:	6564756c 	0x6564756c
     af4:	62696c2f 	0x62696c2f
     af8:	79732f63 	0x79732f63
     afc:	65000073 	0x65000073
     b00:	68745f6d 	0x68745f6d
     b04:	5f647269 	0x5f647269
     b08:	6576656c 	0x6576656c
     b0c:	656d5f6c 	0x656d5f6c
     b10:	632e756e 	0x632e756e
     b14:	00000000 	nop
     b18:	65707974 	0x65707974
     b1c:	00682e73 	tltu	v1,t0,0xb9
     b20:	65000001 	0x65000001
     b24:	616c756d 	0x616c756d
     b28:	5f726f74 	0x5f726f74
     b2c:	6e656373 	0x6e656373
     b30:	00682e65 	0x682e65
     b34:	73000000 	madd	t8,zero
     b38:	656c7974 	0x656c7974
     b3c:	0200682e 	0x200682e
     b40:	656d0000 	0x656d0000
     b44:	6976756e 	0x6976756e
     b48:	682e7765 	0x682e7765
     b4c:	00000300 	sll	zero,zero,0xc
     b50:	756e656d 	jalx	5b995b4 <_init-0x62c66a4c>
     b54:	0300682e 	0x300682e
     b58:	64610000 	0x64610000
     b5c:	7473756a 	jalx	1cdd5a8 <_init-0x66b22a58>
     b60:	0300682e 	0x300682e
     b64:	74720000 	jalx	1c80000 <_init-0x66b80000>
     b68:	00682e63 	0x682e63
     b6c:	68000004 	0x68000004
     b70:	62646165 	0x62646165
     b74:	682e7261 	0x682e7261
     b78:	00000300 	sll	zero,zero,0xc
     b7c:	6c616964 	0x6c616964
     b80:	682e676f 	0x682e676f
     b84:	00000300 	sll	zero,zero,0xc
     b88:	6c726964 	0x6c726964
     b8c:	2e747369 	sltiu	s4,s3,29545
     b90:	00030068 	0x30068
     b94:	67736d00 	0x67736d00
     b98:	2e786f62 	sltiu	t8,s3,28514
     b9c:	00030068 	0x30068
     ba0:	6c6f7600 	0x6c6f7600
     ba4:	62656d75 	0x62656d75
     ba8:	682e7261 	0x682e7261
     bac:	00000300 	sll	zero,zero,0xc
     bb0:	5f697567 	0x5f697567
     bb4:	2e636e69 	sltiu	v1,s3,28265
     bb8:	00050068 	0x50068
     bbc:	73756600 	0x73756600
     bc0:	2e6e6f69 	sltiu	t6,s3,28521
     bc4:	00020068 	0x20068
     bc8:	61727400 	0x61727400
     bcc:	6d69736e 	0x6d69736e
     bd0:	2e656761 	sltiu	a1,s3,26465
     bd4:	00040068 	0x40068
     bd8:	70797400 	0x70797400
     bdc:	682e7365 	0x682e7365
     be0:	00000600 	sll	zero,zero,0x18
     be4:	6c756d65 	0x6c756d65
     be8:	726f7461 	0x726f7461
     bec:	0400682e 	bltz	zero,1aca8 <_init-0x687e5358>
     bf0:	00000000 	nop
     bf4:	15040205 	bne	t0,a0,140c <_init-0x687febf4>
     bf8:	28036880 	slti	v1,zero,26752
     bfc:	434b4301 	c0	0x14b4301
     c00:	434b434b 	c0	0x14b434b
     c04:	81803d08 	lb	zero,15624(t4)
     c08:	03472903 	0x3472903
     c0c:	29034757 	slti	v1,t0,18263
     c10:	4759037f 	c1	0x159037f
     c14:	03472703 	0x3472703
     c18:	b8817f5b 	swr	at,32603(a0)
     c1c:	82b88180 	lb	t8,-32384(s5)
     c20:	24021e03 	li	v0,7683
     c24:	08848001 	j	2120004 <_init-0x666dfffc>
     c28:	4a444a3b 	c2	0x444a3b
     c2c:	4546ba44 	0x4546ba44
     c30:	49424a49 	0x49424a49
     c34:	82854946 	lb	a1,18758(s4)
     c38:	45494a44 	0x45494a44
     c3c:	454943bb 	0x454943bb
     c40:	834a4649 	lb	t2,17993(k0)
     c44:	49454943 	0x49454943
     c48:	49494349 	0x49494349
     c4c:	45ba8385 	0x45ba8385
     c50:	087f0903 	j	1fc240c <_init-0x6683dbf4>
     c54:	81477d39 	lb	a3,32057(t2)
     c58:	477d7108 	c1	0x17d7108
     c5c:	80454986 	lb	a1,18822(v0)
     c60:	ef670348 	swc3	$7,840(k1)
     c64:	f0b74a03 	0xf0b74a03
     c68:	03473c08 	0x3473c08
     c6c:	477f00d6 	c1	0x17f00d6
     c70:	7f7fad03 	0x7f7fad03
     c74:	00d303f2 	tlt	a2,s3,0xf
     c78:	aa037108 	swl	v1,28936(s0)
     c7c:	82b77f7f 	lb	s7,32639(s5)
     c80:	0800f403 	j	3d00c <_init-0x687c2ff4>
     c84:	b7474871 	0xb7474871
     c88:	037f1203 	0x37f1203
     c8c:	be80b778 	cache	0x0,-18568(s4)
     c90:	80ef7203 	lb	t7,29187(a3)
     c94:	f2b70d03 	0xf2b70d03
     c98:	03b84648 	0x3b84648
     c9c:	03390811 	0x3390811
     ca0:	710800e2 	0x710800e2
     ca4:	03470d03 	0x3470d03
     ca8:	0d034773 	jal	40d1dcc <_init-0x6472e234>
     cac:	b7710347 	0xb7710347
     cb0:	45498149 	0x45498149
     cb4:	43834549 	c0	0x1834549
     cb8:	0b03434b 	j	c0d0d2c <_init-0x5c72f2d4>
     cbc:	48468047 	0x48468047
     cc0:	8e038147 	lw	v1,-32441(s0)
     cc4:	013c027f 	0x13c027f
     cc8:	807f7803 	lb	ra,30723(v1)
     ccc:	00f603be 	0xf603be
     cd0:	8a037108 	lwl	v1,28936(s0)
     cd4:	42037f7f 	c0	0x37f7f
     cd8:	b846487f 	swr	a2,18559(v0)
     cdc:	39081103 	xori	t0,t0,0x1103
     ce0:	71083703 	0x71083703
     ce4:	03470d03 	0x3470d03
     ce8:	0d034773 	jal	40d1dcc <_init-0x6472e234>
     cec:	b7710347 	0xb7710347
     cf0:	45498149 	0x45498149
     cf4:	43834549 	c0	0x1834549
     cf8:	0b03434b 	j	c0d0d2c <_init-0x5c72f2d4>
     cfc:	48468047 	0x48468047
     d00:	b9038147 	swr	v1,-32441(t0)
     d04:	013c027f 	0x13c027f
     d08:	807f7803 	lb	ra,30723(v1)
     d0c:	00cb03be 	0xcb03be
     d10:	b5037108 	0xb5037108
     d14:	fc037f7f 	sdc3	$3,32639(zero)
     d18:	b7b87f00 	0xb7b87f00
     d1c:	80340886 	lb	s4,2182(at)
     d20:	4d03ef4b 	bc3tl	ffffca50 <emuqueue+0x977f47ac>
     d24:	03b7827f 	0x3b7827f
     d28:	5e037f25 	0x5e037f25
     d2c:	034780b7 	0x34780b7
     d30:	b0087f0b 	0xb0087f0b
     d34:	0387f5f0 	tge	gp,a3,0x3d7
     d38:	3b08ef61 	xori	t0,t8,0xef61
     d3c:	4648b681 	c1	0x48b681
     d40:	7d470a03 	0x7d470a03
     d44:	0348ee81 	0x348ee81
     d48:	827f00c1 	lb	ra,193(s3)
     d4c:	7f2503b7 	0x7f2503b7
     d50:	80b75e03 	lb	s7,24067(a1)
     d54:	7f0b0347 	0x7f0b0347
     d58:	72087808 	0x72087808
     d5c:	610387f5 	0x610387f5
     d60:	81817fef 	lb	at,32751(t4)
     d64:	487e4846 	mfhc2	s8,0x4846
     d68:	02ee8186 	0x2ee8186
     d6c:	01010008 	0x1010008
     d70:	000001aa 	0x1aa
     d74:	00d70002 	0xd70002
     d78:	01010000 	0x1010000
     d7c:	000a0efb 	0xa0efb
     d80:	01010101 	0x1010101
     d84:	01000000 	0x1000000
     d88:	2e2e2f2e 	sltiu	t6,s1,12078
     d8c:	2f2e2e2f 	sltiu	t6,t9,11823
     d90:	2e2f2e2e 	sltiu	t7,s1,11822
     d94:	73702f2e 	0x73702f2e
     d98:	65725f70 	0x65725f70
     d9c:	6e692f6c 	0x6e692f6c
     da0:	64756c63 	0x64756c63
     da4:	63752f65 	0x63752f65
     da8:	2e2f736f 	sltiu	t7,s1,29551
     dac:	696c2f2e 	0x696c2f2e
     db0:	2e006362 	sltiu	zero,s0,25442
     db4:	2f2e2e2f 	sltiu	t6,t9,11823
     db8:	2e2f2e2e 	sltiu	t7,s1,11822
     dbc:	2e2e2f2e 	sltiu	t6,s1,12078
     dc0:	7073702f 	0x7073702f
     dc4:	6c65725f 	0x6c65725f
     dc8:	636e692f 	0x636e692f
     dcc:	6564756c 	0x6564756c
     dd0:	62696c2f 	0x62696c2f
     dd4:	79732f63 	0x79732f63
     dd8:	2f2e0073 	sltiu	t6,t9,115
     ddc:	2e2f2e2e 	sltiu	t7,s1,11822
     de0:	2e2e2f2e 	sltiu	t6,s1,12078
     de4:	2f2e2e2f 	sltiu	t6,t9,11823
     de8:	65736163 	0x65736163
     dec:	636e692f 	0x636e692f
     df0:	6564756c 	0x6564756c
     df4:	2e2f2e00 	sltiu	t7,s1,11776
     df8:	2e2e2f2e 	sltiu	t6,s1,12078
     dfc:	2f2e2e2f 	sltiu	t6,t9,11823
     e00:	702f2e2e 	0x702f2e2e
     e04:	725f7073 	0x725f7073
     e08:	692f6c65 	0x692f6c65
     e0c:	756c636e 	jalx	5b18db8 <_init-0x62ce7248>
     e10:	00006564 	0x6564
     e14:	6c756d65 	0x6c756d65
     e18:	726f7461 	0x726f7461
     e1c:	69616d5f 	0x69616d5f
     e20:	00632e6e 	0x632e6e
     e24:	74000000 	jalx	0 <_init-0x68800000>
     e28:	73657079 	0x73657079
     e2c:	0100682e 	0x100682e
     e30:	79740000 	0x79740000
     e34:	2e736570 	sltiu	s3,s3,25968
     e38:	00020068 	0x20068
     e3c:	79747300 	0x79747300
     e40:	682e656c 	0x682e656c
     e44:	00000300 	sll	zero,zero,0xc
     e48:	682e6d70 	0x682e6d70
     e4c:	00000400 	sll	zero,zero,0x10
     e50:	02050000 	0x2050000
     e54:	68801cc0 	0x68801cc0
     e58:	0100fa03 	0x100fa03
     e5c:	bdbd48b7 	cache	0x1d,18615(t5)
     e60:	bebdbdbd 	cache	0x1d,-16963(s5)
     e64:	39085d03 	xori	t0,t0,0x5d03
     e68:	83814783 	lb	at,18307(gp)
     e6c:	47838147 	c1	0x1838147
     e70:	81478381 	lb	a3,-31871(t2)
     e74:	80814783 	lb	at,18307(a0)
     e78:	0816034b 	j	580d2c <_init-0x6827f2d4>
     e7c:	8343bb39 	lb	v1,-17607(k0)
     e80:	033d087b 	0x33d087b
     e84:	f07f7f8e 	0xf07f7f8e
     e88:	f085f085 	0xf085f085
     e8c:	f085f085 	0xf085f085
     e90:	0381f085 	0x381f085
     e94:	01300264 	0x1300264
     e98:	2c021c03 	sltiu	v0,zero,7171
     e9c:	03400801 	movf	at,k0,$fcc0
     ea0:	497f00ca 	0x497f00ca
     ea4:	84817f45 	lh	at,32581(a0)
     ea8:	2c027208 	sltiu	v0,zero,29192
     eac:	7d80b812 	0x7d80b812
     eb0:	b7847f49 	0xb7847f49
     eb4:	4f03b784 	c3	0x103b784
     eb8:	7f93037f 	0x7f93037f
     ebc:	102c027f 	beq	at,t4,18bc <_init-0x687fe744>
     ec0:	03e20882 	0x3e20882
     ec4:	817f01b5 	lb	ra,437(t3)
     ec8:	cc03b8b8 	pref	0x3,-18248(zero)
     ecc:	0380b77e 	0x380b77e
     ed0:	037f00ea 	0x37f00ea
     ed4:	817f00d8 	lb	ra,216(t3)
     ed8:	c0038181 	ll	v1,-32383(zero)
     edc:	012c027e 	0x12c027e
     ee0:	0200fc03 	0x200fc03
     ee4:	ac080130 	sw	t0,304(zero)
     ee8:	48803908 	0x48803908
     eec:	817f497d 	lb	ra,18813(t3)
     ef0:	7f7f49f0 	0x7f7f49f0
     ef4:	7f49f081 	0x7f49f081
     ef8:	8e03f0f1 	lw	v1,-3855(s0)
     efc:	7203b77f 	sdbbp	0x80edd
     f00:	02012c02 	0x2012c02
     f04:	e7031630 	swc1	$f3,5680(t8)
     f08:	01300200 	0x1300200
     f0c:	080f2c02 	j	3cb008 <_init-0x68434ff8>
     f10:	7f150371 	0x7f150371
     f14:	804682ef 	lb	a2,-32017(v0)
     f18:	00100247 	0x100247
     f1c:	04680101 	tgei	v1,257
     f20:	00020000 	sll	zero,v0,0x0
     f24:	000001de 	0x1de
     f28:	0efb0101 	jal	bec0404 <_init-0x5c93fbfc>
     f2c:	0101000a 	movz	zero,t0,at
     f30:	00000101 	0x101
     f34:	2f2e0100 	sltiu	t6,t9,256
     f38:	2e2f2e2e 	sltiu	t7,s1,11822
     f3c:	2e2e2f2e 	sltiu	t6,s1,12078
     f40:	2f2e2e2f 	sltiu	t6,t9,11823
     f44:	5f707370 	0x5f707370
     f48:	2f6c6572 	sltiu	t4,k1,25970
     f4c:	6c636e69 	0x6c636e69
     f50:	2f656475 	sltiu	a1,k1,25717
     f54:	736f6375 	0x736f6375
     f58:	2f2e2e2f 	sltiu	t6,t9,11823
     f5c:	6362696c 	0x6362696c
     f60:	2e2f2e00 	sltiu	t7,s1,11776
     f64:	2e2e2f2e 	sltiu	t6,s1,12078
     f68:	2f2e2e2f 	sltiu	t6,t9,11823
     f6c:	702f2e2e 	0x702f2e2e
     f70:	725f7073 	0x725f7073
     f74:	692f6c65 	0x692f6c65
     f78:	756c636e 	jalx	5b18db8 <_init-0x62ce7248>
     f7c:	2e006564 	sltiu	zero,s0,25956
     f80:	2f2e2e2f 	sltiu	t6,t9,11823
     f84:	2e2f2e2e 	sltiu	t7,s1,11822
     f88:	2e2e2f2e 	sltiu	t6,s1,12078
     f8c:	7361632f 	0x7361632f
     f90:	6e692f65 	0x6e692f65
     f94:	64756c63 	0x64756c63
     f98:	2f2e0065 	sltiu	t6,t9,101
     f9c:	2e2f2e2e 	sltiu	t7,s1,11822
     fa0:	2e2e2f2e 	sltiu	t6,s1,12078
     fa4:	2f2e2e2f 	sltiu	t6,t9,11823
     fa8:	5f707370 	0x5f707370
     fac:	2f6c6572 	sltiu	t4,k1,25970
     fb0:	6c636e69 	0x6c636e69
     fb4:	2f656475 	sltiu	a1,k1,25717
     fb8:	6362696c 	0x6362696c
     fbc:	7379732f 	0x7379732f
     fc0:	2e2f2e00 	sltiu	t7,s1,11776
     fc4:	2e2e2f2e 	sltiu	t6,s1,12078
     fc8:	2f2e2e2f 	sltiu	t6,t9,11823
     fcc:	632f2e2e 	0x632f2e2e
     fd0:	2f657361 	sltiu	a1,k1,29537
     fd4:	6c636e69 	0x6c636e69
     fd8:	2f656475 	sltiu	a1,k1,25717
     fdc:	6d6d6f63 	0x6d6d6f63
     fe0:	69756e6f 	0x69756e6f
     fe4:	2e2f2e00 	sltiu	t7,s1,11776
     fe8:	2e2e2f2e 	sltiu	t6,s1,12078
     fec:	2f2e2e2f 	sltiu	t6,t9,11823
     ff0:	702f2e2e 	0x702f2e2e
     ff4:	725f7073 	0x725f7073
     ff8:	692f6c65 	0x692f6c65
     ffc:	756c636e 	jalx	5b18db8 <_init-0x62ce7248>
    1000:	672f6564 	0x672f6564
    1004:	00006975 	0x6975
    1008:	6c756d65 	0x6c756d65
    100c:	726f7461 	0x726f7461
    1010:	616c705f 	0x616c705f
    1014:	00632e79 	0x632e79
    1018:	74000000 	jalx	0 <_init-0x68800000>
    101c:	73657079 	0x73657079
    1020:	0100682e 	0x100682e
    1024:	6d650000 	0x6d650000
    1028:	74616c75 	jalx	185b1d4 <_init-0x66fa4e2c>
    102c:	682e726f 	0x682e726f
    1030:	00000200 	sll	zero,zero,0x8
    1034:	5f707061 	0x5f707061
    1038:	2e67736d 	sltiu	a3,s3,29549
    103c:	00030068 	0x30068
    1040:	6d697400 	0x6d697400
    1044:	00682e65 	0x682e65
    1048:	64000004 	0x64000004
    104c:	6c707369 	0x6c707369
    1050:	682e7961 	0x682e7961
    1054:	00000200 	sll	zero,zero,0x8
    1058:	6c797473 	0x6c797473
    105c:	00682e65 	0x682e65
    1060:	64000003 	0x64000003
    1064:	6f6c6169 	0x6f6c6169
    1068:	00682e67 	0x682e67
    106c:	74000005 	jalx	14 <_init-0x687fffec>
    1070:	73657079 	0x73657079
    1074:	0400682e 	bltz	zero,1b130 <_init-0x687e4ed0>
    1078:	6d650000 	0x6d650000
    107c:	74616c75 	jalx	185b1d4 <_init-0x66fa4e2c>
    1080:	735f726f 	0x735f726f
    1084:	656e6563 	0x656e6563
    1088:	0000682e 	0x682e
    108c:	656d0000 	0x656d0000
    1090:	6976756e 	0x6976756e
    1094:	682e7765 	0x682e7765
    1098:	00000500 	sll	zero,zero,0x14
    109c:	756e656d 	jalx	5b995b4 <_init-0x62c66a4c>
    10a0:	0500682e 	bltz	t0,1b15c <_init-0x687e4ea4>
    10a4:	64610000 	0x64610000
    10a8:	7473756a 	jalx	1cdd5a8 <_init-0x66b22a58>
    10ac:	0500682e 	bltz	t0,1b168 <_init-0x687e4e98>
    10b0:	74720000 	jalx	1c80000 <_init-0x66b80000>
    10b4:	00682e63 	0x682e63
    10b8:	68000002 	0x68000002
    10bc:	62646165 	0x62646165
    10c0:	682e7261 	0x682e7261
    10c4:	00000500 	sll	zero,zero,0x14
    10c8:	6c726964 	0x6c726964
    10cc:	2e747369 	sltiu	s4,s3,29545
    10d0:	00050068 	0x50068
    10d4:	67736d00 	0x67736d00
    10d8:	2e786f62 	sltiu	t8,s3,28514
    10dc:	00050068 	0x50068
    10e0:	6c6f7600 	0x6c6f7600
    10e4:	62656d75 	0x62656d75
    10e8:	682e7261 	0x682e7261
    10ec:	00000500 	sll	zero,zero,0x14
    10f0:	5f697567 	0x5f697567
    10f4:	2e636e69 	sltiu	v1,s3,28265
    10f8:	00060068 	0x60068
    10fc:	2e6d7000 	sltiu	t5,s3,28672
    1100:	00020068 	0x20068
    1104:	05000000 	bltz	t0,1108 <_init-0x687feef8>
    1108:	8022a802 	lb	v0,-22526(at)
    110c:	00cb0368 	0xcb0368
    1110:	46487e01 	c1	0x487e01
    1114:	3a088048 	xori	t0,s0,0x8048
    1118:	46f63c08 	c1	0xf63c08
    111c:	bab88080 	swr	t8,-32640(s5)
    1120:	464846f7 	c1	0x4846f7
    1124:	ef837f80 	swc3	$3,32640(gp)
    1128:	ef83ef83 	swc3	$3,-4221(gp)
    112c:	ef83ef83 	swc3	$3,-4221(gp)
    1130:	1103ef83 	beq	t0,v1,ffffcf40 <emuqueue+0x977f4c9c>
    1134:	0873037f 	j	1cc0dfc <_init-0x66b3f204>
    1138:	ef83ef39 	swc3	$3,-4295(gp)
    113c:	0382f183 	0x382f183
    1140:	03390819 	multu	$ac1,t9,t9
    1144:	b747476e 	0xb747476e
    1148:	037f0c03 	0x37f0c03
    114c:	b7474774 	0xb7474774
    1150:	477a0385 	c1	0x17a0385
    1154:	477c8247 	c1	0x17c8247
    1158:	037f2403 	0x37f2403
    115c:	b7477f5c 	0xb7477f5c
    1160:	037f0f03 	0x37f0f03
    1164:	03474771 	tgeu	k0,a3,0x11d
    1168:	68037f18 	0x68037f18
    116c:	7f09037f 	0x7f09037f
    1170:	b7477703 	0xb7477703
    1174:	037f1b03 	0x37f1b03
    1178:	f8037f65 	sdc2	$3,32613(zero)
    117c:	44827f00 	0x44827f00
    1180:	814a7c4a 	lb	t2,31818(t2)
    1184:	477a034d 	c1	0x17a034d
    1188:	b77a0385 	0xb77a0385
    118c:	eb7f0a03 	swc2	$31,2563(k1)
    1190:	9a034882 	lwr	v1,18562(s0)
    1194:	82f1ef7e 	lb	s1,-4226(s7)
    1198:	037208b8 	0x37208b8
    119c:	eab70189 	swc2	$23,393(s5)
    11a0:	7fac0849 	0x7fac0849
    11a4:	80814586 	lb	at,17798(a0)
    11a8:	46f5efba 	c1	0xf5efba
    11ac:	80494549 	lb	t1,17737(v0)
    11b0:	b84ab44a 	swr	t2,-19382(v0)
    11b4:	8180ef81 	lb	zero,-4223(t4)
    11b8:	ef8180ef 	swc3	$1,-32529(gp)
    11bc:	80ef8180 	lb	t7,-32384(a3)
    11c0:	8180ef81 	lb	zero,-4223(t4)
    11c4:	f28180ef 	0xf28180ef
    11c8:	b7818044 	0xb7818044
    11cc:	80484681 	lb	t0,18049(v0)
    11d0:	ef7eca03 	swc3	$30,-13821(k1)
    11d4:	4701bb03 	c1	0x101bb03
    11d8:	49464845 	0x49464845
    11dc:	7f7ec503 	0x7f7ec503
    11e0:	0184034a 	0x184034a
    11e4:	4002a908 	0x4002a908
    11e8:	45484a10 	0x45484a10
    11ec:	efba8049 	swc3	$26,-32695(sp)
    11f0:	4002817f 	0x4002817f
    11f4:	01c50310 	0x1c50310
    11f8:	79034e7f 	0x79034e7f
    11fc:	47090347 	c1	0x1090347
    1200:	4eb77703 	c3	0xb77703
    1204:	48b68149 	0x48b68149
    1208:	020f0380 	0x20f0380
    120c:	7a030124 	0x7a030124
    1210:	7a034d47 	0x7a034d47
    1214:	80804d47 	lb	zero,19783(a0)
    1218:	08808081 	j	2020204 <_init-0x667dfdfc>
    121c:	80818073 	lb	at,-32653(a0)
    1220:	47458185 	c1	0x1458185
    1224:	85474585 	lh	a3,17797(t2)
    1228:	4848f0f3 	0x4848f0f3
    122c:	f28049b5 	0xf28049b5
    1230:	71080c03 	0x71080c03
    1234:	4f7f7a03 	c3	0x17f7a03
    1238:	477a0345 	c1	0x17a0345
    123c:	47458585 	c1	0x1458585
    1240:	8080f385 	lb	zero,-3195(a0)
    1244:	48468081 	0x48468081
    1248:	80818080 	lb	at,-32640(a0)
    124c:	b549f084 	0xb549f084
    1250:	08f28049 	j	3ca0124 <_init-0x64b5fedc>
    1254:	1603ba79 	bne	s0,v1,fffefc3c <emuqueue+0x977e7998>
    1258:	82803908 	lb	zero,14600(s4)
    125c:	7f6b037d 	0x7f6b037d
    1260:	08808280 	j	2020a00 <_init-0x667df600>
    1264:	08838539 	j	20e14e4 <_init-0x6671eb1c>
    1268:	7f780341 	0x7f780341
    126c:	7403474f 	jalx	d1d3c <_init-0x6872e2c4>
    1270:	4108837f 	0x4108837f
    1274:	4f7f7803 	c3	0x17f7803
    1278:	454d8347 	0x454d8347
    127c:	83494b43 	lb	t1,19267(k0)
    1280:	83478244 	lb	a3,-32188(k0)
    1284:	7a03494b 	0x7a03494b
    1288:	80494b47 	lb	t1,19271(v0)
    128c:	bb83bb81 	swr	v1,-17535(gp)
    1290:	b77a0385 	0xb77a0385
    1294:	f2808282 	0xf2808282
    1298:	82804945 	lb	zero,18757(s4)
    129c:	f3ef0903 	0xf3ef0903
    12a0:	4709037b 	c1	0x109037b
    12a4:	7f790349 	0x7f790349
    12a8:	80498182 	lb	t1,-32382(v0)
    12ac:	824945ba 	lb	t1,17850(s2)
    12b0:	7b4f3d08 	0x7b4f3d08
    12b4:	034a444b 	0x34a444b
    12b8:	484b4778 	0x484b4778
    12bc:	3b08814a 	xori	t0,t8,0x814a
    12c0:	7b4bf3ba 	0x7b4bf3ba
    12c4:	4846814b 	0x4846814b
    12c8:	3e08bb81 	0x3e08bb81
    12cc:	7f1803ef 	0x7f1803ef
    12d0:	a9086a03 	swl	t0,27139(t0)
    12d4:	4748f0f4 	c1	0x148f0f4
    12d8:	48484581 	0x48484581
    12dc:	b8740884 	swr	s4,2180(v1)
    12e0:	086c0383 	j	1b00e0c <_init-0x66cff1f4>
    12e4:	170382a9 	bne	t8,v1,fffe1d8c <emuqueue+0x977d9ae8>
    12e8:	4b7b4b7f 	c2	0x17b4b7f
    12ec:	48818343 	0x48818343
    12f0:	ef818145 	swc3	$1,-32443(gp)
    12f4:	3508857f 	ori	t0,t0,0x857f
    12f8:	08134002 	j	4d0008 <_init-0x6832fff8>
    12fc:	4b7b4b77 	c2	0x17b4b77
    1300:	48818343 	0x48818343
    1304:	ef818145 	swc3	$1,-32443(gp)
    1308:	3508857f 	ori	t0,t0,0x857f
    130c:	08134002 	j	4d0008 <_init-0x6832fff8>
    1310:	79038677 	0x79038677
    1314:	46484d47 	c1	0x484d47
    1318:	4d7f7a03 	0x4d7f7a03
    131c:	4748f080 	c1	0x148f080
    1320:	08804781 	j	2011e04 <_init-0x667ee1fc>
    1324:	3b08803b 	xori	t0,t8,0x803b
    1328:	803b0880 	lb	k1,2176(at)
    132c:	08803b08 	j	200ec20 <_init-0x667f13e0>
    1330:	3b08803b 	xori	t0,t8,0x803b
    1334:	803b0880 	lb	k1,2176(at)
    1338:	ae083c08 	sw	t0,15368(s0)
    133c:	484680f3 	0x484680f3
    1340:	497d4846 	0x497d4846
    1344:	46804945 	c1	0x804945
    1348:	08834748 	j	20d1d20 <_init-0x6672e2e0>
    134c:	ff038137 	sdc3	$3,-32457(t8)
    1350:	8339087b 	lb	t9,2171(t9)
    1354:	037f4b43 	0x37f4b43
    1358:	57037f2b 	bnel	t8,v1,21008 <_init-0x687deff8>
    135c:	72087108 	0x72087108
    1360:	47838547 	c1	0x1838547
    1364:	807f0b03 	lb	ra,2819(v1)
    1368:	80f2857f 	lb	s2,-31361(a3)
    136c:	6a038080 	0x6a038080
    1370:	4881477f 	0x4881477f
    1374:	037f1903 	0x37f1903
    1378:	e5037f70 	swc1	$f3,32624(t0)
    137c:	b7bfef03 	0xb7bfef03
    1380:	4b80ea86 	c2	0x180ea86
    1384:	000802b7 	0x802b7
    1388:	05ac0101 	teqi	t5,257
    138c:	00020000 	sll	zero,v0,0x0
    1390:	00000249 	0x249
    1394:	0efb0101 	jal	bec0404 <_init-0x5c93fbfc>
    1398:	0101000a 	movz	zero,t0,at
    139c:	00000101 	0x101
    13a0:	2f2e0100 	sltiu	t6,t9,256
    13a4:	2e2f2e2e 	sltiu	t7,s1,11822
    13a8:	2e2e2f2e 	sltiu	t6,s1,12078
    13ac:	2f2e2e2f 	sltiu	t6,t9,11823
    13b0:	5f707370 	0x5f707370
    13b4:	2f6c6572 	sltiu	t4,k1,25970
    13b8:	6c636e69 	0x6c636e69
    13bc:	2f656475 	sltiu	a1,k1,25717
    13c0:	736f6375 	0x736f6375
    13c4:	2f2e2e2f 	sltiu	t6,t9,11823
    13c8:	6362696c 	0x6362696c
    13cc:	2e2f2e00 	sltiu	t7,s1,11776
    13d0:	2e2e2f2e 	sltiu	t6,s1,12078
    13d4:	2f2e2e2f 	sltiu	t6,t9,11823
    13d8:	632f2e2e 	0x632f2e2e
    13dc:	2f657361 	sltiu	a1,k1,29537
    13e0:	6c636e69 	0x6c636e69
    13e4:	00656475 	0x656475
    13e8:	2e2e2f2e 	sltiu	t6,s1,12078
    13ec:	2f2e2e2f 	sltiu	t6,t9,11823
    13f0:	2e2f2e2e 	sltiu	t7,s1,11822
    13f4:	61632f2e 	0x61632f2e
    13f8:	692f6573 	0x692f6573
    13fc:	756c636e 	jalx	5b18db8 <_init-0x62ce7248>
    1400:	632f6564 	0x632f6564
    1404:	6f6d6d6f 	0x6f6d6d6f
    1408:	0069756e 	0x69756e
    140c:	2e2e2f2e 	sltiu	t6,s1,12078
    1410:	2f2e2e2f 	sltiu	t6,t9,11823
    1414:	2e2f2e2e 	sltiu	t7,s1,11822
    1418:	73702f2e 	0x73702f2e
    141c:	65725f70 	0x65725f70
    1420:	6e692f6c 	0x6e692f6c
    1424:	64756c63 	0x64756c63
    1428:	2f2e0065 	sltiu	t6,t9,101
    142c:	2e2f2e2e 	sltiu	t7,s1,11822
    1430:	2e2e2f2e 	sltiu	t6,s1,12078
    1434:	2f2e2e2f 	sltiu	t6,t9,11823
    1438:	5f707370 	0x5f707370
    143c:	2f6c6572 	sltiu	t4,k1,25970
    1440:	6c636e69 	0x6c636e69
    1444:	2f656475 	sltiu	a1,k1,25717
    1448:	00697567 	0x697567
    144c:	2e2e2f2e 	sltiu	t6,s1,12078
    1450:	2f2e2e2f 	sltiu	t6,t9,11823
    1454:	2e2f2e2e 	sltiu	t7,s1,11822
    1458:	61632f2e 	0x61632f2e
    145c:	692f6573 	0x692f6573
    1460:	756c636e 	jalx	5b18db8 <_init-0x62ce7248>
    1464:	612f6564 	0x612f6564
    1468:	696c7070 	0x696c7070
    146c:	2f2e0062 	sltiu	t6,t9,98
    1470:	2e2f2e2e 	sltiu	t7,s1,11822
    1474:	2e2e2f2e 	sltiu	t6,s1,12078
    1478:	2f2e2e2f 	sltiu	t6,t9,11823
    147c:	5f707370 	0x5f707370
    1480:	2f6c6572 	sltiu	t4,k1,25970
    1484:	6c636e69 	0x6c636e69
    1488:	2f656475 	sltiu	a1,k1,25717
    148c:	6362696c 	0x6362696c
    1490:	7379732f 	0x7379732f
    1494:	6d650000 	0x6d650000
    1498:	74616c75 	jalx	185b1d4 <_init-0x66fa4e2c>
    149c:	735f726f 	0x735f726f
    14a0:	656e6563 	0x656e6563
    14a4:	0000632e 	0x632e
    14a8:	79740000 	0x79740000
    14ac:	2e736570 	sltiu	s3,s3,25968
    14b0:	00010068 	0x10068
    14b4:	756d6500 	jalx	5b59400 <_init-0x62ca6c00>
    14b8:	6f74616c 	0x6f74616c
    14bc:	63735f72 	0x63735f72
    14c0:	2e656e65 	sltiu	a1,s3,28261
    14c4:	00000068 	0x68
    14c8:	79747300 	0x79747300
    14cc:	682e656c 	0x682e656c
    14d0:	00000200 	sll	zero,zero,0x8
    14d4:	756e656d 	jalx	5b995b4 <_init-0x62c66a4c>
    14d8:	77656976 	jalx	d95a5d8 <_init-0x5aea5a28>
    14dc:	0300682e 	0x300682e
    14e0:	656d0000 	0x656d0000
    14e4:	682e756e 	0x682e756e
    14e8:	00000300 	sll	zero,zero,0xc
    14ec:	756a6461 	jalx	5a99184 <_init-0x62d66e7c>
    14f0:	682e7473 	0x682e7473
    14f4:	00000300 	sll	zero,zero,0xc
    14f8:	2e637472 	sltiu	v1,s3,29810
    14fc:	00040068 	0x40068
    1500:	61656800 	0x61656800
    1504:	72616264 	0x72616264
    1508:	0300682e 	0x300682e
    150c:	69640000 	0x69640000
    1510:	676f6c61 	0x676f6c61
    1514:	0300682e 	0x300682e
    1518:	69640000 	0x69640000
    151c:	73696c72 	0x73696c72
    1520:	00682e74 	teq	v1,t0,0xb9
    1524:	6d000003 	0x6d000003
    1528:	6f626773 	0x6f626773
    152c:	00682e78 	0x682e78
    1530:	76000003 	jalx	800000c <_init-0x607ffff4>
    1534:	6d756c6f 	0x6d756c6f
    1538:	72616265 	0x72616265
    153c:	0300682e 	0x300682e
    1540:	75670000 	jalx	59c0000 <_init-0x62e40000>
    1544:	6e695f69 	0x6e695f69
    1548:	00682e63 	0x682e63
    154c:	77000005 	jalx	c000014 <_init-0x5c7fffec>
    1550:	6e695f6d 	0x6e695f6d
    1554:	00682e63 	0x682e63
    1558:	64000005 	0x64000005
    155c:	6d5f7672 	0x6d5f7672
    1560:	682e7061 	0x682e7061
    1564:	00000200 	sll	zero,zero,0x8
    1568:	2e79656b 	sltiu	t9,s3,25963
    156c:	00040068 	0x40068
    1570:	73696400 	0x73696400
    1574:	79616c70 	0x79616c70
    1578:	0400682e 	bltz	zero,1b634 <_init-0x687e49cc>
    157c:	70610000 	madd	v1,at
    1580:	736d5f70 	0x736d5f70
    1584:	00682e67 	0x682e67
    1588:	66000002 	0x66000002
    158c:	6f697375 	0x6f697375
    1590:	00682e6e 	0x682e6e
    1594:	74000002 	jalx	8 <_init-0x687ffff8>
    1598:	736e6172 	0x736e6172
    159c:	67616d69 	0x67616d69
    15a0:	00682e65 	0x682e65
    15a4:	73000004 	msub	t8,zero
    15a8:	656c7974 	0x656c7974
    15ac:	2e63645f 	sltiu	v1,s3,25695
    15b0:	00060068 	0x60068
    15b4:	73797300 	0x73797300
    15b8:	666e695f 	0x666e695f
    15bc:	00682e6f 	0x682e6f
    15c0:	74000006 	jalx	18 <_init-0x687fffe8>
    15c4:	73657079 	0x73657079
    15c8:	0700682e 	bltz	t8,1b684 <_init-0x687e497c>
    15cc:	6d650000 	0x6d650000
    15d0:	74616c75 	jalx	185b1d4 <_init-0x66fa4e2c>
    15d4:	682e726f 	0x682e726f
    15d8:	00000400 	sll	zero,zero,0x10
    15dc:	02050000 	0x2050000
    15e0:	68803348 	0x68803348
    15e4:	0100dc03 	0x100dc03
    15e8:	033c0882 	0x33c0882
    15ec:	f384ef0a 	0xf384ef0a
    15f0:	4648487e 	c1	0x48487e
    15f4:	44ba3a08 	0x44ba3a08
    15f8:	46807f4a 	c1	0x807f4a
    15fc:	03454948 	0x3454948
    1600:	6d087f09 	0x6d087f09
    1604:	74084981 	jalx	212604 <_init-0x685ed9fc>
    1608:	47497dba 	c1	0x1497dba
    160c:	b8350885 	swr	s5,2181(at)
    1610:	0f03ef4a 	jal	c0fbd28 <_init-0x5c7042d8>
    1614:	03b7807f 	0x3b7807f
    1618:	6b037f19 	0x6b037f19
    161c:	81efefef 	lb	t7,-4113(t7)
    1620:	7f120380 	ext	s2,t8,0xe,0x1
    1624:	7fef7403 	0x7fef7403
    1628:	74083908 	jalx	20e420 <_init-0x685f1be0>
    162c:	037f0903 	0x37f0903
    1630:	03477f78 	0x3477f78
    1634:	84f07f17 	lh	s0,32535(a3)
    1638:	037a4c42 	0x37a4c42
    163c:	76037f0f 	jalx	80dfc3c <_init-0x607203c4>
    1640:	46807108 	c1	0x807108
    1644:	48874748 	0x48874748
    1648:	03816e08 	0x3816e08
    164c:	b7b87f15 	0xb7b87f15
    1650:	80340886 	lb	s4,2182(at)
    1654:	6803ef4b 	0x6803ef4b
    1658:	033f087f 	0x33f087f
    165c:	81f07f15 	lb	s0,32533(t7)
    1660:	037d4945 	0x37d4945
    1664:	75037f0d 	jalx	40dfc34 <_init-0x647203cc>
    1668:	03857108 	0x3857108
    166c:	4c4d477a 	0x4c4d477a
    1670:	3c084a44 	lui	t0,0x4a44
    1674:	47497dba 	c1	0x1497dba
    1678:	ef7f0b03 	swc3	$31,2819(k1)
    167c:	037f7703 	0x37f7703
    1680:	82efef09 	lb	t7,-4343(s7)
    1684:	7f00c703 	0x7f00c703
    1688:	1003eff3 	beq	zero,v1,ffffd658 <emuqueue+0x977f53b4>
    168c:	ef0d037f 	swc3	$13,895(t8)
    1690:	47847f84 	c1	0x1847f84
    1694:	b74784b7 	0xb74784b7
    1698:	84b74784 	lh	s7,18308(a1)
    169c:	4784b747 	c1	0x184b747
    16a0:	7f9503b7 	0x7f9503b7
    16a4:	4785ef7f 	c1	0x185ef7f
    16a8:	4a7f6403 	c2	0x7f6403
    16ac:	84ef7108 	lh	t7,28936(a3)
    16b0:	7f018503 	0x7f018503
    16b4:	477f5b03 	c1	0x17f5b03
    16b8:	47230381 	c1	0x1230381
    16bc:	03b75d03 	0x3b75d03
    16c0:	817f7f6c 	lb	ra,32620(t3)
    16c4:	2802b948 	slti	v0,zero,-18104
    16c8:	ef4b0311 	swc3	$11,785(k0)
    16cc:	7f00e503 	0x7f00e503
    16d0:	087fbb03 	j	1feec0c <_init-0x668113f4>
    16d4:	68038139 	0x68038139
    16d8:	d803f2ef 	ldc2	$3,-3345(zero)
    16dc:	bd037f00 	cache	0x3,32512(t0)
    16e0:	25037f7f 	addiu	v1,t0,32639
    16e4:	471e037f 	c1	0x11e037f
    16e8:	03b76203 	0x3b76203
    16ec:	67037f1e 	0x67037f1e
    16f0:	7f1903b7 	0x7f1903b7
    16f4:	03b76c03 	0x3b76c03
    16f8:	71037f14 	udi4	t0,v1,t7,0x1c
    16fc:	7f0f03b7 	0x7f0f03b7
    1700:	03b77703 	0x3b77703
    1704:	46487f0c 	c1	0x487f0c
    1708:	084a4648 	j	1291920 <_init-0x6756e6e0>
    170c:	487ef03a 	mfhc2	s8,0xf03a
    1710:	b780b781 	0xb780b781
    1714:	b780b780 	0xb780b780
    1718:	b780b780 	0xb780b780
    171c:	b780b781 	0xb780b781
    1720:	b780b780 	0xb780b780
    1724:	b780b780 	0xb780b780
    1728:	b780b780 	0xb780b780
    172c:	497df1b8 	0x497df1b8
    1730:	018703ba 	0x18703ba
    1734:	babc3908 	swr	gp,14600(s5)
    1738:	4f45b982 	c3	0x145b982
    173c:	81477803 	lb	a3,30723(t2)
    1740:	4d49b5f1 	nmadd.d	$f23,$f10,$f22,$f9
    1744:	1c037fba 	0x1c037fba
    1748:	5f033908 	0x5f033908
    174c:	73087108 	0x73087108
    1750:	7f0c03ed 	0x7f0c03ed
    1754:	4f7f7903 	c3	0x17f7903
    1758:	102802bb 	beq	at,t0,2248 <_init-0x687fddb8>
    175c:	e208867f 	sc	t0,-31105(s0)
    1760:	f0b98682 	0xf0b98682
    1764:	4980474a 	0x4980474a
    1768:	7f0d037f 	0x7f0d037f
    176c:	39087903 	xori	t0,t0,0x7903
    1770:	fb034b82 	sdc2	$3,19330(t8)
    1774:	80390800 	lb	t9,2048(at)
    1778:	dc038080 	ldc3	$3,-32640(zero)
    177c:	08710800 	j	1c42000 <_init-0x66bbe000>
    1780:	71087f3d 	0x71087f3d
    1784:	087f1903 	j	1fc640c <_init-0x66839bf4>
    1788:	0b03473e 	j	c0d1cf8 <_init-0x5c72e308>
    178c:	0857037f 	j	15c0dfc <_init-0x6723f204>
    1790:	3f0887a9 	0x3f0887a9
    1794:	19038080 	0x19038080
    1798:	03710847 	0x3710847
    179c:	82807f77 	lb	zero,32631(s4)
    17a0:	087203f4 	j	1c80fd0 <_init-0x66b7f030>
    17a4:	ef6903a9 	swc3	$9,937(k1)
    17a8:	25034846 	addiu	v1,t0,18502
    17ac:	7f80037f 	0x7f80037f
    17b0:	4b7ba908 	c2	0x17ba908
    17b4:	863a0884 	lh	k0,2180(s1)
    17b8:	81477a03 	lb	a3,31235(t2)
    17bc:	02818080 	0x2818080
    17c0:	b8f41230 	swr	s4,4656(a3)
    17c4:	02b94846 	rorv	t1,t9,s5
    17c8:	81851124 	lb	a1,4388(t4)
    17cc:	bdbdbdf5 	cache	0x1d,-16907(t5)
    17d0:	bd8547bd 	cache	0x5,18365(t4)
    17d4:	7f330380 	ext	s3,t9,0xe,0x1
    17d8:	7f7f9203 	0x7f7f9203
    17dc:	00ce0380 	0xce0380
    17e0:	660380b7 	0x660380b7
    17e4:	03803908 	0x3803908
    17e8:	80390879 	lb	t9,2169(at)
    17ec:	39087903 	xori	t0,t0,0x7903
    17f0:	08790380 	j	1e40e00 <_init-0x669bf200>
    17f4:	79038039 	0x79038039
    17f8:	03803908 	0x3803908
    17fc:	80390879 	lb	t9,2169(at)
    1800:	39087903 	xori	t0,t0,0x7903
    1804:	00e10380 	0xe10380
    1808:	48823908 	0x48823908
    180c:	48444848 	0x48444848
    1810:	4a444848 	c2	0x444848
    1814:	44484845 	0x44484845
    1818:	034c4848 	0x34c4848
    181c:	48484779 	0x48484779
    1820:	084a4848 	j	1292120 <_init-0x6756dee0>
    1824:	48488240 	0x48488240
    1828:	48484448 	0x48484448
    182c:	454a4448 	0x454a4448
    1830:	48444848 	0x48444848
    1834:	79034c48 	0x79034c48
    1838:	48484847 	0x48484847
    183c:	3d084a48 	0x3d084a48
    1840:	087c8a03 	j	1f2280c <_init-0x668dd7f4>
    1844:	15037fe1 	bne	t0,v1,217cc <_init-0x687de834>
    1848:	01ec037f 	0x1ec037f
    184c:	bc4945ef 	cache	0x9,17903(v0)
    1850:	da0385bd 	ldc2	$3,-31299(s0)
    1854:	037f7f7b 	0x37f7f7b
    1858:	037f04b2 	tlt	k1,ra,0x12
    185c:	3b037f4f 	xori	v1,t8,0x7f4f
    1860:	827f85ef 	lb	ra,-31249(s3)
    1864:	45844a44 	0x45844a44
    1868:	477ac903 	c1	0x17ac903
    186c:	4705b703 	c1	0x105b703
    1870:	477ac903 	c1	0x17ac903
    1874:	bc038084 	cache	0x3,-32636(zero)
    1878:	80474705 	lb	a3,18181(v0)
    187c:	7f01dc03 	0x7f01dc03
    1880:	7dd40382 	0x7dd40382
    1884:	03012802 	0x3012802
    1888:	4485ef35 	0x4485ef35
    188c:	45bcba4a 	0x45bcba4a
    1890:	477ac903 	c1	0x17ac903
    1894:	4705b703 	c1	0x105b703
    1898:	477ac903 	c1	0x17ac903
    189c:	7f05c203 	0x7f05c203
    18a0:	dc038047 	ldc3	$3,-32697(zero)
    18a4:	03827f01 	0x3827f01
    18a8:	28027be3 	slti	v0,zero,31715
    18ac:	f0868101 	0xf0868101
    18b0:	7f7de203 	0x7f7de203
    18b4:	04ac0380 	teqi	a1,896
    18b8:	7bd40347 	0x7bd40347
    18bc:	04990347 	0x4990347
    18c0:	4803807f 	0x4803807f
    18c4:	123802b7 	beq	s1,t8,23a4 <_init-0x687fdc5c>
    18c8:	2c02867f 	sltiu	v0,zero,-31105
    18cc:	80867f12 	lb	a2,32530(a0)
    18d0:	ef7b8103 	swc3	$27,-32509(k1)
    18d4:	3a08847f 	xori	t0,s0,0x847f
    18d8:	84474846 	lh	a3,18502(v0)
    18dc:	03b6037f 	0x3b6037f
    18e0:	8280827f 	lb	zero,-32129(s4)
    18e4:	f0808147 	0xf0808147
    18e8:	01ce0347 	0x1ce0347
    18ec:	b503817f 	0xb503817f
    18f0:	6002ef7e 	0x6002ef7e
    18f4:	474a4412 	c1	0x14a4412
    18f8:	45b98086 	0x45b98086
    18fc:	4846b849 	0x4846b849
    1900:	112402b9 	beq	t1,a0,23e8 <_init-0x687fdc18>
    1904:	867f8185 	lh	ra,-32379(s3)
    1908:	7ce8037f 	0x7ce8037f
    190c:	4846f07f 	0x4846f07f
    1910:	03a80347 	0x3a80347
    1914:	48487b7f 	0x48487b7f
    1918:	48484948 	0x48484948
    191c:	4a484349 	c2	0x484349
    1920:	9903f181 	lwr	v1,-3711(t0)
    1924:	03f3b703 	0x3f3b703
    1928:	e1087ce7 	sc	t0,31975(t0)
    192c:	7f039503 	0x7f039503
    1930:	7dee0386 	0x7dee0386
    1934:	0008027f 	0x8027f
    1938:	012e0101 	0x12e0101
    193c:	00020000 	sll	zero,v0,0x0
    1940:	000000b0 	tge	zero,zero,0x2
    1944:	0efb0101 	jal	bec0404 <_init-0x5c93fbfc>
    1948:	0101000a 	movz	zero,t0,at
    194c:	00000101 	0x101
    1950:	2f2e0100 	sltiu	t6,t9,256
    1954:	2e2f2e2e 	sltiu	t7,s1,11822
    1958:	2e2e2f2e 	sltiu	t6,s1,12078
    195c:	2f2e2e2f 	sltiu	t6,t9,11823
    1960:	5f707370 	0x5f707370
    1964:	2f6c6572 	sltiu	t4,k1,25970
    1968:	6c636e69 	0x6c636e69
    196c:	00656475 	0x656475
    1970:	2e2e2f2e 	sltiu	t6,s1,12078
    1974:	2f2e2e2f 	sltiu	t6,t9,11823
    1978:	2e2f2e2e 	sltiu	t7,s1,11822
    197c:	73702f2e 	0x73702f2e
    1980:	65725f70 	0x65725f70
    1984:	6e692f6c 	0x6e692f6c
    1988:	64756c63 	0x64756c63
    198c:	696c2f65 	0x696c2f65
    1990:	732f6362 	0x732f6362
    1994:	00007379 	0x7379
    1998:	6c756d65 	0x6c756d65
    199c:	726f7461 	0x726f7461
    19a0:	7379735f 	udi15	k1,t9,t6,0xd
    19a4:	7065645f 	udi15	v1,a1,t4,0x11
    19a8:	0000632e 	0x632e
    19ac:	6d650000 	0x6d650000
    19b0:	74616c75 	jalx	185b1d4 <_init-0x66fa4e2c>
    19b4:	682e726f 	0x682e726f
    19b8:	00000100 	sll	zero,zero,0x4
    19bc:	656d6974 	0x656d6974
    19c0:	0200682e 	0x200682e
    19c4:	6d650000 	0x6d650000
    19c8:	74616c75 	jalx	185b1d4 <_init-0x66fa4e2c>
    19cc:	735f726f 	0x735f726f
    19d0:	645f7379 	0x645f7379
    19d4:	682e7065 	0x682e7065
    19d8:	00000000 	nop
    19dc:	6575716d 	0x6575716d
    19e0:	682e6575 	0x682e6575
    19e4:	00000200 	sll	zero,zero,0x8
    19e8:	65707974 	0x65707974
    19ec:	00682e73 	tltu	v1,t0,0xb9
    19f0:	00000002 	srl	zero,zero,0x0
    19f4:	d8020500 	ldc2	$2,1280(zero)
    19f8:	03688046 	rorv	s0,t0,k1
    19fc:	bd830121 	cache	0x3,289(t4)
    1a00:	80e708ba 	lb	a3,2234(a3)
    1a04:	08823908 	j	208e420 <_init-0x66771be0>
    1a08:	7a3e083d 	0x7a3e083d
    1a0c:	7a0385f4 	0x7a0385f4
    1a10:	7ef084b7 	0x7ef084b7
    1a14:	08ba4748 	j	2e91d20 <_init-0x6596e2e0>
    1a18:	4abb82e5 	c2	0xbb82e5
    1a1c:	80bb4c42 	lb	k1,19522(a1)
    1a20:	bb4e8081 	swr	t6,-32639(k0)
    1a24:	834842bc 	lb	t0,17084(k0)
    1a28:	81f348b8 	lb	s3,18616(t7)
    1a2c:	03488083 	0x3488083
    1a30:	03b77f92 	0x3b77f92
    1a34:	03b700f7 	0x3b700f7
    1a38:	49477f8f 	0x49477f8f
    1a3c:	03477803 	0x3477803
    1a40:	037f00f7 	0x37f00f7
    1a44:	85b77f89 	lh	s7,32649(t5)
    1a48:	f3034349 	0xf3034349
    1a4c:	0d034700 	jal	40d1c00 <_init-0x6472e400>
    1a50:	477403b7 	c1	0x17403b7
    1a54:	03b77903 	0x3b77903
    1a58:	03477f9c 	0x3477f9c
    1a5c:	a90800ed 	swl	t0,237(t0)
    1a60:	b8817df1 	swr	at,32241(a0)
    1a64:	02807e82 	0x2807e82
    1a68:	01010008 	0x1010008
    1a6c:	0000005e 	0x5e
    1a70:	00490002 	0x490002
    1a74:	01010000 	0x1010000
    1a78:	000a0efb 	0xa0efb
    1a7c:	01010101 	0x1010101
    1a80:	01000000 	0x1000000
    1a84:	2e2e2f2e 	sltiu	t6,s1,12078
    1a88:	2f2e2e2f 	sltiu	t6,t9,11823
    1a8c:	2e2f2e2e 	sltiu	t7,s1,11822
    1a90:	6e692f2e 	0x6e692f2e
    1a94:	64756c63 	0x64756c63
    1a98:	696c2f65 	0x696c2f65
    1a9c:	732f6362 	0x732f6362
    1aa0:	00007379 	0x7379
    1aa4:	62747263 	0x62747263
    1aa8:	6e696765 	0x6e696765
    1aac:	00632e31 	tgeu	v1,v1,0xb8
    1ab0:	74000000 	jalx	0 <_init-0x68800000>
    1ab4:	73657079 	0x73657079
    1ab8:	0100682e 	0x100682e
    1abc:	00000000 	nop
    1ac0:	4e9c0205 	luxc1	$f8,gp(s4)
    1ac4:	1d036880 	0x1d036880
    1ac8:	00080201 	0x80201
    1acc:	014f0101 	0x14f0101
    1ad0:	00020000 	sll	zero,v0,0x0
    1ad4:	000000d6 	0xd6
    1ad8:	0efb0101 	jal	bec0404 <_init-0x5c93fbfc>
    1adc:	0101000a 	movz	zero,t0,at
    1ae0:	00000101 	0x101
    1ae4:	2f2e0100 	sltiu	t6,t9,256
    1ae8:	2e2f2e2e 	sltiu	t7,s1,11822
    1aec:	2e2e2f2e 	sltiu	t6,s1,12078
    1af0:	2f2e2e2f 	sltiu	t6,t9,11823
    1af4:	7362696c 	0x7362696c
    1af8:	6c2f6372 	0x6c2f6372
    1afc:	2f636269 	sltiu	v1,k1,25193
    1b00:	656e6567 	0x656e6567
    1b04:	2f6c6172 	sltiu	t4,k1,24946
    1b08:	636e692f 	0x636e692f
    1b0c:	6564756c 	0x6564756c
    1b10:	2e2f2e00 	sltiu	t7,s1,11776
    1b14:	2e2e2f2e 	sltiu	t6,s1,12078
    1b18:	2f2e2e2f 	sltiu	t6,t9,11823
    1b1c:	692f2e2e 	0x692f2e2e
    1b20:	756c636e 	jalx	5b18db8 <_init-0x62ce7248>
    1b24:	6c2f6564 	0x6c2f6564
    1b28:	2f636269 	sltiu	v1,k1,25193
    1b2c:	00737973 	tltu	v1,s3,0x1e5
    1b30:	2e2e2f2e 	sltiu	t6,s1,12078
    1b34:	2f2e2e2f 	sltiu	t6,t9,11823
    1b38:	2e2f2e2e 	sltiu	t7,s1,11822
    1b3c:	6e692f2e 	0x6e692f2e
    1b40:	64756c63 	0x64756c63
    1b44:	63752f65 	0x63752f65
    1b48:	2e2f736f 	sltiu	t7,s1,29551
    1b4c:	696c2f2e 	0x696c2f2e
    1b50:	00006362 	0x6362
    1b54:	65747263 	0x65747263
    1b58:	2e31646e 	sltiu	s1,s1,25710
    1b5c:	00000063 	0x63
    1b60:	6f727000 	0x6f727000
    1b64:	73736563 	0x73736563
    1b68:	2e64695f 	sltiu	a0,s3,26975
    1b6c:	00010068 	0x10068
    1b70:	70797400 	0x70797400
    1b74:	682e7365 	0x682e7365
    1b78:	00000200 	sll	zero,zero,0x8
    1b7c:	6362696c 	0x6362696c
    1b80:	7079745f 	udi15	v1,t9,t6,0x11
    1b84:	682e7365 	0x682e7365
    1b88:	00000100 	sll	zero,zero,0x4
    1b8c:	6e656572 	0x6e656572
    1b90:	00682e74 	teq	v1,t0,0xb9
    1b94:	73000002 	mul	zero,t8,zero
    1b98:	64656863 	0x64656863
    1b9c:	0200682e 	0x200682e
    1ba0:	79740000 	0x79740000
    1ba4:	2e736570 	sltiu	s3,s3,25968
    1ba8:	00030068 	0x30068
    1bac:	05000000 	bltz	t0,1bb0 <_init-0x687fe450>
    1bb0:	804ea402 	lb	t6,-23550(v0)
    1bb4:	01290368 	0x1290368
    1bb8:	08760881 	j	1d82204 <_init-0x66a7ddfc>
    1bbc:	080a03ad 	j	280eb4 <_init-0x6857f14c>
    1bc0:	81f0bde1 	lb	s0,-16927(t7)
    1bc4:	34021403 	li	v0,0x1403
    1bc8:	086f0301 	j	1bc0c04 <_init-0x66c3f3fc>
    1bcc:	81b84b71 	lb	t8,19313(t5)
    1bd0:	03bab9bb 	0x3bab9bb
    1bd4:	03bbb777 	0x3bbb777
    1bd8:	39087f0a 	xori	t0,t0,0x7f0a
    1bdc:	808082be 	lb	zero,-32066(a0)
    1be0:	087f0903 	j	1fc240c <_init-0x6683dbf4>
    1be4:	3b08853c 	xori	t0,t8,0x853c
    1be8:	81868083 	lb	a2,-32637(t4)
    1bec:	b9bab880 	swr	k0,-18304(t5)
    1bf0:	08484680 	j	1211a00 <_init-0x675ee600>
    1bf4:	8180473a 	lb	zero,18234(t4)
    1bf8:	873a0882 	lh	k0,2178(t9)
    1bfc:	10340280 	beq	at,s4,2600 <_init-0x687fda00>
    1c00:	ef7a0386 	swc3	$26,902(k1)
    1c04:	ee817d4d 	swc3	$1,32077(s4)
    1c08:	7fbf0348 	0x7fbf0348
    1c0c:	0239037f 	0x239037f
    1c10:	86800124 	lh	zero,292(s4)
    1c14:	037f5803 	0x37f5803
    1c18:	01300228 	0x1300228
    1c1c:	01000802 	0x1000802
    1c20:	Address 0x1c20 is out of bounds.

Disassembly of section .debug_frame:

00000000 <.debug_frame>:
   0:	0000000c 	syscall
   4:	ffffffff 	sdc3	$31,-1(ra)
   8:	04010001 	b	10 <_init-0x687ffff0>
   c:	001d0c1f 	0x1d0c1f
  10:	00000014 	0x14
  14:	00000000 	nop
  18:	68800020 	0x68800020
  1c:	00000034 	teq	zero,zero
  20:	48180e48 	0x48180e48
  24:	007e1f11 	0x7e1f11
  28:	0000000c 	syscall
  2c:	00000000 	nop
  30:	68800054 	0x68800054
  34:	00000010 	mfhi	zero
  38:	0000000c 	syscall
  3c:	ffffffff 	sdc3	$31,-1(ra)
  40:	04010001 	b	48 <_init-0x687fffb8>
  44:	001d0c1f 	0x1d0c1f
  48:	0000001c 	0x1c
  4c:	00000038 	0x38
  50:	68800064 	0x68800064
  54:	000000ec 	0xec
  58:	4c380e44 	0x4c380e44
  5c:	117c1011 	beq	t3,gp,40a4 <_init-0x687fbf5c>
  60:	1f117d11 	0x1f117d11
  64:	0000007e 	0x7e
  68:	00000014 	0x14
  6c:	00000038 	0x38
  70:	68800150 	0x68800150
  74:	00000038 	0x38
  78:	44180e44 	0x44180e44
  7c:	007e1f11 	0x7e1f11
  80:	00000020 	add	zero,zero,zero
  84:	00000038 	0x38
  88:	68800188 	0x68800188
  8c:	00000104 	0x104
  90:	48200e44 	0x48200e44
  94:	4c7e1211 	0x4c7e1211
  98:	117f1f11 	beq	t3,ra,7ce0 <_init-0x687f8320>
  9c:	11487d11 	beq	t2,t0,1f4e4 <_init-0x687e0b1c>
  a0:	00007c10 	0x7c10
  a4:	0000000c 	syscall
  a8:	ffffffff 	sdc3	$31,-1(ra)
  ac:	04010001 	b	b4 <_init-0x687fff4c>
  b0:	001d0c1f 	0x1d0c1f
  b4:	0000001c 	0x1c
  b8:	000000a4 	0xa4
  bc:	6880028c 	0x6880028c
  c0:	0000008c 	syscall	0x2
  c4:	4c200e44 	0x4c200e44
  c8:	117e1f11 	beq	t3,s8,7d10 <_init-0x687f82f0>
  cc:	11117c10 	beq	t0,s1,1f110 <_init-0x687e0ef0>
  d0:	0000007d 	0x7d
  d4:	0000000c 	syscall
  d8:	000000a4 	0xa4
  dc:	68800318 	0x68800318
  e0:	00000008 	jr	zero
  e4:	0000000c 	syscall
  e8:	000000a4 	0xa4
  ec:	68800320 	0x68800320
  f0:	00000128 	0x128
  f4:	0000002c 	0x2c
  f8:	000000a4 	0xa4
  fc:	68800448 	0x68800448
 100:	000002f0 	tge	zero,zero,0xb
 104:	48500e48 	0x48500e48
 108:	6c7a1411 	0x6c7a1411
 10c:	11761011 	beq	t3,s6,4154 <_init-0x687fbeac>
 110:	12117711 	beq	s0,s1,1dd58 <_init-0x687e22a8>
 114:	79131178 	0x79131178
 118:	117c1611 	beq	t3,gp,5960 <_init-0x687fa6a0>
 11c:	17117b15 	bne	t8,s1,1ed74 <_init-0x687e128c>
 120:	7e1f117d 	0x7e1f117d
 124:	00000028 	0x28
 128:	000000a4 	0xa4
 12c:	68800738 	0x68800738
 130:	000004b0 	tge	zero,zero,0x12
 134:	48680e44 	mfhc2	t0,0xe44
 138:	117a1211 	beq	t3,k0,4980 <_init-0x687fb680>
 13c:	11647d15 	beq	t3,a0,1f594 <_init-0x687e0a6c>
 140:	11117810 	beq	t0,s1,1e184 <_init-0x687e1e7c>
 144:	7b131179 	0x7b131179
 148:	117c1411 	beq	t3,gp,5190 <_init-0x687fae70>
 14c:	00007e1f 	0x7e1f
 150:	00000018 	mult	zero,zero
 154:	000000a4 	0xa4
 158:	68800be8 	0x68800be8
 15c:	00000060 	0x60
 160:	48180e44 	0x48180e44
 164:	117f1f11 	beq	t3,ra,7dac <_init-0x687f8254>
 168:	00007e10 	0x7e10
 16c:	00000014 	0x14
 170:	000000a4 	0xa4
 174:	68800c48 	0x68800c48
 178:	00000074 	teq	zero,zero,0x1
 17c:	40180e44 	0x40180e44
 180:	007e1f11 	0x7e1f11
 184:	0000000c 	syscall
 188:	ffffffff 	sdc3	$31,-1(ra)
 18c:	04010001 	b	194 <_init-0x687ffe6c>
 190:	001d0c1f 	0x1d0c1f
 194:	00000028 	0x28
 198:	00000184 	0x184
 19c:	68800cbc 	0x68800cbc
 1a0:	0000029c 	0x29c
 1a4:	48380e48 	0x48380e48
 1a8:	647a1211 	0x647a1211
 1ac:	11781011 	beq	t3,t8,41f4 <_init-0x687fbe0c>
 1b0:	15117911 	bne	t0,s1,1e5f8 <_init-0x687e1a08>
 1b4:	7b13117d 	0x7b13117d
 1b8:	117c1411 	beq	t3,gp,5200 <_init-0x687fae00>
 1bc:	00007e1f 	0x7e1f
 1c0:	0000001c 	0x1c
 1c4:	00000184 	0x184
 1c8:	68800f58 	0x68800f58
 1cc:	00000098 	0x98
 1d0:	4c200e44 	0x4c200e44
 1d4:	117e1f11 	beq	t3,s8,7e1c <_init-0x687f81e4>
 1d8:	11117c10 	beq	t0,s1,1f21c <_init-0x687e0de4>
 1dc:	0000007d 	0x7d
 1e0:	00000018 	mult	zero,zero
 1e4:	00000184 	0x184
 1e8:	68800ff0 	0x68800ff0
 1ec:	00000050 	0x50
 1f0:	48180e44 	0x48180e44
 1f4:	117f1f11 	beq	t3,ra,7e3c <_init-0x687f81c4>
 1f8:	00007e10 	0x7e10
 1fc:	00000014 	0x14
 200:	00000184 	0x184
 204:	68801040 	0x68801040
 208:	00000050 	0x50
 20c:	48180e4c 	0x48180e4c
 210:	007e1f11 	0x7e1f11
 214:	00000014 	0x14
 218:	00000184 	0x184
 21c:	68801090 	0x68801090
 220:	00000054 	0x54
 224:	44180e44 	0x44180e44
 228:	007e1f11 	0x7e1f11
 22c:	00000014 	0x14
 230:	00000184 	0x184
 234:	688010e4 	0x688010e4
 238:	00000054 	0x54
 23c:	44180e44 	0x44180e44
 240:	007e1f11 	0x7e1f11
 244:	00000014 	0x14
 248:	00000184 	0x184
 24c:	68801138 	0x68801138
 250:	00000078 	0x78
 254:	44180e44 	0x44180e44
 258:	007e1f11 	0x7e1f11
 25c:	0000001c 	0x1c
 260:	00000184 	0x184
 264:	688011b0 	0x688011b0
 268:	00000188 	0x188
 26c:	4c380e44 	0x4c380e44
 270:	117c1011 	beq	t3,gp,42b8 <_init-0x687fbd48>
 274:	1f117d11 	0x1f117d11
 278:	0000007e 	0x7e
 27c:	0000001c 	0x1c
 280:	00000184 	0x184
 284:	68801338 	0x68801338
 288:	00000104 	0x104
 28c:	48300e44 	0x48300e44
 290:	587c1011 	0x587c1011
 294:	117d1111 	beq	t3,sp,46dc <_init-0x687fb924>
 298:	00007e1f 	0x7e1f
 29c:	00000014 	0x14
 2a0:	00000184 	0x184
 2a4:	6880143c 	0x6880143c
 2a8:	00000078 	0x78
 2ac:	44180e44 	0x44180e44
 2b0:	007e1f11 	0x7e1f11
 2b4:	00000018 	mult	zero,zero
 2b8:	00000184 	0x184
 2bc:	688014b4 	0x688014b4
 2c0:	00000050 	0x50
 2c4:	48180e44 	0x48180e44
 2c8:	117f1f11 	beq	t3,ra,7f10 <_init-0x687f80f0>
 2cc:	00007e10 	0x7e10
 2d0:	0000000c 	syscall
 2d4:	ffffffff 	sdc3	$31,-1(ra)
 2d8:	04010001 	b	2e0 <_init-0x687ffd20>
 2dc:	001d0c1f 	0x1d0c1f
 2e0:	00000024 	and	zero,zero,zero
 2e4:	000002d0 	0x2d0
 2e8:	68801504 	0x68801504
 2ec:	00000234 	teq	zero,zero,0x8
 2f0:	48300e48 	0x48300e48
 2f4:	607c1211 	0x607c1211
 2f8:	117a1011 	beq	t3,k0,4340 <_init-0x687fbcc0>
 2fc:	13117b11 	beq	t8,s1,1ef44 <_init-0x687e10bc>
 300:	7e14117d 	0x7e14117d
 304:	007f1f11 	0x7f1f11
 308:	0000001c 	0x1c
 30c:	000002d0 	0x2d0
 310:	68801738 	0x68801738
 314:	00000098 	0x98
 318:	4c200e44 	0x4c200e44
 31c:	117e1f11 	beq	t3,s8,7f64 <_init-0x687f809c>
 320:	11117c10 	beq	t0,s1,1f364 <_init-0x687e0c9c>
 324:	0000007d 	0x7d
 328:	00000014 	0x14
 32c:	000002d0 	0x2d0
 330:	688017d0 	0x688017d0
 334:	00000070 	tge	zero,zero,0x1
 338:	44180e44 	0x44180e44
 33c:	007e1f11 	0x7e1f11
 340:	0000001c 	0x1c
 344:	000002d0 	0x2d0
 348:	68801840 	0x68801840
 34c:	00000128 	0x128
 350:	50300e44 	beql	at,s0,3c64 <_init-0x687fc39c>
 354:	117c1011 	beq	t3,gp,439c <_init-0x687fbc64>
 358:	11117e1f 	beq	t0,s1,1fbd8 <_init-0x687e0428>
 35c:	0000007d 	0x7d
 360:	0000001c 	0x1c
 364:	000002d0 	0x2d0
 368:	68801968 	0x68801968
 36c:	00000128 	0x128
 370:	50300e44 	beql	at,s0,3c84 <_init-0x687fc37c>
 374:	117c1011 	beq	t3,gp,43bc <_init-0x687fbc44>
 378:	11117e1f 	beq	t0,s1,1fbf8 <_init-0x687e0408>
 37c:	0000007d 	0x7d
 380:	00000018 	mult	zero,zero
 384:	000002d0 	0x2d0
 388:	68801a90 	0x68801a90
 38c:	00000058 	0x58
 390:	48180e44 	0x48180e44
 394:	117f1f11 	beq	t3,ra,7fdc <_init-0x687f8024>
 398:	00007e10 	0x7e10
 39c:	00000018 	mult	zero,zero
 3a0:	000002d0 	0x2d0
 3a4:	68801ae8 	0x68801ae8
 3a8:	000000f0 	tge	zero,zero,0x3
 3ac:	44200e44 	0x44200e44
 3b0:	117e1011 	beq	t3,s8,43f8 <_init-0x687fbc08>
 3b4:	00007f1f 	0x7f1f
 3b8:	00000018 	mult	zero,zero
 3bc:	000002d0 	0x2d0
 3c0:	68801bd8 	0x68801bd8
 3c4:	000000e8 	0xe8
 3c8:	44200e44 	0x44200e44
 3cc:	117e1011 	beq	t3,s8,4414 <_init-0x687fbbec>
 3d0:	00007f1f 	0x7f1f
 3d4:	0000000c 	syscall
 3d8:	ffffffff 	sdc3	$31,-1(ra)
 3dc:	04010001 	b	3e4 <_init-0x687ffc1c>
 3e0:	001d0c1f 	0x1d0c1f
 3e4:	00000018 	mult	zero,zero
 3e8:	000003d4 	0x3d4
 3ec:	68801cc0 	0x68801cc0
 3f0:	000000f0 	tge	zero,zero,0x3
 3f4:	48180e44 	0x48180e44
 3f8:	117f1f11 	beq	t3,ra,8040 <_init-0x687f7fc0>
 3fc:	00007e10 	0x7e10
 400:	0000002c 	0x2c
 404:	000003d4 	0x3d4
 408:	68801db0 	0x68801db0
 40c:	000004f8 	0x4f8
 410:	08d00e44 	j	3403910 <_init-0x653fc6f0>
 414:	79111148 	0x79111148
 418:	687a1211 	0x687a1211
 41c:	11781011 	beq	t3,t8,4464 <_init-0x687fbb9c>
 420:	14117b13 	bne	zero,s1,1f070 <_init-0x687e0f90>
 424:	7d15117c 	0x7d15117c
 428:	117e1611 	beq	t3,s8,5c70 <_init-0x687fa390>
 42c:	00007f1f 	0x7f1f
 430:	0000000c 	syscall
 434:	ffffffff 	sdc3	$31,-1(ra)
 438:	04010001 	b	440 <_init-0x687ffbc0>
 43c:	001d0c1f 	0x1d0c1f
 440:	00000014 	0x14
 444:	00000430 	tge	zero,zero,0x10
 448:	688022a8 	0x688022a8
 44c:	00000054 	0x54
 450:	48180e4c 	0x48180e4c
 454:	007e1f11 	0x7e1f11
 458:	00000014 	0x14
 45c:	00000430 	tge	zero,zero,0x10
 460:	688022fc 	0x688022fc
 464:	0000003c 	0x3c
 468:	44180e48 	0x44180e48
 46c:	007e1f11 	0x7e1f11
 470:	00000018 	mult	zero,zero
 474:	00000430 	tge	zero,zero,0x10
 478:	68802338 	0x68802338
 47c:	00000124 	0x124
 480:	4c180e48 	0x4c180e48
 484:	117f1f11 	beq	t3,ra,80cc <_init-0x687f7f34>
 488:	00007e10 	0x7e10
 48c:	0000000c 	syscall
 490:	00000430 	tge	zero,zero,0x10
 494:	6880245c 	0x6880245c
 498:	000000c4 	0xc4
 49c:	00000018 	mult	zero,zero
 4a0:	00000430 	tge	zero,zero,0x10
 4a4:	68802520 	0x68802520
 4a8:	00000074 	teq	zero,zero,0x1
 4ac:	08a00e44 	j	2803910 <_init-0x65ffc6f0>
 4b0:	7e101144 	ins	s0,s0,0x5,0xfffffffe
 4b4:	7f1f1154 	0x7f1f1154
 4b8:	00000020 	add	zero,zero,zero
 4bc:	00000430 	tge	zero,zero,0x10
 4c0:	68802594 	0x68802594
 4c4:	00000328 	0x328
 4c8:	08f00e44 	j	3c03910 <_init-0x64bfc6f0>
 4cc:	7c10114c 	0x7c10114c
 4d0:	117d1111 	beq	t3,sp,4918 <_init-0x687fb6e8>
 4d4:	1f117e12 	0x1f117e12
 4d8:	0000007f 	0x7f
 4dc:	00000014 	0x14
 4e0:	00000430 	tge	zero,zero,0x10
 4e4:	688028bc 	0x688028bc
 4e8:	00000064 	0x64
 4ec:	10b00e44 	beq	a1,s0,3e00 <_init-0x687fc200>
 4f0:	7e1f1158 	0x7e1f1158
 4f4:	00000018 	mult	zero,zero
 4f8:	00000430 	tge	zero,zero,0x10
 4fc:	68802920 	0x68802920
 500:	00000100 	sll	zero,zero,0x4
 504:	08a80e48 	j	2a03920 <_init-0x65dfc6e0>
 508:	7e101148 	0x7e101148
 50c:	007f1f11 	0x7f1f11
 510:	00000018 	mult	zero,zero
 514:	00000430 	tge	zero,zero,0x10
 518:	68802a20 	0x68802a20
 51c:	000000e8 	0xe8
 520:	08a80e4c 	j	2a03930 <_init-0x65dfc6d0>
 524:	7e101150 	subu_s.qb	v0,s0,s0
 528:	007f1f11 	0x7f1f11
 52c:	00000018 	mult	zero,zero
 530:	00000430 	tge	zero,zero,0x10
 534:	68802b08 	0x68802b08
 538:	000000dc 	0xdc
 53c:	48180e44 	0x48180e44
 540:	117f1f11 	beq	t3,ra,8188 <_init-0x687f7e78>
 544:	00007e10 	0x7e10
 548:	00000014 	0x14
 54c:	00000430 	tge	zero,zero,0x10
 550:	68802be4 	0x68802be4
 554:	00000034 	teq	zero,zero
 558:	08a00e44 	j	2803910 <_init-0x65ffc6f0>
 55c:	7e1f114c 	0x7e1f114c
 560:	00000014 	0x14
 564:	00000430 	tge	zero,zero,0x10
 568:	68802c18 	0x68802c18
 56c:	00000038 	0x38
 570:	08a00e44 	j	2803910 <_init-0x65ffc6f0>
 574:	7e1f114c 	0x7e1f114c
 578:	00000018 	mult	zero,zero
 57c:	00000430 	tge	zero,zero,0x10
 580:	68802c50 	0x68802c50
 584:	00000070 	tge	zero,zero,0x1
 588:	08a00e44 	j	2803910 <_init-0x65ffc6f0>
 58c:	7f1f1148 	0x7f1f1148
 590:	007e1011 	0x7e1011
 594:	0000001c 	0x1c
 598:	00000430 	tge	zero,zero,0x10
 59c:	68802cc0 	0x68802cc0
 5a0:	00000074 	teq	zero,zero,0x1
 5a4:	08a80e44 	j	2a03910 <_init-0x65dfc6f0>
 5a8:	7e1f114c 	0x7e1f114c
 5ac:	117c1011 	beq	t3,gp,45f4 <_init-0x687fba0c>
 5b0:	00007d11 	0x7d11
 5b4:	00000014 	0x14
 5b8:	00000430 	tge	zero,zero,0x10
 5bc:	68802d34 	0x68802d34
 5c0:	00000060 	0x60
 5c4:	10a80e44 	beq	a1,t0,3ed8 <_init-0x687fc128>
 5c8:	7e1f115c 	0x7e1f115c
 5cc:	00000014 	0x14
 5d0:	00000430 	tge	zero,zero,0x10
 5d4:	68802d94 	0x68802d94
 5d8:	00000034 	teq	zero,zero
 5dc:	08a00e44 	j	2803910 <_init-0x65ffc6f0>
 5e0:	7e1f114c 	0x7e1f114c
 5e4:	00000020 	add	zero,zero,zero
 5e8:	00000430 	tge	zero,zero,0x10
 5ec:	68802dc8 	0x68802dc8
 5f0:	000000e4 	0xe4
 5f4:	08b00e44 	j	2c03910 <_init-0x65bfc6f0>
 5f8:	7e121150 	subu_s.qb	v0,s0,s2
 5fc:	117f1f11 	beq	t3,ra,8244 <_init-0x687f7dbc>
 600:	11117c10 	beq	t0,s1,1f644 <_init-0x687e09bc>
 604:	0000007d 	0x7d
 608:	0000001c 	0x1c
 60c:	00000430 	tge	zero,zero,0x10
 610:	68802eac 	0x68802eac
 614:	000000c8 	0xc8
 618:	08b00e44 	j	2c03910 <_init-0x65bfc6f0>
 61c:	7c101158 	0x7c101158
 620:	117d1111 	beq	t3,sp,4a68 <_init-0x687fb598>
 624:	00007e1f 	0x7e1f
 628:	0000001c 	0x1c
 62c:	00000430 	tge	zero,zero,0x10
 630:	68802f74 	0x68802f74
 634:	000000c8 	0xc8
 638:	08b00e44 	j	2c03910 <_init-0x65bfc6f0>
 63c:	7c101158 	0x7c101158
 640:	117d1111 	beq	t3,sp,4a88 <_init-0x687fb578>
 644:	00007e1f 	0x7e1f
 648:	00000020 	add	zero,zero,zero
 64c:	00000430 	tge	zero,zero,0x10
 650:	6880303c 	0x6880303c
 654:	0000014c 	syscall	0x5
 658:	08a80e44 	j	2a03910 <_init-0x65dfc6f0>
 65c:	7d111144 	ins	s1,t0,0x5,0xfffffffe
 660:	7c101148 	0x7c101148
 664:	7e121154 	0x7e121154
 668:	007f1f11 	0x7f1f11
 66c:	0000001c 	0x1c
 670:	00000430 	tge	zero,zero,0x10
 674:	68803188 	0x68803188
 678:	00000088 	0x88
 67c:	4c300e44 	0x4c300e44
 680:	117d1111 	beq	t3,sp,4ac8 <_init-0x687fb538>
 684:	10117e1f 	beq	zero,s1,1ff04 <_init-0x687e00fc>
 688:	0000007c 	0x7c
 68c:	0000001c 	0x1c
 690:	00000430 	tge	zero,zero,0x10
 694:	68803210 	0x68803210
 698:	000000e8 	0xe8
 69c:	08a80e44 	j	2a03910 <_init-0x65dfc6f0>
 6a0:	7d111144 	ins	s1,t0,0x5,0xfffffffe
 6a4:	7c101148 	0x7c101148
 6a8:	7e1f1148 	0x7e1f1148
 6ac:	00000018 	mult	zero,zero
 6b0:	00000430 	tge	zero,zero,0x10
 6b4:	688032f8 	0x688032f8
 6b8:	00000050 	0x50
 6bc:	48180e44 	0x48180e44
 6c0:	117f1f11 	beq	t3,ra,8308 <_init-0x687f7cf8>
 6c4:	00007e10 	0x7e10
 6c8:	0000000c 	syscall
 6cc:	ffffffff 	sdc3	$31,-1(ra)
 6d0:	04010001 	b	6d8 <_init-0x687ff928>
 6d4:	001d0c1f 	0x1d0c1f
 6d8:	00000014 	0x14
 6dc:	000006c8 	0x6c8
 6e0:	68803348 	0x68803348
 6e4:	0000002c 	0x2c
 6e8:	44180e44 	0x44180e44
 6ec:	007e1f11 	0x7e1f11
 6f0:	0000000c 	syscall
 6f4:	000006c8 	0x6c8
 6f8:	68803374 	0x68803374
 6fc:	00000008 	jr	zero
 700:	0000001c 	0x1c
 704:	000006c8 	0x6c8
 708:	6880337c 	0x6880337c
 70c:	000000b0 	tge	zero,zero,0x2
 710:	4c280e44 	0x4c280e44
 714:	117c1011 	beq	t3,gp,475c <_init-0x687fb8a4>
 718:	11117e1f 	beq	t0,s1,1ff98 <_init-0x687e0068>
 71c:	0000007d 	0x7d
 720:	00000018 	mult	zero,zero
 724:	000006c8 	0x6c8
 728:	6880342c 	0x6880342c
 72c:	00000060 	0x60
 730:	48180e44 	0x48180e44
 734:	117f1f11 	beq	t3,ra,837c <_init-0x687f7c84>
 738:	00007e10 	0x7e10
 73c:	00000018 	mult	zero,zero
 740:	000006c8 	0x6c8
 744:	6880348c 	0x6880348c
 748:	000000c4 	0xc4
 74c:	44180e44 	0x44180e44
 750:	117e1011 	beq	t3,s8,4798 <_init-0x687fb868>
 754:	00007f1f 	0x7f1f
 758:	0000001c 	0x1c
 75c:	000006c8 	0x6c8
 760:	68803550 	0x68803550
 764:	00000090 	0x90
 768:	4c200e44 	0x4c200e44
 76c:	117c1011 	beq	t3,gp,47b4 <_init-0x687fb84c>
 770:	11117e1f 	beq	t0,s1,1fff0 <_init-0x687e0010>
 774:	0000007d 	0x7d
 778:	00000018 	mult	zero,zero
 77c:	000006c8 	0x6c8
 780:	688035e0 	0x688035e0
 784:	00000058 	0x58
 788:	48180e44 	0x48180e44
 78c:	117f1f11 	beq	t3,ra,83d4 <_init-0x687f7c2c>
 790:	00007e10 	0x7e10
 794:	0000000c 	syscall
 798:	000006c8 	0x6c8
 79c:	68803638 	0x68803638
 7a0:	0000001c 	0x1c
 7a4:	0000001c 	0x1c
 7a8:	000006c8 	0x6c8
 7ac:	68803654 	0x68803654
 7b0:	00000078 	0x78
 7b4:	4c200e44 	0x4c200e44
 7b8:	117c1011 	beq	t3,gp,4800 <_init-0x687fb800>
 7bc:	11117e1f 	beq	t0,s1,2003c <_init-0x687dffc4>
 7c0:	0000007d 	0x7d
 7c4:	00000018 	mult	zero,zero
 7c8:	000006c8 	0x6c8
 7cc:	688036cc 	0x688036cc
 7d0:	00000064 	0x64
 7d4:	48180e44 	0x48180e44
 7d8:	117f1f11 	beq	t3,ra,8420 <_init-0x687f7be0>
 7dc:	00007e10 	0x7e10
 7e0:	0000000c 	syscall
 7e4:	000006c8 	0x6c8
 7e8:	68803730 	0x68803730
 7ec:	00000008 	jr	zero
 7f0:	0000001c 	0x1c
 7f4:	000006c8 	0x6c8
 7f8:	68803738 	0x68803738
 7fc:	00000270 	tge	zero,zero,0x9
 800:	4c200e44 	0x4c200e44
 804:	117e1f11 	beq	t3,s8,844c <_init-0x687f7bb4>
 808:	11117c10 	beq	t0,s1,1f84c <_init-0x687e07b4>
 80c:	0000007d 	0x7d
 810:	00000018 	mult	zero,zero
 814:	000006c8 	0x6c8
 818:	688039a8 	0x688039a8
 81c:	000001a4 	0x1a4
 820:	48180e44 	0x48180e44
 824:	487e1011 	mfhc2	s8,0x1011
 828:	007f1f11 	0x7f1f11
 82c:	0000001c 	0x1c
 830:	000006c8 	0x6c8
 834:	68803b4c 	0x68803b4c
 838:	00000154 	0x154
 83c:	04a00e44 	bltz	a1,4150 <_init-0x687fbeb0>
 840:	7c101148 	0x7c101148
 844:	117d1111 	beq	t3,sp,4c8c <_init-0x687fb374>
 848:	00007e1f 	0x7e1f
 84c:	00000018 	mult	zero,zero
 850:	000006c8 	0x6c8
 854:	68803ca0 	0x68803ca0
 858:	00000074 	teq	zero,zero,0x1
 85c:	48180e44 	0x48180e44
 860:	117e1011 	beq	t3,s8,48a8 <_init-0x687fb758>
 864:	00007f1f 	0x7f1f
 868:	00000014 	0x14
 86c:	000006c8 	0x6c8
 870:	68803d14 	0x68803d14
 874:	00000030 	tge	zero,zero
 878:	44180e44 	0x44180e44
 87c:	007e1f11 	0x7e1f11
 880:	00000020 	add	zero,zero,zero
 884:	000006c8 	0x6c8
 888:	68803d44 	0x68803d44
 88c:	0000038c 	syscall	0xe
 890:	08b00e44 	j	2c03910 <_init-0x65bfc6f0>
 894:	7c101150 	subu_s.qb	v0,zero,s0
 898:	117e1211 	beq	t3,s8,50e0 <_init-0x687faf20>
 89c:	11117f1f 	beq	t0,s1,2051c <_init-0x687dfae4>
 8a0:	0000007d 	0x7d
 8a4:	00000014 	0x14
 8a8:	000006c8 	0x6c8
 8ac:	688040d0 	0x688040d0
 8b0:	00000074 	teq	zero,zero,0x1
 8b4:	44280e44 	0x44280e44
 8b8:	007e1f11 	0x7e1f11
 8bc:	00000014 	0x14
 8c0:	000006c8 	0x6c8
 8c4:	68804144 	0x68804144
 8c8:	00000074 	teq	zero,zero,0x1
 8cc:	44280e44 	0x44280e44
 8d0:	007e1f11 	0x7e1f11
 8d4:	00000028 	0x28
 8d8:	000006c8 	0x6c8
 8dc:	688041b8 	0x688041b8
 8e0:	00000520 	0x520
 8e4:	0cd80e44 	jal	3603910 <_init-0x651fc6f0>
 8e8:	7810115c 	0x7810115c
 8ec:	11791111 	beq	t3,t9,4d34 <_init-0x687fb2cc>
 8f0:	15117c14 	bne	t0,s1,1f944 <_init-0x687e06bc>
 8f4:	7e1f117d 	0x7e1f117d
 8f8:	117a1211 	beq	t3,k0,5140 <_init-0x687faec0>
 8fc:	00007b13 	0x7b13
 900:	0000000c 	syscall
 904:	ffffffff 	sdc3	$31,-1(ra)
 908:	04010001 	b	910 <_init-0x687ff6f0>
 90c:	001d0c1f 	0x1d0c1f
 910:	00000014 	0x14
 914:	00000900 	sll	at,zero,0x4
 918:	688046d8 	0x688046d8
 91c:	00000020 	add	zero,zero,zero
 920:	44200e44 	0x44200e44
 924:	007e1f11 	0x7e1f11
 928:	0000001c 	0x1c
 92c:	00000900 	sll	at,zero,0x4
 930:	688046f8 	0x688046f8
 934:	00000058 	0x58
 938:	50280e44 	beql	at,t0,424c <_init-0x687fbdb4>
 93c:	117f1f11 	beq	t3,ra,8584 <_init-0x687f7a7c>
 940:	11117c10 	beq	t0,s1,1f984 <_init-0x687e067c>
 944:	7e12117d 	0x7e12117d
 948:	00000024 	and	zero,zero,zero
 94c:	00000900 	sll	at,zero,0x4
 950:	68804750 	0x68804750
 954:	00000094 	0x94
 958:	48400e44 	0x48400e44
 95c:	117b1111 	beq	t3,k1,4da4 <_init-0x687fb25c>
 960:	11587d13 	beq	t2,t8,1fdb0 <_init-0x687e0250>
 964:	12117a10 	beq	s0,s1,1f1a8 <_init-0x687e0e58>
 968:	1f11487c 	0x1f11487c
 96c:	0000007e 	0x7e
 970:	00000014 	0x14
 974:	00000900 	sll	at,zero,0x4
 978:	688047e4 	0x688047e4
 97c:	0000002c 	0x2c
 980:	44180e44 	0x44180e44
 984:	007e1f11 	0x7e1f11
 988:	00000014 	0x14
 98c:	00000900 	sll	at,zero,0x4
 990:	68804810 	0x68804810
 994:	00000028 	0x28
 998:	44180e44 	0x44180e44
 99c:	007e1f11 	0x7e1f11
 9a0:	00000018 	mult	zero,zero
 9a4:	00000900 	sll	at,zero,0x4
 9a8:	68804838 	0x68804838
 9ac:	0000003c 	0x3c
 9b0:	48180e44 	0x48180e44
 9b4:	117f1f11 	beq	t3,ra,85fc <_init-0x687f7a04>
 9b8:	00007e10 	0x7e10
 9bc:	00000014 	0x14
 9c0:	00000900 	sll	at,zero,0x4
 9c4:	68804874 	0x68804874
 9c8:	00000028 	0x28
 9cc:	44180e44 	0x44180e44
 9d0:	007e1f11 	0x7e1f11
 9d4:	00000020 	add	zero,zero,zero
 9d8:	00000900 	sll	at,zero,0x4
 9dc:	6880489c 	0x6880489c
 9e0:	000000c8 	0xc8
 9e4:	48300e44 	0x48300e44
 9e8:	117d1111 	beq	t3,sp,4e30 <_init-0x687fb1d0>
 9ec:	11687e12 	beq	t3,t0,20238 <_init-0x687dfdc8>
 9f0:	10117f1f 	beq	zero,s1,20670 <_init-0x687df990>
 9f4:	0000007c 	0x7c
 9f8:	0000000c 	syscall
 9fc:	ffffffff 	sdc3	$31,-1(ra)
 a00:	04010001 	b	a08 <_init-0x687ff5f8>
 a04:	001d0c1f 	0x1d0c1f
 a08:	0000000c 	syscall
 a0c:	000009f8 	0x9f8
 a10:	68804e9c 	0x68804e9c
 a14:	00000008 	jr	zero
 a18:	0000000c 	syscall
 a1c:	ffffffff 	sdc3	$31,-1(ra)
 a20:	04010001 	b	a28 <_init-0x687ff5d8>
 a24:	001d0c1f 	0x1d0c1f
 a28:	0000000c 	syscall
 a2c:	00000a18 	0xa18
 a30:	68804ea4 	0x68804ea4
 a34:	0000005c 	0x5c
 a38:	0000001c 	0x1c
 a3c:	00000a18 	0xa18
 a40:	68804f00 	0x68804f00
 a44:	000000cc 	syscall	0x3
 a48:	48200e44 	0x48200e44
 a4c:	117d1111 	beq	t3,sp,4e94 <_init-0x687fb16c>
 a50:	1f117c10 	0x1f117c10
 a54:	0000007e 	0x7e
 a58:	0000001c 	0x1c
 a5c:	00000a18 	0xa18
 a60:	68804fcc 	0x68804fcc
 a64:	00000210 	0x210
 a68:	50500e44 	beql	v0,s0,437c <_init-0x687fbc84>
 a6c:	117c1011 	beq	t3,gp,4ab4 <_init-0x687fb54c>
 a70:	12117d11 	beq	s0,s1,1feb8 <_init-0x687e0148>
 a74:	7f1f117e 	0x7f1f117e
Disassembly of section .debug_pubnames:

00000000 <.debug_pubnames>:
   0:	00000063 	0x63
   4:	00000002 	srl	zero,zero,0x0
   8:	01540000 	0x1540000
   c:	00ae0000 	0xae0000
  10:	6d650000 	0x6d650000
  14:	756f6d5f 	jalx	5bdb57c <_init-0x62c24a84>
  18:	645f746e 	0x645f746e
  1c:	dc007672 	ldc3	$0,30322(zero)
  20:	65000000 	0x65000000
  24:	6d755f6d 	0x6d755f6d
  28:	746e756f 	jalx	1b9d5bc <_init-0x66c62a44>
  2c:	7672645f 	jalx	9c9917c <_init-0x5eb66e84>
  30:	00012f00 	sll	a1,at,0x1c
  34:	68747000 	0x68747000
  38:	64616572 	0x64616572
  3c:	74756d5f 	jalx	1d5b57c <_init-0x66aa4a84>
  40:	745f7865 	jalx	17de194 <_init-0x67021e6c>
  44:	5f657079 	0x5f657079
  48:	01410074 	teq	t2,at,0x1
  4c:	74700000 	jalx	1c00000 <_init-0x66c00000>
  50:	61657268 	0x61657268
  54:	68735f64 	0x68735f64
  58:	5f657261 	0x5f657261
  5c:	65707974 	0x65707974
  60:	0000745f 	0x745f
  64:	ac000000 	sw	zero,0(zero)
  68:	02000000 	0x2000000
  6c:	00015400 	sll	t2,at,0x10
  70:	00144100 	sll	t0,s4,0x4
  74:	0012d400 	sll	k0,s2,0x10
  78:	5f6d6500 	0x5f6d6500
  7c:	6c726964 	0x6c726964
  80:	5f747369 	0x5f747369
  84:	65746e65 	0x65746e65
  88:	132c0072 	beq	t9,t4,254 <_init-0x687ffdac>
  8c:	6d650000 	0x6d650000
  90:	7269645f 	udi15	s3,t1,t4,0x11
  94:	7473696c 	jalx	1cda5b0 <_init-0x66b25a50>
  98:	6978655f 	0x6978655f
  9c:	13930074 	beq	gp,s3,270 <_init-0x687ffd90>
  a0:	74700000 	jalx	1c00000 <_init-0x66c00000>
  a4:	61657268 	0x61657268
  a8:	756d5f64 	jalx	5b57d90 <_init-0x62ca8270>
  ac:	5f786574 	0x5f786574
  b0:	65707974 	0x65707974
  b4:	a500745f 	sh	zero,29791(t0)
  b8:	70000013 	udi3	zero,zero,zero,0x0
  bc:	65726874 	0x65726874
  c0:	735f6461 	0x735f6461
  c4:	65726168 	0x65726168
  c8:	7079745f 	udi15	v1,t9,t6,0x11
  cc:	00745f65 	0x745f65
  d0:	000013f8 	0x13f8
  d4:	73726966 	0x73726966
  d8:	76654c74 	jalx	99531d0 <_init-0x5eeace30>
  dc:	654d6c65 	0x654d6c65
  e0:	0a00756e 	j	801d5b8 <_init-0x607e2a48>
  e4:	72000014 	udi4	s0,zero,zero,0x0
  e8:	75466d6f 	jalx	519b5bc <_init-0x63664a44>
  ec:	61506c6c 	0x61506c6c
  f0:	1c006874 	bgtz	zero,1a2c4 <_init-0x687e5d3c>
  f4:	6f000014 	0x6f000014
  f8:	6f52646c 	0x6f52646c
  fc:	6c69466d 	0x6c69466d
 100:	142e0065 	bne	at,t6,298 <_init-0x687ffd68>
 104:	61730000 	0x61730000
 108:	69466576 	0x69466576
 10c:	6150656c 	0x6150656c
 110:	00006874 	teq	zero,zero,0x1a1
 114:	b0000000 	0xb0000000
 118:	02000000 	0x2000000
 11c:	00159500 	sll	s2,s5,0x14
 120:	00184c00 	sll	t1,t8,0x10
 124:	00158200 	sll	s0,s5,0x8
 128:	5f6d6500 	0x5f6d6500
 12c:	72756f66 	0x72756f66
 130:	6c5f6874 	0x6c5f6874
 134:	6c657665 	0x6c657665
 138:	6e656d5f 	0x6e656d5f
 13c:	6e655f75 	0x6e655f75
 140:	00726574 	teq	v1,s2,0x195
 144:	0000166a 	0x166a
 148:	5f746573 	0x5f746573
 14c:	6d79656b 	0x6d79656b
 150:	705f7061 	0x705f7061
 154:	5f636f72 	0x5f636f72
 158:	0079656b 	0x79656b
 15c:	000017ba 	0x17ba
 160:	72687470 	0x72687470
 164:	5f646165 	0x5f646165
 168:	6574756d 	0x6574756d
 16c:	79745f78 	0x79745f78
 170:	745f6570 	jalx	17d95c0 <_init-0x67026a40>
 174:	0017cc00 	sll	t9,s7,0x10
 178:	68747000 	0x68747000
 17c:	64616572 	0x64616572
 180:	6168735f 	0x6168735f
 184:	745f6572 	jalx	17d95c8 <_init-0x67026a38>
 188:	5f657079 	0x5f657079
 18c:	18050074 	0x18050074
 190:	6f660000 	0x6f660000
 194:	68747275 	0x68747275
 198:	6576654c 	0x6576654c
 19c:	6e654d6c 	0x6e654d6c
 1a0:	18270075 	0x18270075
 1a4:	6f660000 	0x6f660000
 1a8:	68747275 	0x68747275
 1ac:	76656c5f 	jalx	995b17c <_init-0x5eea4e84>
 1b0:	695f6c65 	0x695f6c65
 1b4:	736d6574 	0x736d6574
 1b8:	00183900 	sll	a3,t8,0x4
 1bc:	79656b00 	0x79656b00
 1c0:	6c61765f 	0x6c61765f
 1c4:	00006575 	0x6575
 1c8:	b9000000 	swr	zero,0(t0)
 1cc:	02000000 	0x2000000
 1d0:	002de100 	0x2de100
 1d4:	00172900 	sll	a1,s7,0x4
 1d8:	00135300 	sll	t2,s3,0xc
 1dc:	5f6d6500 	0x5f6d6500
 1e0:	6f636573 	0x6f636573
 1e4:	6c5f646e 	0x6c5f646e
 1e8:	6c657665 	0x6c657665
 1ec:	6e656d5f 	0x6e656d5f
 1f0:	6e655f75 	0x6e655f75
 1f4:	00726574 	teq	v1,s2,0x195
 1f8:	000013ef 	0x13ef
 1fc:	735f6d65 	0x735f6d65
 200:	6e6f6365 	0x6e6f6365
 204:	656c5f64 	0x656c5f64
 208:	5f6c6576 	0x5f6c6576
 20c:	756e656d 	jalx	5b995b4 <_init-0x62c66a4c>
 210:	6978655f 	0x6978655f
 214:	16630074 	bne	s3,v1,3e8 <_init-0x687ffc18>
 218:	74700000 	jalx	1c00000 <_init-0x66c00000>
 21c:	61657268 	0x61657268
 220:	756d5f64 	jalx	5b57d90 <_init-0x62ca8270>
 224:	5f786574 	0x5f786574
 228:	65707974 	0x65707974
 22c:	7500745f 	jalx	401d17c <_init-0x647e2e84>
 230:	70000016 	udi6	zero,zero,zero,0x0
 234:	65726874 	0x65726874
 238:	735f6461 	0x735f6461
 23c:	65726168 	0x65726168
 240:	7079745f 	udi15	v1,t9,t6,0x11
 244:	00745f65 	0x745f65
 248:	000016e2 	0x16e2
 24c:	6f636573 	0x6f636573
 250:	654c646e 	0x654c646e
 254:	4d6c6576 	nmadd.ps	$f21,$f11,$f12,$f12
 258:	00756e65 	0x756e65
 25c:	00001704 	0x1704
 260:	6f636573 	0x6f636573
 264:	6c5f646e 	0x6c5f646e
 268:	6c657665 	0x6c657665
 26c:	6574695f 	0x6574695f
 270:	1600736d 	bnez	s0,1d028 <_init-0x687e2fd8>
 274:	73000017 	udi7	t8,zero,zero,0x0
 278:	53776f68 	beql	k1,s7,1c01c <_init-0x687e3fe4>
 27c:	49657661 	0x49657661
 280:	006d6574 	teq	v1,t5,0x195
 284:	00000000 	nop
 288:	00000087 	0x87
 28c:	450a0002 	bc1fl	$fcc2,298 <_init-0x687ffd68>
 290:	16b30000 	bne	s5,s3,294 <_init-0x687ffd6c>
 294:	13640000 	beq	k1,a0,298 <_init-0x687ffd68>
 298:	6d650000 	0x6d650000
 29c:	6968745f 	0x6968745f
 2a0:	6c5f6472 	0x6c5f6472
 2a4:	6c657665 	0x6c657665
 2a8:	6e656d5f 	0x6e656d5f
 2ac:	6e655f75 	0x6e655f75
 2b0:	00726574 	teq	v1,s2,0x195
 2b4:	00001633 	tltu	zero,zero,0x58
 2b8:	72687470 	0x72687470
 2bc:	5f646165 	0x5f646165
 2c0:	6574756d 	0x6574756d
 2c4:	79745f78 	0x79745f78
 2c8:	745f6570 	jalx	17d95c0 <_init-0x67026a40>
 2cc:	00164500 	sll	t0,s6,0x14
 2d0:	68747000 	0x68747000
 2d4:	64616572 	0x64616572
 2d8:	6168735f 	0x6168735f
 2dc:	745f6572 	jalx	17d95c8 <_init-0x67026a38>
 2e0:	5f657079 	0x5f657079
 2e4:	167e0074 	bne	s3,s8,4b8 <_init-0x687ffb48>
 2e8:	68740000 	0x68740000
 2ec:	4c647269 	msub.d	$f9,$f3,$f14,$f4
 2f0:	6c657665 	0x6c657665
 2f4:	756e654d 	jalx	5b99534 <_init-0x62c66acc>
 2f8:	0016a000 	sll	s4,s6,0x0
 2fc:	69687400 	0x69687400
 300:	6c5f6472 	0x6c5f6472
 304:	6c657665 	0x6c657665
 308:	6574695f 	0x6574695f
 30c:	0000736d 	0x736d
 310:	9a000000 	lwr	zero,0(s0)
 314:	02000000 	0x2000000
 318:	005bbd00 	0x5bbd00
 31c:	00047300 	sll	t6,a0,0xc
 320:	00020e00 	sll	at,v0,0x18
 324:	69616d00 	0x69616d00
 328:	03b6006e 	0x3b6006e
 32c:	74700000 	jalx	1c00000 <_init-0x66c00000>
 330:	61657268 	0x61657268
 334:	756d5f64 	jalx	5b57d90 <_init-0x62ca8270>
 338:	5f786574 	0x5f786574
 33c:	65707974 	0x65707974
 340:	c800745f 	lwc2	$0,29791(zero)
 344:	70000003 	0x70000003
 348:	65726874 	0x65726874
 34c:	735f6461 	0x735f6461
 350:	65726168 	0x65726168
 354:	7079745f 	udi15	v1,t9,t6,0x11
 358:	00745f65 	0x745f65
 35c:	000003f2 	tlt	zero,zero,0xf
 360:	656d6167 	0x656d6167
 364:	65707954 	0x65707954
 368:	00041400 	sll	v0,a0,0x10
 36c:	6d616700 	0x6d616700
 370:	696b5f65 	0x696b5f65
 374:	2600646e 	addiu	zero,s0,25710
 378:	73000004 	msub	t8,zero
 37c:	74726174 	jalx	1c985d0 <_init-0x66b67a30>
 380:	4679625f 	c1	0x79625f
 384:	4e656c69 	msub.d	$f17,$f19,$f13,$f5
 388:	00697661 	0x697661
 38c:	00000438 	0x438
 390:	5f707061 	0x5f707061
 394:	6c797473 	0x6c797473
 398:	044a0065 	tlti	v0,101
 39c:	6f630000 	0x6f630000
 3a0:	6e6f6d6d 	0x6e6f6d6d
 3a4:	735f6975 	0x735f6975
 3a8:	656c7974 	0x656c7974
 3ac:	00000000 	nop
 3b0:	0001d600 	sll	k0,at,0x18
 3b4:	30000200 	andi	zero,zero,0x200
 3b8:	ff000060 	sdc3	$0,96(t8)
 3bc:	2a00001e 	slti	zero,s0,30
 3c0:	5f000018 	bgtzl	t8,424 <_init-0x687ffbdc>
 3c4:	5f746567 	0x5f746567
 3c8:	5f79656b 	0x5f79656b
 3cc:	756c6176 	jalx	5b185d8 <_init-0x62ce7a28>
 3d0:	72665f65 	0x72665f65
 3d4:	6e5f6d6f 	0x6e5f6d6f
 3d8:	00656d61 	0x656d61
 3dc:	00001853 	0x1853
 3e0:	7465675f 	jalx	1959d7c <_init-0x66ea6284>
 3e4:	79616b5f 	0x79616b5f
 3e8:	656d616e 	0x656d616e
 3ec:	6f72665f 	0x6f72665f
 3f0:	61765f6d 	0x61765f6d
 3f4:	0065756c 	0x65756c
 3f8:	0000187c 	0x187c
 3fc:	69676e65 	0x69676e65
 400:	635f656e 	0x635f656e
 404:	bc00646d 	cache	0x0,25709(zero)
 408:	6f000018 	0x6f000018
 40c:	5f6e6570 	0x5f6e6570
 410:	6c756d65 	0x6c756d65
 414:	726f7461 	0x726f7461
 418:	00198200 	sll	s0,t9,0x8
 41c:	67736d00 	0x67736d00
 420:	79656b5f 	0x79656b5f
 424:	7265735f 	udi15	s3,a1,t6,0xd
 428:	5f726576 	0x5f726576
 42c:	62616e65 	0x62616e65
 430:	e600656c 	swc1	$f0,25964(s0)
 434:	72000019 	udi9	s0,zero,zero,0x0
 438:	72757465 	0x72757465
 43c:	6f745f6e 	0x6f745f6e
 440:	5f69755f 	0x5f69755f
 444:	646f6977 	0x646f6977
 448:	0073776f 	0x73776f
 44c:	00001a29 	0x1a29
 450:	75746572 	jalx	5d195c8 <_init-0x62ae6a38>
 454:	745f6e72 	jalx	17db9c8 <_init-0x67024638>
 458:	61675f6f 	0x61675f6f
 45c:	775f656d 	jalx	d7d95b4 <_init-0x5b026a4c>
 460:	6f646f69 	0x6f646f69
 464:	6e007377 	0x6e007377
 468:	6500001a 	0x6500001a
 46c:	695f756d 	0x695f756d
 470:	0074696e 	0x74696e
 474:	00001a95 	0x1a95
 478:	5f756d65 	0x5f756d65
 47c:	746e6f63 	jalx	1b9bd8c <_init-0x66c64274>
 480:	65756e69 	0x65756e69
 484:	001acd00 	sll	t9,k0,0x14
 488:	756d6500 	jalx	5b59400 <_init-0x62ca6c00>
 48c:	7365725f 	udi15	k1,a1,t6,0x9
 490:	05007465 	bltz	t0,1d628 <_init-0x687e29d8>
 494:	6500001b 	0x6500001b
 498:	6c5f756d 	0x6c5f756d
 49c:	0064616f 	0x64616f
 4a0:	00001b3d 	0x1b3d
 4a4:	5f756d65 	0x5f756d65
 4a8:	79616c70 	0x79616c70
 4ac:	001b8300 	sll	s0,k1,0xc
 4b0:	756d6500 	jalx	5b59400 <_init-0x62ca6c00>
 4b4:	7561705f 	jalx	585c17c <_init-0x62fa3e84>
 4b8:	cb006573 	lwc2	$0,25971(t8)
 4bc:	6500001b 	0x6500001b
 4c0:	735f756d 	0x735f756d
 4c4:	00657661 	0x657661
 4c8:	00001c03 	sra	v1,zero,0x10
 4cc:	5f756d65 	0x5f756d65
 4d0:	74697865 	jalx	1a5e194 <_init-0x66da1e6c>
 4d4:	001c4d00 	sll	t1,gp,0x14
 4d8:	756d6500 	jalx	5b59400 <_init-0x62ca6c00>
 4dc:	7465735f 	jalx	195cd7c <_init-0x66ea3284>
 4e0:	756f735f 	jalx	5bdcd7c <_init-0x62c23284>
 4e4:	bc00646e 	cache	0x0,25710(zero)
 4e8:	6500001c 	0x6500001c
 4ec:	735f756d 	0x735f756d
 4f0:	645f7465 	0x645f7465
 4f4:	5f707369 	0x5f707369
 4f8:	65646f6d 	0x65646f6d
 4fc:	001d2b00 	sll	a1,sp,0xc
 500:	756d6500 	jalx	5b59400 <_init-0x62ca6c00>
 504:	7465735f 	jalx	195cd7c <_init-0x66ea3284>
 508:	79656b5f 	0x79656b5f
 50c:	0070616d 	0x70616d
 510:	00001da6 	0x1da6
 514:	69546e6f 	0x69546e6f
 518:	0072656d 	0x72656d
 51c:	00001e20 	0x1e20
 520:	72687470 	0x72687470
 524:	5f646165 	0x5f646165
 528:	6574756d 	0x6574756d
 52c:	79745f78 	0x79745f78
 530:	745f6570 	jalx	17d95c0 <_init-0x67026a40>
 534:	001e3200 	sll	a2,s8,0x8
 538:	68747000 	0x68747000
 53c:	64616572 	0x64616572
 540:	6168735f 	0x6168735f
 544:	745f6572 	jalx	17d95c8 <_init-0x67026a38>
 548:	5f657079 	0x5f657079
 54c:	1e7e0074 	0x1e7e0074
 550:	6d650000 	0x6d650000
 554:	65757175 	0x65757175
 558:	90006575 	lbu	zero,25973(zero)
 55c:	6500001e 	0x6500001e
 560:	735f756d 	0x735f756d
 564:	65746174 	0x65746174
 568:	001ea200 	sll	s4,s8,0x8
 56c:	756d6500 	jalx	5b59400 <_init-0x62ca6c00>
 570:	6766635f 	0x6766635f
 574:	666e695f 	0x666e695f
 578:	1eb4006f 	0x1eb4006f
 57c:	69740000 	0x69740000
 580:	5f72656d 	0x5f72656d
 584:	00006469 	0x6469
 588:	4c000000 	lwxc1	$f0,zero(zero)
 58c:	02000001 	movf	zero,s0,$fcc0
 590:	007f2f00 	0x7f2f00
 594:	0021e300 	0x21e300
 598:	001b2200 	sll	a0,k1,0x8
 59c:	5f6d6500 	0x5f6d6500
 5a0:	61657263 	0x61657263
 5a4:	685f6574 	0x685f6574
 5a8:	62646165 	0x62646165
 5ac:	4c007261 	madd.d	$f9,$f0,$f14,$f0
 5b0:	6500001b 	0x6500001b
 5b4:	65645f6d 	0x65645f6d
 5b8:	6574656c 	0x6574656c
 5bc:	6165685f 	0x6165685f
 5c0:	72616264 	0x72616264
 5c4:	001c0300 	sll	zero,gp,0xc
 5c8:	5f6d6500 	0x5f6d6500
 5cc:	61657263 	0x61657263
 5d0:	6d5f6574 	0x6d5f6574
 5d4:	76756e65 	jalx	9d5b994 <_init-0x5eaa466c>
 5d8:	00776569 	0x776569
 5dc:	00001c1a 	0x1c1a
 5e0:	645f6d65 	0x645f6d65
 5e4:	74656c65 	jalx	195b194 <_init-0x66ea4e6c>
 5e8:	656d5f65 	0x656d5f65
 5ec:	6976756e 	0x6976756e
 5f0:	4f007765 	c3	0x1007765
 5f4:	6500001e 	0x6500001e
 5f8:	616c756d 	0x616c756d
 5fc:	5f726f74 	0x5f726f74
 600:	6e656373 	0x6e656373
 604:	75715f65 	jalx	5c57d94 <_init-0x62ba826c>
 608:	df007469 	ldc3	$0,29801(t8)
 60c:	7300001e 	udi14	t8,zero,zero,0x0
 610:	656e6563 	0x656e6563
 614:	7375665f 	udi15	k1,s5,t4,0x19
 618:	5f6e6f69 	0x5f6e6f69
 61c:	5f746573 	0x5f746573
 620:	73726966 	0x73726966
 624:	72665f74 	0x72665f74
 628:	00656d61 	0x656d61
 62c:	00001f15 	0x1f15
 630:	6e656373 	0x6e656373
 634:	75665f65 	jalx	5997d94 <_init-0x62e6826c>
 638:	6e6f6973 	0x6e6f6973
 63c:	7465735f 	jalx	195cd7c <_init-0x66ea3284>
 640:	73616c5f 	udi15	k1,at,t5,0x11
 644:	72665f74 	0x72665f74
 648:	00656d61 	0x656d61
 64c:	00001f4b 	0x1f4b
 650:	6c756d65 	0x6c756d65
 654:	726f7461 	0x726f7461
 658:	6563735f 	0x6563735f
 65c:	4200656e 	c0	0x656e
 660:	70000021 	clo	zero,zero
 664:	65726874 	0x65726874
 668:	6d5f6461 	0x6d5f6461
 66c:	78657475 	0x78657475
 670:	7079745f 	udi15	v1,t9,t6,0x11
 674:	00745f65 	0x745f65
 678:	00002154 	0x2154
 67c:	72687470 	0x72687470
 680:	5f646165 	0x5f646165
 684:	72616873 	0x72616873
 688:	79745f65 	0x79745f65
 68c:	745f6570 	jalx	17d95c0 <_init-0x67026a40>
 690:	00216600 	0x216600
 694:	73797300 	0x73797300
 698:	67736d5f 	0x67736d5f
 69c:	7079745f 	udi15	v1,t9,t6,0x11
 6a0:	21780065 	addi	t8,t3,101
 6a4:	6e650000 	0x6e650000
 6a8:	5f726574 	0x5f726574
 6ac:	65707974 	0x65707974
 6b0:	00218a00 	0x218a00
 6b4:	735f6700 	0x735f6700
 6b8:	656e6563 	0x656e6563
 6bc:	756d655f 	jalx	5b5957c <_init-0x62ca6a84>
 6c0:	6f74616c 	0x6f74616c
 6c4:	219c0072 	addi	gp,t4,114
 6c8:	736d0000 	madd	k1,t5
 6cc:	786f6267 	0x786f6267
 6d0:	6978655f 	0x6978655f
 6d4:	00007473 	tltu	zero,zero,0x1d1
 6d8:	f2000000 	0xf2000000
 6dc:	02000000 	0x2000000
 6e0:	00a11200 	0xa11200
 6e4:	00047c00 	sll	t7,a0,0x10
 6e8:	00019700 	sll	s2,at,0x1c
 6ec:	756d6500 	jalx	5b59400 <_init-0x62ca6c00>
 6f0:	74736574 	jalx	1cd95d0 <_init-0x66b26a30>
 6f4:	5f716d5f 	0x5f716d5f
 6f8:	65636361 	0x65636361
 6fc:	f9007470 	sdc2	$0,29808(t0)
 700:	65000001 	0x65000001
 704:	6574756d 	0x6574756d
 708:	6d5f7473 	0x6d5f7473
 70c:	65705f71 	0x65705f71
 710:	5500646e 	bnezl	t0,198cc <_init-0x687e6734>
 714:	65000002 	0x65000002
 718:	6574756d 	0x6574756d
 71c:	6d5f7473 	0x6d5f7473
 720:	65705f71 	0x65705f71
 724:	745f646e 	jalx	17d91b8 <_init-0x67026e48>
 728:	6f656d69 	0x6f656d69
 72c:	cb007475 	lwc2	$0,29813(t8)
 730:	65000002 	0x65000002
 734:	6574756d 	0x6574756d
 738:	6d5f7473 	0x6d5f7473
 73c:	6f705f71 	0x6f705f71
 740:	19007473 	blez	t0,1d910 <_init-0x687e26f0>
 744:	65000003 	0x65000003
 748:	6574756d 	0x6574756d
 74c:	6d5f7473 	0x6d5f7473
 750:	65645f71 	0x65645f71
 754:	6f727473 	0x6f727473
 758:	03420079 	0x3420079
 75c:	6d650000 	0x6d650000
 760:	73657475 	0x73657475
 764:	696c5f74 	0x696c5f74
 768:	6f6c5f62 	0x6f6c5f62
 76c:	71006461 	0x71006461
 770:	65000003 	0x65000003
 774:	6574756d 	0x6574756d
 778:	6c5f7473 	0x6c5f7473
 77c:	635f6269 	0x635f6269
 780:	65736f6c 	0x65736f6c
 784:	0003a500 	sll	s4,v1,0x14
 788:	756d6500 	jalx	5b59400 <_init-0x62ca6c00>
 78c:	74736574 	jalx	1cd95d0 <_init-0x66b26a30>
 790:	5f716d5f 	0x5f716d5f
 794:	61657263 	0x61657263
 798:	57006574 	bnezl	t8,19d6c <_init-0x687e6294>
 79c:	70000004 	msub	zero,zero
 7a0:	65726874 	0x65726874
 7a4:	6d5f6461 	0x6d5f6461
 7a8:	78657475 	0x78657475
 7ac:	7079745f 	udi15	v1,t9,t6,0x11
 7b0:	00745f65 	0x745f65
 7b4:	00000469 	0x469
 7b8:	72687470 	0x72687470
 7bc:	5f646165 	0x5f646165
 7c0:	72616873 	0x72616873
 7c4:	79745f65 	0x79745f65
 7c8:	745f6570 	jalx	17d95c0 <_init-0x67026a40>
 7cc:	00000000 	nop
 7d0:	00005100 	sll	t2,zero,0x4
 7d4:	8e000200 	lw	zero,512(s0)
 7d8:	fe0000a5 	sdc3	$0,165(s0)
 7dc:	b0000000 	0xb0000000
 7e0:	65000000 	0x65000000
 7e4:	5f636578 	0x5f636578
 7e8:	656c6572 	0x656c6572
 7ec:	00657361 	0x657361
 7f0:	000000d9 	0xd9
 7f4:	72687470 	0x72687470
 7f8:	5f646165 	0x5f646165
 7fc:	6574756d 	0x6574756d
 800:	79745f78 	0x79745f78
 804:	745f6570 	jalx	17d95c0 <_init-0x67026a40>
 808:	0000eb00 	sll	sp,zero,0xc
 80c:	68747000 	0x68747000
 810:	64616572 	0x64616572
 814:	6168735f 	0x6168735f
 818:	745f6572 	jalx	17d95c8 <_init-0x67026a38>
 81c:	5f657079 	0x5f657079
 820:	00000074 	teq	zero,zero,0x1
 824:	006b0000 	0x6b0000
 828:	00020000 	sll	zero,v0,0x0
 82c:	0000a68c 	syscall	0x29a
 830:	000007b7 	0x7b7
 834:	000005a1 	0x5a1
 838:	706d7564 	0x706d7564
 83c:	76677261 	jalx	99dc984 <_init-0x5ee2367c>
 840:	0005eb00 	sll	sp,a1,0xc
 844:	6f727000 	0x6f727000
 848:	73736563 	0x73736563
 84c:	6174735f 	0x6174735f
 850:	88007472 	lwl	zero,29810(zero)
 854:	5f000006 	bgtzl	t8,870 <_init-0x687ff790>
 858:	6174735f 	0x6174735f
 85c:	92007472 	lbu	zero,29810(s0)
 860:	70000007 	0x70000007
 864:	65726874 	0x65726874
 868:	6d5f6461 	0x6d5f6461
 86c:	78657475 	0x78657475
 870:	7079745f 	udi15	v1,t9,t6,0x11
 874:	00745f65 	0x745f65
 878:	000007a4 	0x7a4
 87c:	72687470 	0x72687470
 880:	5f646165 	0x5f646165
 884:	72616873 	0x72616873
 888:	79745f65 	0x79745f65
 88c:	745f6570 	jalx	17d95c0 <_init-0x67026a40>
 890:	00000000 	nop
	...
Disassembly of section .debug_aranges:

00000000 <.debug_aranges>:
   0:	0000001c 	0x1c
   4:	00000002 	srl	zero,zero,0x0
   8:	00040000 	sll	zero,a0,0x0
   c:	00000000 	nop
  10:	68800020 	0x68800020
  14:	00000044 	0x44
	...
  20:	0000001c 	0x1c
  24:	01540002 	0x1540002
  28:	00040000 	sll	zero,a0,0x0
  2c:	00000000 	nop
  30:	68800064 	0x68800064
  34:	00000228 	0x228
	...
  40:	0000001c 	0x1c
  44:	15950002 	bne	t4,s5,50 <_init-0x687fffb0>
  48:	00040000 	sll	zero,a0,0x0
  4c:	00000000 	nop
  50:	6880028c 	0x6880028c
  54:	00000a30 	tge	zero,zero,0x28
	...
  60:	0000001c 	0x1c
  64:	2de10002 	sltiu	at,t7,2
  68:	00040000 	sll	zero,a0,0x0
  6c:	00000000 	nop
  70:	68800cbc 	0x68800cbc
  74:	00000848 	0x848
	...
  80:	0000001c 	0x1c
  84:	450a0002 	bc1fl	$fcc2,90 <_init-0x687fff70>
  88:	00040000 	sll	zero,a0,0x0
  8c:	00000000 	nop
  90:	68801504 	0x68801504
  94:	000007bc 	0x7bc
	...
  a0:	0000001c 	0x1c
  a4:	5bbd0002 	0x5bbd0002
  a8:	00040000 	sll	zero,a0,0x0
  ac:	00000000 	nop
  b0:	68801cc0 	0x68801cc0
  b4:	000005e8 	0x5e8
	...
  c0:	0000001c 	0x1c
  c4:	60300002 	0x60300002
  c8:	00040000 	sll	zero,a0,0x0
  cc:	00000000 	nop
  d0:	688022a8 	0x688022a8
  d4:	000010a0 	0x10a0
	...
  e0:	0000001c 	0x1c
  e4:	7f2f0002 	0x7f2f0002
  e8:	00040000 	sll	zero,a0,0x0
  ec:	00000000 	nop
  f0:	68803348 	0x68803348
  f4:	00001390 	0x1390
	...
 100:	0000001c 	0x1c
 104:	a1120002 	sb	s2,2(t0)
 108:	00040000 	sll	zero,a0,0x0
 10c:	00000000 	nop
 110:	688046d8 	0x688046d8
 114:	0000028c 	syscall	0xa
	...
 120:	0000001c 	0x1c
 124:	a58e0002 	sh	t6,2(t4)
 128:	00040000 	sll	zero,a0,0x0
 12c:	00000000 	nop
 130:	68804e9c 	0x68804e9c
 134:	00000008 	jr	zero
 138:	00000000 	nop
 13c:	00000000 	nop
 140:	0000001c 	0x1c
 144:	a68c0002 	sh	t4,2(s4)
 148:	00040000 	sll	zero,a0,0x0
 14c:	00000000 	nop
 150:	68804ea4 	0x68804ea4
 154:	00000338 	0x338
	...
Disassembly of section .debug_str:

00000000 <.debug_str>:
       0:	69736e75 	0x69736e75
       4:	64656e67 	0x64656e67
       8:	61686320 	0x61686320
       c:	6d650072 	0x6d650072
      10:	676e655f 	0x676e655f
      14:	2e656e69 	sltiu	a1,s3,28265
      18:	54500063 	bnel	v0,s0,1a8 <_init-0x687ffe58>
      1c:	41455248 	0x41455248
      20:	554d5f44 	bnel	t2,t5,17d34 <_init-0x687e82cc>
      24:	5f584554 	0x5f584554
      28:	41564e49 	0x41564e49
      2c:	0044494c 	syscall	0x11125
      30:	72687470 	0x72687470
      34:	5f646165 	0x5f646165
      38:	6574756d 	0x6574756d
      3c:	79745f78 	0x79745f78
      40:	745f6570 	jalx	17d95c0 <_init-0x67026a40>
      44:	48545000 	cfc2	s4,$10
      48:	44414552 	0x44414552
      4c:	54554d5f 	bnel	v0,s5,135cc <_init-0x687eca34>
      50:	445f5845 	0x445f5845
      54:	55414645 	bnel	t2,at,1196c <_init-0x687ee694>
      58:	5000544c 	beqzl	zero,1518c <_init-0x687eae74>
      5c:	45524854 	0x45524854
      60:	4d5f4441 	0x4d5f4441
      64:	58455455 	0x58455455
      68:	5252455f 	beql	s2,s2,115e8 <_init-0x687eea18>
      6c:	4843524f 	0x4843524f
      70:	004b4345 	0x4b4345
      74:	72687470 	0x72687470
      78:	5f646165 	0x5f646165
      7c:	72616873 	0x72616873
      80:	79745f65 	0x79745f65
      84:	745f6570 	jalx	17d95c0 <_init-0x67026a40>
      88:	554e4700 	bnel	t2,t6,11c8c <_init-0x687ee374>
      8c:	33204320 	andi	zero,t9,0x4320
      90:	342e342e 	ori	t6,at,0x342e
      94:	70696d20 	0x70696d20
      98:	65647373 	0x65647373
      9c:	302e362d 	andi	t6,at,0x362d
      a0:	31302e36 	andi	s0,t1,0x2e36
      a4:	3030322d 	andi	s0,at,0x322d
      a8:	32343037 	andi	s4,s1,0x3037
      ac:	6d650030 	0x6d650030
      b0:	756f6d5f 	jalx	5bdb57c <_init-0x62c24a84>
      b4:	645f746e 	0x645f746e
      b8:	73007672 	0x73007672
      bc:	74726f68 	jalx	1c9bda0 <_init-0x66b64260>
      c0:	736e7520 	0x736e7520
      c4:	656e6769 	0x656e6769
      c8:	6e692064 	0x6e692064
      cc:	6d650074 	0x6d650074
      d0:	6f6d755f 	0x6f6d755f
      d4:	5f746e75 	0x5f746e75
      d8:	00767264 	0x767264
      dc:	6779632f 	0x6779632f
      e0:	76697264 	jalx	9a5c990 <_init-0x5eda3670>
      e4:	2f632f65 	sltiu	v1,k1,12133
      e8:	616e6962 	0x616e6962
      ec:	6e616e6e 	0x6e616e6e
      f0:	3273752f 	andi	s3,s3,0x752f
      f4:	2f463331 	sltiu	a2,k0,13105
      f8:	616e6962 	0x616e6962
      fc:	6e616e6e 	0x6e616e6e
     100:	3273755f 	andi	s3,s3,0x755f
     104:	2f663331 	sltiu	a2,k1,13105
     108:	626f7675 	0x626f7675
     10c:	6473752f 	0x6473752f
     110:	3331326b 	andi	s1,t9,0x326b
     114:	61632f66 	0x61632f66
     118:	612f6573 	0x612f6573
     11c:	2f737070 	sltiu	s3,k1,28784
     120:	6b736564 	0x6b736564
     124:	2f706f74 	sltiu	s0,k1,28532
     128:	6c756d65 	0x6c756d65
     12c:	726f7461 	0x726f7461
     130:	48545000 	cfc2	s4,$10
     134:	44414552 	0x44414552
     138:	54554d5f 	bnel	v0,s5,136b8 <_init-0x687ec948>
     13c:	525f5845 	beql	s2,ra,16254 <_init-0x687e9dac>
     140:	52554345 	beql	s2,s5,10e58 <_init-0x687ef1a8>
     144:	45564953 	0x45564953
     148:	6f687300 	0x6f687300
     14c:	69207472 	0x69207472
     150:	5000746e 	beqzl	zero,1d30c <_init-0x687e2cf4>
     154:	45524854 	0x45524854
     158:	4d5f4441 	0x4d5f4441
     15c:	58455455 	0x58455455
     160:	524f4e5f 	beql	s2,t7,13ae0 <_init-0x687ec520>
     164:	004c414d 	break	0x4c,0x105
     168:	756f6d5f 	jalx	5bdb57c <_init-0x62c24a84>
     16c:	645f746e 	0x645f746e
     170:	645f7073 	0x645f7073
     174:	5f006365 	bgtzl	t8,18f0c <_init-0x687e70f4>
     178:	756f6d75 	jalx	5bdb5d4 <_init-0x62c24a2c>
     17c:	645f746e 	0x645f746e
     180:	645f7073 	0x645f7073
     184:	6c006365 	0x6c006365
     188:	20676e6f 	addi	a3,v1,28271
     18c:	676e6f6c 	0x676e6f6c
     190:	736e7520 	0x736e7520
     194:	656e6769 	0x656e6769
     198:	6e692064 	0x6e692064
     19c:	54500074 	bnel	v0,s0,370 <_init-0x687ffc90>
     1a0:	41455248 	0x41455248
     1a4:	52505f44 	beql	s2,s0,17eb8 <_init-0x687e8148>
     1a8:	5345434f 	beql	k0,a1,10ee8 <_init-0x687ef118>
     1ac:	48535f53 	0x48535f53
     1b0:	44455241 	0x44455241
     1b4:	6e6f6c00 	0x6e6f6c00
     1b8:	6f6c2067 	0x6f6c2067
     1bc:	6920676e 	0x6920676e
     1c0:	5000746e 	beqzl	zero,1d37c <_init-0x687e2c84>
     1c4:	45524854 	0x45524854
     1c8:	505f4441 	beql	v0,ra,112d0 <_init-0x687eed30>
     1cc:	45434f52 	0x45434f52
     1d0:	505f5353 	beql	v0,ra,14f20 <_init-0x687eb0e0>
     1d4:	41564952 	0x41564952
     1d8:	57004554 	bnezl	t8,1172c <_init-0x687ee8d4>
     1dc:	45474449 	0x45474449
     1e0:	49535f54 	0x49535f54
     1e4:	534d5f47 	beql	k0,t5,17f04 <_init-0x687e80fc>
     1e8:	584f4247 	0x584f4247
     1ec:	4d41435f 	0x4d41435f
     1f0:	5f415245 	0x5f415245
     1f4:	4e55414c 	c3	0x55414c
     1f8:	44454843 	0x44454843
     1fc:	72747300 	0x72747300
     200:	696e755f 	0x696e755f
     204:	454d0074 	0x454d0074
     208:	4956554e 	0x4956554e
     20c:	4f5f5745 	c3	0x15f5745
     210:	4f495450 	c3	0x1495450
     214:	5546004e 	bnel	t2,a2,350 <_init-0x687ffcb0>
     218:	4e4f4953 	c3	0x4f4953
     21c:	5455435f 	bnel	v0,s5,10f9c <_init-0x687ef064>
     220:	4a444100 	c2	0x444100
     224:	5954535f 	0x5954535f
     228:	535f454c 	beql	k0,ra,1175c <_init-0x687ee8a4>
     22c:	43544957 	c0	0x1544957
     230:	49440048 	0x49440048
     234:	53494c52 	beql	k0,t1,13380 <_init-0x687ecc80>
     238:	554d5f54 	bnel	t2,t5,17f8c <_init-0x687e8074>
     23c:	00434953 	0x434953
     240:	47444957 	c1	0x1444957
     244:	535f5445 	beql	k0,ra,1535c <_init-0x687eaca4>
     248:	4d5f4749 	0x4d5f4749
     24c:	56554e45 	bnel	s2,s5,13b64 <_init-0x687ec49c>
     250:	5f574549 	0x5f574549
     254:	4e574f44 	c3	0x574f44
     258:	69727000 	0x69727000
     25c:	65746176 	0x65746176
     260:	72756300 	0x72756300
     264:	6574695f 	0x6574695f
     268:	0032306d 	0x32306d
     26c:	5f727563 	0x5f727563
     270:	6d657469 	0x6d657469
     274:	44003330 	0x44003330
     278:	494c5249 	0x494c5249
     27c:	475f5453 	c1	0x15f5453
     280:	00454d41 	0x454d41
     284:	5f78616d 	0x5f78616d
     288:	006c6176 	tne	v1,t4,0x185
     28c:	5f727563 	0x5f727563
     290:	6d657469 	0x6d657469
     294:	64003130 	0x64003130
     298:	696c7269 	0x696c7269
     29c:	735f7473 	0x735f7473
     2a0:	655f6769 	0x655f6769
     2a4:	44495700 	0x44495700
     2a8:	5f544547 	0x5f544547
     2ac:	5f474953 	0x5f474953
     2b0:	4c414944 	0x4c414944
     2b4:	4f5f474f 	c3	0x15f474f
     2b8:	6863004b 	0x6863004b
     2bc:	5f646c69 	0x5f646c69
     2c0:	7366666f 	0x7366666f
     2c4:	57007465 	bnezl	t8,1d45c <_init-0x687e2ba4>
     2c8:	45474449 	0x45474449
     2cc:	49535f54 	0x49535f54
     2d0:	534d5f47 	beql	k0,t5,17ff0 <_init-0x687e8010>
     2d4:	584f4247 	0x584f4247
     2d8:	4f48505f 	c3	0x148505f
     2dc:	4c5f4f54 	0x4c5f4f54
     2e0:	434e5541 	c0	0x14e5541
     2e4:	00444548 	0x444548
     2e8:	72616579 	0x72616579
     2ec:	72747300 	0x72747300
     2f0:	6e696d5f 	0x6e696d5f
     2f4:	0064695f 	0x64695f
     2f8:	65747962 	0x65747962
     2fc:	72657073 	0x72657073
     300:	65786970 	0x65786970
     304:	7378006c 	0x7378006c
     308:	00657a69 	0x657a69
     30c:	6f726373 	0x6f726373
     310:	72006c6c 	0x72006c6c
     314:	6c757365 	0x6c757365
     318:	6d650074 	0x6d650074
     31c:	74735f75 	jalx	1cd7dd4 <_init-0x66b2822c>
     320:	5f657461 	0x5f657461
     324:	74730074 	jalx	1cc01d0 <_init-0x66b3fe30>
     328:	69745f72 	0x69745f72
     32c:	5f656c74 	0x5f656c74
     330:	6d006469 	0x6d006469
     334:	63735f79 	0x63735f79
     338:	00656e65 	0x656e65
     33c:	5f727473 	0x5f727473
     340:	66667562 	0x66667562
     344:	745f7265 	jalx	17dc994 <_init-0x6702366c>
     348:	656c7469 	0x656c7469
     34c:	4a444100 	c2	0x444100
     350:	5f545355 	0x5f545355
     354:	45004e4f 	bc1f	13c94 <_init-0x687ec36c>
     358:	535f554d 	beql	k0,ra,15890 <_init-0x687ea770>
     35c:	5f544154 	0x5f544154
     360:	504f5453 	beql	v0,t7,154b0 <_init-0x687eab50>
     364:	5f6e6f00 	0x5f6e6f00
     368:	5f66666f 	0x5f66666f
     36c:	74617473 	jalx	185d1cc <_init-0x66fa2e34>
     370:	66007375 	0x66007375
     374:	6765726f 	0x6765726f
     378:	6e756f72 	0x6e756f72
     37c:	69700064 	0x69700064
     380:	72757463 	0x72757463
     384:	65725f65 	0x65725f65
     388:	72756f73 	0x72756f73
     38c:	745f6563 	jalx	17d958c <_init-0x67026a74>
     390:	4e454d00 	c3	0x454d00
     394:	45495655 	0x45495655
     398:	49505f57 	0x49505f57
     39c:	53494c43 	beql	k0,t1,134ac <_init-0x687ecb54>
     3a0:	42455f54 	c0	0x455f54
     3a4:	004b4f4f 	0x4b4f4f
     3a8:	49535546 	0x49535546
     3ac:	435f4e4f 	c0	0x15f4e4f
     3b0:	00454255 	0x454255
     3b4:	5f706f74 	0x5f706f74
     3b8:	68746170 	0x68746170
     3bc:	6d616e5f 	0x6d616e5f
     3c0:	61660065 	0x61660065
     3c4:	0065736c 	0x65736c
     3c8:	6c726964 	0x6c726964
     3cc:	5f747369 	0x5f747369
     3d0:	65707974 	0x65707974
     3d4:	6500655f 	0x6500655f
     3d8:	69665f6d 	0x69665f6d
     3dc:	5f747372 	0x5f747372
     3e0:	6576656c 	0x6576656c
     3e4:	656d5f6c 	0x656d5f6c
     3e8:	632e756e 	0x632e756e
     3ec:	5f6d6500 	0x5f6d6500
     3f0:	6c726964 	0x6c726964
     3f4:	5f747369 	0x5f747369
     3f8:	74697865 	jalx	1a5e194 <_init-0x66da1e6c>
     3fc:	44495700 	0x44495700
     400:	5f544547 	0x5f544547
     404:	5f474953 	0x5f474953
     408:	4c524944 	0x4c524944
     40c:	5f545349 	0x5f545349
     410:	474e4f4c 	c1	0x14e4f4c
     414:	4e454d5f 	c3	0x454d5f
     418:	64610055 	0x64610055
     41c:	7473756a 	jalx	1cdd5a8 <_init-0x66b22a58>
     420:	6100735f 	0x6100735f
     424:	73756a64 	0x73756a64
     428:	00745f74 	teq	v1,s4,0x17d
     42c:	5f727473 	0x5f727473
     430:	70736964 	0x70736964
     434:	4e454d00 	c3	0x454d00
     438:	45495655 	0x45495655
     43c:	49465f57 	0x49465f57
     440:	494c454c 	0x494c454c
     444:	545f5453 	bnel	v0,ra,15594 <_init-0x687eaa6c>
     448:	00545845 	0x545845
     44c:	69646f6d 	0x69646f6d
     450:	735f7966 	0x735f7966
     454:	6d007274 	0x6d007274
     458:	76756e65 	jalx	9d5b994 <_init-0x5eaa466c>
     45c:	5f776569 	0x5f776569
     460:	76697270 	jalx	9a5c9c0 <_init-0x5eda3640>
     464:	5f657461 	0x5f657461
     468:	696d0073 	0x696d0073
     46c:	61765f6e 	0x61765f6e
     470:	0065756c 	0x65756c
     474:	49535546 	0x49535546
     478:	505f4e4f 	beql	v0,ra,13db8 <_init-0x687ec248>
     47c:	5055504f 	beql	v0,s5,145bc <_init-0x687eba44>
     480:	48504c41 	0x48504c41
     484:	6f620041 	0x6f620041
     488:	64006c6f 	0x64006c6f
     48c:	696c7269 	0x696c7269
     490:	695f7473 	0x695f7473
     494:	5f74696e 	0x5f74696e
     498:	6d650073 	0x6d650073
     49c:	74616c75 	jalx	185b1d4 <_init-0x66fa4e2c>
     4a0:	735f726f 	0x735f726f
     4a4:	656e6563 	0x656e6563
     4a8:	6d6f635f 	0x6d6f635f
     4ac:	5f6e6f6d 	0x5f6e6f6d
     4b0:	49540074 	0x49540074
     4b4:	4d5f454d 	0x4d5f454d
     4b8:	5f45444f 	0x5f45444f
     4bc:	61003231 	0x61003231
     4c0:	73756a64 	0x73756a64
     4c4:	69645f74 	0x69645f74
     4c8:	00746967 	0x746967
     4cc:	47444957 	c1	0x1444957
     4d0:	535f5445 	beql	k0,ra,155e8 <_init-0x687eaa18>
     4d4:	4d5f4749 	0x4d5f4749
     4d8:	4f424753 	c3	0x1424753
     4dc:	48535f58 	0x48535f58
     4e0:	5400574f 	bnezl	zero,16220 <_init-0x687e9de0>
     4e4:	5f454d49 	0x5f454d49
     4e8:	45444f4d 	0x45444f4d
     4ec:	0034325f 	0x34325f
     4f0:	47444957 	c1	0x1444957
     4f4:	535f5445 	beql	k0,ra,1560c <_init-0x687ea9f4>
     4f8:	445f4749 	0x445f4749
     4fc:	4f4c4149 	c3	0x14c4149
     500:	41435f47 	0x41435f47
     504:	4c41434e 	0x4c41434e
     508:	44495700 	0x44495700
     50c:	5f544547 	0x5f544547
     510:	5f474953 	0x5f474953
     514:	4247534d 	c0	0x47534d
     518:	555f584f 	bnel	t2,ra,16658 <_init-0x687e99a8>
     51c:	4c5f4253 	0x4c5f4253
     520:	434e5541 	c0	0x14e5541
     524:	00444548 	0x444548
     528:	5f79656b 	0x5f79656b
     52c:	00727473 	tltu	v1,s2,0x1d1
     530:	756a6461 	jalx	5a99184 <_init-0x62d66e7c>
     534:	46007473 	c1	0x7473
     538:	4f495355 	c3	0x1495355
     53c:	4f4d5f4e 	c3	0x14d5f4e
     540:	4c414556 	0x4c414556
     544:	00414850 	0x414850
     548:	656d6974 	0x656d6974
     54c:	64695f72 	0x64695f72
     550:	41494400 	0x41494400
     554:	5f474f4c 	0x5f474f4c
     558:	44414548 	0x44414548
     55c:	4941465f 	0x4941465f
     560:	6964004c 	0x6964004c
     564:	676f6c61 	0x676f6c61
     568:	7600745f 	jalx	801d17c <_init-0x607e2e84>
     56c:	6d756c6f 	0x6d756c6f
     570:	72616265 	0x72616265
     574:	6400735f 	0x6400735f
     578:	6f6c6169 	0x6f6c6169
     57c:	72705f67 	0x72705f67
     580:	74617669 	jalx	185d9a4 <_init-0x66fa265c>
     584:	00735f65 	0x735f65
     588:	756a6461 	jalx	5a99184 <_init-0x62d66e7c>
     58c:	745f7473 	jalx	17dd1cc <_init-0x67022e34>
     590:	00656d69 	0x656d69
     594:	47444957 	c1	0x1444957
     598:	535f5445 	beql	k0,ra,156b0 <_init-0x687ea950>
     59c:	445f4749 	0x445f4749
     5a0:	494c5249 	0x494c5249
     5a4:	535f5453 	beql	k0,ra,156f4 <_init-0x687ea90c>
     5a8:	54524f48 	bnel	v0,s2,142cc <_init-0x687ebd34>
     5ac:	4e454d5f 	c3	0x454d5f
     5b0:	67620055 	0x67620055
     5b4:	6369705f 	0x6369705f
     5b8:	53554600 	beql	k0,s5,11dbc <_init-0x687ee244>
     5bc:	5f4e4f49 	0x5f4e4f49
     5c0:	56554f4c 	bnel	s2,s5,142f4 <_init-0x687ebd0c>
     5c4:	65005245 	0x65005245
     5c8:	7265746e 	0x7265746e
     5cc:	7079745f 	udi15	v1,t9,t6,0x11
     5d0:	6f6e0065 	0x6f6e0065
     5d4:	70707573 	0x70707573
     5d8:	7274735f 	udi15	s3,s4,t6,0xd
     5dc:	53554600 	beql	k0,s5,11de0 <_init-0x687ee220>
     5e0:	5f4e4f49 	0x5f4e4f49
     5e4:	55504f50 	bnel	t2,s0,14328 <_init-0x687ebcd8>
     5e8:	49570050 	0x49570050
     5ec:	54454744 	bnel	v0,a1,12300 <_init-0x687edd00>
     5f0:	4749535f 	c1	0x149535f
     5f4:	5249445f 	beql	s2,t1,11774 <_init-0x687ee88c>
     5f8:	5453494c 	bnel	v0,s3,12b2c <_init-0x687ed4d4>
     5fc:	004b4f5f 	0x4b4f5f
     600:	756e656d 	jalx	5b995b4 <_init-0x62c66a4c>
     604:	6d657469 	0x6d657469
     608:	6e6e695f 	0x6e6e695f
     60c:	735f7265 	0x735f7265
     610:	72756300 	0x72756300
     614:	6c61765f 	0x6c61765f
     618:	68006575 	0x68006575
     61c:	6c646e61 	0x6c646e61
     620:	75675f65 	jalx	59d7d94 <_init-0x62e2826c>
     624:	63645f69 	0x63645f69
     628:	5f6d6500 	0x5f6d6500
     62c:	6c726964 	0x6c726964
     630:	5f747369 	0x5f747369
     634:	65746e65 	0x65746e65
     638:	64610072 	0x64610072
     63c:	7473756a 	jalx	1cdd5a8 <_init-0x66b22a58>
     640:	7974735f 	0x7974735f
     644:	7300656c 	0x7300656c
     648:	755f7274 	jalx	57dc9d0 <_init-0x63023630>
     64c:	5f74696e 	0x5f74696e
     650:	77006469 	jalx	c0191a4 <_init-0x5c7e6e5c>
     654:	00796164 	0x796164
     658:	65726964 	0x65726964
     65c:	6f697463 	0x6f697463
     660:	656d006e 	0x656d006e
     664:	6976756e 	0x6976756e
     668:	745f7765 	jalx	17ddd94 <_init-0x6702226c>
     66c:	5f657079 	0x5f657079
     670:	69660065 	0x69660065
     674:	6e5f656c 	0x6e5f656c
     678:	00656d61 	0x656d61
     67c:	6c726964 	0x6c726964
     680:	5f747369 	0x5f747369
     684:	6f760073 	0x6f760073
     688:	656d756c 	0x656d756c
     68c:	5f726162 	0x5f726162
     690:	69640074 	0x69640074
     694:	676f6c61 	0x676f6c61
     698:	7300735f 	udi15	t8,zero,t6,0xd
     69c:	645f7274 	0x645f7274
     6a0:	74707369 	jalx	1c1cda4 <_init-0x66be325c>
     6a4:	5f747865 	0x5f747865
     6a8:	44006469 	0x44006469
     6ac:	4f4c4149 	c3	0x14c4149
     6b0:	45485f47 	0x45485f47
     6b4:	515f4441 	beql	t2,ra,117bc <_init-0x687ee844>
     6b8:	59524555 	0x59524555
     6bc:	41454800 	rdpgpr	t1,a1
     6c0:	52414244 	beql	s2,at,10fd4 <_init-0x687ef02c>
     6c4:	5059545f 	beql	v0,t9,15844 <_init-0x687ea7bc>
     6c8:	55595f45 	bnel	t2,t9,183e0 <_init-0x687e7c20>
     6cc:	49440056 	0x49440056
     6d0:	474f4c41 	c1	0x14f4c41
     6d4:	4145485f 	0x4145485f
     6d8:	41435f44 	0x41435f44
     6dc:	554f4452 	bnel	t2,t7,11828 <_init-0x687ee7d8>
     6e0:	74720054 	jalx	1c80150 <_init-0x66b7feb0>
     6e4:	69745f63 	0x69745f63
     6e8:	745f656d 	jalx	17d95b4 <_init-0x67026a4c>
     6ec:	44495700 	0x44495700
     6f0:	5f544547 	0x5f544547
     6f4:	5f474953 	0x5f474953
     6f8:	4c524944 	0x4c524944
     6fc:	5f545349 	0x5f545349
     700:	4f434544 	c3	0x1434544
     704:	6f004544 	0x6f004544
     708:	75716170 	jalx	5c585c0 <_init-0x62ba7a40>
     70c:	4d450065 	0x4d450065
     710:	54414c55 	bnel	v0,at,13868 <_init-0x687ec798>
     714:	535f524f 	beql	k0,ra,15054 <_init-0x687eafac>
     718:	454e4543 	0x454e4543
     71c:	58454e5f 	0x58454e5f
     720:	55460054 	bnel	t2,a2,874 <_init-0x687ff78c>
     724:	4e4f4953 	c3	0x4f4953
     728:	58414d5f 	0x58414d5f
     72c:	78616d00 	0x78616d00
     730:	6c61765f 	0x6c61765f
     734:	72006575 	0x72006575
     738:	75466d6f 	jalx	519b5bc <_init-0x63664a44>
     73c:	61506c6c 	0x61506c6c
     740:	46006874 	c1	0x6874
     744:	4f495355 	c3	0x1495355
     748:	41505f4e 	0x41505f4e
     74c:	73004547 	0x73004547
     750:	646e756f 	0x646e756f
     754:	7274735f 	udi15	s3,s4,t6,0xd
     758:	6e6f6d00 	0x6e6f6d00
     75c:	57006874 	bnezl	t8,1a930 <_init-0x687e56d0>
     760:	45474449 	0x45474449
     764:	49535f54 	0x49535f54
     768:	534d5f47 	beql	k0,t5,18488 <_init-0x687e7b78>
     76c:	584f4247 	0x584f4247
     770:	4955515f 	0x4955515f
     774:	4f4c5f54 	c3	0x14c5f54
     778:	4f505f57 	c3	0x1505f57
     77c:	00524557 	0x524557
     780:	6267736d 	0x6267736d
     784:	735f786f 	0x735f786f
     788:	655f6769 	0x655f6769
     78c:	64697700 	0x64697700
     790:	5f746567 	0x5f746567
     794:	5f676973 	0x5f676973
     798:	64616568 	0x64616568
     79c:	5f726162 	0x5f726162
     7a0:	44410065 	0x44410065
     7a4:	54535f4a 	bnel	v0,s3,184d0 <_init-0x687e7b30>
     7a8:	5f454c59 	0x5f454c59
     7ac:	4c434552 	0x4c434552
     7b0:	79004e45 	0x79004e45
     7b4:	657a6973 	0x657a6973
     7b8:	6c6f7600 	0x6c6f7600
     7bc:	62656d75 	0x62656d75
     7c0:	705f7261 	0x705f7261
     7c4:	61766972 	0x61766972
     7c8:	645f6574 	0x645f6574
     7cc:	5f617461 	0x5f617461
     7d0:	63690073 	0x63690073
     7d4:	705f6e6f 	0x705f6e6f
     7d8:	4d006369 	msub.d	$f13,$f8,$f12,$f0
     7dc:	56554e45 	bnel	s2,s5,140f4 <_init-0x687ebf0c>
     7e0:	5f574549 	0x5f574549
     7e4:	454c4946 	0x454c4946
     7e8:	5453494c 	bnel	v0,s3,12d1c <_init-0x687ed2e4>
     7ec:	4f43495f 	c3	0x143495f
     7f0:	5546004e 	bnel	t2,a2,92c <_init-0x687ff6d4>
     7f4:	4e4f4953 	c3	0x4f4953
     7f8:	5645525f 	bnel	s2,a1,15178 <_init-0x687eae88>
     7fc:	45535245 	0x45535245
     800:	79656b00 	0x79656b00
     804:	69760073 	0x69760073
     808:	6c626973 	0x6c626973
     80c:	656e0065 	0x656e0065
     810:	655f6465 	0x655f6465
     814:	00746978 	0x746978
     818:	6a644170 	0x6a644170
     81c:	76697250 	jalx	9a5c940 <_init-0x5eda36c0>
     820:	00657461 	0x657461
     824:	756e656d 	jalx	5b995b4 <_init-0x62c66a4c>
     828:	5f62635f 	0x5f62635f
     82c:	4d450074 	0x4d450074
     830:	54535f55 	bnel	v0,s3,18588 <_init-0x687e7a78>
     834:	505f5441 	beql	v0,ra,1593c <_init-0x687ea6c4>
     838:	45535541 	0x45535541
     83c:	63697000 	0x63697000
     840:	5f64695f 	0x5f64695f
     844:	64616568 	0x64616568
     848:	53554600 	beql	k0,s5,1204c <_init-0x687edfb4>
     84c:	5f4e4f49 	0x5f4e4f49
     850:	48535550 	0x48535550
     854:	73756600 	0x73756600
     858:	5f6e6f69 	0x5f6e6f69
     85c:	65666665 	0x65666665
     860:	745f7463 	jalx	17dd18c <_init-0x67022e74>
     864:	44495700 	0x44495700
     868:	5f544547 	0x5f544547
     86c:	5f474953 	0x5f474953
     870:	4247534d 	c0	0x47534d
     874:	535f584f 	beql	k0,ra,169b4 <_init-0x687e964c>
     878:	5f574f48 	0x5f574f48
     87c:	5f574f4c 	0x5f574f4c
     880:	45574f50 	0x45574f50
     884:	49440052 	0x49440052
     888:	53494c52 	beql	k0,t1,139d4 <_init-0x687ec62c>
     88c:	49565f54 	0x49565f54
     890:	004f4544 	0x4f4544
     894:	47444957 	c1	0x1444957
     898:	535f5445 	beql	k0,ra,159b0 <_init-0x687ea650>
     89c:	4d5f4749 	0x4d5f4749
     8a0:	56554e45 	bnel	s2,s5,141b8 <_init-0x687ebe48>
     8a4:	5f574549 	0x5f574549
     8a8:	61004b4f 	0x61004b4f
     8ac:	73756a64 	0x73756a64
     8b0:	61645f74 	0x61645f74
     8b4:	66006574 	0x66006574
     8b8:	0067616c 	0x67616c
     8bc:	65766173 	0x65766173
     8c0:	74735f64 	jalx	1cd7d90 <_init-0x66b28270>
     8c4:	74730072 	jalx	1cc01c8 <_init-0x66b3fe38>
     8c8:	676e6972 	0x676e6972
     8cc:	7365725f 	udi15	k1,a1,t6,0x9
     8d0:	6372756f 	0x6372756f
     8d4:	00745f65 	0x745f65
     8d8:	4c414944 	0x4c414944
     8dc:	485f474f 	0x485f474f
     8e0:	5f444145 	0x5f444145
     8e4:	4f464e49 	c3	0x1464e49
     8e8:	746f7400 	jalx	1bdd000 <_init-0x66c23000>
     8ec:	625f6c61 	0x625f6c61
     8f0:	6f747475 	0x6f747475
     8f4:	4957006e 	0x4957006e
     8f8:	54454744 	bnel	v0,a1,1260c <_init-0x687ed9f4>
     8fc:	4749535f 	c1	0x149535f
     900:	4e454d5f 	c3	0x454d5f
     904:	45495655 	0x45495655
     908:	50555f57 	beql	v0,s5,18668 <_init-0x687e7998>
     90c:	73797300 	0x73797300
     910:	6d69745f 	0x6d69745f
     914:	64610065 	0x64610065
     918:	7473756a 	jalx	1cdd5a8 <_init-0x66b22a58>
     91c:	6977735f 	0x6977735f
     920:	00686374 	teq	v1,t0,0x18d
     924:	4c414944 	0x4c414944
     928:	485f474f 	0x485f474f
     92c:	5f444145 	0x5f444145
     930:	44524143 	0x44524143
     934:	61004e49 	0x61004e49
     938:	6c6f7362 	0x6c6f7362
     93c:	5f657475 	0x5f657475
     940:	69700078 	0x69700078
     944:	64695f63 	0x64695f63
     948:	69756700 	0x69756700
     94c:	7469625f 	jalx	1a5897c <_init-0x66da7684>
     950:	5f70616d 	0x5f70616d
     954:	6f666e69 	0x6f666e69
     958:	4600745f 	c1	0x745f
     95c:	4f495355 	c3	0x1495355
     960:	52455f4e 	beql	s2,a1,1869c <_init-0x687e7964>
     964:	00455341 	0x455341
     968:	72756f68 	0x72756f68
     96c:	41525400 	0x41525400
     970:	445f534e 	0x445f534e
     974:	004e574f 	0x4e574f
     978:	6f736261 	0x6f736261
     97c:	6574756c 	0x6574756c
     980:	4400795f 	0x4400795f
     984:	4f4c4149 	c3	0x14c4149
     988:	45485f47 	0x45485f47
     98c:	575f4441 	bnel	k0,ra,11a94 <_init-0x687ee56c>
     990:	004e5241 	0x4e5241
     994:	6c696166 	0x6c696166
     998:	6e65706f 	0x6e65706f
     99c:	7274735f 	udi15	s3,s4,t6,0xd
     9a0:	78657400 	0x78657400
     9a4:	6c615f74 	0x6c615f74
     9a8:	006e6769 	0x6e6769
     9ac:	5f4a4441 	0x5f4a4441
     9b0:	4c595453 	0x4c595453
     9b4:	41445f45 	0x41445f45
     9b8:	64004554 	0x64004554
     9bc:	6f6c6169 	0x6f6c6169
     9c0:	65685f67 	0x65685f67
     9c4:	655f6461 	0x655f6461
     9c8:	72696400 	0x72696400
     9cc:	7473696c 	jalx	1cda5b0 <_init-0x66b25a50>
     9d0:	696e695f 	0x696e695f
     9d4:	454d0074 	0x454d0074
     9d8:	4956554e 	0x4956554e
     9dc:	505f5745 	beql	v0,ra,166f4 <_init-0x687e990c>
     9e0:	494c4349 	0x494c4349
     9e4:	4d5f5453 	0x4d5f5453
     9e8:	43495355 	c0	0x1495355
     9ec:	6a646100 	0x6a646100
     9f0:	5f747375 	0x5f747375
     9f4:	74697773 	jalx	1a5ddcc <_init-0x66da2234>
     9f8:	695f6863 	0x695f6863
     9fc:	5f74696e 	0x5f74696e
     a00:	5f670074 	0x5f670074
     a04:	6e656373 	0x6e656373
     a08:	6d655f65 	0x6d655f65
     a0c:	74616c75 	jalx	185b1d4 <_init-0x66fa4e2c>
     a10:	6d00726f 	0x6d00726f
     a14:	765f6e69 	jalx	97db9a4 <_init-0x5f02465c>
     a18:	6d006c61 	0x6d006c61
     a1c:	6f626773 	0x6f626773
     a20:	72705f78 	0x72705f78
     a24:	74617669 	jalx	185d9a4 <_init-0x66fa265c>
     a28:	61645f65 	0x61645f65
     a2c:	735f6174 	0x735f6174
     a30:	44495700 	0x44495700
     a34:	5f544547 	0x5f544547
     a38:	5f474953 	0x5f474953
     a3c:	554e454d 	bnel	t2,t6,11f74 <_init-0x687ee08c>
     a40:	57454956 	bnel	k0,a1,12f9c <_init-0x687ed064>
     a44:	4955515f 	0x4955515f
     a48:	52540054 	beql	s2,s4,b9c <_init-0x687ff464>
     a4c:	5f534e41 	0x5f534e41
     a50:	48474952 	0x48474952
     a54:	69740054 	0x69740054
     a58:	5f656c74 	0x5f656c74
     a5c:	00727473 	tltu	v1,s2,0x1d1
     a60:	4c414944 	0x4c414944
     a64:	485f474f 	0x485f474f
     a68:	5f444145 	0x5f444145
     a6c:	4c59454b 	0x4c59454b
     a70:	004b434f 	0x4b434f
     a74:	69737566 	0x69737566
     a78:	6d5f6e6f 	0x6d5f6e6f
     a7c:	5f65646f 	0x5f65646f
     a80:	49570065 	0x49570065
     a84:	54454744 	bnel	v0,a1,12798 <_init-0x687ed868>
     a88:	4749535f 	c1	0x149535f
     a8c:	47534d5f 	c1	0x1534d5f
     a90:	5f584f42 	0x5f584f42
     a94:	54495551 	bnel	v0,t1,15fdc <_init-0x687ea024>
     a98:	574f4c5f 	bnel	k0,t7,13c18 <_init-0x687ec3e8>
     a9c:	574f505f 	bnel	k0,t7,14c1c <_init-0x687eb3e4>
     aa0:	555f5245 	bnel	t2,ra,153b8 <_init-0x687eac48>
     aa4:	54534f48 	bnel	v0,s3,147c8 <_init-0x687eb838>
     aa8:	67736d00 	0x67736d00
     aac:	5f786f62 	0x5f786f62
     ab0:	736d0073 	0x736d0073
     ab4:	786f6267 	0x786f6267
     ab8:	7700745f 	jalx	c01d17c <_init-0x5c7e2e84>
     abc:	695f6e69 	0x695f6e69
     ac0:	69660064 	0x69660064
     ac4:	7265746c 	0x7265746c
     ac8:	7274735f 	udi15	s3,s4,t6,0xd
     acc:	00676e69 	0x676e69
     ad0:	44414548 	0x44414548
     ad4:	5f524142 	0x5f524142
     ad8:	45505954 	0x45505954
     adc:	4d49535f 	0x4d49535f
     ae0:	00454c50 	0x454c50
     ae4:	6c726964 	0x6c726964
     ae8:	5f747369 	0x5f747369
     aec:	64610074 	0x64610074
     af0:	7473756a 	jalx	1cdd5a8 <_init-0x66b22a58>
     af4:	6d69745f 	0x6d69745f
     af8:	6e695f65 	0x6e695f65
     afc:	745f7469 	jalx	17dd1a4 <_init-0x67022e5c>
     b00:	4a444100 	c2	0x444100
     b04:	5f545355 	0x5f545355
     b08:	0046464f 	0x46464f
     b0c:	756a6461 	jalx	5a99184 <_init-0x62d66e7c>
     b10:	725f7473 	0x725f7473
     b14:	72677365 	0x72677365
     b18:	0070756f 	0x70756f
     b1c:	70736964 	0x70736964
     b20:	7274735f 	udi15	s3,s4,t6,0xd
     b24:	6e696d00 	0x6e696d00
     b28:	00657475 	0x657475
     b2c:	6b636162 	0x6b636162
     b30:	756f7267 	jalx	5bdc99c <_init-0x62c23664>
     b34:	4100646e 	bc0f	19cf0 <_init-0x687e6310>
     b38:	535f4a44 	beql	k0,ra,1344c <_init-0x687ecbb4>
     b3c:	454c5954 	0x454c5954
     b40:	5845545f 	0x5845545f
     b44:	47494454 	c1	0x1494454
     b48:	46005449 	trunc.l.s	$f17,$f10
     b4c:	4f495355 	c3	0x1495355
     b50:	4f465f4e 	c3	0x1465f4e
     b54:	52415752 	beql	s2,at,168a0 <_init-0x687e9760>
     b58:	61730044 	0x61730044
     b5c:	655f6576 	0x655f6576
     b60:	735f7272 	0x735f7272
     b64:	73007274 	0x73007274
     b68:	6e6f6365 	0x6e6f6365
     b6c:	49570064 	0x49570064
     b70:	54454744 	bnel	v0,a1,12884 <_init-0x687ed77c>
     b74:	4749535f 	c1	0x149535f
     b78:	47534d5f 	c1	0x1534d5f
     b7c:	5f584f42 	0x5f584f42
     b80:	4e495654 	c3	0x495654
     b84:	55414c5f 	bnel	t2,at,13d04 <_init-0x687ec2fc>
     b88:	4548434e 	0x4548434e
     b8c:	454d0044 	0x454d0044
     b90:	4956554e 	0x4956554e
     b94:	505f5745 	beql	v0,ra,168ac <_init-0x687e9754>
     b98:	494c4349 	0x494c4349
     b9c:	505f5453 	beql	v0,ra,15cec <_init-0x687ea314>
     ba0:	55544349 	bnel	t2,s4,118c8 <_init-0x687ee738>
     ba4:	4d004552 	bc3f	120f0 <_init-0x687edf10>
     ba8:	56554e45 	bnel	s2,s5,144c0 <_init-0x687ebb40>
     bac:	5f574549 	0x5f574549
     bb0:	0058414d 	break	0x58,0x105
     bb4:	746e6f66 	jalx	1b9bd98 <_init-0x66c64268>
     bb8:	6965685f 	0x6965685f
     bbc:	00746867 	0x746867
     bc0:	665f6f6e 	0x665f6f6e
     bc4:	5f656c69 	0x5f656c69
     bc8:	00727473 	tltu	v1,s2,0x1d1
     bcc:	554e454d 	bnel	t2,t6,12104 <_init-0x687edefc>
     bd0:	57454956 	bnel	k0,a1,1312c <_init-0x687eced4>
     bd4:	4349505f 	c0	0x149505f
     bd8:	5453494c 	bnel	v0,s3,1310c <_init-0x687ecef4>
     bdc:	4449565f 	0x4449565f
     be0:	57004f45 	bnezl	t8,148f8 <_init-0x687eb708>
     be4:	45474449 	0x45474449
     be8:	49535f54 	0x49535f54
     bec:	454d5f47 	0x454d5f47
     bf0:	4956554e 	0x4956554e
     bf4:	455f5745 	0x455f5745
     bf8:	45454358 	0x45454358
     bfc:	49465f44 	0x49465f44
     c00:	00545352 	0x545352
     c04:	4e415254 	c3	0x415254
     c08:	454c5f53 	0x454c5f53
     c0c:	61005446 	0x61005446
     c10:	73756a64 	0x73756a64
     c14:	61645f74 	0x61645f74
     c18:	695f6574 	0x695f6574
     c1c:	5f74696e 	0x5f74696e
     c20:	55460074 	bnel	t2,a2,df4 <_init-0x687ff20c>
     c24:	4e4f4953 	c3	0x4f4953
     c28:	4e41525f 	c3	0x41525f
     c2c:	004d4f44 	0x4d4f44
     c30:	5f737973 	0x5f737973
     c34:	65746164 	0x65746164
     c38:	61656800 	0x61656800
     c3c:	72616264 	0x72616264
     c40:	6972705f 	0x6972705f
     c44:	65746176 	0x65746176
     c48:	6600735f 	0x6600735f
     c4c:	5f6c6c75 	0x5f6c6c75
     c50:	65726373 	0x65726373
     c54:	735f6e65 	0x735f6e65
     c58:	66007274 	0x66007274
     c5c:	6f697375 	0x6f697375
     c60:	6e655f6e 	0x6e655f6e
     c64:	5f726574 	0x5f726574
     c68:	61670065 	0x61670065
     c6c:	6b5f656d 	0x6b5f656d
     c70:	00646e69 	0x646e69
     c74:	756e656d 	jalx	5b995b4 <_init-0x62c66a4c>
     c78:	77656976 	jalx	d95a5d8 <_init-0x5aea5a28>
     c7c:	4600745f 	c1	0x745f
     c80:	4f495355 	c3	0x1495355
     c84:	41525f4e 	0x41525f4e
     c88:	4d4f444e 	0x4d4f444e
     c8c:	454e494c 	0x454e494c
     c90:	41525400 	0x41525400
     c94:	555f534e 	bnel	t2,ra,159d0 <_init-0x687ea630>
     c98:	49440050 	0x49440050
     c9c:	474f4c41 	c1	0x14f4c41
     ca0:	4145485f 	0x4145485f
     ca4:	55535f44 	bnel	t2,s3,189b8 <_init-0x687e7648>
     ca8:	53454343 	beql	k0,a1,119b8 <_init-0x687ee648>
     cac:	75630053 	jalx	58c014c <_init-0x62f3feb4>
     cb0:	65735f72 	0x65735f72
     cb4:	7270006c 	0x7270006c
     cb8:	74617669 	jalx	185d9a4 <_init-0x66fa265c>
     cbc:	61645f65 	0x61645f65
     cc0:	6d006174 	0x6d006174
     cc4:	76756e65 	jalx	9d5b994 <_init-0x5eaa466c>
     cc8:	5f776569 	0x5f776569
     ccc:	64610073 	0x64610073
     cd0:	77735f6a 	jalx	dcd7da8 <_init-0x5ab28258>
     cd4:	68637469 	0x68637469
     cd8:	646f6d5f 	0x646f6d5f
     cdc:	00655f65 	0x655f65
     ce0:	6f736572 	0x6f736572
     ce4:	65637275 	0x65637275
     ce8:	6d75735f 	0x6d75735f
     cec:	73657200 	0x73657200
     cf0:	756f7267 	jalx	5bdc99c <_init-0x62c23664>
     cf4:	65725f70 	0x65725f70
     cf8:	72756f73 	0x72756f73
     cfc:	745f6563 	jalx	17d958c <_init-0x67026a74>
     d00:	554d4500 	bnel	t2,t5,12104 <_init-0x687edefc>
     d04:	4154535f 	0x4154535f
     d08:	55525f54 	bnel	t2,s2,18a5c <_init-0x687e75a4>
     d0c:	4e494e4e 	c3	0x494e4e
     d10:	74720047 	jalx	1c8011c <_init-0x66b7fee4>
     d14:	61645f63 	0x61645f63
     d18:	745f6574 	jalx	17d95d0 <_init-0x67026a30>
     d1c:	6a646100 	0x6a646100
     d20:	6d69745f 	0x6d69745f
     d24:	6f6d5f65 	0x6f6d5f65
     d28:	655f6564 	0x655f6564
     d2c:	53554600 	beql	k0,s5,12530 <_init-0x687edad0>
     d30:	5f4e4f49 	0x5f4e4f49
     d34:	00545050 	0x545050
     d38:	63617073 	0x63617073
     d3c:	55460065 	bnel	t2,a2,ed4 <_init-0x687ff12c>
     d40:	4e4f4953 	c3	0x4f4953
     d44:	524f4e5f 	beql	s2,t7,146c4 <_init-0x687eb93c>
     d48:	004c414d 	break	0x4c,0x105
     d4c:	626f6c67 	0x626f6c67
     d50:	735f6c61 	0x735f6c61
     d54:	00657a69 	0x657a69
     d58:	5f727473 	0x5f727473
     d5c:	745f6469 	jalx	17d91a4 <_init-0x67026e5c>
     d60:	656c7469 	0x656c7469
     d64:	4e454d00 	c3	0x454d00
     d68:	45495655 	0x45495655
     d6c:	49505f57 	0x49505f57
     d70:	53494c43 	beql	k0,t1,13e80 <_init-0x687ec180>
     d74:	4e495f54 	c3	0x495f54
     d78:	73004f46 	0x73004f46
     d7c:	656e6563 	0x656e6563
     d80:	6d6f635f 	0x6d6f635f
     d84:	006e6f6d 	0x6e6f6d
     d88:	69646f6e 	0x69646f6e
     d8c:	735f6b73 	0x735f6b73
     d90:	61007274 	0x61007274
     d94:	73756a64 	0x73756a64
     d98:	72705f74 	0x72705f74
     d9c:	74617669 	jalx	185d9a4 <_init-0x66fa265c>
     da0:	00735f65 	0x735f65
     da4:	47444957 	c1	0x1444957
     da8:	535f5445 	beql	k0,ra,15ec0 <_init-0x687ea140>
     dac:	4d5f4749 	0x4d5f4749
     db0:	56554e45 	bnel	s2,s5,146c8 <_init-0x687eb938>
     db4:	5f574549 	0x5f574549
     db8:	45435845 	0x45435845
     dbc:	4c5f4445 	0x4c5f4445
     dc0:	00545341 	0x545341
     dc4:	5f746573 	0x5f746573
     dc8:	00727473 	tltu	v1,s2,0x1d1
     dcc:	74697865 	jalx	1a5e194 <_init-0x66da1e6c>
     dd0:	7079745f 	udi15	v1,t9,t6,0x11
     dd4:	72740065 	0x72740065
     dd8:	73006575 	0x73006575
     ddc:	656e6563 	0x656e6563
     de0:	7200745f 	udi15	s0,zero,t6,0x11
     de4:	756f7365 	jalx	5bdcd94 <_init-0x62c2326c>
     de8:	5f656372 	0x5f656372
     dec:	6f630073 	0x6f630073
     df0:	6e6f6d6d 	0x6e6f6d6d
     df4:	6563735f 	0x6563735f
     df8:	6400656e 	0x6400656e
     dfc:	63657269 	0x63657269
     e00:	55460074 	bnel	t2,a2,fd4 <_init-0x687ff02c>
     e04:	4e4f4953 	c3	0x4f4953
     e08:	4441465f 	0x4441465f
     e0c:	69770045 	0x69770045
     e10:	74656764 	jalx	1959d90 <_init-0x66ea6270>
     e14:	6769735f 	0x6769735f
     e18:	6169645f 	0x6169645f
     e1c:	5f676f6c 	0x5f676f6c
     e20:	64700065 	0x64700065
     e24:	00617461 	0x617461
     e28:	766e6163 	jalx	9b9858c <_init-0x5ec67a74>
     e2c:	695f7361 	0x695f7361
     e30:	49570064 	0x49570064
     e34:	54454744 	bnel	v0,a1,12b48 <_init-0x687ed4b8>
     e38:	4749535f 	c1	0x149535f
     e3c:	4145485f 	0x4145485f
     e40:	52414244 	beql	s2,at,11754 <_init-0x687ee8ac>
     e44:	4c554e5f 	0x4c554e5f
     e48:	5546004c 	bnel	t2,a2,f7c <_init-0x687ff084>
     e4c:	4e4f4953 	c3	0x4f4953
     e50:	4341425f 	c0	0x141425f
     e54:	5241574b 	beql	s2,at,16b84 <_init-0x687e947c>
     e58:	655f0044 	0x655f0044
     e5c:	69645f6d 	0x69645f6d
     e60:	73696c72 	0x73696c72
     e64:	62635f74 	0x62635f74
     e68:	756d6500 	jalx	5b59400 <_init-0x62ca6c00>
     e6c:	6174735f 	0x6174735f
     e70:	46006574 	c1	0x6574
     e74:	4f495355 	c3	0x1495355
     e78:	41575f4e 	0x41575f4e
     e7c:	57004556 	bnezl	t8,123d8 <_init-0x687edc28>
     e80:	45474449 	0x45474449
     e84:	49535f54 	0x49535f54
     e88:	534d5f47 	beql	k0,t5,18ba8 <_init-0x687e7458>
     e8c:	584f4247 	0x584f4247
     e90:	4955515f 	0x4955515f
     e94:	69740054 	0x69740054
     e98:	6d5f656d 	0x6d5f656d
     e9c:	0065646f 	0x65646f
     ea0:	5f727563 	0x5f727563
     ea4:	006c6176 	tne	v1,t4,0x185
     ea8:	554e454d 	bnel	t2,t6,123e0 <_init-0x687edc20>
     eac:	57454956 	bnel	k0,a1,13408 <_init-0x687ecbf8>
     eb0:	4e454d5f 	c3	0x454d5f
     eb4:	53494c55 	beql	k0,t1,1400c <_init-0x687ebff4>
     eb8:	43495f54 	c0	0x1495f54
     ebc:	66004e4f 	0x66004e4f
     ec0:	64746e6f 	0x64746e6f
     ec4:	48007365 	0x48007365
     ec8:	42444145 	c0	0x444145
     ecc:	545f5241 	bnel	v0,ra,157d4 <_init-0x687ea82c>
     ed0:	5f455059 	0x5f455059
     ed4:	4d524f4e 	0x4d524f4e
     ed8:	74004c41 	jalx	13104 <_init-0x687ecefc>
     edc:	736e6172 	0x736e6172
     ee0:	65726170 	0x65726170
     ee4:	0065636e 	0x65636e
     ee8:	6e656373 	0x6e656373
     eec:	65725f65 	0x65725f65
     ef0:	6e727574 	0x6e727574
     ef4:	5700655f 	bnezl	t8,1a474 <_init-0x687e5b8c>
     ef8:	45474449 	0x45474449
     efc:	49535f54 	0x49535f54
     f00:	454d5f47 	0x454d5f47
     f04:	4956554e 	0x4956554e
     f08:	555f5745 	bnel	t2,ra,16c20 <_init-0x687e93e0>
     f0c:	54414450 	bnel	v0,at,12050 <_init-0x687edfb0>
     f10:	4c415f45 	0x4c415f45
     f14:	656d004c 	0x656d004c
     f18:	735f756e 	0x735f756e
     f1c:	6e656d00 	0x6e656d00
     f20:	00745f75 	0x745f75
     f24:	47444957 	c1	0x1444957
     f28:	535f5445 	beql	k0,ra,16040 <_init-0x687e9fc0>
     f2c:	4d5f4749 	0x4d5f4749
     f30:	56554e45 	bnel	s2,s5,14848 <_init-0x687eb7b8>
     f34:	5f574549 	0x5f574549
     f38:	524f4853 	beql	s2,t7,13088 <_init-0x687ecf78>
     f3c:	454d5f54 	0x454d5f54
     f40:	5700554e 	bnezl	t8,1647c <_init-0x687e9b84>
     f44:	45474449 	0x45474449
     f48:	49535f54 	0x49535f54
     f4c:	454d5f47 	0x454d5f47
     f50:	4956554e 	0x4956554e
     f54:	4c5f5745 	0x4c5f5745
     f58:	5f474e4f 	0x5f474e4f
     f5c:	554e454d 	bnel	t2,t6,12494 <_init-0x687edb6c>
     f60:	69757100 	0x69757100
     f64:	74735f74 	jalx	1cd7dd0 <_init-0x66b28230>
     f68:	65720072 	0x65720072
     f6c:	72617473 	0x72617473
     f70:	74735f74 	jalx	1cd7dd0 <_init-0x66b28230>
     f74:	6c670072 	0x6c670072
     f78:	6c61626f 	0x6c61626f
     f7c:	66666f5f 	0x66666f5f
     f80:	00746573 	tltu	v1,s4,0x195
     f84:	65766173 	0x65766173
     f88:	7274735f 	udi15	s3,s4,t6,0xd
     f8c:	53554600 	beql	k0,s5,12790 <_init-0x687ed870>
     f90:	5f4e4f49 	0x5f4e4f49
     f94:	41544f52 	0x41544f52
     f98:	57004554 	bnezl	t8,124ec <_init-0x687edb14>
     f9c:	45474449 	0x45474449
     fa0:	49535f54 	0x49535f54
     fa4:	534d5f47 	beql	k0,t5,18cc4 <_init-0x687e733c>
     fa8:	584f4247 	0x584f4247
     fac:	4f48535f 	c3	0x148535f
     fb0:	4f4c5f57 	c3	0x14c5f57
     fb4:	4f505f57 	c3	0x1505f57
     fb8:	5f524557 	0x5f524557
     fbc:	534f4855 	beql	k0,t7,13114 <_init-0x687eceec>
     fc0:	6e690054 	0x6e690054
     fc4:	64657469 	0x64657469
     fc8:	72756300 	0x72756300
     fcc:	746e6572 	jalx	1b995c8 <_init-0x66c66a38>
     fd0:	44495700 	0x44495700
     fd4:	5f544547 	0x5f544547
     fd8:	5f474953 	0x5f474953
     fdc:	4c524944 	0x4c524944
     fe0:	5f545349 	0x5f545349
     fe4:	54495551 	bnel	v0,t1,1652c <_init-0x687e9ad4>
     fe8:	53554600 	beql	k0,s5,127ec <_init-0x687ed814>
     fec:	5f4e4f49 	0x5f4e4f49
     ff0:	45444f4d 	0x45444f4d
     ff4:	58414d5f 	0x58414d5f
     ff8:	4e454d00 	c3	0x454d00
     ffc:	45495655 	0x45495655
    1000:	454d5f57 	0x454d5f57
    1004:	494c554e 	0x494c554e
    1008:	545f5453 	bnel	v0,ra,16158 <_init-0x687e9ea8>
    100c:	00545845 	0x545845
    1010:	61746f74 	0x61746f74
    1014:	4944006c 	0x4944006c
    1018:	474f4c41 	c1	0x14f4c41
    101c:	4145485f 	0x4145485f
    1020:	4f4c5f44 	c3	0x14c5f44
    1024:	54414257 	bnel	v0,at,11984 <_init-0x687ee67c>
    1028:	52494400 	beql	s2,t1,1202c <_init-0x687edfd4>
    102c:	5453494c 	bnel	v0,s3,13560 <_init-0x687ecaa0>
    1030:	4645445f 	c1	0x45445f
    1034:	544c5541 	bnel	v0,t4,1653c <_init-0x687e9ac4>
    1038:	76617300 	jalx	985cc00 <_init-0x5efa3400>
    103c:	6c694665 	0x6c694665
    1040:	74615065 	jalx	1854194 <_init-0x66fabe6c>
    1044:	64610068 	0x64610068
    1048:	7473756a 	jalx	1cdd5a8 <_init-0x66b22a58>
    104c:	7974735f 	0x7974735f
    1050:	655f656c 	0x655f656c
    1054:	72687400 	0x72687400
    1058:	5f646165 	0x5f646165
    105c:	73697865 	0x73697865
    1060:	72740074 	0x72740074
    1064:	5f736e61 	0x5f736e61
    1068:	65726964 	0x65726964
    106c:	745f7463 	jalx	17dd18c <_init-0x67022e74>
    1070:	72696400 	0x72696400
    1074:	7473696c 	jalx	1cda5b0 <_init-0x66b25a50>
    1078:	696e695f 	0x696e695f
    107c:	00745f74 	teq	v1,s4,0x17d
    1080:	4c524944 	0x4c524944
    1084:	5f545349 	0x5f545349
    1088:	544f4850 	bnel	v0,t7,131cc <_init-0x687ece34>
    108c:	6762004f 	0x6762004f
    1090:	7469625f 	jalx	1a5897c <_init-0x66da7684>
    1094:	5f70616d 	0x5f70616d
    1098:	6f666e69 	0x6f666e69
    109c:	72747300 	0x72747300
    10a0:	0064695f 	0x64695f
    10a4:	44414548 	0x44414548
    10a8:	5f524142 	0x5f524142
    10ac:	45505954 	0x45505954
    10b0:	58414d5f 	0x58414d5f
    10b4:	72756300 	0x72756300
    10b8:	6e656d5f 	0x6e656d5f
    10bc:	64610075 	0x64610075
    10c0:	7473756a 	jalx	1cdd5a8 <_init-0x66b22a58>
    10c4:	7865745f 	0x7865745f
    10c8:	67696474 	0x67696474
    10cc:	695f7469 	0x695f7469
    10d0:	5f74696e 	0x5f74696e
    10d4:	69770074 	0x69770074
    10d8:	00687464 	0x687464
    10dc:	52646c6f 	beql	s3,a0,1c29c <_init-0x687e3d64>
    10e0:	69466d6f 	0x69466d6f
    10e4:	4600656c 	c1	0x656c
    10e8:	4f495355 	c3	0x1495355
    10ec:	48435f4e 	0x48435f4e
    10f0:	004b4345 	0x4b4345
    10f4:	6e656373 	0x6e656373
    10f8:	6d655f65 	0x6d655f65
    10fc:	74616c75 	jalx	185b1d4 <_init-0x66fa4e2c>
    1100:	745f726f 	jalx	17dc9bc <_init-0x67023644>
    1104:	61656800 	0x61656800
    1108:	72616264 	0x72616264
    110c:	7079745f 	udi15	v1,t9,t6,0x11
    1110:	00655f65 	0x655f65
    1114:	74696e69 	jalx	1a5b9a4 <_init-0x66da465c>
    1118:	7461705f 	jalx	185c17c <_init-0x66fa3e84>
    111c:	616e5f68 	0x616e5f68
    1120:	6400656d 	0x6400656d
    1124:	696c7269 	0x696c7269
    1128:	705f7473 	0x705f7473
    112c:	61766972 	0x61766972
    1130:	645f6574 	0x645f6574
    1134:	5f617461 	0x5f617461
    1138:	49440073 	0x49440073
    113c:	474f4c41 	c1	0x14f4c41
    1140:	4145485f 	0x4145485f
    1144:	414d5f44 	0x414d5f44
    1148:	49570058 	0x49570058
    114c:	54454744 	bnel	v0,a1,12e60 <_init-0x687ed1a0>
    1150:	4749535f 	c1	0x149535f
    1154:	4e454d5f 	c3	0x454d5f
    1158:	45495655 	0x45495655
    115c:	45445f57 	0x45445f57
    1160:	4554454c 	0x4554454c
    1164:	73657200 	0x73657200
    1168:	6372756f 	0x6372756f
    116c:	49570065 	0x49570065
    1170:	54454744 	bnel	v0,a1,12e84 <_init-0x687ed17c>
    1174:	4749535f 	c1	0x149535f
    1178:	47534d5f 	c1	0x1534d5f
    117c:	5f584f42 	0x5f584f42
    1180:	475f4c50 	c1	0x15f4c50
    1184:	4c5f4e45 	0x4c5f4e45
    1188:	434e5541 	c0	0x14e5541
    118c:	00444548 	0x444548
    1190:	5f727473 	0x5f727473
    1194:	5f78616d 	0x5f78616d
    1198:	68006469 	0x68006469
    119c:	62646165 	0x62646165
    11a0:	735f7261 	0x735f7261
    11a4:	61656800 	0x61656800
    11a8:	72616264 	0x72616264
    11ac:	4100745f 	bc0f	1e32c <_init-0x687e1cd4>
    11b0:	535f4a44 	beql	k0,ra,13ac4 <_init-0x687ec53c>
    11b4:	454c5954 	0x454c5954
    11b8:	4d49545f 	0x4d49545f
    11bc:	454d0045 	0x454d0045
    11c0:	4956554e 	0x4956554e
    11c4:	4f5f5745 	c3	0x15f5745
    11c8:	4f495450 	c3	0x1495450
    11cc:	4e495f4e 	c3	0x495f4e
    11d0:	66004f46 	0x66004f46
    11d4:	74737269 	jalx	1cdc9a4 <_init-0x66b2365c>
    11d8:	6576654c 	0x6576654c
    11dc:	6e654d6c 	0x6e654d6c
    11e0:	68730075 	0x68730075
    11e4:	6153776f 	0x6153776f
    11e8:	74496576 	jalx	12595d8 <_init-0x675a6a28>
    11ec:	45006d65 	bc1f	1c784 <_init-0x687e387c>
    11f0:	414c554d 	0x414c554d
    11f4:	5f524f54 	0x5f524f54
    11f8:	4e454353 	c3	0x454353
    11fc:	45525f45 	0x45525f45
    1200:	4e525554 	c3	0x525554
    1204:	52494400 	beql	s2,t1,12208 <_init-0x687eddf8>
    1208:	5453494c 	bnel	v0,s3,1373c <_init-0x687ec8c4>
    120c:	4f42455f 	c3	0x142455f
    1210:	73004b4f 	0x73004b4f
    1214:	00706574 	teq	v1,s0,0x195
    1218:	756e656d 	jalx	5b995b4 <_init-0x62c66a4c>
    121c:	77656976 	jalx	d95a5d8 <_init-0x5aea5a28>
    1220:	6769735f 	0x6769735f
    1224:	6c00655f 	0x6c00655f
    1228:	5f64616f 	0x5f64616f
    122c:	00727473 	tltu	v1,s2,0x1d1
    1230:	4e79656b 	c3	0x79656b
    1234:	00656d61 	0x656d61
    1238:	5f59454b 	0x5f59454b
    123c:	454d4143 	0x454d4143
    1240:	5f004152 	bgtzl	t8,1178c <_init-0x687ee874>
    1244:	65727573 	0x65727573
    1248:	646f6d5f 	0x646f6d5f
    124c:	5f796669 	0x5f796669
    1250:	5f676c64 	0x5f676c64
    1254:	6b006263 	0x6b006263
    1258:	655f7965 	0x655f7965
    125c:	746e6576 	jalx	1b995d8 <_init-0x66c66a28>
    1260:	5f00745f 	bgtzl	t8,1e3e0 <_init-0x687e1c20>
    1264:	65727573 	0x65727573
    1268:	646f6d5f 	0x646f6d5f
    126c:	5f796669 	0x5f796669
    1270:	00676c64 	0x676c64
    1274:	5f79656b 	0x5f79656b
    1278:	6e657665 	0x6e657665
    127c:	454b0074 	0x454b0074
    1280:	45525f59 	0x45525f59
    1284:	53524556 	beql	k0,s2,127e0 <_init-0x687ed820>
    1288:	00303145 	0x303145
    128c:	5f59454b 	0x5f59454b
    1290:	45564552 	0x45564552
    1294:	31455352 	andi	a1,t2,0x5352
    1298:	454b0031 	0x454b0031
    129c:	45525f59 	0x45525f59
    12a0:	53524556 	beql	k0,s2,127fc <_init-0x687ed804>
    12a4:	00323145 	0x323145
    12a8:	5f59454b 	0x5f59454b
    12ac:	45564552 	0x45564552
    12b0:	31455352 	andi	a1,t2,0x5352
    12b4:	454b0033 	0x454b0033
    12b8:	45525f59 	0x45525f59
    12bc:	53524556 	beql	k0,s2,12818 <_init-0x687ed7e8>
    12c0:	00343145 	0x343145
    12c4:	5f59454b 	0x5f59454b
    12c8:	45564552 	0x45564552
    12cc:	31455352 	andi	a1,t2,0x5352
    12d0:	69620036 	0x69620036
    12d4:	70616d74 	0x70616d74
    12d8:	65746900 	0x65746900
    12dc:	62635f6d 	0x62635f6d
    12e0:	6b00745f 	0x6b00745f
    12e4:	6e5f7965 	0x6e5f7965
    12e8:	00656d61 	0x656d61
    12ec:	6f666e69 	0x6f666e69
    12f0:	6e690031 	0x6e690031
    12f4:	00326f66 	0x326f66
    12f8:	676c645f 	0x676c645f
    12fc:	6d6f635f 	0x6d6f635f
    1300:	5f6e6f6d 	0x5f6e6f6d
    1304:	74697865 	jalx	1a5e194 <_init-0x66da1e6c>
    1308:	64697600 	0x64697600
    130c:	6d5f6f65 	0x6d5f6f65
    1310:	0065646f 	0x65646f
    1314:	72756f66 	0x72756f66
    1318:	654c6874 	0x654c6874
    131c:	4d6c6576 	nmadd.ps	$f21,$f11,$f12,$f12
    1320:	00756e65 	0x756e65
    1324:	5f59454b 	0x5f59454b
    1328:	55544552 	bnel	t2,s4,12874 <_init-0x687ed78c>
    132c:	68004e52 	0x68004e52
    1330:	635f7361 	0x635f7361
    1334:	646c6968 	0x646c6968
    1338:	59454b00 	0x59454b00
    133c:	4c554e5f 	0x4c554e5f
    1340:	675f004c 	0x675f004c
    1344:	6b5f7465 	0x6b5f7465
    1348:	6e5f7965 	0x6e5f7965
    134c:	5f656d61 	0x5f656d61
    1350:	6d6f7266 	0x6d6f7266
    1354:	79656b5f 	0x79656b5f
    1358:	0070616d 	0x70616d
    135c:	665f6d65 	0x665f6d65
    1360:	7472756f 	jalx	1c9d5bc <_init-0x66b62a44>
    1364:	656c5f68 	0x656c5f68
    1368:	5f6c6576 	0x5f6c6576
    136c:	756e656d 	jalx	5b995b4 <_init-0x62c66a4c>
    1370:	4b00632e 	c2	0x100632e
    1374:	545f5945 	bnel	v0,ra,1788c <_init-0x687e8774>
    1378:	54554f56 	bnel	v0,s5,150d4 <_init-0x687eaf2c>
    137c:	59454b00 	0x59454b00
    1380:	4c45445f 	0x4c45445f
    1384:	00455445 	0x455445
    1388:	5f79656b 	0x5f79656b
    138c:	5f6c6176 	0x5f6c6176
    1390:	454b0065 	0x454b0065
    1394:	59545f59 	0x59545f59
    1398:	415f4550 	0x415f4550
    139c:	4b004c4c 	c2	0x1004c4c
    13a0:	545f5945 	bnel	v0,ra,178b8 <_init-0x687e8748>
    13a4:	5f455059 	0x5f455059
    13a8:	4c4c554e 	0x4c4c554e
    13ac:	64756100 	0x64756100
    13b0:	655f6f69 	0x655f6f69
    13b4:	6c62616e 	0x6c62616e
    13b8:	454b0065 	0x454b0065
    13bc:	4f4c5f59 	c3	0x14c5f59
    13c0:	65004b43 	0x65004b43
    13c4:	635f756d 	0x635f756d
    13c8:	695f6766 	0x695f6766
    13cc:	006f666e 	0x6f666e
    13d0:	5f6d655f 	0x5f6d655f
    13d4:	72756f66 	0x72756f66
    13d8:	6c5f6874 	0x6c5f6874
    13dc:	6c657665 	0x6c657665
    13e0:	6e656d5f 	0x6e656d5f
    13e4:	6e695f75 	0x6e695f75
    13e8:	64007469 	0x64007469
    13ec:	695f676c 	0x695f676c
    13f0:	0074696e 	0x74696e
    13f4:	72756f66 	0x72756f66
    13f8:	6c5f6874 	0x6c5f6874
    13fc:	6c657665 	0x6c657665
    1400:	6574695f 	0x6574695f
    1404:	7400736d 	jalx	1cdb4 <_init-0x687e324c>
    1408:	00706d65 	0x706d65
    140c:	5f59454b 	0x5f59454b
    1410:	5458454e 	bnel	v0,t8,1294c <_init-0x687ed6b4>
    1414:	756d6500 	jalx	5b59400 <_init-0x62ca6c00>
    1418:	6e6f635f 	0x6e6f635f
    141c:	5f676966 	0x5f676966
    1420:	6f666e69 	0x6f666e69
    1424:	4b00745f 	c2	0x100745f
    1428:	545f5945 	bnel	v0,ra,17940 <_init-0x687e86c0>
    142c:	5f455059 	0x5f455059
    1430:	444c4f48 	0x444c4f48
    1434:	0050555f 	0x50555f
    1438:	756e656d 	jalx	5b995b4 <_init-0x62c66a4c>
    143c:	6d657469 	0x6d657469
    1440:	7400735f 	jalx	1cd7c <_init-0x687e3284>
    1444:	00747865 	0x747865
    1448:	6e676973 	0x6e676973
    144c:	4b006c61 	c2	0x1006c61
    1450:	545f5945 	bnel	v0,ra,17968 <_init-0x687e8698>
    1454:	5f455059 	0x5f455059
    1458:	474e4f4c 	c1	0x14e4f4c
    145c:	6d655f00 	0x6d655f00
    1460:	756f665f 	jalx	5bd997c <_init-0x62c26684>
    1464:	5f687472 	0x5f687472
    1468:	6576656c 	0x6576656c
    146c:	656d5f6c 	0x656d5f6c
    1470:	645f756e 	0x645f756e
    1474:	696e6965 	0x696e6965
    1478:	655f0074 	0x655f0074
    147c:	6f665f6d 	0x6f665f6d
    1480:	68747275 	0x68747275
    1484:	76656c5f 	jalx	995b17c <_init-0x5eea4e84>
    1488:	6d5f6c65 	0x6d5f6c65
    148c:	5f756e65 	0x5f756e65
    1490:	74697865 	jalx	1a5e194 <_init-0x66da1e6c>
    1494:	6d657400 	0x6d657400
    1498:	74735f70 	jalx	1cd7dc0 <_init-0x66b28240>
    149c:	74620072 	jalx	18801c8 <_init-0x66f7fe38>
    14a0:	616d5f6e 	0x616d5f6e
    14a4:	6d5f0070 	0x6d5f0070
    14a8:	69756e65 	0x69756e65
    14ac:	5f6d6574 	0x5f6d6574
    14b0:	6c6c6163 	0x6c6c6163
    14b4:	6b636162 	0x6b636162
    14b8:	61696400 	0x61696400
    14bc:	5f676f6c 	0x5f676f6c
    14c0:	74696e69 	jalx	1a5b9a4 <_init-0x66da465c>
    14c4:	6400745f 	0x6400745f
    14c8:	735f6665 	0x735f6665
    14cc:	4b006c65 	c2	0x1006c65
    14d0:	545f5945 	bnel	v0,ra,179e8 <_init-0x687e8618>
    14d4:	5f455059 	0x5f455059
    14d8:	474e4f4c 	c1	0x14e4f4c
    14dc:	0050555f 	0x50555f
    14e0:	5f59454b 	0x5f59454b
    14e4:	45505954 	0x45505954
    14e8:	4c4f485f 	0x4c4f485f
    14ec:	656d0044 	0x656d0044
    14f0:	7469756e 	jalx	1a5d5b8 <_init-0x66da2a48>
    14f4:	745f6d65 	jalx	17db594 <_init-0x67024a6c>
    14f8:	5f6d6500 	0x5f6d6500
    14fc:	72756f66 	0x72756f66
    1500:	6c5f6874 	0x6c5f6874
    1504:	6c657665 	0x6c657665
    1508:	6e656d5f 	0x6e656d5f
    150c:	6e655f75 	0x6e655f75
    1510:	00726574 	teq	v1,s2,0x195
    1514:	5f59454b 	0x5f59454b
    1518:	004c4f56 	0x4c4f56
    151c:	5f59454b 	0x5f59454b
    1520:	554e454d 	bnel	t2,t6,12a58 <_init-0x687ed5a8>
    1524:	59454b00 	0x59454b00
    1528:	5645525f 	bnel	s2,a1,15ea8 <_init-0x687ea158>
    152c:	45535245 	0x45535245
    1530:	454b0037 	0x454b0037
    1534:	45525f59 	0x45525f59
    1538:	53524556 	beql	k0,s2,12a94 <_init-0x687ed56c>
    153c:	5f003945 	bgtzl	t8,fa54 <_init-0x687f05ac>
    1540:	5f746567 	0x5f746567
    1544:	5f79656b 	0x5f79656b
    1548:	656d616e 	0x656d616e
    154c:	6f72665f 	0x6f72665f
    1550:	6d655f6d 	0x6d655f6d
    1554:	61745f75 	0x61745f75
    1558:	6e750062 	0x6e750062
    155c:	5f6c6573 	0x5f6c6573
    1560:	6e6f6369 	0x6e6f6369
    1564:	0064695f 	0x64695f
    1568:	5f59454b 	0x5f59454b
    156c:	45564552 	0x45564552
    1570:	33455352 	andi	a1,k0,0x5352
    1574:	59454b00 	0x59454b00
    1578:	5645525f 	bnel	s2,a1,15ef8 <_init-0x687ea108>
    157c:	45535245 	0x45535245
    1580:	454b0034 	0x454b0034
    1584:	45525f59 	0x45525f59
    1588:	53524556 	beql	k0,s2,12ae4 <_init-0x687ed51c>
    158c:	4b003545 	c2	0x1003545
    1590:	525f5945 	beql	s2,ra,17aa8 <_init-0x687e8558>
    1594:	52455645 	beql	s2,a1,16eac <_init-0x687e9154>
    1598:	00364553 	0x364553
    159c:	5f59454b 	0x5f59454b
    15a0:	45564552 	0x45564552
    15a4:	38455352 	xori	a1,v0,0x5352
    15a8:	59454b00 	0x59454b00
    15ac:	414c505f 	0x414c505f
    15b0:	43414259 	c0	0x1414259
    15b4:	656b004b 	0x656b004b
    15b8:	79745f79 	0x79745f79
    15bc:	655f6570 	0x655f6570
    15c0:	74657300 	jalx	195cc00 <_init-0x66ea3400>
    15c4:	79656b5f 	0x79656b5f
    15c8:	5f70616d 	0x5f70616d
    15cc:	636f7270 	0x636f7270
    15d0:	79656b5f 	0x79656b5f
    15d4:	59454b00 	0x59454b00
    15d8:	5059545f 	beql	v0,t9,16758 <_init-0x687e98a8>
    15dc:	48535f45 	0x48535f45
    15e0:	5f54524f 	0x5f54524f
    15e4:	6b005055 	0x6b005055
    15e8:	765f7965 	jalx	97de594 <_init-0x5f021a6c>
    15ec:	65756c61 	0x65756c61
    15f0:	59454b00 	0x59454b00
    15f4:	5059545f 	beql	v0,t9,16774 <_init-0x687e988c>
    15f8:	4f445f45 	c3	0x1445f45
    15fc:	4b004e57 	c2	0x1004e57
    1600:	565f5945 	bnel	s2,ra,17b18 <_init-0x687e84e8>
    1604:	00444441 	0x444441
    1608:	5f59454b 	0x5f59454b
    160c:	4b004b4f 	c2	0x1004b4f
    1610:	565f5945 	bnel	s2,ra,17b28 <_init-0x687e84d8>
    1614:	00425553 	0x425553
    1618:	5f59454b 	0x5f59454b
    161c:	56455250 	bnel	s2,a1,15f60 <_init-0x687ea0a0>
    1620:	72655f00 	0x72655f00
    1624:	6e695f72 	0x6e695f72
    1628:	645f6f66 	0x645f6f66
    162c:	7300676c 	0x7300676c
    1630:	74726174 	jalx	1c985d0 <_init-0x66b67a30>
    1634:	4679625f 	c1	0x79625f
    1638:	4e656c69 	msub.d	$f17,$f19,$f13,$f5
    163c:	00697661 	0x697661
    1640:	6975715f 	0x6975715f
    1644:	61675f74 	0x61675f74
    1648:	615f656d 	0x615f656d
    164c:	5f007070 	bgtzl	t8,1d810 <_init-0x687e27f0>
    1650:	5f727265 	0x5f727265
    1654:	6f666e69 	0x6f666e69
    1658:	676c645f 	0x676c645f
    165c:	0062635f 	0x62635f
    1660:	6f636573 	0x6f636573
    1664:	654c646e 	0x654c646e
    1668:	4d6c6576 	nmadd.ps	$f21,$f11,$f12,$f12
    166c:	00756e65 	0x756e65
    1670:	6574695f 	0x6574695f
    1674:	65735f6d 	0x65735f6d
    1678:	6e697474 	0x6e697474
    167c:	72705f67 	0x72705f67
    1680:	5f00636f 	bgtzl	t8,1a440 <_init-0x687e5bc0>
    1684:	6e75665f 	0x6e75665f
    1688:	005f5f63 	0x5f5f63
    168c:	735f6d65 	0x735f6d65
    1690:	6e6f6365 	0x6e6f6365
    1694:	656c5f64 	0x656c5f64
    1698:	5f6c6576 	0x5f6c6576
    169c:	756e656d 	jalx	5b995b4 <_init-0x62c66a4c>
    16a0:	5f00632e 	bgtzl	t8,1a35c <_init-0x687e5ca4>
    16a4:	6d657469 	0x6d657469
    16a8:	7661735f 	jalx	985cd7c <_init-0x5efa3284>
    16ac:	72705f65 	0x72705f65
    16b0:	7300636f 	0x7300636f
    16b4:	6e6f6365 	0x6e6f6365
    16b8:	656c5f64 	0x656c5f64
    16bc:	5f6c6576 	0x5f6c6576
    16c0:	6d657469 	0x6d657469
    16c4:	655f0073 	0x655f0073
    16c8:	65735f6d 	0x65735f6d
    16cc:	646e6f63 	0x646e6f63
    16d0:	76656c5f 	jalx	995b17c <_init-0x5eea4e84>
    16d4:	6d5f6c65 	0x6d5f6c65
    16d8:	5f756e65 	0x5f756e65
    16dc:	74696e69 	jalx	1a5b9a4 <_init-0x66da465c>
    16e0:	74695f00 	jalx	1a57c00 <_init-0x66da8400>
    16e4:	715f6d65 	0x715f6d65
    16e8:	5f746975 	0x5f746975
    16ec:	636f7270 	0x636f7270
    16f0:	61685f00 	0x61685f00
    16f4:	61735f73 	0x61735f73
    16f8:	5f646576 	0x5f646576
    16fc:	5f676c64 	0x5f676c64
    1700:	5f006263 	bgtzl	t8,1a090 <_init-0x687e5f70>
    1704:	6b636162 	0x6b636162
    1708:	5f6f745f 	0x5f6f745f
    170c:	6c726964 	0x6c726964
    1710:	00747369 	0x747369
    1714:	735f6d65 	0x735f6d65
    1718:	6e6f6365 	0x6e6f6365
    171c:	656c5f64 	0x656c5f64
    1720:	5f6c6576 	0x5f6c6576
    1724:	756e656d 	jalx	5b995b4 <_init-0x62c66a4c>
    1728:	6978655f 	0x6978655f
    172c:	6d650074 	0x6d650074
    1730:	6365735f 	0x6365735f
    1734:	5f646e6f 	0x5f646e6f
    1738:	6576656c 	0x6576656c
    173c:	656d5f6c 	0x656d5f6c
    1740:	655f756e 	0x655f756e
    1744:	7265746e 	0x7265746e
    1748:	74695f00 	jalx	1a57c00 <_init-0x66da8400>
    174c:	725f6d65 	0x725f6d65
    1750:	61747365 	0x61747365
    1754:	705f7472 	0x705f7472
    1758:	00636f72 	tlt	v1,v1,0x1bd
    175c:	6e6f635f 	0x6e6f635f
    1760:	756e6974 	jalx	5b9a5d0 <_init-0x62c65a30>
    1764:	61675f65 	0x61675f65
    1768:	5f00656d 	bgtzl	t8,1ad20 <_init-0x687e52e0>
    176c:	6d657469 	0x6d657469
    1770:	616f6c5f 	0x616f6c5f
    1774:	72705f64 	0x72705f64
    1778:	5f00636f 	bgtzl	t8,1a538 <_init-0x687e5ac8>
    177c:	735f6d65 	0x735f6d65
    1780:	6e6f6365 	0x6e6f6365
    1784:	656c5f64 	0x656c5f64
    1788:	5f6c6576 	0x5f6c6576
    178c:	756e656d 	jalx	5b995b4 <_init-0x62c66a4c>
    1790:	6965645f 	0x6965645f
    1794:	0074696e 	0x74696e
    1798:	5f6d655f 	0x5f6d655f
    179c:	72696874 	0x72696874
    17a0:	656c5f64 	0x656c5f64
    17a4:	5f6c6576 	0x5f6c6576
    17a8:	756e656d 	jalx	5b995b4 <_init-0x62c66a4c>
    17ac:	696e695f 	0x696e695f
    17b0:	6d650074 	0x6d650074
    17b4:	6968745f 	0x6968745f
    17b8:	6c5f6472 	0x6c5f6472
    17bc:	6c657665 	0x6c657665
    17c0:	6e656d5f 	0x6e656d5f
    17c4:	6e655f75 	0x6e655f75
    17c8:	00726574 	teq	v1,s2,0x195
    17cc:	6574695f 	0x6574695f
    17d0:	69645f6d 	0x69645f6d
    17d4:	6d5f7073 	0x6d5f7073
    17d8:	5f65646f 	0x5f65646f
    17dc:	636f7270 	0x636f7270
    17e0:	44495700 	0x44495700
    17e4:	5f544547 	0x5f544547
    17e8:	5f474953 	0x5f474953
    17ec:	554a4441 	bnel	t2,t2,128f4 <_init-0x687ed70c>
    17f0:	535f5453 	beql	k0,ra,16940 <_init-0x687e96c0>
    17f4:	43544957 	c0	0x1544957
    17f8:	004e4f48 	0x4e4f48
    17fc:	756f735f 	jalx	5bdcd7c <_init-0x62c23284>
    1800:	6f5f646e 	0x6f5f646e
    1804:	75707475 	jalx	5c1d1d4 <_init-0x62be2e2c>
    1808:	64615f74 	0x64615f74
    180c:	7473756a 	jalx	1cdd5a8 <_init-0x66b22a58>
    1810:	6469775f 	0x6469775f
    1814:	5f746567 	0x5f746567
    1818:	5f006263 	bgtzl	t8,1a1a8 <_init-0x687e5e58>
    181c:	656c6564 	0x656c6564
    1820:	615f6574 	0x615f6574
    1824:	73756a64 	0x73756a64
    1828:	69775f74 	0x69775f74
    182c:	74656764 	jalx	1959d90 <_init-0x66ea6270>
    1830:	44495700 	0x44495700
    1834:	5f544547 	0x5f544547
    1838:	5f474953 	0x5f474953
    183c:	554a4441 	bnel	t2,t2,12944 <_init-0x687ed6bc>
    1840:	4f5f5453 	c3	0x15f5453
    1844:	695f004b 	0x695f004b
    1848:	5f6d6574 	0x5f6d6574
    184c:	6e756f73 	0x6e756f73
    1850:	72705f64 	0x72705f64
    1854:	5f00636f 	bgtzl	t8,1a614 <_init-0x687e59ec>
    1858:	61657263 	0x61657263
    185c:	735f6574 	0x735f6574
    1860:	646e756f 	0x646e756f
    1864:	74756f5f 	jalx	1d5bd7c <_init-0x66aa4284>
    1868:	5f747570 	0x5f747570
    186c:	756a6461 	jalx	5a99184 <_init-0x62d66e7c>
    1870:	775f7473 	jalx	d7dd1cc <_init-0x5b022e34>
    1874:	65676469 	0x65676469
    1878:	77730074 	jalx	dcc01d0 <_init-0x5ab3fe30>
    187c:	68637469 	0x68637469
    1880:	6c61765f 	0x6c61765f
    1884:	6a646100 	0x6a646100
    1888:	5f747375 	0x5f747375
    188c:	61746164 	0x61746164
    1890:	72635f00 	0x72635f00
    1894:	65746165 	0x65746165
    1898:	7369645f 	udi15	k1,t1,t4,0x11
    189c:	6f6d5f70 	0x6f6d5f70
    18a0:	615f6564 	0x615f6564
    18a4:	73756a64 	0x73756a64
    18a8:	69775f74 	0x69775f74
    18ac:	74656764 	jalx	1959d90 <_init-0x66ea6270>
    18b0:	69687400 	0x69687400
    18b4:	6c5f6472 	0x6c5f6472
    18b8:	6c657665 	0x6c657665
    18bc:	6574695f 	0x6574695f
    18c0:	5700736d 	bnezl	t8,1e678 <_init-0x687e1988>
    18c4:	45474449 	0x45474449
    18c8:	49535f54 	0x49535f54
    18cc:	44415f47 	0x44415f47
    18d0:	5453554a 	bnel	v0,s3,16dfc <_init-0x687e9204>
    18d4:	4957535f 	0x4957535f
    18d8:	4f484354 	c3	0x1484354
    18dc:	57004646 	bnezl	t8,131f8 <_init-0x687ece08>
    18e0:	45474449 	0x45474449
    18e4:	49535f54 	0x49535f54
    18e8:	44415f47 	0x44415f47
    18ec:	5453554a 	bnel	v0,s3,16e18 <_init-0x687e91e8>
    18f0:	4e41435f 	c3	0x41435f
    18f4:	004c4543 	0x4c4543
    18f8:	745f6d65 	jalx	17db594 <_init-0x67024a6c>
    18fc:	64726968 	0x64726968
    1900:	76656c5f 	jalx	995b17c <_init-0x5eea4e84>
    1904:	6d5f6c65 	0x6d5f6c65
    1908:	2e756e65 	sltiu	s5,s3,28261
    190c:	645f0063 	0x645f0063
    1910:	5f707369 	0x5f707369
    1914:	65646f6d 	0x65646f6d
    1918:	6a64615f 	0x6a64615f
    191c:	5f747375 	0x5f747375
    1920:	67646977 	0x67646977
    1924:	635f7465 	0x635f7465
    1928:	64610062 	0x64610062
    192c:	7473756a 	jalx	1cdd5a8 <_init-0x66b22a58>
    1930:	6769735f 	0x6769735f
    1934:	5f6c616e 	0x5f6c616e
    1938:	655f0065 	0x655f0065
    193c:	68745f6d 	0x68745f6d
    1940:	5f647269 	0x5f647269
    1944:	6576656c 	0x6576656c
    1948:	656d5f6c 	0x656d5f6c
    194c:	645f756e 	0x645f756e
    1950:	696e6965 	0x696e6965
    1954:	49570074 	0x49570074
    1958:	54454744 	bnel	v0,a1,1366c <_init-0x687ec994>
    195c:	4749535f 	c1	0x149535f
    1960:	4a44415f 	c2	0x44415f
    1964:	5f545355 	0x5f545355
    1968:	5f005055 	bgtzl	t8,15ac0 <_init-0x687ea540>
    196c:	6d657469 	0x6d657469
    1970:	79656b5f 	0x79656b5f
    1974:	5f70616d 	0x5f70616d
    1978:	636f7270 	0x636f7270
    197c:	6d655f00 	0x6d655f00
    1980:	6968745f 	0x6968745f
    1984:	6c5f6472 	0x6c5f6472
    1988:	6c657665 	0x6c657665
    198c:	6e656d5f 	0x6e656d5f
    1990:	78655f75 	0x78655f75
    1994:	57007469 	bnezl	t8,1eb3c <_init-0x687e14c4>
    1998:	45474449 	0x45474449
    199c:	49535f54 	0x49535f54
    19a0:	44415f47 	0x44415f47
    19a4:	5453554a 	bnel	v0,s3,16ed0 <_init-0x687e9130>
    19a8:	574f445f 	bnel	k0,t7,12b28 <_init-0x687ed4d8>
    19ac:	6874004e 	0x6874004e
    19b0:	4c647269 	msub.d	$f9,$f3,$f14,$f4
    19b4:	6c657665 	0x6c657665
    19b8:	756e654d 	jalx	5b99534 <_init-0x62c66acc>
    19bc:	6e6f6300 	0x6e6f6300
    19c0:	5f676966 	0x5f676966
    19c4:	0062696c 	0x62696c
    19c8:	6e656373 	0x6e656373
    19cc:	61007365 	0x61007365
    19d0:	745f7070 	jalx	17dc1c0 <_init-0x67023e40>
    19d4:	69756700 	0x69756700
    19d8:	62696c5f 	0x62696c5f
    19dc:	6b6c6300 	0x6b6c6300
    19e0:	6d6f645f 	0x6d6f645f
    19e4:	5f6e6961 	0x5f6e6961
    19e8:	74730074 	jalx	1cc01d0 <_init-0x66b3fe30>
    19ec:	696c5f79 	0x696c5f79
    19f0:	6d650062 	0x6d650062
    19f4:	74616c75 	jalx	185b1d4 <_init-0x66fa4e2c>
    19f8:	6d5f726f 	0x6d5f726f
    19fc:	2e6e6961 	sltiu	t6,s3,26977
    1a00:	70610063 	0x70610063
    1a04:	74735f70 	jalx	1cd7dc0 <_init-0x66b28240>
    1a08:	00656c79 	0x656c79
    1a0c:	62696c5f 	0x62696c5f
    1a10:	696e695f 	0x696e695f
    1a14:	70610074 	0x70610074
    1a18:	61645f70 	0x61645f70
    1a1c:	5f006174 	bgtzl	t8,19ff0 <_init-0x687e6010>
    1a20:	6f6c6e75 	0x6f6c6e75
    1a24:	735f6461 	0x735f6461
    1a28:	656c7974 	0x656c7974
    1a2c:	70706100 	0x70706100
    1a30:	5f62696c 	0x5f62696c
    1a34:	0062696c 	0x62696c
    1a38:	6d6d6f63 	0x6d6d6f63
    1a3c:	69756e6f 	0x69756e6f
    1a40:	7974735f 	0x7974735f
    1a44:	6100656c 	0x6100656c
    1a48:	696c7070 	0x696c7070
    1a4c:	6e695f62 	0x6e695f62
    1a50:	715f7469 	0x715f7469
    1a54:	00746975 	0x746975
    1a58:	656c6966 	0x656c6966
    1a5c:	79747300 	0x79747300
    1a60:	735f656c 	0x735f656c
    1a64:	79747300 	0x79747300
    1a68:	745f656c 	jalx	17d95b0 <_init-0x67026a50>
    1a6c:	70706100 	0x70706100
    1a70:	6100735f 	0x6100735f
    1a74:	00636772 	tlt	v1,v1,0x19d
    1a78:	62696c5f 	0x62696c5f
    1a7c:	696e695f 	0x696e695f
    1a80:	72655f74 	0x72655f74
    1a84:	6c5f0072 	0x6c5f0072
    1a88:	645f6269 	0x645f6269
    1a8c:	696e6965 	0x696e6965
    1a90:	61670074 	0x61670074
    1a94:	7954656d 	0x7954656d
    1a98:	61006570 	0x61006570
    1a9c:	695f7070 	0x695f7070
    1aa0:	0074696e 	0x74696e
    1aa4:	69737566 	0x69737566
    1aa8:	6c5f6e6f 	0x6c5f6e6f
    1aac:	61006269 	0x61006269
    1ab0:	645f7070 	0x645f7070
    1ab4:	696e6965 	0x696e6965
    1ab8:	6c5f0074 	0x6c5f0074
    1abc:	5f64616f 	0x5f64616f
    1ac0:	6c797473 	0x6c797473
    1ac4:	6f630065 	0x6f630065
    1ac8:	6e6f6d6d 	0x6e6f6d6d
    1acc:	6c5f6975 	0x6c5f6975
    1ad0:	4d006269 	msub.d	$f9,$f8,$f12,$f0
    1ad4:	4d5f4753 	0x4d5f4753
    1ad8:	49474e45 	0x49474e45
    1adc:	505f454e 	beql	v0,ra,13018 <_init-0x687ecfe8>
    1ae0:	45535541 	0x45535541
    1ae4:	4e59535f 	c3	0x59535f
    1ae8:	534d0043 	beql	k0,t5,1bf8 <_init-0x687fe408>
    1aec:	45535f47 	0x45535f47
    1af0:	454b5f54 	0x454b5f54
    1af4:	4f545f59 	c3	0x1545f59
    1af8:	455f454e 	0x455f454e
    1afc:	4c42414e 	0x4c42414e
    1b00:	534d0045 	beql	k0,t5,1c18 <_init-0x687fe3e8>
    1b04:	4d465f47 	0x4d465f47
    1b08:	49474e45 	0x49474e45
    1b0c:	535f454e 	beql	k0,ra,13048 <_init-0x687ecfb8>
    1b10:	535f5445 	beql	k0,ra,16c28 <_init-0x687e93d8>
    1b14:	00504f54 	0x504f54
    1b18:	5f47534d 	0x5f47534d
    1b1c:	474e454d 	c1	0x14e454d
    1b20:	5f454e49 	0x5f454e49
    1b24:	434e4143 	c0	0x14e4143
    1b28:	465f4c45 	c1	0x5f4c45
    1b2c:	535f4246 	beql	k0,ra,12448 <_init-0x687edbb8>
    1b30:	00434e59 	0x434e59
    1b34:	5f47534d 	0x5f47534d
    1b38:	474e454d 	c1	0x14e454d
    1b3c:	5f454e49 	0x5f454e49
    1b40:	44574646 	0x44574646
    1b44:	4e59535f 	c3	0x59535f
    1b48:	534d0043 	beql	k0,t5,1c58 <_init-0x687fe3a8>
    1b4c:	454d5f47 	0x454d5f47
    1b50:	4e49474e 	c3	0x49474e
    1b54:	54535f45 	bnel	v0,s3,1986c <_init-0x687e6794>
    1b58:	5f545241 	0x5f545241
    1b5c:	535f4241 	beql	k0,ra,12464 <_init-0x687edb9c>
    1b60:	00434e59 	0x434e59
    1b64:	5f47534d 	0x5f47534d
    1b68:	474e454d 	c1	0x14e454d
    1b6c:	5f454e49 	0x5f454e49
    1b70:	5f544553 	0x5f544553
    1b74:	53424646 	beql	k0,v0,13490 <_init-0x687ecb70>
    1b78:	5f504554 	0x5f504554
    1b7c:	434e5953 	c0	0x14e5953
    1b80:	47534d00 	c1	0x1534d00
    1b84:	5445535f 	bnel	v0,a1,16904 <_init-0x687e96fc>
    1b88:	44434c5f 	0x44434c5f
    1b8c:	4341425f 	c0	0x141425f
    1b90:	47494c4b 	c1	0x1494c4b
    1b94:	535f5448 	beql	k0,ra,16cb8 <_init-0x687e9348>
    1b98:	00434e59 	0x434e59
    1b9c:	75746572 	jalx	5d195c8 <_init-0x62ae6a38>
    1ba0:	745f6e72 	jalx	17db9c8 <_init-0x67024638>
    1ba4:	69755f6f 	0x69755f6f
    1ba8:	6f69775f 	0x6f69775f
    1bac:	73776f64 	0x73776f64
    1bb0:	53595300 	beql	k0,t9,167b4 <_init-0x687e984c>
    1bb4:	5f4d4554 	0x5f4d4554
    1bb8:	45534142 	0x45534142
    1bbc:	47534d00 	c1	0x1534d00
    1bc0:	5443415f 	bnel	v0,v1,12140 <_init-0x687edec0>
    1bc4:	5f455649 	0x5f455649
    1bc8:	434e5953 	c0	0x14e5953
    1bcc:	47534d00 	c1	0x1534d00
    1bd0:	4f48535f 	c3	0x148535f
    1bd4:	55435452 	bnel	t2,v1,16d20 <_init-0x687e92e0>
    1bd8:	4c505f54 	0x4c505f54
    1bdc:	41425941 	0x41425941
    1be0:	4d004b43 	bc3f	148f0 <_init-0x687eb710>
    1be4:	415f4753 	0x415f4753
    1be8:	455f5050 	0x455f5050
    1bec:	45544958 	0x45544958
    1bf0:	534d0044 	beql	k0,t5,1d04 <_init-0x687fe2fc>
    1bf4:	4d465f47 	0x4d465f47
    1bf8:	49474e45 	0x49474e45
    1bfc:	455f454e 	0x455f454e
    1c00:	48505241 	0x48505241
    1c04:	5f454e4f 	0x5f454e4f
    1c08:	5f544f4e 	0x5f544f4e
    1c0c:	45534e49 	0x45534e49
    1c10:	4d005452 	bc3f	16d5c <_init-0x687e92a4>
    1c14:	435f4753 	c0	0x15f4753
    1c18:	54414552 	bnel	v0,at,13164 <_init-0x687ece9c>
    1c1c:	5050415f 	beql	v0,s0,1219c <_init-0x687ede64>
    1c20:	47534d00 	c1	0x1534d00
    1c24:	5241435f 	beql	s2,at,129a4 <_init-0x687ed65c>
    1c28:	4e495f44 	c3	0x495f44
    1c2c:	465f5449 	c1	0x5f5449
    1c30:	454c4941 	0x454c4941
    1c34:	534d0044 	beql	k0,t5,1d48 <_init-0x687fe2b8>
    1c38:	45535f47 	0x45535f47
    1c3c:	454b5f54 	0x454b5f54
    1c40:	4f545f59 	c3	0x1545f59
    1c44:	4f5f454e 	c3	0x15f454e
    1c48:	6170004e 	0x6170004e
    1c4c:	4d006172 	bc3f	1a218 <_init-0x687e5de8>
    1c50:	4d5f4753 	0x4d5f4753
    1c54:	49474e45 	0x49474e45
    1c58:	535f454e 	beql	k0,ra,13194 <_init-0x687ece6c>
    1c5c:	415f5445 	0x415f5445
    1c60:	49545f42 	0x49545f42
    1c64:	535f454d 	beql	k0,ra,1319c <_init-0x687ece64>
    1c68:	00434e59 	0x434e59
    1c6c:	41544f52 	0x41544f52
    1c70:	4e4f4954 	c3	0x4f4954
    1c74:	3037325f 	andi	s7,at,0x325f
    1c78:	47534d00 	c1	0x1534d00
    1c7c:	4c494b5f 	0x4c494b5f
    1c80:	53555f4c 	beql	k0,s5,199b4 <_init-0x687e664c>
    1c84:	415f5245 	0x415f5245
    1c88:	5f535050 	0x5f535050
    1c8c:	434e5953 	c0	0x14e5953
    1c90:	47534d00 	c1	0x1534d00
    1c94:	4253555f 	c0	0x53555f
    1c98:	4144415f 	0x4144415f
    1c9c:	524f5450 	beql	s2,t7,16de0 <_init-0x687e9220>
    1ca0:	004e495f 	0x4e495f
    1ca4:	5f47534d 	0x5f47534d
    1ca8:	5f505041 	0x5f505041
    1cac:	54495551 	bnel	v0,t1,171f4 <_init-0x687e8e0c>
    1cb0:	47534d00 	c1	0x1534d00
    1cb4:	5045525f 	beql	v0,a1,16634 <_init-0x687e99cc>
    1cb8:	4e5f594c 	c3	0x5f594c
    1cbc:	45525f4f 	0x45525f4f
    1cc0:	00594c50 	0x594c50
    1cc4:	5f47534d 	0x5f47534d
    1cc8:	474e454d 	c1	0x14e454d
    1ccc:	5f454e49 	0x5f454e49
    1cd0:	59414c50 	0x59414c50
    1cd4:	58454e5f 	0x58454e5f
    1cd8:	59535f54 	0x59535f54
    1cdc:	4d00434e 	bc3f	12a18 <_init-0x687ed5e8>
    1ce0:	4b5f4753 	c2	0x15f4753
    1ce4:	5f4c4c49 	0x5f4c4c49
    1ce8:	52455355 	beql	s2,a1,16a40 <_init-0x687e95c0>
    1cec:	5050415f 	beql	v0,s0,1226c <_init-0x687edd94>
    1cf0:	52435f53 	beql	s2,v1,19a40 <_init-0x687e65c0>
    1cf4:	5f544145 	0x5f544145
    1cf8:	00505041 	0x505041
    1cfc:	6e5f7674 	0x6e5f7674
    1d00:	00636573 	tltu	v1,v1,0x195
    1d04:	61746f72 	0x61746f72
    1d08:	6e6f6974 	0x6e6f6974
    1d0c:	4d00655f 	bc3f	1b28c <_init-0x687e4d74>
    1d10:	555f4753 	bnel	t2,ra,13a60 <_init-0x687ec5a0>
    1d14:	425f4253 	c0	0x5f4253
    1d18:	004e495f 	0x4e495f
    1d1c:	6d79656b 	0x6d79656b
    1d20:	4d006773 	bc3f	1baf0 <_init-0x687e4510>
    1d24:	4d5f4753 	0x4d5f4753
    1d28:	49474e45 	0x49474e45
    1d2c:	535f454e 	beql	k0,ra,13268 <_init-0x687ecd98>
    1d30:	465f5445 	c1	0x5f5445
    1d34:	5f454441 	0x5f454441
    1d38:	434e5953 	c0	0x14e5953
    1d3c:	47534d00 	c1	0x1534d00
    1d40:	4f42455f 	c3	0x142455f
    1d44:	555f4b4f 	bnel	t2,ra,14a84 <_init-0x687eb57c>
    1d48:	54414450 	bnel	v0,at,12e8c <_init-0x687ed174>
    1d4c:	4f545f45 	c3	0x1545f45
    1d50:	5f4c4154 	0x5f4c4154
    1d54:	45474150 	0x45474150
    1d58:	47534d00 	c1	0x1534d00
    1d5c:	4553475f 	0x4553475f
    1d60:	524f534e 	beql	s2,t7,16a9c <_init-0x687e9564>
    1d64:	4148535f 	0x4148535f
    1d68:	0044454b 	0x44454b
    1d6c:	5f47534d 	0x5f47534d
    1d70:	4e454d46 	c3	0x454d46
    1d74:	454e4947 	0x454e4947
    1d78:	5445535f 	bnel	v0,a1,16af8 <_init-0x687e9508>
    1d7c:	5455415f 	bnel	v0,s5,122fc <_init-0x687edd04>
    1d80:	45535f4f 	0x45535f4f
    1d84:	425f4b45 	c0	0x5f4b45
    1d88:	4b414552 	c2	0x1414552
    1d8c:	47534d00 	c1	0x1534d00
    1d90:	4552435f 	0x4552435f
    1d94:	415f5441 	0x415f5441
    1d98:	525f5050 	beql	s2,ra,15edc <_init-0x687ea124>
    1d9c:	4d555345 	0x4d555345
    1da0:	534d0045 	beql	k0,t5,1eb8 <_init-0x687fe148>
    1da4:	4d465f47 	0x4d465f47
    1da8:	49474e45 	0x49474e45
    1dac:	475f454e 	c1	0x15f454e
    1db0:	495f5445 	0x495f5445
    1db4:	004f464e 	0x4f464e
    1db8:	5f47534d 	0x5f47534d
    1dbc:	5f544553 	0x5f544553
    1dc0:	554c4f56 	bnel	t2,t4,15b1c <_init-0x687ea4e4>
    1dc4:	535f454d 	beql	k0,ra,132fc <_init-0x687ecd04>
    1dc8:	00434e59 	0x434e59
    1dcc:	5f47534d 	0x5f47534d
    1dd0:	474e454d 	c1	0x14e454d
    1dd4:	5f454e49 	0x5f454e49
    1dd8:	59414c50 	0x59414c50
    1ddc:	4e59535f 	c3	0x59535f
    1de0:	655f0043 	0x655f0043
    1de4:	616c756d 	0x616c756d
    1de8:	5f726f74 	0x5f726f74
    1dec:	61666564 	0x61666564
    1df0:	5f746c75 	0x5f746c75
    1df4:	74746573 	jalx	1d195cc <_init-0x66ae6a34>
    1df8:	00676e69 	0x676e69
    1dfc:	464e4f43 	c1	0x4e4f43
    1e00:	425f4749 	c0	0x5f4749
    1e04:	00455341 	0x455341
    1e08:	5f47534d 	0x5f47534d
    1e0c:	54534552 	bnel	v0,s3,13358 <_init-0x687ecca8>
    1e10:	5f545241 	0x5f545241
    1e14:	44524148 	0x44524148
    1e18:	5441575f 	bnel	v0,at,17b98 <_init-0x687e8468>
    1e1c:	47444843 	c1	0x1444843
    1e20:	4e59535f 	c3	0x59535f
    1e24:	69740043 	0x69740043
    1e28:	7073656d 	0x7073656d
    1e2c:	4d006365 	bc3f	1abc4 <_init-0x687e543c>
    1e30:	465f4753 	c1	0x5f4753
    1e34:	474e454d 	c1	0x14e454d
    1e38:	5f454e49 	0x5f454e49
    1e3c:	5f544547 	0x5f544547
    1e40:	51455246 	beql	t2,a1,1675c <_init-0x687e98a4>
    1e44:	4f485000 	c3	0x1485000
    1e48:	425f4f54 	c0	0x5f4f54
    1e4c:	00455341 	0x455341
    1e50:	5f47534d 	0x5f47534d
    1e54:	5f544547 	0x5f544547
    1e58:	554c4f56 	bnel	t2,t4,15bb4 <_init-0x687ea44c>
    1e5c:	535f454d 	beql	k0,ra,13394 <_init-0x687ecc6c>
    1e60:	00434e59 	0x434e59
    1e64:	5f47534d 	0x5f47534d
    1e68:	5f425355 	0x5f425355
    1e6c:	54534f48 	bnel	v0,s3,15b90 <_init-0x687ea470>
    1e70:	5349445f 	beql	k0,t1,12ff0 <_init-0x687ed010>
    1e74:	554f5f4b 	bnel	t2,t7,19ba4 <_init-0x687e645c>
    1e78:	534d0054 	beql	k0,t5,1fcc <_init-0x687fe034>
    1e7c:	53555f47 	beql	k0,s5,19b9c <_init-0x687e6464>
    1e80:	4f485f42 	c3	0x1485f42
    1e84:	445f5453 	0x445f5453
    1e88:	5f4b5349 	0x5f4b5349
    1e8c:	54494e49 	bnel	v0,t1,157b4 <_init-0x687ea84c>
    1e90:	4941465f 	0x4941465f
    1e94:	0044454c 	syscall	0x11115
    1e98:	5f47534d 	0x5f47534d
    1e9c:	54495845 	bnel	v0,t1,17fb4 <_init-0x687e804c>
    1ea0:	5243535f 	beql	s2,v1,16c20 <_init-0x687e93e0>
    1ea4:	534e4545 	beql	k0,t6,133bc <_init-0x687ecc44>
    1ea8:	52455641 	beql	s2,a1,177b0 <_init-0x687e8850>
    1eac:	4e59535f 	c3	0x59535f
    1eb0:	534d0043 	beql	k0,t5,1fc0 <_init-0x687fe040>
    1eb4:	494b5f47 	0x494b5f47
    1eb8:	415f4c4c 	0x415f4c4c
    1ebc:	555f4c4c 	bnel	t2,ra,14ff0 <_init-0x687eb010>
    1ec0:	5f524553 	0x5f524553
    1ec4:	53505041 	beql	k0,s0,15fcc <_init-0x687ea034>
    1ec8:	4e59535f 	c3	0x59535f
    1ecc:	534d0043 	beql	k0,t5,1fdc <_init-0x687fe024>
    1ed0:	454d5f47 	0x454d5f47
    1ed4:	4e49474e 	c3	0x49474e
    1ed8:	45535f45 	0x45535f45
    1edc:	42415f54 	c0	0x415f54
    1ee0:	4552505f 	0x4552505f
    1ee4:	59535f56 	0x59535f56
    1ee8:	4d00434e 	bc3f	12c24 <_init-0x687ed3dc>
    1eec:	4c5f4753 	0x4c5f4753
    1ef0:	55474e41 	bnel	t2,a3,157f8 <_init-0x687ea808>
    1ef4:	5f454741 	0x5f454741
    1ef8:	4e414843 	c3	0x414843
    1efc:	00444547 	0x444547
    1f00:	5f756d65 	0x5f756d65
    1f04:	65766173 	0x65766173
    1f08:	47534d00 	c1	0x1534d00
    1f0c:	4f48535f 	c3	0x148535f
    1f10:	55435452 	bnel	t2,v1,1705c <_init-0x687e8fa4>
    1f14:	41435f54 	0x41435f54
    1f18:	4152454d 	0x4152454d
    1f1c:	67736d00 	0x67736d00
    1f20:	79656b5f 	0x79656b5f
    1f24:	7265735f 	udi15	s3,a1,t6,0xd
    1f28:	5f726576 	0x5f726576
    1f2c:	62616e65 	0x62616e65
    1f30:	5200656c 	beqzl	s0,1b4e4 <_init-0x687e4b1c>
    1f34:	5441544f 	bnel	v0,at,17074 <_init-0x687e8f8c>
    1f38:	5f4e4f49 	0x5f4e4f49
    1f3c:	00303831 	tgeu	at,s0,0xe0
    1f40:	5f47534d 	0x5f47534d
    1f44:	544e4f46 	bnel	v0,t6,15c60 <_init-0x687ea3a0>
    1f48:	4148435f 	0x4148435f
    1f4c:	4445474e 	0x4445474e
    1f50:	47534d00 	c1	0x1534d00
    1f54:	5045525f 	beql	v0,a1,168d4 <_init-0x687e972c>
    1f58:	4d5f594c 	0x4d5f594c
    1f5c:	49474e45 	0x49474e45
    1f60:	475f454e 	c1	0x15f454e
    1f64:	535f5445 	beql	k0,ra,1707c <_init-0x687e8f84>
    1f68:	45544154 	0x45544154
    1f6c:	4f54535f 	c3	0x154535f
    1f70:	00444550 	0x444550
    1f74:	5f47534d 	0x5f47534d
    1f78:	524f4853 	beql	s2,t7,140c8 <_init-0x687ebf38>
    1f7c:	54554354 	bnel	v0,s5,12cd0 <_init-0x687ed330>
    1f80:	5445525f 	bnel	v0,a1,16900 <_init-0x687e9700>
    1f84:	004e5255 	0x4e5255
    1f88:	5f47534d 	0x5f47534d
    1f8c:	474e454d 	c1	0x14e454d
    1f90:	5f454e49 	0x5f454e49
    1f94:	5f544553 	0x5f544553
    1f98:	535f5145 	beql	k0,ra,164b0 <_init-0x687e9b50>
    1f9c:	00434e59 	0x434e59
    1fa0:	5f47534d 	0x5f47534d
    1fa4:	4c504552 	0x4c504552
    1fa8:	41465f59 	0x41465f59
    1fac:	44454c49 	0x44454c49
    1fb0:	47534d00 	c1	0x1534d00
    1fb4:	4552435f 	0x4552435f
    1fb8:	415f5441 	0x415f5441
    1fbc:	535f5050 	beql	k0,ra,16100 <_init-0x687e9f00>
    1fc0:	00434e59 	0x434e59
    1fc4:	67736d70 	0x67736d70
    1fc8:	62757300 	0x62757300
    1fcc:	7079745f 	udi15	v1,t9,t6,0x11
    1fd0:	534d0065 	beql	k0,t5,2168 <_init-0x687fde98>
    1fd4:	53555f47 	beql	k0,s5,19cf4 <_init-0x687e630c>
    1fd8:	5f425f42 	0x5f425f42
    1fdc:	0054554f 	0x54554f
    1fe0:	5f47534d 	0x5f47534d
    1fe4:	45534552 	0x45534552
    1fe8:	55415f54 	bnel	t2,at,19d3c <_init-0x687e62c4>
    1fec:	535f4f54 	beql	k0,ra,15d40 <_init-0x687ea2c0>
    1ff0:	444e4154 	0x444e4154
    1ff4:	545f5942 	bnel	v0,ra,18500 <_init-0x687e7b00>
    1ff8:	52454d49 	beql	s2,a1,15520 <_init-0x687eaae0>
    1ffc:	4e59535f 	c3	0x59535f
    2000:	534d0043 	beql	k0,t5,2110 <_init-0x687fdef0>
    2004:	41435f47 	0x41435f47
    2008:	4d5f4452 	0x4d5f4452
    200c:	544e554f 	bnel	v0,t6,1754c <_init-0x687e8ab4>
    2010:	4941465f 	0x4941465f
    2014:	0044454c 	syscall	0x11115
    2018:	5f47534d 	0x5f47534d
    201c:	5559454b 	bnel	t2,t9,1354c <_init-0x687ecab4>
    2020:	434f4c4e 	c0	0x14f4c4e
    2024:	675f004b 	0x675f004b
    2028:	6b5f7465 	0x6b5f7465
    202c:	616e7961 	0x616e7961
    2030:	665f656d 	0x665f656d
    2034:	5f6d6f72 	0x5f6d6f72
    2038:	756c6176 	jalx	5b185d8 <_init-0x62ce7a28>
    203c:	534d0065 	beql	k0,t5,21d4 <_init-0x687fde2c>
    2040:	454d5f47 	0x454d5f47
    2044:	4e49474e 	c3	0x49474e
    2048:	45535f45 	0x45535f45
    204c:	46465f54 	c1	0x465f54
    2050:	4d495442 	0x4d495442
    2054:	59535f45 	0x59535f45
    2058:	4d00434e 	bc3f	12d94 <_init-0x687ed26c>
    205c:	545f4753 	bnel	v0,ra,13dac <_init-0x687ec254>
    2060:	5f4e4956 	0x5f4e4956
    2064:	52414c41 	beql	s2,at,1516c <_init-0x687eae94>
    2068:	4e495f4d 	c3	0x495f4d
    206c:	73656e00 	0x73656e00
    2070:	6b6c635f 	0x6b6c635f
    2074:	6d6f645f 	0x6d6f645f
    2078:	006e6961 	0x6e6961
    207c:	5f47534d 	0x5f47534d
    2080:	4c504552 	0x4c504552
    2084:	454d5f59 	0x454d5f59
    2088:	4e49474e 	c3	0x49474e
    208c:	45475f45 	0x45475f45
    2090:	54535f54 	bnel	v0,s3,19de4 <_init-0x687e621c>
    2094:	5f455441 	0x5f455441
    2098:	59414c50 	0x59414c50
    209c:	00474e49 	0x474e49
    20a0:	5f47534d 	0x5f47534d
    20a4:	44524143 	0x44524143
    20a8:	54554f5f 	bnel	v0,s5,15e28 <_init-0x687ea1d8>
    20ac:	47534d00 	c1	0x1534d00
    20b0:	4e454d5f 	c3	0x454d5f
    20b4:	454e4947 	0x454e4947
    20b8:	4c45445f 	0x4c45445f
    20bc:	5f455445 	0x5f455445
    20c0:	454c4946 	0x454c4946
    20c4:	4e59535f 	c3	0x59535f
    20c8:	736d0043 	0x736d0043
    20cc:	70615f67 	0x70615f67
    20d0:	745f7370 	jalx	17dcdc0 <_init-0x67023240>
    20d4:	67736d00 	0x67736d00
    20d8:	7070615f 	udi15	v1,s0,t4,0x5
    20dc:	79745f73 	0x79745f73
    20e0:	655f6570 	0x655f6570
    20e4:	47534d00 	c1	0x1534d00
    20e8:	5443415f 	bnel	v0,v1,12668 <_init-0x687ed998>
    20ec:	00455649 	0x455649
    20f0:	5f47534d 	0x5f47534d
    20f4:	474e454d 	c1	0x14e454d
    20f8:	5f454e49 	0x5f454e49
    20fc:	5f544553 	0x5f544553
    2100:	5453414c 	bnel	v0,s3,12634 <_init-0x687ed9cc>
    2104:	4c49465f 	0x4c49465f
    2108:	59535f45 	0x59535f45
    210c:	4d00434e 	bc3f	12e48 <_init-0x687ed1b8>
    2110:	465f4753 	c1	0x5f4753
    2114:	474e454d 	c1	0x14e454d
    2118:	5f454e49 	0x5f454e49
    211c:	5f544553 	0x5f544553
    2120:	59414c50 	0x59414c50
    2124:	70657200 	0x70657200
    2128:	5200796c 	beqzl	s0,206dc <_init-0x687df924>
    212c:	5441544f 	bnel	v0,at,1726c <_init-0x687e8d94>
    2130:	5f4e4f49 	0x5f4e4f49
    2134:	6d650030 	0x6d650030
    2138:	6e695f75 	0x6e695f75
    213c:	4d007469 	msub.d	$f17,$f8,$f14,$f0
    2140:	475f4753 	c1	0x15f4753
    2144:	475f5445 	c1	0x15f5445
    2148:	534e4553 	beql	k0,t6,13698 <_init-0x687ec968>
    214c:	525f524f 	beql	s2,ra,16a8c <_init-0x687e9574>
    2150:	5441544f 	bnel	v0,at,17290 <_init-0x687e8d70>
    2154:	5f4e4f49 	0x5f4e4f49
    2158:	434e5953 	c0	0x14e5953
    215c:	47534d00 	c1	0x1534d00
    2160:	4341425f 	c0	0x141425f
    2164:	4f52474b 	c3	0x152474b
    2168:	5f444e55 	0x5f444e55
    216c:	5f434950 	0x5f434950
    2170:	4e414843 	c3	0x414843
    2174:	4d004547 	bc3f	13694 <_init-0x687ec96c>
    2178:	475f4753 	c1	0x15f4753
    217c:	485f5445 	0x485f5445
    2180:	54535f57 	bnel	v0,s3,19ee0 <_init-0x687e6120>
    2184:	53555441 	beql	k0,s5,1728c <_init-0x687e8d74>
    2188:	4e59535f 	c3	0x59535f
    218c:	534d0043 	beql	k0,t5,229c <_init-0x687fdd64>
    2190:	494b5f47 	0x494b5f47
    2194:	555f4c4c 	bnel	t2,ra,152c8 <_init-0x687ead38>
    2198:	5f524553 	0x5f524553
    219c:	53505041 	beql	k0,s0,162a4 <_init-0x687e9d5c>
    21a0:	47534d00 	c1	0x1534d00
    21a4:	5445535f 	bnel	v0,a1,16f24 <_init-0x687e90dc>
    21a8:	5050415f 	beql	v0,s0,12728 <_init-0x687ed8d8>
    21ac:	4341425f 	c0	0x141425f
    21b0:	4f52474b 	c3	0x152474b
    21b4:	00444e55 	0x444e55
    21b8:	5f47534d 	0x5f47534d
    21bc:	4e454d46 	c3	0x454d46
    21c0:	454e4947 	0x454e4947
    21c4:	5445535f 	bnel	v0,a1,16f44 <_init-0x687e90bc>
    21c8:	5455415f 	bnel	v0,s5,12748 <_init-0x687ed8b8>
    21cc:	45535f4f 	0x45535f4f
    21d0:	4d004b45 	bc3f	14ee8 <_init-0x687eb118>
    21d4:	555f4753 	bnel	t2,ra,13f24 <_init-0x687ec0dc>
    21d8:	5445534e 	bnel	v0,a1,16f14 <_init-0x687e90ec>
    21dc:	4645445f 	c1	0x45445f
    21e0:	4e4f465f 	c3	0x4f465f
    21e4:	59535f54 	0x59535f54
    21e8:	4d00434e 	bc3f	12f24 <_init-0x687ed0dc>
    21ec:	465f4753 	c1	0x5f4753
    21f0:	474e454d 	c1	0x14e454d
    21f4:	5f454e49 	0x5f454e49
    21f8:	5f544553 	0x5f544553
    21fc:	45524854 	0x45524854
    2200:	4c4f4853 	0x4c4f4853
    2204:	534d0044 	beql	k0,t5,2318 <_init-0x687fdce8>
    2208:	454d5f47 	0x454d5f47
    220c:	4e49474e 	c3	0x49474e
    2210:	45535f45 	0x45535f45
    2214:	4c505f54 	0x4c505f54
    2218:	4f4d5941 	c3	0x14d5941
    221c:	535f4544 	beql	k0,ra,13730 <_init-0x687ec8d0>
    2220:	00434e59 	0x434e59
    2224:	5f47534d 	0x5f47534d
    2228:	4e455347 	c3	0x455347
    222c:	5f524f53 	0x5f524f53
    2230:	41544f52 	0x41544f52
    2234:	4e4f4954 	c3	0x4f4954
    2238:	4148435f 	0x4148435f
    223c:	4445474e 	0x4445474e
    2240:	63626700 	0x63626700
    2244:	6b6c635f 	0x6b6c635f
    2248:	6d6f645f 	0x6d6f645f
    224c:	006e6961 	0x6e6961
    2250:	696e695f 	0x696e695f
    2254:	736d5f74 	0x736d5f74
    2258:	61686367 	0x61686367
    225c:	6c656e6e 	0x6c656e6e
    2260:	47534d00 	c1	0x1534d00
    2264:	5345525f 	beql	k0,a1,16be4 <_init-0x687e941c>
    2268:	545f5445 	bnel	v0,ra,17380 <_init-0x687e8c80>
    226c:	44454d49 	0x44454d49
    2270:	5548535f 	bnel	t2,t0,16ff0 <_init-0x687e9010>
    2274:	574f4454 	bnel	k0,t7,133c8 <_init-0x687ecc38>
    2278:	59535f4e 	0x59535f4e
    227c:	4d00434e 	bc3f	12fb8 <_init-0x687ed048>
    2280:	535f4753 	beql	k0,ra,13fd0 <_init-0x687ec030>
    2284:	54524f48 	bnel	v0,s2,15fa8 <_init-0x687ea058>
    2288:	5f545543 	0x5f545543
    228c:	454c4544 	0x454c4544
    2290:	4d004554 	bc3f	137e4 <_init-0x687ec81c>
    2294:	4b5f4753 	c2	0x15f4753
    2298:	4f4c5945 	c3	0x14c5945
    229c:	4d004b43 	bc3f	14fac <_init-0x687eb054>
    22a0:	4d5f4753 	0x4d5f4753
    22a4:	49474e45 	0x49474e45
    22a8:	4d5f454e 	0x4d5f454e
    22ac:	5f454b41 	0x5f454b41
    22b0:	4b4f4f42 	c2	0x14f4f42
    22b4:	4b52414d 	c2	0x152414d
    22b8:	4e59535f 	c3	0x59535f
    22bc:	534d0043 	beql	k0,t5,23cc <_init-0x687fdc34>
    22c0:	4d465f47 	0x4d465f47
    22c4:	49474e45 	0x49474e45
    22c8:	475f454e 	c1	0x15f454e
    22cc:	495f5445 	0x495f5445
    22d0:	4e45544e 	c3	0x45544e
    22d4:	59544953 	0x59544953
    22d8:	47534d00 	c1	0x1534d00
    22dc:	4c494b5f 	0x4c494b5f
    22e0:	50415f4c 	beql	v0,at,1a014 <_init-0x687e5fec>
    22e4:	534d0050 	beql	k0,t5,2428 <_init-0x687fdbd8>
    22e8:	45535f47 	0x45535f47
    22ec:	53475f54 	beql	k0,a3,1a040 <_init-0x687e5fc0>
    22f0:	4f534e45 	c3	0x1534e45
    22f4:	4e4f5f52 	c3	0x4f5f52
    22f8:	47534d00 	c1	0x1534d00
    22fc:	5445535f 	bnel	v0,a1,1707c <_init-0x687e8f84>
    2300:	5359535f 	beql	k0,t9,17080 <_init-0x687e8f80>
    2304:	5456455f 	bnel	v0,s6,13884 <_init-0x687ec77c>
    2308:	5445445f 	bnel	v0,a1,13488 <_init-0x687ecb78>
    230c:	5f544345 	0x5f544345
    2310:	535f4e4f 	beql	k0,ra,15c50 <_init-0x687ea3b0>
    2314:	00434e59 	0x434e59
    2318:	5f47534d 	0x5f47534d
    231c:	474e454d 	c1	0x14e454d
    2320:	5f454e49 	0x5f454e49
    2324:	41454c43 	0x41454c43
    2328:	42415f52 	c0	0x415f52
    232c:	4e59535f 	c3	0x59535f
    2330:	6d650043 	0x6d650043
    2334:	74635f75 	jalx	18d7dd4 <_init-0x66f2822c>
    2338:	745f6c72 	jalx	17db1c8 <_init-0x67024e38>
    233c:	47534d00 	c1	0x1534d00
    2340:	5445535f 	bnel	v0,a1,170c0 <_init-0x687e8f40>
    2344:	59454b5f 	0x59454b5f
    2348:	5245535f 	beql	s2,a1,170c8 <_init-0x687e8f38>
    234c:	5f524556 	0x5f524556
    2350:	42414e45 	c0	0x414e45
    2354:	535f454c 	beql	k0,ra,13888 <_init-0x687ec778>
    2358:	00434e59 	0x434e59
    235c:	4e454d46 	c3	0x454d46
    2360:	454e4947 	0x454e4947
    2364:	5341425f 	beql	k0,at,12ce4 <_init-0x687ed31c>
    2368:	534d0045 	beql	k0,t5,2480 <_init-0x687fdb80>
    236c:	45535f47 	0x45535f47
    2370:	48435f54 	0x48435f54
    2374:	45475241 	0x45475241
    2378:	4154535f 	0x4154535f
    237c:	535f5452 	beql	k0,ra,174c8 <_init-0x687e8b38>
    2380:	00434e59 	0x434e59
    2384:	5f47534d 	0x5f47534d
    2388:	474e454d 	c1	0x14e454d
    238c:	5f454e49 	0x5f454e49
    2390:	59414c50 	0x59414c50
    2394:	4552505f 	0x4552505f
    2398:	59535f56 	0x59535f56
    239c:	4d00434e 	bc3f	130d8 <_init-0x687ecf28>
    23a0:	465f4753 	c1	0x5f4753
    23a4:	474e454d 	c1	0x14e454d
    23a8:	5f454e49 	0x5f454e49
    23ac:	5f544553 	0x5f544553
    23b0:	51455246 	beql	t2,a1,16ccc <_init-0x687e9334>
    23b4:	47534d00 	c1	0x1534d00
    23b8:	4f4f425f 	c3	0x14f425f
    23bc:	5f505554 	0x5f505554
    23c0:	494e4946 	0x494e4946
    23c4:	4d004853 	bc3f	14514 <_init-0x687ebaec>
    23c8:	505f4753 	beql	v0,ra,14118 <_init-0x687ebee8>
    23cc:	4f544f48 	c3	0x1544f48
    23d0:	4345445f 	c0	0x145445f
    23d4:	0045444f 	0x45444f
    23d8:	67666370 	0x67666370
    23dc:	47534d00 	c1	0x1534d00
    23e0:	5445535f 	bnel	v0,a1,17160 <_init-0x687e8ea0>
    23e4:	5243535f 	beql	s2,v1,17164 <_init-0x687e8e9c>
    23e8:	534e4545 	beql	k0,t6,13900 <_init-0x687ec700>
    23ec:	52455641 	beql	s2,a1,17cf4 <_init-0x687e830c>
    23f0:	4d49545f 	0x4d49545f
    23f4:	59535f45 	0x59535f45
    23f8:	4d00434e 	bc3f	13134 <_init-0x687ececc>
    23fc:	555f4753 	bnel	t2,ra,1414c <_init-0x687ebeb4>
    2400:	485f4253 	0x485f4253
    2404:	5f54534f 	0x5f54534f
    2408:	4b534944 	c2	0x1534944
    240c:	004e495f 	0x4e495f
    2410:	5f47534d 	0x5f47534d
    2414:	474e454d 	c1	0x14e454d
    2418:	5f454e49 	0x5f454e49
    241c:	5f544553 	0x5f544553
    2420:	435f4241 	c0	0x15f4241
    2424:	544e554f 	bnel	v0,t6,17964 <_init-0x687e869c>
    2428:	4e59535f 	c3	0x59535f
    242c:	534d0043 	beql	k0,t5,253c <_init-0x687fdac4>
    2430:	4e455f47 	c3	0x455f47
    2434:	5f524554 	0x5f524554
    2438:	45524353 	0x45524353
    243c:	41534e45 	0x41534e45
    2440:	5f524556 	0x5f524556
    2444:	434e5953 	c0	0x14e5953
    2448:	65675f00 	0x65675f00
    244c:	656b5f74 	0x656b5f74
    2450:	61765f79 	0x61765f79
    2454:	5f65756c 	0x5f65756c
    2458:	6d6f7266 	0x6d6f7266
    245c:	6d616e5f 	0x6d616e5f
    2460:	6d650065 	0x6d650065
    2464:	78655f75 	0x78655f75
    2468:	4d007469 	msub.d	$f17,$f8,$f14,$f0
    246c:	465f4753 	c1	0x5f4753
    2470:	474e454d 	c1	0x14e454d
    2474:	5f454e49 	0x5f454e49
    2478:	5f544553 	0x5f544553
    247c:	444e4142 	0x444e4142
    2480:	444f4d5f 	0x444f4d5f
    2484:	534d0045 	beql	k0,t5,259c <_init-0x687fda64>
    2488:	4d465f47 	0x4d465f47
    248c:	49474e45 	0x49474e45
    2490:	415f454e 	0x415f454e
    2494:	5f4f5455 	0x5f4f5455
    2498:	4b454553 	c2	0x1454553
    249c:	45564f5f 	0x45564f5f
    24a0:	6d650052 	0x6d650052
    24a4:	65725f75 	0x65725f75
    24a8:	00746573 	tltu	v1,s4,0x195
    24ac:	5f47534d 	0x5f47534d
    24b0:	45574f50 	0x45574f50
    24b4:	464f5f52 	c1	0x4f5f52
    24b8:	534d0046 	beql	k0,t5,25d4 <_init-0x687fda2c>
    24bc:	48535f47 	0x48535f47
    24c0:	4354524f 	c0	0x154524f
    24c4:	545f5455 	bnel	v0,ra,1761c <_init-0x687e89e4>
    24c8:	54554f56 	bnel	v0,s5,16224 <_init-0x687e9ddc>
    24cc:	47534d00 	c1	0x1534d00
    24d0:	4e454d5f 	c3	0x454d5f
    24d4:	454e4947 	0x454e4947
    24d8:	5445535f 	bnel	v0,a1,17258 <_init-0x687e8da8>
    24dc:	5f42415f 	0x5f42415f
    24e0:	5458454e 	bnel	v0,t8,13a1c <_init-0x687ec5e4>
    24e4:	4e59535f 	c3	0x59535f
    24e8:	534d0043 	beql	k0,t5,25f8 <_init-0x687fda08>
    24ec:	4d465f47 	0x4d465f47
    24f0:	49474e45 	0x49474e45
    24f4:	4c5f454e 	0x4c5f454e
    24f8:	49454e49 	0x49454e49
    24fc:	4e495f4e 	c3	0x495f4e
    2500:	54524553 	bnel	v0,s2,13a50 <_init-0x687ec5b0>
    2504:	47534d00 	c1	0x1534d00
    2508:	4e454d5f 	c3	0x454d5f
    250c:	454e4947 	0x454e4947
    2510:	4f54535f 	c3	0x154535f
    2514:	59535f50 	0x59535f50
    2518:	4d00434e 	bc3f	13254 <_init-0x687ecdac>
    251c:	475f4753 	c1	0x15f4753
    2520:	435f5445 	c0	0x15f5445
    2524:	47524148 	c1	0x1524148
    2528:	54535f45 	bnel	v0,s3,1a240 <_init-0x687e5dc0>
    252c:	53555441 	beql	k0,s5,17634 <_init-0x687e89cc>
    2530:	4e59535f 	c3	0x59535f
    2534:	6d650043 	0x6d650043
    2538:	61705f75 	0x61705f75
    253c:	00657375 	0x657375
    2540:	5f47534d 	0x5f47534d
    2544:	474e454d 	c1	0x14e454d
    2548:	5f454e49 	0x5f454e49
    254c:	5f544553 	0x5f544553
    2550:	59414c50 	0x59414c50
    2554:	45455053 	0x45455053
    2558:	59535f44 	0x59535f44
    255c:	6500434e 	0x6500434e
    2560:	616c756d 	0x616c756d
    2564:	5f726f74 	0x5f726f74
    2568:	65726f63 	0x65726f63
    256c:	6575715f 	0x6575715f
    2570:	745f6575 	jalx	17d95d4 <_init-0x67026a2c>
    2574:	47534d00 	c1	0x1534d00
    2578:	4e454d5f 	c3	0x454d5f
    257c:	454e4947 	0x454e4947
    2580:	5445475f 	bnel	v0,a1,14300 <_init-0x687ebd00>
    2584:	4c49465f 	0x4c49465f
    2588:	54415045 	bnel	v0,at,166a0 <_init-0x687e9960>
    258c:	59535f48 	0x59535f48
    2590:	7000434e 	0x7000434e
    2594:	746e696f 	jalx	1b9a5bc <_init-0x66c65a44>
    2598:	65007265 	0x65007265
    259c:	7571756d 	jalx	5c5d5b4 <_init-0x62ba2a4c>
    25a0:	00657565 	0x657565
    25a4:	5f47534d 	0x5f47534d
    25a8:	474e454d 	c1	0x14e454d
    25ac:	5f454e49 	0x5f454e49
    25b0:	5f544547 	0x5f544547
    25b4:	49474e45 	0x49474e45
    25b8:	495f454e 	0x495f454e
    25bc:	5f4f464e 	0x5f4f464e
    25c0:	434e5953 	c0	0x14e5953
    25c4:	47534d00 	c1	0x1534d00
    25c8:	5345525f 	beql	k0,a1,16f48 <_init-0x687e90b8>
    25cc:	535f5445 	beql	k0,ra,176e4 <_init-0x687e891c>
    25d0:	495f5359 	0x495f5359
    25d4:	5f454c44 	0x5f454c44
    25d8:	454d4954 	0x454d4954
    25dc:	535f5352 	beql	k0,ra,17328 <_init-0x687e8cd8>
    25e0:	00434e59 	0x434e59
    25e4:	434f5250 	c0	0x14f5250
    25e8:	4d535345 	0x4d535345
    25ec:	47414e41 	c1	0x1414e41
    25f0:	425f5245 	c0	0x5f5245
    25f4:	00455341 	0x455341
    25f8:	5f756d65 	0x5f756d65
    25fc:	5f746573 	0x5f746573
    2600:	6e756f73 	0x6e756f73
    2604:	69730064 	0x69730064
    2608:	6d6f636d 	0x6d6f636d
    260c:	716d5f6d 	0x716d5f6d
    2610:	6e61685f 	0x6e61685f
    2614:	5f656c64 	0x5f656c64
    2618:	534d0074 	beql	k0,t5,27ec <_init-0x687fd814>
    261c:	45525f47 	0x45525f47
    2620:	5f544553 	0x5f544553
    2624:	4e455347 	c3	0x455347
    2628:	5f524f53 	0x5f524f53
    262c:	41544f52 	0x41544f52
    2630:	4e4f4954 	c3	0x4f4954
    2634:	47534d00 	c1	0x1534d00
    2638:	454d465f 	0x454d465f
    263c:	4e49474e 	c3	0x49474e
    2640:	45475f45 	0x45475f45
    2644:	54535f54 	bnel	v0,s3,1a398 <_init-0x687e5c68>
    2648:	4f455245 	c3	0x1455245
    264c:	444f4d5f 	0x444f4d5f
    2650:	706f0045 	0x706f0045
    2654:	655f6e65 	0x655f6e65
    2658:	616c756d 	0x616c756d
    265c:	00726f74 	teq	v1,s2,0x1bd
    2660:	5f47534d 	0x5f47534d
    2664:	4c504552 	0x4c504552
    2668:	454d5f59 	0x454d5f59
    266c:	4e49474e 	c3	0x49474e
    2670:	45475f45 	0x45475f45
    2674:	54535f54 	bnel	v0,s3,1a3c8 <_init-0x687e5c38>
    2678:	5f455441 	0x5f455441
    267c:	53554150 	beql	k0,s5,12bc0 <_init-0x687ed440>
    2680:	4d004445 	bc3f	13798 <_init-0x687ec868>
    2684:	535f4753 	beql	k0,ra,143d4 <_init-0x687ebc2c>
    2688:	415f5445 	0x415f5445
    268c:	465f5050 	c1	0x5f5050
    2690:	4745524f 	c1	0x145524f
    2694:	4e554f52 	c3	0x554f52
    2698:	59535f44 	0x59535f44
    269c:	4d00434e 	bc3f	133d8 <_init-0x687ecc28>
    26a0:	535f4753 	beql	k0,ra,143f0 <_init-0x687ebc10>
    26a4:	445f5445 	0x445f5445
    26a8:	465f4645 	c1	0x5f4645
    26ac:	5f544e4f 	0x5f544e4f
    26b0:	434e5953 	c0	0x14e5953
    26b4:	756d6500 	jalx	5b59400 <_init-0x62ca6c00>
    26b8:	616f6c5f 	0x616f6c5f
    26bc:	534d0064 	beql	k0,t5,2850 <_init-0x687fd7b0>
    26c0:	4f4c5f47 	c3	0x14c5f47
    26c4:	4f565f57 	c3	0x1565f57
    26c8:	4741544c 	c1	0x141544c
    26cc:	534d0045 	beql	k0,t5,27e4 <_init-0x687fd81c>
    26d0:	4d465f47 	0x4d465f47
    26d4:	49474e45 	0x49474e45
    26d8:	535f454e 	beql	k0,ra,13c14 <_init-0x687ec3ec>
    26dc:	455f5445 	0x455f5445
    26e0:	5245544e 	beql	s2,a1,1781c <_init-0x687e87e4>
    26e4:	4154535f 	0x4154535f
    26e8:	5942444e 	0x5942444e
    26ec:	47534d00 	c1	0x1534d00
    26f0:	5445535f 	bnel	v0,a1,17470 <_init-0x687e8b90>
    26f4:	5455415f 	bnel	v0,s5,12c74 <_init-0x687ed38c>
    26f8:	54535f4f 	bnel	v0,s3,1a438 <_init-0x687e5bc8>
    26fc:	42444e41 	c0	0x444e41
    2700:	49545f59 	0x49545f59
    2704:	535f454d 	beql	k0,ra,13c3c <_init-0x687ec3c4>
    2708:	00434e59 	0x434e59
    270c:	6c756d65 	0x6c756d65
    2710:	726f7461 	0x726f7461
    2714:	616c705f 	0x616c705f
    2718:	00632e79 	0x632e79
    271c:	5f47534d 	0x5f47534d
    2720:	5f544553 	0x5f544553
    2724:	454d4954 	0x454d4954
    2728:	54535f44 	bnel	v0,s3,1a43c <_init-0x687e5bc4>
    272c:	4f445455 	c3	0x1445455
    2730:	545f4e57 	bnel	v0,ra,16090 <_init-0x687e9f70>
    2734:	5f454d49 	0x5f454d49
    2738:	434e5953 	c0	0x14e5953
    273c:	74657200 	jalx	195c800 <_init-0x66ea3800>
    2740:	5f6e7275 	0x5f6e7275
    2744:	675f6f74 	0x675f6f74
    2748:	5f656d61 	0x5f656d61
    274c:	646f6977 	0x646f6977
    2750:	0073776f 	0x73776f
    2754:	5f756d65 	0x5f756d65
    2758:	746e6f63 	jalx	1b9bd8c <_init-0x66c64274>
    275c:	65756e69 	0x65756e69
    2760:	6d6f7200 	0x6d6f7200
    2764:	656d616e 	0x656d616e
    2768:	47534d00 	c1	0x1534d00
    276c:	5445535f 	bnel	v0,a1,174ec <_init-0x687e8b14>
    2770:	5050415f 	beql	v0,s0,12cf0 <_init-0x687ed310>
    2774:	4341425f 	c0	0x141425f
    2778:	4f52474b 	c3	0x152474b
    277c:	5f444e55 	0x5f444e55
    2780:	434e5953 	c0	0x14e5953
    2784:	546e6f00 	bnel	v1,t6,1e388 <_init-0x687e1c78>
    2788:	72656d69 	0x72656d69
    278c:	47534d00 	c1	0x1534d00
    2790:	4f54535f 	c3	0x154535f
    2794:	41485f50 	0x41485f50
    2798:	575f4452 	bnel	k0,ra,138e4 <_init-0x687ec71c>
    279c:	48435441 	0x48435441
    27a0:	535f4744 	beql	k0,ra,144b4 <_init-0x687ebb4c>
    27a4:	00434e59 	0x434e59
    27a8:	6965645f 	0x6965645f
    27ac:	5f74696e 	0x5f74696e
    27b0:	6367736d 	0x6367736d
    27b4:	6e6e6168 	0x6e6e6168
    27b8:	65006c65 	0x65006c65
    27bc:	735f756d 	0x735f756d
    27c0:	6b5f7465 	0x6b5f7465
    27c4:	616d7965 	0x616d7965
    27c8:	6d650070 	0x6d650070
    27cc:	656b5f75 	0x656b5f75
    27d0:	616d5f79 	0x616d5f79
    27d4:	76740070 	jalx	9d001c0 <_init-0x5eaffe40>
    27d8:	6365735f 	0x6365735f
    27dc:	4f424500 	c3	0x1424500
    27e0:	425f4b4f 	c0	0x5f4b4f
    27e4:	00455341 	0x455341
    27e8:	5f67736d 	0x5f67736d
    27ec:	6c706572 	0x6c706572
    27f0:	79745f79 	0x79745f79
    27f4:	655f6570 	0x655f6570
    27f8:	47534d00 	c1	0x1534d00
    27fc:	454d465f 	0x454d465f
    2800:	4e49474e 	c3	0x49474e
    2804:	45475f45 	0x45475f45
    2808:	55415f54 	bnel	t2,at,1a55c <_init-0x687e5aa4>
    280c:	535f4f54 	beql	k0,ra,16560 <_init-0x687e9aa0>
    2810:	004b4545 	0x4b4545
    2814:	5f47534d 	0x5f47534d
    2818:	4e454d46 	c3	0x454d46
    281c:	454e4947 	0x454e4947
    2820:	5445475f 	bnel	v0,a1,145a0 <_init-0x687eba60>
    2824:	544e415f 	bnel	v0,t6,12da4 <_init-0x687ed25c>
    2828:	414e4e45 	0x414e4e45
    282c:	47534d00 	c1	0x1534d00
    2830:	4e454d5f 	c3	0x454d5f
    2834:	454e4947 	0x454e4947
    2838:	5445535f 	bnel	v0,a1,175b8 <_init-0x687e8a48>
    283c:	4c49465f 	0x4c49465f
    2840:	54415045 	bnel	v0,at,16958 <_init-0x687e96a8>
    2844:	59535f48 	0x59535f48
    2848:	7300434e 	0x7300434e
    284c:	65536e79 	0x65536e79
    2850:	6870616d 	0x6870616d
    2854:	0065726f 	0x65726f
    2858:	5f47534d 	0x5f47534d
    285c:	5f544553 	0x5f544553
    2860:	5f59454b 	0x5f59454b
    2864:	5050414d 	beql	v0,s0,12d9c <_init-0x687ed264>
    2868:	5f474e49 	0x5f474e49
    286c:	434e5953 	c0	0x14e5953
    2870:	47534d00 	c1	0x1534d00
    2874:	5345525f 	beql	k0,a1,171f4 <_init-0x687e8e0c>
    2878:	535f5445 	beql	k0,ra,17990 <_init-0x687e8670>
    287c:	45455243 	0x45455243
    2880:	5641534e 	bnel	s2,at,175bc <_init-0x687e8a44>
    2884:	545f5245 	bnel	v0,ra,1719c <_init-0x687e8e64>
    2888:	52454d49 	beql	s2,a1,15db0 <_init-0x687ea250>
    288c:	4e59535f 	c3	0x59535f
    2890:	534d0043 	beql	k0,t5,29a0 <_init-0x687fd660>
    2894:	45535f47 	0x45535f47
    2898:	48435f54 	0x48435f54
    289c:	45475241 	0x45475241
    28a0:	5241505f 	beql	s2,at,16a20 <_init-0x687e95e0>
    28a4:	535f4d41 	beql	k0,ra,15dac <_init-0x687ea254>
    28a8:	00434e59 	0x434e59
    28ac:	5f47534d 	0x5f47534d
    28b0:	4e49414d 	c3	0x49414d
    28b4:	5349445f 	beql	k0,t1,13a34 <_init-0x687ec5cc>
    28b8:	48435f4b 	0x48435f4b
    28bc:	45474e41 	0x45474e41
    28c0:	6e650044 	0x6e650044
    28c4:	656e6967 	0x656e6967
    28c8:	646d635f 	0x646d635f
    28cc:	64697000 	0x64697000
    28d0:	7300745f 	udi15	t8,zero,t6,0x11
    28d4:	65646e65 	0x65646e65
    28d8:	69705f72 	0x69705f72
    28dc:	6e610064 	0x6e610064
    28e0:	00656c67 	0x656c67
    28e4:	5f47534d 	0x5f47534d
    28e8:	44524143 	0x44524143
    28ec:	004e495f 	0x4e495f
    28f0:	5f756d65 	0x5f756d65
    28f4:	5f746573 	0x5f746573
    28f8:	70736964 	0x70736964
    28fc:	646f6d5f 	0x646f6d5f
    2900:	534d0065 	beql	k0,t5,2a98 <_init-0x687fd568>
    2904:	494b5f47 	0x494b5f47
    2908:	415f4c4c 	0x415f4c4c
    290c:	535f5050 	beql	k0,ra,16a50 <_init-0x687e95b0>
    2910:	00434e59 	0x434e59
    2914:	5f47534d 	0x5f47534d
    2918:	4d454854 	0x4d454854
    291c:	48435f45 	0x48435f45
    2920:	45474e41 	0x45474e41
    2924:	534d0044 	beql	k0,t5,2a38 <_init-0x687fd5c8>
    2928:	454d5f47 	0x454d5f47
    292c:	4e49474e 	c3	0x49474e
    2930:	45535f45 	0x45535f45
    2934:	49445f54 	0x49445f54
    2938:	4f4d5053 	c3	0x14d5053
    293c:	535f4544 	beql	k0,ra,13e50 <_init-0x687ec1b0>
    2940:	00434e59 	0x434e59
    2944:	5f47534d 	0x5f47534d
    2948:	474e454d 	c1	0x14e454d
    294c:	5f454e49 	0x5f454e49
    2950:	5f544553 	0x5f544553
    2954:	415f4241 	0x415f4241
    2958:	5f4f5455 	0x5f4f5455
    295c:	434e5953 	c0	0x14e5953
    2960:	47534d00 	c1	0x1534d00
    2964:	5445535f 	bnel	v0,a1,176e4 <_init-0x687e891c>
    2968:	5050415f 	beql	v0,s0,12ee8 <_init-0x687ed118>
    296c:	524f465f 	beql	s2,t7,142ec <_init-0x687ebd14>
    2970:	4f524745 	c3	0x1524745
    2974:	00444e55 	0x444e55
    2978:	5f47534d 	0x5f47534d
    297c:	5f425355 	0x5f425355
    2980:	50414441 	beql	v0,at,13a88 <_init-0x687ec578>
    2984:	5f524f54 	0x5f524f54
    2988:	0054554f 	0x54554f
    298c:	4d746572 	0x4d746572
    2990:	4d006773 	bc3f	1c760 <_init-0x687e38a0>
    2994:	525f4753 	beql	s2,ra,146e4 <_init-0x687eb91c>
    2998:	54455345 	bnel	v0,a1,176b0 <_init-0x687e8950>
    299c:	4645445f 	c1	0x45445f
    29a0:	544c5541 	bnel	v0,t4,17ea8 <_init-0x687e8158>
    29a4:	4746435f 	c1	0x146435f
    29a8:	47534d00 	c1	0x1534d00
    29ac:	5245535f 	beql	s2,a1,1772c <_init-0x687e88d4>
    29b0:	5f524556 	0x5f524556
    29b4:	45534142 	0x45534142
    29b8:	47534d00 	c1	0x1534d00
    29bc:	5345525f 	beql	k0,a1,1733c <_init-0x687e8cc4>
    29c0:	475f5445 	c1	0x15f5445
    29c4:	534e4553 	beql	k0,t6,13f14 <_init-0x687ec0ec>
    29c8:	535f524f 	beql	k0,ra,17308 <_init-0x687e8cf8>
    29cc:	454b4148 	0x454b4148
    29d0:	47534d00 	c1	0x1534d00
    29d4:	4e454d5f 	c3	0x454d5f
    29d8:	454e4947 	0x454e4947
    29dc:	5345525f 	beql	k0,a1,1735c <_init-0x687e8ca4>
    29e0:	5f454d55 	0x5f454d55
    29e4:	434e5953 	c0	0x14e5953
    29e8:	47534d00 	c1	0x1534d00
    29ec:	4649475f 	c1	0x49475f
    29f0:	4345445f 	c0	0x145445f
    29f4:	0045444f 	0x45444f
    29f8:	5f47534d 	0x5f47534d
    29fc:	474e454d 	c1	0x14e454d
    2a00:	5f454e49 	0x5f454e49
    2a04:	44574246 	0x44574246
    2a08:	4e59535f 	c3	0x59535f
    2a0c:	534d0043 	beql	k0,t5,2b1c <_init-0x687fd4e4>
    2a10:	454d5f47 	0x454d5f47
    2a14:	4e49474e 	c3	0x49474e
    2a18:	45535f45 	0x45535f45
    2a1c:	49465f54 	0x49465f54
    2a20:	4e49454c 	c3	0x49454c
    2a24:	5f584544 	0x5f584544
    2a28:	434e5953 	c0	0x14e5953
    2a2c:	756d6500 	jalx	5b59400 <_init-0x62ca6c00>
    2a30:	616c705f 	0x616c705f
    2a34:	4f520079 	nmsub.d	$f1,$f26,$f0,$f18
    2a38:	49544154 	0x49544154
    2a3c:	395f4e4f 	xori	ra,t2,0x4e4f
    2a40:	534d0030 	beql	k0,t5,2b04 <_init-0x687fd4fc>
    2a44:	4d465f47 	0x4d465f47
    2a48:	49474e45 	0x49474e45
    2a4c:	475f454e 	c1	0x15f454e
    2a50:	425f5445 	c0	0x5f5445
    2a54:	5f444e41 	0x5f444e41
    2a58:	45444f4d 	0x45444f4d
    2a5c:	47534d00 	c1	0x1534d00
    2a60:	4e454d5f 	c3	0x454d5f
    2a64:	454e4947 	0x454e4947
    2a68:	4545535f 	0x4545535f
    2a6c:	59535f4b 	0x59535f4b
    2a70:	4d00434e 	bc3f	137ac <_init-0x687ec854>
    2a74:	4e5f4753 	c3	0x5f4753
    2a78:	5f444545 	0x5f444545
    2a7c:	5f4e4547 	0x5f4e4547
    2a80:	53494c50 	beql	k0,t1,15bc4 <_init-0x687ea43c>
    2a84:	534d0054 	beql	k0,t5,2bd8 <_init-0x687fd428>
    2a88:	45525f47 	0x45525f47
    2a8c:	5f594c50 	0x5f594c50
    2a90:	43435553 	c0	0x1435553
    2a94:	00535345 	0x535345
    2a98:	5f47534d 	0x5f47534d
    2a9c:	4c4c554e 	0x4c4c554e
    2aa0:	67736d00 	0x67736d00
    2aa4:	7065725f 	udi15	v1,a1,t6,0x9
    2aa8:	745f796c 	jalx	17de5b0 <_init-0x67021a50>
    2aac:	47534d00 	c1	0x1534d00
    2ab0:	5445475f 	bnel	v0,a1,14830 <_init-0x687eb7d0>
    2ab4:	5050415f 	beql	v0,s0,13034 <_init-0x687ecfcc>
    2ab8:	4154535f 	0x4154535f
    2abc:	5f535554 	0x5f535554
    2ac0:	434e5953 	c0	0x14e5953
    2ac4:	756d6500 	jalx	5b59400 <_init-0x62ca6c00>
    2ac8:	6f74616c 	0x6f74616c
    2acc:	63735f72 	0x63735f72
    2ad0:	00656e65 	0x656e65
    2ad4:	6c65645f 	0x6c65645f
    2ad8:	5f657465 	0x5f657465
    2adc:	756c6f76 	jalx	5b1bdd8 <_init-0x62ce4228>
    2ae0:	6162656d 	0x6162656d
    2ae4:	735f0072 	0x735f0072
    2ae8:	656e6563 	0x656e6563
    2aec:	756d655f 	jalx	5b5957c <_init-0x62ca6a84>
    2af0:	6f74616c 	0x6f74616c
    2af4:	706f5f72 	0x706f5f72
    2af8:	735f6e65 	0x735f6e65
    2afc:	725f7274 	0x725f7274
    2b00:	65007365 	0x65007365
    2b04:	616c756d 	0x616c756d
    2b08:	5f726f74 	0x5f726f74
    2b0c:	6e656373 	0x6e656373
    2b10:	75715f65 	jalx	5c57d94 <_init-0x62ba826c>
    2b14:	57007469 	bnezl	t8,1fcbc <_init-0x687e0344>
    2b18:	45474449 	0x45474449
    2b1c:	49535f54 	0x49535f54
    2b20:	4f565f47 	c3	0x1565f47
    2b24:	454d554c 	0x454d554c
    2b28:	5f524142 	0x5f524142
    2b2c:	54495551 	bnel	v0,t1,18074 <_init-0x687e7f8c>
    2b30:	73756600 	0x73756600
    2b34:	5f6e6f69 	0x5f6e6f69
    2b38:	65666665 	0x65666665
    2b3c:	5f007463 	bgtzl	t8,1fccc <_init-0x687e0334>
    2b40:	5f746573 	0x5f746573
    2b44:	6d79656b 	0x6d79656b
    2b48:	6d5f7061 	0x6d5f7061
    2b4c:	76756e65 	jalx	9d5b994 <_init-0x5eaa466c>
    2b50:	5f776569 	0x5f776569
    2b54:	636f7270 	0x636f7270
    2b58:	6975675f 	0x6975675f
    2b5c:	61656800 	0x61656800
    2b60:	72616264 	0x72616264
    2b64:	696e695f 	0x696e695f
    2b68:	6d5f0074 	0x6d5f0074
    2b6c:	76756e65 	jalx	9d5b994 <_init-0x5eaa466c>
    2b70:	5f776569 	0x5f776569
    2b74:	6c6c6163 	0x6c6c6163
    2b78:	6b636162 	0x6b636162
    2b7c:	67736d00 	0x67736d00
    2b80:	5f786f62 	0x5f786f62
    2b84:	73697865 	0x73697865
    2b88:	65680074 	0x65680074
    2b8c:	61626461 	0x61626461
    2b90:	6e695f72 	0x6e695f72
    2b94:	745f7469 	jalx	17dd1a4 <_init-0x67022e5c>
    2b98:	67736d00 	0x67736d00
    2b9c:	57006469 	bnezl	t8,1bd44 <_init-0x687e42bc>
    2ba0:	45474449 	0x45474449
    2ba4:	49535f54 	0x49535f54
    2ba8:	4f565f47 	c3	0x1565f47
    2bac:	454d554c 	0x454d554c
    2bb0:	5f524142 	0x5f524142
    2bb4:	4e414843 	c3	0x414843
    2bb8:	00444547 	0x444547
    2bbc:	6165685f 	0x6165685f
    2bc0:	72616264 	0x72616264
    2bc4:	0062635f 	0x62635f
    2bc8:	6c6f765f 	0x6c6f765f
    2bcc:	62656d75 	0x62656d75
    2bd0:	635f7261 	0x635f7261
    2bd4:	735f0062 	0x735f0062
    2bd8:	656e6563 	0x656e6563
    2bdc:	7465735f 	jalx	195cd7c <_init-0x66ea3284>
    2be0:	6665645f 	0x6665645f
    2be4:	746c7561 	jalx	1b1d584 <_init-0x66ce2a7c>
    2be8:	6e6f665f 	0x6e6f665f
    2bec:	79730074 	0x79730074
    2bf0:	736d5f73 	0x736d5f73
    2bf4:	79745f67 	0x79745f67
    2bf8:	61006570 	0x61006570
    2bfc:	6168706c 	0x6168706c
    2c00:	65645f00 	0x65645f00
    2c04:	6574656c 	0x6574656c
    2c08:	67736d5f 	0x67736d5f
    2c0c:	00786f62 	0x786f62
    2c10:	6c756d65 	0x6c756d65
    2c14:	726f7461 	0x726f7461
    2c18:	6563735f 	0x6563735f
    2c1c:	632e656e 	0x632e656e
    2c20:	65637300 	0x65637300
    2c24:	665f656e 	0x665f656e
    2c28:	6f697375 	0x6f697375
    2c2c:	65735f6e 	0x65735f6e
    2c30:	69665f74 	0x69665f74
    2c34:	5f747372 	0x5f747372
    2c38:	6d617266 	0x6d617266
    2c3c:	74730065 	jalx	1cc0194 <_init-0x66b3fe6c>
    2c40:	65725f79 	0x65725f79
    2c44:	745f7463 	jalx	17dd18c <_init-0x67022e74>
    2c48:	72635f00 	0x72635f00
    2c4c:	65746165 	0x65746165
    2c50:	67736d5f 	0x67736d5f
    2c54:	00786f62 	0x786f62
    2c58:	6e656373 	0x6e656373
    2c5c:	75665f65 	jalx	5997d94 <_init-0x62e6826c>
    2c60:	6e6f6973 	0x6e6f6973
    2c64:	7465735f 	jalx	195cd7c <_init-0x66ea3284>
    2c68:	73616c5f 	udi15	k1,at,t5,0x11
    2c6c:	72665f74 	0x72665f74
    2c70:	00656d61 	0x656d61
    2c74:	6e697768 	0x6e697768
    2c78:	00637273 	tltu	v1,v1,0x1c9
    2c7c:	50544f48 	beql	v0,s4,169a0 <_init-0x687e9660>
    2c80:	4947554c 	0x4947554c
    2c84:	45445f4e 	0x45445f4e
    2c88:	59545f56 	0x59545f56
    2c8c:	435f4550 	c0	0x15f4550
    2c90:	00445241 	0x445241
    2c94:	6f72705f 	0x6f72705f
    2c98:	79735f63 	0x79735f63
    2c9c:	736d5f73 	0x736d5f73
    2ca0:	6d650067 	0x6d650067
    2ca4:	6c65645f 	0x6c65645f
    2ca8:	5f657465 	0x5f657465
    2cac:	756e656d 	jalx	5b995b4 <_init-0x62c66a4c>
    2cb0:	77656976 	jalx	d95a5d8 <_init-0x5aea5a28>
    2cb4:	63735f00 	0x63735f00
    2cb8:	5f656e65 	0x5f656e65
    2cbc:	636f7270 	0x636f7270
    2cc0:	79656b5f 	0x79656b5f
    2cc4:	746f6800 	jalx	1bda000 <_init-0x66c26000>
    2cc8:	67756c70 	0x67756c70
    2ccc:	645f6e69 	0x645f6e69
    2cd0:	745f7665 	jalx	17dd994 <_init-0x6702266c>
    2cd4:	5f657079 	0x5f657079
    2cd8:	735f0065 	0x735f0065
    2cdc:	656e6563 	0x656e6563
    2ce0:	756d655f 	jalx	5b5957c <_init-0x62ca6a84>
    2ce4:	6f74616c 	0x6f74616c
    2ce8:	6f725f72 	0x6f725f72
    2cec:	65746174 	0x65746174
    2cf0:	61696400 	0x61696400
    2cf4:	5f676f6c 	0x5f676f6c
    2cf8:	74696e69 	jalx	1a5b9a4 <_init-0x66da465c>
    2cfc:	6d655f00 	0x6d655f00
    2d00:	74616c75 	jalx	185b1d4 <_init-0x66fa4e2c>
    2d04:	735f726f 	0x735f726f
    2d08:	656e6563 	0x656e6563
    2d0c:	6965645f 	0x6965645f
    2d10:	0074696e 	0x74696e
    2d14:	756d655f 	jalx	5b5957c <_init-0x62ca6a84>
    2d18:	6f74616c 	0x6f74616c
    2d1c:	63735f72 	0x63735f72
    2d20:	5f656e65 	0x5f656e65
    2d24:	6c6c6163 	0x6c6c6163
    2d28:	6b636162 	0x6b636162
    2d2c:	69756700 	0x69756700
    2d30:	5f6d775f 	0x5f6d775f
    2d34:	7373656d 	0x7373656d
    2d38:	5f656761 	0x5f656761
    2d3c:	75660074 	jalx	59801d0 <_init-0x62e7fe30>
    2d40:	6e6f6973 	0x6e6f6973
    2d44:	6172665f 	0x6172665f
    2d48:	745f656d 	jalx	17d95b4 <_init-0x67026a4c>
    2d4c:	63735f00 	0x63735f00
    2d50:	5f656e65 	0x5f656e65
    2d54:	65736e75 	0x65736e75
    2d58:	65645f74 	0x65645f74
    2d5c:	6c756166 	0x6c756166
    2d60:	6f665f74 	0x6f665f74
    2d64:	6d00746e 	0x6d00746e
    2d68:	5f6e6961 	0x5f6e6961
    2d6c:	6b736964 	0x6b736964
    2d70:	6d655f00 	0x6d655f00
    2d74:	74616c75 	jalx	185b1d4 <_init-0x66fa4e2c>
    2d78:	735f726f 	0x735f726f
    2d7c:	656e6563 	0x656e6563
    2d80:	696e695f 	0x696e695f
    2d84:	77680074 	jalx	da001d0 <_init-0x5adffe30>
    2d88:	5f006e69 	bgtzl	t8,1e730 <_init-0x687e18d0>
    2d8c:	6e656373 	0x6e656373
    2d90:	72705f65 	0x72705f65
    2d94:	675f636f 	0x675f636f
    2d98:	5f006975 	bgtzl	t8,1d370 <_init-0x687e2c90>
    2d9c:	6e656373 	0x6e656373
    2da0:	6d655f65 	0x6d655f65
    2da4:	74616c75 	jalx	185b1d4 <_init-0x66fa4e2c>
    2da8:	6f5f726f 	0x6f5f726f
    2dac:	5f6e6570 	0x5f6e6570
    2db0:	6d656874 	0x6d656874
    2db4:	6c630065 	0x6c630065
    2db8:	5f726165 	0x5f726165
    2dbc:	0079656b 	0x79656b
    2dc0:	6563735f 	0x6563735f
    2dc4:	655f656e 	0x655f656e
    2dc8:	616c756d 	0x616c756d
    2dcc:	5f726f74 	0x5f726f74
    2dd0:	736f6c63 	0x736f6c63
    2dd4:	68745f65 	0x68745f65
    2dd8:	00656d65 	0x656d65
    2ddc:	67736d5f 	0x67736d5f
    2de0:	5f786f62 	0x5f786f62
    2de4:	48006263 	0x48006263
    2de8:	4c50544f 	0x4c50544f
    2dec:	4e494755 	c3	0x494755
    2df0:	5645445f 	bnel	s2,a1,13f70 <_init-0x687ec090>
    2df4:	5059545f 	beql	v0,t9,17f74 <_init-0x687e808c>
    2df8:	4f4c5f45 	c3	0x14c5f45
    2dfc:	004c4143 	0x4c4143
    2e00:	6572635f 	0x6572635f
    2e04:	5f657461 	0x5f657461
    2e08:	756c6f76 	jalx	5b1bdd8 <_init-0x62ce4228>
    2e0c:	6162656d 	0x6162656d
    2e10:	655f0072 	0x655f0072
    2e14:	616c756d 	0x616c756d
    2e18:	5f726f74 	0x5f726f74
    2e1c:	6e656373 	0x6e656373
    2e20:	6e695f65 	0x6e695f65
    2e24:	705f7469 	0x705f7469
    2e28:	746e6961 	jalx	1b9a584 <_init-0x66c65a7c>
    2e2c:	52524500 	beql	s2,s2,14230 <_init-0x687ebdd0>
    2e30:	455f524f 	0x455f524f
    2e34:	00544958 	0x544958
    2e38:	645f6d65 	0x645f6d65
    2e3c:	74656c65 	jalx	195b194 <_init-0x66ea4e6c>
    2e40:	65685f65 	0x65685f65
    2e44:	61626461 	0x61626461
    2e48:	6f760072 	0x6f760072
    2e4c:	656d756c 	0x656d756c
    2e50:	5f726162 	0x5f726162
    2e54:	5f676973 	0x5f676973
    2e58:	6d650065 	0x6d650065
    2e5c:	6572635f 	0x6572635f
    2e60:	5f657461 	0x5f657461
    2e64:	64616568 	0x64616568
    2e68:	00726162 	0x726162
    2e6c:	6563735f 	0x6563735f
    2e70:	655f656e 	0x655f656e
    2e74:	616c756d 	0x616c756d
    2e78:	5f726f74 	0x5f726f74
    2e7c:	64616f6c 	0x64616f6c
    2e80:	7365725f 	udi15	k1,a1,t6,0x9
    2e84:	6372756f 	0x6372756f
    2e88:	48007365 	0x48007365
    2e8c:	4c50544f 	0x4c50544f
    2e90:	4e494755 	c3	0x494755
    2e94:	5645445f 	bnel	s2,a1,14014 <_init-0x687ebfec>
    2e98:	5059545f 	beql	v0,t9,18018 <_init-0x687e7fe8>
    2e9c:	48555f45 	0x48555f45
    2ea0:	0054534f 	0x54534f
    2ea4:	6f6c6f63 	0x6f6c6f63
    2ea8:	4f480072 	c3	0x1480072
    2eac:	554c5054 	bnel	t2,t4,17000 <_init-0x687e9000>
    2eb0:	5f4e4947 	0x5f4e4947
    2eb4:	5f564544 	0x5f564544
    2eb8:	45505954 	0x45505954
    2ebc:	4e4f4e5f 	c3	0x4f4e5f
    2ec0:	735f0045 	0x735f0045
    2ec4:	656e6563 	0x656e6563
    2ec8:	756d655f 	jalx	5b5957c <_init-0x62ca6a84>
    2ecc:	6f74616c 	0x6f74616c
    2ed0:	6c635f72 	0x6c635f72
    2ed4:	5f65736f 	0x5f65736f
    2ed8:	5f727473 	0x5f727473
    2edc:	00736572 	tlt	v1,s3,0x195
    2ee0:	635f6d65 	0x635f6d65
    2ee4:	74616572 	jalx	18595c8 <_init-0x66fa6a38>
    2ee8:	656d5f65 	0x656d5f65
    2eec:	6976756e 	0x6976756e
    2ef0:	70007765 	0x70007765
    2ef4:	0062696c 	0x62696c
    2ef8:	636d6973 	0x636d6973
    2efc:	5f6d6d6f 	0x5f6d6d6f
    2f00:	5f62696c 	0x5f62696c
    2f04:	646e6168 	0x646e6168
    2f08:	745f656c 	jalx	17d95b0 <_init-0x67026a50>
    2f0c:	67736d00 	0x67736d00
    2f10:	0064695f 	0x64695f
    2f14:	5f64716d 	0x5f64716d
    2f18:	716d0074 	0x716d0074
    2f1c:	616c665f 	0x616c665f
    2f20:	70007367 	0x70007367
    2f24:	646e6168 	0x646e6168
    2f28:	5f00656c 	bgtzl	t8,1c4dc <_init-0x687e3b24>
    2f2c:	636d6973 	0x636d6973
    2f30:	5f6d6d6f 	0x5f6d6d6f
    2f34:	5f62696c 	0x5f62696c
    2f38:	646e6168 	0x646e6168
    2f3c:	7400656c 	jalx	195b0 <_init-0x687e6a50>
    2f40:	5f656b6f 	0x5f656b6f
    2f44:	00727473 	tltu	v1,s2,0x1d1
    2f48:	74756d65 	jalx	1d5b594 <_init-0x66aa4a6c>
    2f4c:	5f747365 	0x5f747365
    2f50:	635f716d 	0x635f716d
    2f54:	74616572 	jalx	18595c8 <_init-0x66fa6a38>
    2f58:	6d650065 	0x6d650065
    2f5c:	73657475 	0x73657475
    2f60:	716d5f74 	0x716d5f74
    2f64:	7365645f 	udi15	k1,a1,t4,0x11
    2f68:	796f7274 	0x796f7274
    2f6c:	756d6500 	jalx	5b59400 <_init-0x62ca6c00>
    2f70:	74736574 	jalx	1cd95d0 <_init-0x66b26a30>
    2f74:	5f716d5f 	0x5f716d5f
    2f78:	646e6570 	0x646e6570
    2f7c:	756d6500 	jalx	5b59400 <_init-0x62ca6c00>
    2f80:	74736574 	jalx	1cd95d0 <_init-0x66b26a30>
    2f84:	5f716d5f 	0x5f716d5f
    2f88:	65636361 	0x65636361
    2f8c:	6d007470 	0x6d007470
    2f90:	736d5f71 	0x736d5f71
    2f94:	7a697367 	0x7a697367
    2f98:	6d650065 	0x6d650065
    2f9c:	73657475 	0x73657475
    2fa0:	716d5f74 	0x716d5f74
    2fa4:	736f705f 	udi15	k1,t7,t6,0x1
    2fa8:	6d650074 	0x6d650074
    2fac:	74616c75 	jalx	185b1d4 <_init-0x66fa4e2c>
    2fb0:	735f726f 	0x735f726f
    2fb4:	645f7379 	0x645f7379
    2fb8:	632e7065 	0x632e7065
    2fbc:	5f716d00 	0x5f716d00
    2fc0:	6d78616d 	0x6d78616d
    2fc4:	6d006773 	0x6d006773
    2fc8:	75635f71 	jalx	58d7dc4 <_init-0x62f2823c>
    2fcc:	67736d72 	0x67736d72
    2fd0:	756e0073 	jalx	5b801cc <_init-0x62c7fe34>
    2fd4:	79625f6d 	0x79625f6d
    2fd8:	00736574 	teq	v1,s3,0x195
    2fdc:	5f71736d 	0x5f71736d
    2fe0:	6f697270 	0x6f697270
    2fe4:	5f716d00 	0x5f716d00
    2fe8:	72747461 	0x72747461
    2fec:	756d6500 	jalx	5b59400 <_init-0x62ca6c00>
    2ff0:	74736574 	jalx	1cd95d0 <_init-0x66b26a30>
    2ff4:	62696c5f 	0x62696c5f
    2ff8:	6f6c635f 	0x6f6c635f
    2ffc:	5f006573 	bgtzl	t8,1c5cc <_init-0x687e3a34>
    3000:	61657263 	0x61657263
    3004:	6d5f6574 	0x6d5f6574
    3008:	75716773 	jalx	5c59dcc <_init-0x62ba6234>
    300c:	00657565 	0x657565
    3010:	756f7267 	jalx	5bdc99c <_init-0x62c23664>
    3014:	6c665f70 	0x6c665f70
    3018:	00736761 	0x736761
    301c:	74657265 	jalx	195c994 <_init-0x66ea366c>
    3020:	756d6500 	jalx	5b59400 <_init-0x62ca6c00>
    3024:	74736574 	jalx	1cd95d0 <_init-0x66b26a30>
    3028:	5f716d5f 	0x5f716d5f
    302c:	646e6570 	0x646e6570
    3030:	6d69745f 	0x6d69745f
    3034:	74756f65 	jalx	1d5bd94 <_init-0x66aa426c>
    3038:	756d6500 	jalx	5b59400 <_init-0x62ca6c00>
    303c:	74736574 	jalx	1cd95d0 <_init-0x66b26a30>
    3040:	62696c5f 	0x62696c5f
    3044:	616f6c5f 	0x616f6c5f
    3048:	632f0064 	0x632f0064
    304c:	72646779 	0x72646779
    3050:	2f657669 	sltiu	a1,k1,30313
    3054:	43432f65 	c0	0x1432f65
    3058:	4549565f 	0x4549565f
    305c:	4f525f57 	c3	0x1525f57
    3060:	682f544f 	0x682f544f
    3064:	6965776d 	0x6965776d
    3068:	3273755f 	andi	s3,s3,0x755f
    306c:	5f663331 	0x5f663331
    3070:	2f746e69 	sltiu	s4,k1,28265
    3074:	626f7675 	0x626f7675
    3078:	7377662f 	0x7377662f
    307c:	696c2f70 	0x696c2f70
    3080:	63727362 	0x63727362
    3084:	62696c2f 	0x62696c2f
    3088:	65672f63 	0x65672f63
    308c:	6172656e 	0x6172656e
    3090:	74632f6c 	jalx	18cbdb0 <_init-0x66f34250>
    3094:	6500726f 	0x6500726f
    3098:	5f636578 	0x5f636578
    309c:	656c6572 	0x656c6572
    30a0:	00657361 	0x657361
    30a4:	62747263 	0x62747263
    30a8:	6e696765 	0x6e696765
    30ac:	00632e31 	tgeu	v1,v1,0xb8
    30b0:	72687470 	0x72687470
    30b4:	5f646165 	0x5f646165
    30b8:	63736564 	0x63736564
    30bc:	61700072 	0x61700072
    30c0:	70006874 	0x70006874
    30c4:	735f6469 	0x735f6469
    30c8:	00657661 	0x657661
    30cc:	69745f70 	0x69745f70
    30d0:	69760064 	0x69760064
    30d4:	6c626973 	0x6c626973
    30d8:	68745f65 	0x68745f65
    30dc:	64616572 	0x64616572
    30e0:	6d756e5f 	0x6d756e5f
    30e4:	68747000 	0x68747000
    30e8:	64616572 	0x64616572
    30ec:	7000745f 	udi15	zero,zero,t6,0x11
    30f0:	65726874 	0x65726874
    30f4:	6b5f6461 	0x6b5f6461
    30f8:	735f7965 	0x735f7965
    30fc:	63757274 	0x63757274
    3100:	65640074 	0x65640074
    3104:	5f726373 	0x5f726373
    3108:	64616568 	0x64616568
    310c:	766e6500 	jalx	9b99400 <_init-0x5ec66c00>
    3110:	75730070 	jalx	5cc01c0 <_init-0x62b3fe40>
    3114:	69705f62 	0x69705f62
    3118:	72615f64 	0x72615f64
    311c:	00796172 	tlt	v1,t9,0x185
    3120:	72615f5f 	udi15	s3,at,t3,0x1d
    3124:	6e690067 	0x6e690067
    3128:	64695f74 	0x64695f74
    312c:	725f7000 	0x725f7000
    3130:	746e6565 	jalx	1b99594 <_init-0x66c66a6c>
    3134:	6e6f6300 	0x6e6f6300
    3138:	746e6574 	jalx	1b995d0 <_init-0x66c66a30>
    313c:	736e6f69 	0x736e6f69
    3140:	65706f63 	0x65706f63
    3144:	635f7000 	0x635f7000
    3148:	6e61656c 	0x6e61656c
    314c:	73007075 	0x73007075
    3150:	64656863 	0x64656863
    3154:	61726170 	0x61726170
    3158:	5f5f006d 	0x5f5f006d
    315c:	434e5546 	c0	0x14e5546
    3160:	4e4f4954 	c3	0x4f4954
    3164:	69005f5f 	0x69005f5f
    3168:	7265686e 	0x7265686e
    316c:	63737469 	0x63737469
    3170:	00646568 	0x646568
    3174:	74697865 	jalx	1a5e194 <_init-0x66da1e6c>
    3178:	636e6f5f 	0x636e6f5f
    317c:	72700065 	0x72700065
    3180:	7365636f 	0x7365636f
    3184:	74735f73 	jalx	1cd7dcc <_init-0x66b28234>
    3188:	00747261 	0x747261
    318c:	70735f70 	0x70735f70
    3190:	66696365 	0x66696365
    3194:	61006369 	0x61006369
    3198:	69786574 	0x69786574
    319c:	75665f74 	jalx	5997dd0 <_init-0x62e68230>
    31a0:	7300636e 	0x7300636e
    31a4:	64656863 	0x64656863
    31a8:	7261705f 	udi15	s3,at,t6,0x1
    31ac:	50006d61 	beqzl	zero,1e734 <_init-0x687e18cc>
    31b0:	45524854 	0x45524854
    31b4:	435f4441 	c0	0x15f4441
    31b8:	54414552 	bnel	v0,at,14704 <_init-0x687eb8fc>
    31bc:	4f4a5f45 	c3	0x14a5f45
    31c0:	42414e49 	c0	0x414e49
    31c4:	7000454c 	0x7000454c
    31c8:	65636f72 	0x65636f72
    31cc:	695f7373 	0x695f7373
    31d0:	70630064 	0x70630064
    31d4:	72735f75 	0x72735f75
    31d8:	69786500 	0x69786500
    31dc:	68745f74 	0x68745f74
    31e0:	64616572 	0x64616572
    31e4:	6500745f 	0x6500745f
    31e8:	5f746978 	0x5f746978
    31ec:	006c6176 	tne	v1,t4,0x185
    31f0:	666c6573 	0x666c6573
    31f4:	69786500 	0x69786500
    31f8:	68745f74 	0x68745f74
    31fc:	64616572 	0x64616572
    3200:	6d756e5f 	0x6d756e5f
    3204:	6e696c00 	0x6e696c00
    3208:	655f0065 	0x655f0065
    320c:	6f6e7272 	0x6f6e7272
    3210:	735f7000 	0x735f7000
    3214:	6b636174 	0x6b636174
    3218:	68745f00 	0x68745f00
    321c:	64616572 	0x64616572
    3220:	5f64695f 	0x5f64695f
    3224:	5f700074 	0x5f700074
    3228:	6e696f6a 	0x6e696f6a
    322c:	00676e69 	0x676e69
    3230:	61746564 	0x61746564
    3234:	74736863 	jalx	1cda18c <_init-0x66b25e74>
    3238:	00657461 	0x657461
    323c:	52485450 	beql	s2,t0,18380 <_init-0x687e7c80>
    3240:	5f444145 	0x5f444145
    3244:	41455243 	0x41455243
    3248:	445f4554 	0x445f4554
    324c:	43415445 	c0	0x1415445
    3250:	00444548 	0x444548
    3254:	5f627573 	0x5f627573
    3258:	5f646970 	0x5f646970
    325c:	006d756e 	0x6d756e
    3260:	72687470 	0x72687470
    3264:	5f646165 	0x5f646165
    3268:	65636e6f 	0x65636e6f
    326c:	6300745f 	0x6300745f
    3270:	75636e6f 	jalx	58db9bc <_init-0x62f24644>
    3274:	6e657272 	0x6e657272
    3278:	656c7963 	0x656c7963
    327c:	006c6576 	tne	v1,t4,0x195
    3280:	72617567 	0x72617567
    3284:	7a697364 	0x7a697364
    3288:	74700065 	jalx	1c00194 <_init-0x66bffe6c>
    328c:	61657268 	0x61657268
    3290:	74735f64 	jalx	1cd7d90 <_init-0x66b28270>
    3294:	5f747261 	0x5f747261
    3298:	73677261 	0x73677261
    329c:	655f7000 	0x655f7000
    32a0:	65746978 	0x65746978
    32a4:	74700064 	jalx	1c00190 <_init-0x66bffe70>
    32a8:	61657268 	0x61657268
    32ac:	74615f64 	jalx	1857d90 <_init-0x66fa8270>
    32b0:	745f7274 	jalx	17dc9d0 <_init-0x67023630>
    32b4:	725f5f00 	0x725f5f00
    32b8:	6974756f 	0x6974756f
    32bc:	7300656e 	0x7300656e
    32c0:	6b636174 	0x6b636174
    32c4:	657a6973 	0x657a6973
    32c8:	725f7000 	0x725f7000
    32cc:	61767465 	0x61767465
    32d0:	7369006c 	0x7369006c
    32d4:	6573755f 	0x6573755f
    32d8:	74610064 	jalx	1840190 <_init-0x66fbfe70>
    32dc:	74697865 	jalx	1a5e194 <_init-0x66da1e6c>
    32e0:	6e75665f 	0x6e75665f
    32e4:	6d756e63 	0x6d756e63
    32e8:	68637300 	0x68637300
    32ec:	705f6465 	0x705f6465
    32f0:	726f6972 	0x726f6972
    32f4:	00797469 	0x797469
    32f8:	6874705f 	0x6874705f
    32fc:	64616572 	0x64616572
    3300:	7365645f 	udi15	k1,a1,t4,0x11
    3304:	735f7263 	0x735f7263
    3308:	63757274 	0x63757274
    330c:	75640074 	jalx	59001d0 <_init-0x62effe30>
    3310:	7261706d 	0x7261706d
    3314:	70007667 	0x70007667
    3318:	6570735f 	0x6570735f
    331c:	69666963 	0x69666963
    3320:	6f635f63 	0x6f635f63
    3324:	6e65746e 	0x6e65746e
    3328:	72700074 	0x72700074
    332c:	7365636f 	0x7365636f
    3330:	74735f73 	jalx	1cd7dcc <_init-0x66b28234>
    3334:	74637572 	jalx	18dd5c8 <_init-0x66f22a38>
    3338:	74705f00 	jalx	1c17c00 <_init-0x66be8400>
    333c:	61657268 	0x61657268
    3340:	6c635f64 	0x6c635f64
    3344:	756e6165 	jalx	5b98594 <_init-0x62c67a6c>
    3348:	75625f70 	jalx	5897dc0 <_init-0x62f68240>
    334c:	72656666 	0x72656666
    3350:	68747000 	0x68747000
    3354:	64616572 	0x64616572
    3358:	7474615f 	jalx	1d1857c <_init-0x66ae7a84>
    335c:	65640072 	0x65640072
    3360:	68636174 	0x68636174
    3364:	7474615f 	jalx	1d1857c <_init-0x66ae7a84>
    3368:	00745f72 	tlt	v1,s4,0x17d
    336c:	74697865 	jalx	1a5e194 <_init-0x66da1e6c>
    3370:	7268745f 	udi15	s3,t0,t6,0x11
    3374:	5f646165 	0x5f646165
    3378:	61727261 	0x61727261
    337c:	705f0079 	0x705f0079
    3380:	65636f72 	0x65636f72
    3384:	635f7373 	0x635f7373
    3388:	6e61656c 	0x6e61656c
    338c:	625f7075 	0x625f7075
    3390:	65666675 	0x65666675
    3394:	5f5f0072 	0x5f5f0072
    3398:	72617473 	0x72617473
    339c:	74730074 	jalx	1cc01d0 <_init-0x66b3fe30>
    33a0:	616b6361 	0x616b6361
    33a4:	00726464 	0x726464
    33a8:	65747263 	0x65747263
    33ac:	2e31646e 	sltiu	s1,s1,25710
    33b0:	5f700063 	0x5f700063
    33b4:	72617473 	0x72617473
    33b8:	72615f74 	0x72615f74
    33bc:	70007367 	0x70007367
    33c0:	65636f72 	0x65636f72
    33c4:	735f7373 	0x735f7373
    33c8:	63757274 	0x63757274
    33cc:	00745f74 	teq	v1,s4,0x17d
    33d0:	74736564 	jalx	1cd9590 <_init-0x66b26a70>
    33d4:	74637572 	jalx	18dd5c8 <_init-0x66f22a38>
    33d8:	7300726f 	0x7300726f
    33dc:	74726174 	jalx	1c985d0 <_init-0x66b67a30>
    33e0:	756f725f 	jalx	5bdc97c <_init-0x62c23684>
    33e4:	656e6974 	0x656e6974
    33e8:	745f7000 	jalx	17dc000 <_init-0x67024000>
    33ec:	696d7265 	0x696d7265
    33f0:	6574616e 	0x6574616e
    33f4:	616d0064 	0x616d0064
    33f8:	00636967 	0x636967
    33fc:	7478656e 	jalx	1e195b8 <_init-0x669e6a48>
    3400:	72747300 	0x72747300
    3404:	5f746375 	0x5f746375
    3408:	73006469 	0x73006469
    340c:	64656863 	0x64656863
    3410:	696c6f70 	0x696c6f70
    3414:	Address 0x3414 is out of bounds.

Disassembly of section .comment:

00000000 <.comment>:
   0:	43434700 	c0	0x1434700
   4:	4728203a 	c1	0x128203a
   8:	2029554e 	addi	t1,at,21838
   c:	2e342e33 	sltiu	s4,s1,11827
  10:	696d2034 	0x696d2034
  14:	64737370 	0x64737370
  18:	2e362d65 	sltiu	s6,s1,11621
  1c:	302e3630 	andi	t6,at,0x3630
  20:	30322d31 	andi	s2,at,0x2d31
  24:	34303730 	ori	s0,at,0x3730
  28:	00003032 	tlt	zero,zero,0xc0
  2c:	3a434347 	xori	v1,s2,0x4347
  30:	4e472820 	madd.s	$f0,$f18,$f5,$f7
  34:	33202955 	andi	zero,t9,0x2955
  38:	342e342e 	ori	t6,at,0x342e
  3c:	70696d20 	0x70696d20
  40:	65647373 	0x65647373
  44:	302e362d 	andi	t6,at,0x362d
  48:	31302e36 	andi	s0,t1,0x2e36
  4c:	3030322d 	andi	s0,at,0x322d
  50:	32343037 	andi	s4,s1,0x3037
  54:	47000030 	c1	0x1000030
  58:	203a4343 	addi	k0,at,17219
  5c:	554e4728 	bnel	t2,t6,11d00 <_init-0x687ee300>
  60:	2e332029 	sltiu	s3,s1,8233
  64:	20342e34 	addi	s4,at,11828
  68:	7370696d 	0x7370696d
  6c:	2d656473 	sltiu	a1,t3,25715
  70:	36302e36 	ori	s0,s1,0x2e36
  74:	2d31302e 	sltiu	s1,t1,12334
  78:	37303032 	ori	s0,t9,0x3032
  7c:	30323430 	andi	s2,at,0x3430
  80:	43470000 	c0	0x1470000
  84:	28203a43 	slti	zero,at,14915
  88:	29554e47 	slti	s5,t2,20039
  8c:	342e3320 	ori	t6,at,0x3320
  90:	6d20342e 	0x6d20342e
  94:	73737069 	0x73737069
  98:	362d6564 	ori	t5,s1,0x6564
  9c:	2e36302e 	sltiu	s6,s1,12334
  a0:	322d3130 	andi	t5,s1,0x3130
  a4:	30373030 	andi	s7,at,0x3030
  a8:	00303234 	teq	at,s0,0xc8
  ac:	43434700 	c0	0x1434700
  b0:	4728203a 	c1	0x128203a
  b4:	2029554e 	addi	t1,at,21838
  b8:	2e342e33 	sltiu	s4,s1,11827
  bc:	696d2034 	0x696d2034
  c0:	64737370 	0x64737370
  c4:	2e362d65 	sltiu	s6,s1,11621
  c8:	302e3630 	andi	t6,at,0x3630
  cc:	30322d31 	andi	s2,at,0x2d31
  d0:	34303730 	ori	s0,at,0x3730
  d4:	00003032 	tlt	zero,zero,0xc0
  d8:	3a434347 	xori	v1,s2,0x4347
  dc:	4e472820 	madd.s	$f0,$f18,$f5,$f7
  e0:	33202955 	andi	zero,t9,0x2955
  e4:	342e342e 	ori	t6,at,0x342e
  e8:	70696d20 	0x70696d20
  ec:	65647373 	0x65647373
  f0:	302e362d 	andi	t6,at,0x362d
  f4:	31302e36 	andi	s0,t1,0x2e36
  f8:	3030322d 	andi	s0,at,0x322d
  fc:	32343037 	andi	s4,s1,0x3037
 100:	47000030 	c1	0x1000030
 104:	203a4343 	addi	k0,at,17219
 108:	554e4728 	bnel	t2,t6,11dac <_init-0x687ee254>
 10c:	2e332029 	sltiu	s3,s1,8233
 110:	20342e34 	addi	s4,at,11828
 114:	7370696d 	0x7370696d
 118:	2d656473 	sltiu	a1,t3,25715
 11c:	36302e36 	ori	s0,s1,0x2e36
 120:	2d31302e 	sltiu	s1,t1,12334
 124:	37303032 	ori	s0,t9,0x3032
 128:	30323430 	andi	s2,at,0x3430
 12c:	43470000 	c0	0x1470000
 130:	28203a43 	slti	zero,at,14915
 134:	29554e47 	slti	s5,t2,20039
 138:	342e3320 	ori	t6,at,0x3320
 13c:	6d20342e 	0x6d20342e
 140:	73737069 	0x73737069
 144:	362d6564 	ori	t5,s1,0x6564
 148:	2e36302e 	sltiu	s6,s1,12334
 14c:	322d3130 	andi	t5,s1,0x3130
 150:	30373030 	andi	s7,at,0x3030
 154:	00303234 	teq	at,s0,0xc8
 158:	43434700 	c0	0x1434700
 15c:	4728203a 	c1	0x128203a
 160:	2029554e 	addi	t1,at,21838
 164:	2e342e33 	sltiu	s4,s1,11827
 168:	696d2034 	0x696d2034
 16c:	64737370 	0x64737370
 170:	2e362d65 	sltiu	s6,s1,11621
 174:	302e3630 	andi	t6,at,0x3630
 178:	30322d31 	andi	s2,at,0x2d31
 17c:	34303730 	ori	s0,at,0x3730
 180:	00003032 	tlt	zero,zero,0xc0
 184:	3a434347 	xori	v1,s2,0x4347
 188:	4e472820 	madd.s	$f0,$f18,$f5,$f7
 18c:	33202955 	andi	zero,t9,0x2955
 190:	342e342e 	ori	t6,at,0x342e
 194:	70696d20 	0x70696d20
 198:	65647373 	0x65647373
 19c:	302e362d 	andi	t6,at,0x362d
 1a0:	31302e36 	andi	s0,t1,0x2e36
 1a4:	3030322d 	andi	s0,at,0x322d
 1a8:	32343037 	andi	s4,s1,0x3037
 1ac:	47000030 	c1	0x1000030
 1b0:	203a4343 	addi	k0,at,17219
 1b4:	554e4728 	bnel	t2,t6,11e58 <_init-0x687ee1a8>
 1b8:	2e332029 	sltiu	s3,s1,8233
 1bc:	20342e34 	addi	s4,at,11828
 1c0:	7370696d 	0x7370696d
 1c4:	2d656473 	sltiu	a1,t3,25715
 1c8:	36302e36 	ori	s0,s1,0x2e36
 1cc:	2d31302e 	sltiu	s1,t1,12334
 1d0:	37303032 	ori	s0,t9,0x3032
 1d4:	30323430 	andi	s2,at,0x3430
 1d8:	43470000 	c0	0x1470000
 1dc:	28203a43 	slti	zero,at,14915
 1e0:	29554e47 	slti	s5,t2,20039
 1e4:	342e3320 	ori	t6,at,0x3320
 1e8:	6d20342e 	0x6d20342e
 1ec:	73737069 	0x73737069
 1f0:	362d6564 	ori	t5,s1,0x6564
 1f4:	2e36302e 	sltiu	s6,s1,12334
 1f8:	322d3130 	andi	t5,s1,0x3130
 1fc:	30373030 	andi	s7,at,0x3030
 200:	00303234 	teq	at,s0,0xc8
 204:	43434700 	c0	0x1434700
 208:	4728203a 	c1	0x128203a
 20c:	2029554e 	addi	t1,at,21838
 210:	2e342e33 	sltiu	s4,s1,11827
 214:	696d2034 	0x696d2034
 218:	64737370 	0x64737370
 21c:	2e362d65 	sltiu	s6,s1,11621
 220:	302e3630 	andi	t6,at,0x3630
 224:	30322d31 	andi	s2,at,0x2d31
 228:	34303730 	ori	s0,at,0x3730
 22c:	00003032 	tlt	zero,zero,0xc0
 230:	3a434347 	xori	v1,s2,0x4347
 234:	4e472820 	madd.s	$f0,$f18,$f5,$f7
 238:	33202955 	andi	zero,t9,0x2955
 23c:	342e342e 	ori	t6,at,0x342e
 240:	70696d20 	0x70696d20
 244:	65647373 	0x65647373
 248:	302e362d 	andi	t6,at,0x362d
 24c:	31302e36 	andi	s0,t1,0x2e36
 250:	3030322d 	andi	s0,at,0x322d
 254:	32343037 	andi	s4,s1,0x3037
 258:	47000030 	c1	0x1000030
 25c:	203a4343 	addi	k0,at,17219
 260:	554e4728 	bnel	t2,t6,11f04 <_init-0x687ee0fc>
 264:	2e332029 	sltiu	s3,s1,8233
 268:	20342e34 	addi	s4,at,11828
 26c:	7370696d 	0x7370696d
 270:	2d656473 	sltiu	a1,t3,25715
 274:	36302e36 	ori	s0,s1,0x2e36
 278:	2d31302e 	sltiu	s1,t1,12334
 27c:	37303032 	ori	s0,t9,0x3032
 280:	30323430 	andi	s2,at,0x3430
 284:	43470000 	c0	0x1470000
 288:	28203a43 	slti	zero,at,14915
 28c:	29554e47 	slti	s5,t2,20039
 290:	342e3320 	ori	t6,at,0x3320
 294:	6d20342e 	0x6d20342e
 298:	73737069 	0x73737069
 29c:	362d6564 	ori	t5,s1,0x6564
 2a0:	2e36302e 	sltiu	s6,s1,12334
 2a4:	322d3130 	andi	t5,s1,0x3130
 2a8:	30373030 	andi	s7,at,0x3030
 2ac:	00303234 	teq	at,s0,0xc8
 2b0:	43434700 	c0	0x1434700
 2b4:	4728203a 	c1	0x128203a
 2b8:	2029554e 	addi	t1,at,21838
 2bc:	2e342e33 	sltiu	s4,s1,11827
 2c0:	696d2034 	0x696d2034
 2c4:	64737370 	0x64737370
 2c8:	2e362d65 	sltiu	s6,s1,11621
 2cc:	302e3630 	andi	t6,at,0x3630
 2d0:	30322d31 	andi	s2,at,0x2d31
 2d4:	34303730 	ori	s0,at,0x3730
 2d8:	00003032 	tlt	zero,zero,0xc0
 2dc:	3a434347 	xori	v1,s2,0x4347
 2e0:	4e472820 	madd.s	$f0,$f18,$f5,$f7
 2e4:	33202955 	andi	zero,t9,0x2955
 2e8:	342e342e 	ori	t6,at,0x342e
 2ec:	70696d20 	0x70696d20
 2f0:	65647373 	0x65647373
 2f4:	302e362d 	andi	t6,at,0x362d
 2f8:	31302e36 	andi	s0,t1,0x2e36
 2fc:	3030322d 	andi	s0,at,0x322d
 300:	32343037 	andi	s4,s1,0x3037
 304:	47000030 	c1	0x1000030
 308:	203a4343 	addi	k0,at,17219
 30c:	554e4728 	bnel	t2,t6,11fb0 <_init-0x687ee050>
 310:	2e332029 	sltiu	s3,s1,8233
 314:	20342e34 	addi	s4,at,11828
 318:	7370696d 	0x7370696d
 31c:	2d656473 	sltiu	a1,t3,25715
 320:	36302e36 	ori	s0,s1,0x2e36
 324:	2d31302e 	sltiu	s1,t1,12334
 328:	37303032 	ori	s0,t9,0x3032
 32c:	30323430 	andi	s2,at,0x3430
	...
Disassembly of section .debug_ranges:

00000000 <.debug_ranges>:
   0:	0000020c 	syscall	0x8
   4:	00000210 	0x210
   8:	00000290 	0x290
   c:	000004ac 	0x4ac
  10:	00000220 	0x220
  14:	00000228 	0x228
  18:	00000218 	0x218
  1c:	0000021c 	0x21c
	...
  28:	000006a8 	0x6a8
  2c:	000006ac 	0x6ac
  30:	000006b0 	tge	zero,zero,0x1a
  34:	000006fc 	0x6fc
	...
  40:	00000048 	0x48
  44:	0000004c 	syscall	0x1
  48:	000000d4 	0xd4
  4c:	0000029c 	0x29c
  50:	0000005c 	0x5c
  54:	00000064 	0x64
  58:	00000054 	0x54
  5c:	00000058 	0x58
	...
  68:	000006ec 	0x6ec
  6c:	000006f4 	teq	zero,zero,0x1b
  70:	00000708 	0x708
  74:	00000748 	0x748
  78:	00000700 	sll	zero,zero,0x1c
  7c:	00000704 	0x704
	...
  88:	00000044 	0x44
  8c:	00000048 	0x48
  90:	000000bc 	0xbc
  94:	00000234 	teq	zero,zero,0x8
  98:	00000058 	0x58
  9c:	00000060 	0x60
  a0:	00000050 	0x50
  a4:	00000054 	0x54
	...
  b0:	0000037c 	0x37c
  b4:	00000428 	0x428
  b8:	00000454 	0x454
  bc:	00000464 	0x464
	...
  c8:	000004a4 	0x4a4
  cc:	00000550 	0x550
  d0:	0000057c 	0x57c
  d4:	0000058c 	syscall	0x16
	...
  e0:	0000012c 	0x12c
  e4:	00000234 	teq	zero,zero,0x8
  e8:	000004d8 	0x4d8
  ec:	00000564 	0x564
  f0:	000003dc 	0x3dc
  f4:	0000040c 	syscall	0x10
	...
 100:	00000334 	teq	zero,zero,0xc
 104:	0000050c 	syscall	0x14
 108:	00000548 	0x548
 10c:	00000614 	0x614
 110:	00000510 	0x510
 114:	00000528 	0x528
	...
 120:	000004b8 	0x4b8
 124:	00000520 	0x520
 128:	0000059c 	0x59c
 12c:	000005a4 	0x5a4
	...
 138:	00000b3c 	0xb3c
 13c:	00000ca8 	0xca8
 140:	00000cc4 	0xcc4
 144:	00000d88 	0xd88
	...
 150:	00000e90 	0xe90
 154:	00000eb0 	tge	zero,zero,0x3a
 158:	00001370 	tge	zero,zero,0x4d
 15c:	00001380 	sll	v0,zero,0xe
 160:	000011c4 	0x11c4
 164:	00001340 	sll	v0,zero,0xd
 168:	00001080 	sll	v0,zero,0x2
 16c:	000011b4 	teq	zero,zero,0x46
 170:	0000102c 	0x102c
 174:	00001054 	0x1054
	...
 180:	00000eb0 	tge	zero,zero,0x3a
 184:	00000f68 	0xf68
 188:	000011b4 	teq	zero,zero,0x46
 18c:	000011c4 	0x11c4
 190:	00001054 	0x1054
 194:	00001080 	sll	v0,zero,0x2
 198:	00000f98 	0xf98
 19c:	00000ffc 	0xffc
	...
 1a8:	00000ee0 	0xee0
 1ac:	00000ef0 	tge	zero,zero,0x3b
 1b0:	00001054 	0x1054
 1b4:	00001060 	0x1060
	...
 1c0:	000001d0 	0x1d0
 1c4:	000001d4 	0x1d4
 1c8:	00000240 	sll	zero,zero,0x9
 1cc:	0000028c 	syscall	0xa
 1d0:	00000204 	0x204
 1d4:	00000220 	0x220
 1d8:	000001e4 	0x1e4
 1dc:	000001f0 	tge	zero,zero,0x7
	...
 1e8:	000001a0 	0x1a0
 1ec:	00000240 	sll	zero,zero,0x9
 1f0:	00000300 	sll	zero,zero,0xc
 1f4:	00000338 	0x338
	...
 200:	00000248 	0x248
 204:	0000027c 	0x27c
 208:	000002e8 	0x2e8
 20c:	000002f0 	tge	zero,zero,0xb
	...
