Archive member included because of file (symbol)

./desktop_api.a(desktop_api7.o)
                              launcher_main.o (launcher_scene_desktop)
./desktop_appinfo.a(desktop_appinfo.o)
                              launcher_main.o (appinfo_list_create)
./../../../../case/lib/applib_api.a(applib_api1189.o)
                              launcher_main.o (dirname)
./../../../../case/lib/applib_api.a(applib_api399.o)
                              ./desktop_appinfo.a(desktop_appinfo.o) (desktop_parser_create)
./../../../../case/lib/applib_api.a(applib_api407.o)
                              ./desktop_appinfo.a(desktop_appinfo.o) (desktop_parser_get_key)
./../../../../case/lib/applib_api.a(applib_api415.o)
                              ./desktop_appinfo.a(desktop_appinfo.o) (desktop_parser_delete)
./../../../../case/lib/applib_api.a(applib_api439.o)
                              launcher_main.o (applib_init)
./../../../../case/lib/applib_api.a(applib_api447.o)
                              launcher_main.o (applib_quit)
./../../../../case/lib/applib_api.a(applib_api455.o)
                              launcher_scene_launch.o (get_msg)
./../../../../case/lib/applib_api.a(applib_api465.o)
                              launcher_scene_launch.o (send_sync_msg)
./../../../../case/lib/applib_api.a(applib_api473.o)
                              launcher_scene_launch.o (reply_sync_msg)
./../../../../case/lib/applib_api.a(applib_api481.o)
                              launcher_scene_launch.o (send_async_msg)
./../../../../case/lib/applib_api.a(applib_api497.o)
                              launcher_scene_launch.o (dispatch_msg)
./../../../../case/lib/applib_api.a(applib_api505.o)
                              launcher_scene_launch.o (register_sys_dispatcher)
./../../../../case/lib/applib_api.a(applib_api513.o)
                              launcher_scene_launch.o (unregister_sys_dispatcher)
./../../../../case/lib/applib_api.a(applib_api521.o)
                              launcher_scene_launch.o (exit_msg_loop)
./../../../../case/lib/applib_api.a(applib_api933.o)
                              launcher_main.o (sys_get_cur_theme_name)
./../../../../case/lib/applib_api.a(applib_api949.o)
                              ./desktop_appinfo.a(desktop_appinfo.o) (sys_get_cur_language_codes)
./../../../../psp_rel/lib/libc_sys_api.a(libc_sys_api15.o)
                              ./../../../../psp_rel/lib/libcrt/crtend1.o (__kernel_release_pid)
./../../../../psp_rel/lib/libc_sys_api.a(libc_sys_api151.o)
                              launcher_main.o (getpid)
./../../../../psp_rel/lib/libc_sys_api.a(libc_sys_api210.o)
                              ./../../../../psp_rel/lib/libcrt/crtend1.o (__kernel_set_envp)
./../../../../psp_rel/lib/libc_sys_api.a(libc_sys_api23.o)
                              ./../../../../psp_rel/lib/libcrt/crtend1.o (__kernel_get_process_struct)
./../../../../psp_rel/lib/libc_sys_api.a(libc_sys_api261.o)
                              launcher_main.o (__errno)
./../../../../psp_rel/lib/libc_sys_api.a(libc_sys_api269.o)
                              ./../../../../psp_rel/lib/libcrt/crtend1.o (__current_pid)
./../../../../psp_rel/lib/libc_sys_api.a(libc_sys_api285.o)
                              ./../../../../psp_rel/lib/libcrt/crtend1.o (__kernel_insert_sub_to_parent)
./../../../../psp_rel/lib/libc_sys_api.a(libc_sys_api293.o)
                              ./../../../../psp_rel/lib/libcrt/crtend1.o (__kernel_remove_sub_from_parent)
./../../../../psp_rel/lib/libc_sys_api.a(libc_sys_api590.o)
                              ./../../../../psp_rel/lib/libcrt/crtend1.o (pthread_create)
./../../../../psp_rel/lib/libc_sys_api.a(libc_sys_api7.o)
                              ./../../../../psp_rel/lib/libcrt/crtend1.o (__kernel_get_pid)
./../../../../psp_rel/lib/libc_sys_api.a(libc_sys_api718.o)
                              ./../../../../psp_rel/lib/libcrt/crtend1.o (pthread_attr_init)
./../../../../psp_rel/lib/libc_sys_api.a(libc_sys_api726.o)
                              ./../../../../psp_rel/lib/libcrt/crtend1.o (pthread_attr_destroy)
./../../../../psp_rel/lib/libc_sys_api.a(libc_sys_api734.o)
                              ./../../../../psp_rel/lib/libcrt/crtend1.o (pthread_attr_setinheritsched)
./../../../../psp_rel/lib/libc_sys_api.a(libc_sys_api750.o)
                              ./../../../../psp_rel/lib/libcrt/crtend1.o (pthread_attr_setdetachstate)
./../../../../psp_rel/lib/libc_sys_api.a(libc_sys_api862.o)
                              ./../../../../psp_rel/lib/libcrt/crtend1.o (exit)
./../../../../psp_rel/lib/libc_sys_api.a(libc_sys_api87.o)
                              ./../../../../psp_rel/lib/libcrt/crtend1.o (_kernel_change_thread_pid)
./../../../../psp_rel/lib/libc_sys_api.a(libc_sys_api878.o)
                              launcher_main.o (usleep)
./../../../../psp_rel/lib/libc_fs_api.a(libc_fs_api151.o)
                              ./desktop_appinfo.a(desktop_appinfo.o) (stat)
./../../../../psp_rel/lib/libc/libc_sysindep.a(snprintf.o)
                              launcher_main.o (snprintf)
./../../../../psp_rel/lib/libc/libc_sysindep.a(vsnprintf.o)
                              ./../../../../psp_rel/lib/libc/libc_sysindep.a(snprintf.o) (vsnprintf)
./../../../../psp_rel/lib/libc/libc_sysindep.a(vsprintf.o)
                              ./../../../../psp_rel/lib/libc/libc_sysindep.a(vsnprintf.o) (vsprintf)
./../../../../psp_rel/lib/libc/libc_sysindep.a(memset.o)
                              launcher_scene_launch.o (memset)
./../../../../psp_rel/lib/libc/libc_sysindep.a(strcasecmp.o)
                              launcher_main.o (strcasecmp)
./../../../../psp_rel/lib/libc/libc_sysindep.a(strcpy.o)
                              launcher_scene_launch.o (strcpy)
./../../../../psp_rel/lib/libc/libc_sysindep.a(strdup.o)
                              ./desktop_appinfo.a(desktop_appinfo.o) (strdup)
./../../../../psp_rel/lib/libc/libc_sysindep.a(strlen.o)
                              launcher_scene_launch.o (strlen)
./../../../../psp_rel/lib/libc/libc_sysindep.a(memcpy.o)
                              ./../../../../psp_rel/lib/libc/libc_sysindep.a(strdup.o) (memcpy)
./../../../../psp_rel/lib/apconfig_api.a(apconfig_api15.o)
                              launcher_main.o (set_config)
./../../../../psp_rel/lib/apconfig_api.a(apconfig_api6.o)
                              launcher_main.o (get_config)
./../../../../psp_rel/lib/syscall_api.a(syscall_api22.o)
                              ./../../../../psp_rel/lib/libcrt/crtend1.o (os_sched_lock)
./../../../../psp_rel/lib/syscall_api.a(syscall_api30.o)
                              ./../../../../psp_rel/lib/libcrt/crtend1.o (os_sched_unlock)
./../../../../psp_rel/lib/syscall_api.a(syscall_api406.o)
                              launcher_main.o (printf)
./../../../../psp_rel/lib/syscall_api.a(syscall_api470.o)
                              ./desktop_appinfo.a(desktop_appinfo.o) (malloc)
./../../../../psp_rel/lib/syscall_api.a(syscall_api478.o)
                              ./desktop_appinfo.a(desktop_appinfo.o) (free)
./../../../../psp_rel/lib/syscall_api.a(syscall_api870.o)
                              launcher_main.o (dlopen)
./../../../../psp_rel/lib/syscall_api.a(syscall_api878.o)
                              launcher_main.o (dlclose)
./../../../../psp_rel/lib/kmodule_api.a(kmodule_api14.o)
                              ./../../../../psp_rel/lib/libcrt/crtend1.o (os_cpu_store_sr)
./../../../../psp_rel/lib/kmodule_api.a(kmodule_api6.o)
                              ./../../../../psp_rel/lib/libcrt/crtend1.o (os_cpu_save_sr)

Allocating common symbols
Common symbol       size              file

pthread_mutex_type_t
                    0x4               launcher_main.o
debug_time          0x4               launcher_main.o
pthread_share_type_t
                    0x4               launcher_main.o
dp                  0x4               launcher_main.o

Memory Configuration

Name             Origin             Length             Attributes
*default*        0x0000000000000000 0xffffffffffffffff

Linker script and memory map


.init           0x0000000066400000       0x20
 *(.init)
 .init          0x0000000066400000        0x8 ./../../../../psp_rel/lib/libcrt/crti.o
                0x0000000066400000                _init
 .init          0x0000000066400008        0x8 ./../../../../psp_rel/lib/libcrt/crtend.o
 .init          0x0000000066400010       0x10 ./../../../../psp_rel/lib/libcrt/crtn.o

.text           0x0000000066400020     0x3247
 *(.text)
 .text          0x0000000066400020      0x5ac launcher_main.o
                0x000000006640013c                main
                0x00000000664000dc                _applib_quit
                0x0000000066400020                _applib_init
 .text          0x00000000664005cc      0x398 launcher_scene_launch.o
                0x000000006640079c                launcher_scene_launch
 .text          0x0000000066400964        0x8 ./desktop_api.a(desktop_api7.o)
                0x0000000066400964                launcher_scene_desktop
 .text          0x000000006640096c      0xc44 ./desktop_appinfo.a(desktop_appinfo.o)
                0x0000000066401478                appinfo_list_delete
                0x00000000664011e0                appinfo_list_create
                0x0000000066401440                appinfo_list_update_name
 .text          0x00000000664015b0        0xc ./../../../../case/lib/applib_api.a(applib_api1189.o)
                0x00000000664015b0                dirname
 .text          0x00000000664015bc        0xc ./../../../../case/lib/applib_api.a(applib_api399.o)
                0x00000000664015bc                desktop_parser_create
 .text          0x00000000664015c8        0xc ./../../../../case/lib/applib_api.a(applib_api407.o)
                0x00000000664015c8                desktop_parser_get_key
 .text          0x00000000664015d4        0xc ./../../../../case/lib/applib_api.a(applib_api415.o)
                0x00000000664015d4                desktop_parser_delete
 .text          0x00000000664015e0        0xc ./../../../../case/lib/applib_api.a(applib_api439.o)
                0x00000000664015e0                applib_init
 .text          0x00000000664015ec        0xc ./../../../../case/lib/applib_api.a(applib_api447.o)
                0x00000000664015ec                applib_quit
 .text          0x00000000664015f8        0xc ./../../../../case/lib/applib_api.a(applib_api455.o)
                0x00000000664015f8                get_msg
 .text          0x0000000066401604        0xc ./../../../../case/lib/applib_api.a(applib_api465.o)
                0x0000000066401604                send_sync_msg
 .text          0x0000000066401610        0xc ./../../../../case/lib/applib_api.a(applib_api473.o)
                0x0000000066401610                reply_sync_msg
 .text          0x000000006640161c        0xc ./../../../../case/lib/applib_api.a(applib_api481.o)
                0x000000006640161c                send_async_msg
 .text          0x0000000066401628        0xc ./../../../../case/lib/applib_api.a(applib_api497.o)
                0x0000000066401628                dispatch_msg
 .text          0x0000000066401634        0xc ./../../../../case/lib/applib_api.a(applib_api505.o)
                0x0000000066401634                register_sys_dispatcher
 .text          0x0000000066401640        0xc ./../../../../case/lib/applib_api.a(applib_api513.o)
                0x0000000066401640                unregister_sys_dispatcher
 .text          0x000000006640164c        0xc ./../../../../case/lib/applib_api.a(applib_api521.o)
                0x000000006640164c                exit_msg_loop
 .text          0x0000000066401658        0xc ./../../../../case/lib/applib_api.a(applib_api933.o)
                0x0000000066401658                sys_get_cur_theme_name
 .text          0x0000000066401664        0xc ./../../../../case/lib/applib_api.a(applib_api949.o)
                0x0000000066401664                sys_get_cur_language_codes
 .text          0x0000000066401670       0x68 ./../../../../psp_rel/lib/libcrt/crtbegin.o
                0x0000000066401670                __do_global_dtors_aux
 .text          0x00000000664016d8        0x8 ./../../../../psp_rel/lib/libcrt/crtbegin1.o
                0x00000000664016d8                exec_release
 .text          0x00000000664016e0      0x384 ./../../../../psp_rel/lib/libcrt/crtend1.o
                0x00000000664016e0                dumpargv
                0x000000006640173c                process_start
                0x0000000066401854                __start
 .text          0x0000000066401a64       0x68 ./../../../../psp_rel/lib/libcrt/crtend.o
                0x0000000066401a64                __do_global_ctors_aux
 .text          0x0000000066401acc        0xc ./../../../../psp_rel/lib/libc_sys_api.a(libc_sys_api15.o)
                0x0000000066401acc                __kernel_release_pid
 .text          0x0000000066401ad8        0xc ./../../../../psp_rel/lib/libc_sys_api.a(libc_sys_api151.o)
                0x0000000066401ad8                getpid
 .text          0x0000000066401ae4        0xc ./../../../../psp_rel/lib/libc_sys_api.a(libc_sys_api210.o)
                0x0000000066401ae4                __kernel_set_envp
 .text          0x0000000066401af0        0xc ./../../../../psp_rel/lib/libc_sys_api.a(libc_sys_api23.o)
                0x0000000066401af0                __kernel_get_process_struct
 .text          0x0000000066401afc        0xc ./../../../../psp_rel/lib/libc_sys_api.a(libc_sys_api261.o)
                0x0000000066401afc                __errno
 .text          0x0000000066401b08        0xc ./../../../../psp_rel/lib/libc_sys_api.a(libc_sys_api269.o)
                0x0000000066401b08                __current_pid
 .text          0x0000000066401b14        0xc ./../../../../psp_rel/lib/libc_sys_api.a(libc_sys_api285.o)
                0x0000000066401b14                __kernel_insert_sub_to_parent
 .text          0x0000000066401b20        0xc ./../../../../psp_rel/lib/libc_sys_api.a(libc_sys_api293.o)
                0x0000000066401b20                __kernel_remove_sub_from_parent
 .text          0x0000000066401b2c        0xc ./../../../../psp_rel/lib/libc_sys_api.a(libc_sys_api590.o)
                0x0000000066401b2c                pthread_create
 .text          0x0000000066401b38        0xc ./../../../../psp_rel/lib/libc_sys_api.a(libc_sys_api7.o)
                0x0000000066401b38                __kernel_get_pid
 .text          0x0000000066401b44        0xc ./../../../../psp_rel/lib/libc_sys_api.a(libc_sys_api718.o)
                0x0000000066401b44                pthread_attr_init
 .text          0x0000000066401b50        0xc ./../../../../psp_rel/lib/libc_sys_api.a(libc_sys_api726.o)
                0x0000000066401b50                pthread_attr_destroy
 .text          0x0000000066401b5c        0xc ./../../../../psp_rel/lib/libc_sys_api.a(libc_sys_api734.o)
                0x0000000066401b5c                pthread_attr_setinheritsched
 .text          0x0000000066401b68        0xc ./../../../../psp_rel/lib/libc_sys_api.a(libc_sys_api750.o)
                0x0000000066401b68                pthread_attr_setdetachstate
 .text          0x0000000066401b74        0xc ./../../../../psp_rel/lib/libc_sys_api.a(libc_sys_api862.o)
                0x0000000066401b74                exit
 .text          0x0000000066401b80        0xc ./../../../../psp_rel/lib/libc_sys_api.a(libc_sys_api87.o)
                0x0000000066401b80                _kernel_change_thread_pid
 .text          0x0000000066401b8c        0xc ./../../../../psp_rel/lib/libc_sys_api.a(libc_sys_api878.o)
                0x0000000066401b8c                usleep
 .text          0x0000000066401b98        0xc ./../../../../psp_rel/lib/libc_fs_api.a(libc_fs_api151.o)
                0x0000000066401b98                stat
 .text          0x0000000066401ba4       0x24 ./../../../../psp_rel/lib/libc/libc_sysindep.a(snprintf.o)
                0x0000000066401ba4                snprintf
 .text          0x0000000066401bc8       0x9c ./../../../../psp_rel/lib/libc/libc_sysindep.a(vsnprintf.o)
                0x0000000066401bc8                vsnprintf
 .text          0x0000000066401c64      0x9fc ./../../../../psp_rel/lib/libc/libc_sysindep.a(vsprintf.o)
                0x0000000066401f24                vsprintf
 .text          0x0000000066402660       0x44 ./../../../../psp_rel/lib/libc/libc_sysindep.a(memset.o)
                0x0000000066402684                bzero
                0x0000000066402660                memset
 .text          0x00000000664026a4       0xfc ./../../../../psp_rel/lib/libc/libc_sysindep.a(strcasecmp.o)
                0x0000000066402710                strncasecmp
                0x00000000664026a4                strcasecmp
 .text          0x00000000664027a0       0x80 ./../../../../psp_rel/lib/libc/libc_sysindep.a(strcpy.o)
                0x00000000664027a0                strcpy
                0x00000000664027cc                strncpy
 .text          0x0000000066402820       0x64 ./../../../../psp_rel/lib/libc/libc_sysindep.a(strdup.o)
                0x0000000066402820                strdup
 .text          0x0000000066402884       0x20 ./../../../../psp_rel/lib/libc/libc_sysindep.a(strlen.o)
                0x0000000066402884                strlen
 .text          0x00000000664028a4       0x50 ./../../../../psp_rel/lib/libc/libc_sysindep.a(memcpy.o)
                0x00000000664028a4                memcpy
                0x00000000664028cc                bcopy
 .text          0x00000000664028f4       0x10 ./../../../../psp_rel/lib/apconfig_api.a(apconfig_api15.o)
                0x00000000664028f4                set_config
 .text          0x0000000066402904        0xc ./../../../../psp_rel/lib/apconfig_api.a(apconfig_api6.o)
                0x0000000066402904                get_config
 .text          0x0000000066402910        0xc ./../../../../psp_rel/lib/syscall_api.a(syscall_api22.o)
                0x0000000066402910                os_sched_lock
 .text          0x000000006640291c        0xc ./../../../../psp_rel/lib/syscall_api.a(syscall_api30.o)
                0x000000006640291c                os_sched_unlock
 .text          0x0000000066402928        0xc ./../../../../psp_rel/lib/syscall_api.a(syscall_api406.o)
                0x0000000066402928                printf
 .text          0x0000000066402934        0xc ./../../../../psp_rel/lib/syscall_api.a(syscall_api470.o)
                0x0000000066402934                malloc
 .text          0x0000000066402940        0xc ./../../../../psp_rel/lib/syscall_api.a(syscall_api478.o)
                0x0000000066402940                free
 .text          0x000000006640294c        0xc ./../../../../psp_rel/lib/syscall_api.a(syscall_api870.o)
                0x000000006640294c                dlopen
 .text          0x0000000066402958        0xc ./../../../../psp_rel/lib/syscall_api.a(syscall_api878.o)
                0x0000000066402958                dlclose
 .text          0x0000000066402964        0xc ./../../../../psp_rel/lib/kmodule_api.a(kmodule_api14.o)
                0x0000000066402964                os_cpu_store_sr
 .text          0x0000000066402970        0x8 ./../../../../psp_rel/lib/kmodule_api.a(kmodule_api6.o)
                0x0000000066402970                os_cpu_save_sr
 *(.rodata)
 .rodata        0x0000000066402978       0x24 launcher_main.o
 .rodata        0x000000006640299c       0x24 launcher_scene_launch.o
 .rodata        0x00000000664029c0       0x50 ./desktop_appinfo.a(desktop_appinfo.o)
 .rodata        0x0000000066402a10       0x18 ./../../../../psp_rel/lib/libcrt/crtend1.o
 .rodata        0x0000000066402a28      0x194 ./../../../../psp_rel/lib/libc/libc_sysindep.a(vsprintf.o)
 *(.rodata.*)
 .rodata.str1.4
                0x0000000066402bbc      0x253 launcher_main.o
                                        0x254 (size before relaxing)
 *fill*         0x0000000066402e0f        0x1 00
 .rodata.str1.4
                0x0000000066402e10      0x122 launcher_scene_launch.o
                                        0x130 (size before relaxing)
 *fill*         0x0000000066402f32        0x2 00
 .rodata.str1.4
                0x0000000066402f34      0x22b ./desktop_appinfo.a(desktop_appinfo.o)
                                        0x22c (size before relaxing)
 *fill*         0x000000006640315f        0x1 00
 .rodata.cst4   0x0000000066403160       0x10 ./desktop_appinfo.a(desktop_appinfo.o)
 .rodata.str1.4
                0x0000000066403170       0x9d ./../../../../psp_rel/lib/libcrt/crtend1.o
                                         0xa0 (size before relaxing)
 *fill*         0x000000006640320d        0x3 00
 .rodata.str1.4
                0x0000000066403210       0x57 ./../../../../psp_rel/lib/libc/libc_sysindep.a(vsprintf.o)
                                         0x58 (size before relaxing)

.fini           0x0000000066403268       0x20
 *(.fini)
 .fini          0x0000000066403268        0x8 ./../../../../psp_rel/lib/libcrt/crti.o
                0x0000000066403268                _fini
 .fini          0x0000000066403270        0x8 ./../../../../psp_rel/lib/libcrt/crtbegin.o
 .fini          0x0000000066403278       0x10 ./../../../../psp_rel/lib/libcrt/crtn.o
                0x0000000066404000                . = ALIGN (0x1000)

.ctors          0x0000000066404000        0x8
 *crtbegin*.o(.ctors)
 .ctors         0x0000000066404000        0x4 ./../../../../psp_rel/lib/libcrt/crtbegin.o
                0x0000000066404000                __CTOR_LIST__
 *(EXCLUDE_FILE(*crtend*.o) .ctors)
 *(SORT(.ctors.*))
 *(.ctors)
 .ctors         0x0000000066404004        0x4 ./../../../../psp_rel/lib/libcrt/crtend.o
                0x0000000066404004                __CTOR_END__

.dtors          0x0000000066404008        0xc
 *crtbegin*.o(.dtors)
 .dtors         0x0000000066404008        0x4 ./../../../../psp_rel/lib/libcrt/crtbegin.o
                0x0000000066404008                __DTOR_LIST__
 .dtors         0x000000006640400c        0x4 ./../../../../psp_rel/lib/libcrt/crtbegin1.o
 *(EXCLUDE_FILE(*crtend*.o) .dtors)
 *(SORT(.dtors.*))
 *(.dtors)
 .dtors         0x0000000066404010        0x4 ./../../../../psp_rel/lib/libcrt/crtend.o
                0x0000000066404010                __DTOR_END__

.data           0x0000000066404014       0xb8
 *(.data)
 .data          0x0000000066404014       0xb8 ./desktop_appinfo.a(desktop_appinfo.o)
                0x0000000066404014                none_value
 *(.sdata)

.sbss
 *(.sbss)
 *(.scommon)

.bss            0x00000000664040cc      0x374
 *(.bss)
 .bss           0x00000000664040cc       0x8c launcher_main.o
 .bss           0x0000000066404158       0x10 launcher_scene_launch.o
                0x000000006640415c                language_changed
                0x0000000066404158                app_exited
 .bss           0x0000000066404168      0x2c8 ./desktop_appinfo.a(desktop_appinfo.o)
 *(COMMON)
 COMMON         0x0000000066404430       0x10 launcher_main.o
                0x0000000066404430                pthread_mutex_type_t
                0x0000000066404434                debug_time
                0x0000000066404438                pthread_share_type_t
                0x000000006640443c                dp

.rel.dyn
Address of section .init set to 0x66400000
LOAD launcher_main.o
LOAD launcher_scene_launch.o
LOAD ./desktop_api.a
LOAD ./desktop_appinfo.a
LOAD ./../../../../case/lib/commonui_api.a
LOAD ./../../../../case/lib/style_api.a
LOAD ./../../../../case/lib/fusion_api.a
LOAD ./../../../../case/lib/applib_api.a
LOAD ./../../../../psp_rel/lib/libcom.a
LOAD ./../../../../psp_rel/lib/libcrt/crti.o
LOAD ./../../../../psp_rel/lib/libcrt/crtbegin.o
LOAD ./../../../../psp_rel/lib/libcrt/crtbegin1.o
LOAD ./../../../../psp_rel/lib/libcrt/crtend1.o
LOAD ./../../../../psp_rel/lib/libcrt/crtend.o
LOAD ./../../../../psp_rel/lib/libcrt/crtn.o
LOAD ./../../../../psp_rel/lib/ime_api.a
LOAD ./../../../../psp_rel/lib/mlang_api.a
LOAD ./../../../../psp_rel/lib/mnavi_api.a
LOAD ./../../../../psp_rel/lib/plist_api.a
LOAD ./../../../../psp_rel/lib/sqlite_api.a
LOAD ./../../../../psp_rel/lib/libc_sys_api.a
LOAD ./../../../../psp_rel/lib/libc_fs_api.a
LOAD ./../../../../psp_rel/lib/libc/libc_sysindep.a
LOAD ./../../../../psp_rel/lib/gui_api.a
LOAD ./../../../../psp_rel/lib/mmm_api.a
LOAD ./../../../../psp_rel/lib/transimage.a
LOAD ./../../../../psp_rel/lib/apconfig_api.a
LOAD ./../../../../psp_rel/lib/syscall_api.a
LOAD ./../../../../psp_rel/lib/kmodule_api.a
OUTPUT(./../../../../case/images/apps/launcher/launcher.app elf32-tradlittlemips)

.reginfo        0x0000000000000000       0x18
 .reginfo       0x0000000000000000       0x18 launcher_main.o

.pdr            0x0000000000000000      0x9c0
 .pdr           0x0000000000000000       0x60 launcher_main.o
 .pdr           0x0000000000000060       0x40 launcher_scene_launch.o
 .pdr           0x00000000000000a0       0x20 ./desktop_api.a(desktop_api7.o)
 .pdr           0x00000000000000c0       0xc0 ./desktop_appinfo.a(desktop_appinfo.o)
 .pdr           0x0000000000000180       0x20 ./../../../../case/lib/applib_api.a(applib_api1189.o)
 .pdr           0x00000000000001a0       0x20 ./../../../../case/lib/applib_api.a(applib_api399.o)
 .pdr           0x00000000000001c0       0x20 ./../../../../case/lib/applib_api.a(applib_api407.o)
 .pdr           0x00000000000001e0       0x20 ./../../../../case/lib/applib_api.a(applib_api415.o)
 .pdr           0x0000000000000200       0x20 ./../../../../case/lib/applib_api.a(applib_api439.o)
 .pdr           0x0000000000000220       0x20 ./../../../../case/lib/applib_api.a(applib_api447.o)
 .pdr           0x0000000000000240       0x20 ./../../../../case/lib/applib_api.a(applib_api455.o)
 .pdr           0x0000000000000260       0x20 ./../../../../case/lib/applib_api.a(applib_api465.o)
 .pdr           0x0000000000000280       0x20 ./../../../../case/lib/applib_api.a(applib_api473.o)
 .pdr           0x00000000000002a0       0x20 ./../../../../case/lib/applib_api.a(applib_api481.o)
 .pdr           0x00000000000002c0       0x20 ./../../../../case/lib/applib_api.a(applib_api497.o)
 .pdr           0x00000000000002e0       0x20 ./../../../../case/lib/applib_api.a(applib_api505.o)
 .pdr           0x0000000000000300       0x20 ./../../../../case/lib/applib_api.a(applib_api513.o)
 .pdr           0x0000000000000320       0x20 ./../../../../case/lib/applib_api.a(applib_api521.o)
 .pdr           0x0000000000000340       0x20 ./../../../../case/lib/applib_api.a(applib_api933.o)
 .pdr           0x0000000000000360       0x20 ./../../../../case/lib/applib_api.a(applib_api949.o)
 .pdr           0x0000000000000380       0x20 ./../../../../psp_rel/lib/libcrt/crtbegin.o
 .pdr           0x00000000000003a0       0x20 ./../../../../psp_rel/lib/libcrt/crtbegin1.o
 .pdr           0x00000000000003c0       0x60 ./../../../../psp_rel/lib/libcrt/crtend1.o
 .pdr           0x0000000000000420       0x20 ./../../../../psp_rel/lib/libcrt/crtend.o
 .pdr           0x0000000000000440       0x20 ./../../../../psp_rel/lib/libc_sys_api.a(libc_sys_api15.o)
 .pdr           0x0000000000000460       0x20 ./../../../../psp_rel/lib/libc_sys_api.a(libc_sys_api151.o)
 .pdr           0x0000000000000480       0x20 ./../../../../psp_rel/lib/libc_sys_api.a(libc_sys_api210.o)
 .pdr           0x00000000000004a0       0x20 ./../../../../psp_rel/lib/libc_sys_api.a(libc_sys_api23.o)
 .pdr           0x00000000000004c0       0x20 ./../../../../psp_rel/lib/libc_sys_api.a(libc_sys_api261.o)
 .pdr           0x00000000000004e0       0x20 ./../../../../psp_rel/lib/libc_sys_api.a(libc_sys_api269.o)
 .pdr           0x0000000000000500       0x20 ./../../../../psp_rel/lib/libc_sys_api.a(libc_sys_api285.o)
 .pdr           0x0000000000000520       0x20 ./../../../../psp_rel/lib/libc_sys_api.a(libc_sys_api293.o)
 .pdr           0x0000000000000540       0x20 ./../../../../psp_rel/lib/libc_sys_api.a(libc_sys_api590.o)
 .pdr           0x0000000000000560       0x20 ./../../../../psp_rel/lib/libc_sys_api.a(libc_sys_api7.o)
 .pdr           0x0000000000000580       0x20 ./../../../../psp_rel/lib/libc_sys_api.a(libc_sys_api718.o)
 .pdr           0x00000000000005a0       0x20 ./../../../../psp_rel/lib/libc_sys_api.a(libc_sys_api726.o)
 .pdr           0x00000000000005c0       0x20 ./../../../../psp_rel/lib/libc_sys_api.a(libc_sys_api734.o)
 .pdr           0x00000000000005e0       0x20 ./../../../../psp_rel/lib/libc_sys_api.a(libc_sys_api750.o)
 .pdr           0x0000000000000600       0x20 ./../../../../psp_rel/lib/libc_sys_api.a(libc_sys_api862.o)
 .pdr           0x0000000000000620       0x20 ./../../../../psp_rel/lib/libc_sys_api.a(libc_sys_api87.o)
 .pdr           0x0000000000000640       0x20 ./../../../../psp_rel/lib/libc_sys_api.a(libc_sys_api878.o)
 .pdr           0x0000000000000660       0x20 ./../../../../psp_rel/lib/libc_fs_api.a(libc_fs_api151.o)
 .pdr           0x0000000000000680       0x20 ./../../../../psp_rel/lib/libc/libc_sysindep.a(snprintf.o)
 .pdr           0x00000000000006a0       0x20 ./../../../../psp_rel/lib/libc/libc_sysindep.a(vsnprintf.o)
 .pdr           0x00000000000006c0       0x60 ./../../../../psp_rel/lib/libc/libc_sysindep.a(vsprintf.o)
 .pdr           0x0000000000000720       0x40 ./../../../../psp_rel/lib/libc/libc_sysindep.a(memset.o)
 .pdr           0x0000000000000760       0x40 ./../../../../psp_rel/lib/libc/libc_sysindep.a(strcasecmp.o)
 .pdr           0x00000000000007a0       0x40 ./../../../../psp_rel/lib/libc/libc_sysindep.a(strcpy.o)
 .pdr           0x00000000000007e0       0x20 ./../../../../psp_rel/lib/libc/libc_sysindep.a(strdup.o)
 .pdr           0x0000000000000800       0x20 ./../../../../psp_rel/lib/libc/libc_sysindep.a(strlen.o)
 .pdr           0x0000000000000820       0x40 ./../../../../psp_rel/lib/libc/libc_sysindep.a(memcpy.o)
 .pdr           0x0000000000000860       0x20 ./../../../../psp_rel/lib/apconfig_api.a(apconfig_api15.o)
 .pdr           0x0000000000000880       0x20 ./../../../../psp_rel/lib/apconfig_api.a(apconfig_api6.o)
 .pdr           0x00000000000008a0       0x20 ./../../../../psp_rel/lib/syscall_api.a(syscall_api22.o)
 .pdr           0x00000000000008c0       0x20 ./../../../../psp_rel/lib/syscall_api.a(syscall_api30.o)
 .pdr           0x00000000000008e0       0x20 ./../../../../psp_rel/lib/syscall_api.a(syscall_api406.o)
 .pdr           0x0000000000000900       0x20 ./../../../../psp_rel/lib/syscall_api.a(syscall_api470.o)
 .pdr           0x0000000000000920       0x20 ./../../../../psp_rel/lib/syscall_api.a(syscall_api478.o)
 .pdr           0x0000000000000940       0x20 ./../../../../psp_rel/lib/syscall_api.a(syscall_api870.o)
 .pdr           0x0000000000000960       0x20 ./../../../../psp_rel/lib/syscall_api.a(syscall_api878.o)
 .pdr           0x0000000000000980       0x20 ./../../../../psp_rel/lib/kmodule_api.a(kmodule_api14.o)
 .pdr           0x00000000000009a0       0x20 ./../../../../psp_rel/lib/kmodule_api.a(kmodule_api6.o)

.mdebug.abi32   0x0000000000000000        0x0

.debug_abbrev   0x0000000000000000      0x5fb
 .debug_abbrev  0x0000000000000000      0x1fe launcher_main.o
 .debug_abbrev  0x00000000000001fe      0x1a7 launcher_scene_launch.o
 .debug_abbrev  0x00000000000003a5       0x80 ./../../../../psp_rel/lib/libcrt/crtbegin1.o
 .debug_abbrev  0x0000000000000425      0x1d6 ./../../../../psp_rel/lib/libcrt/crtend1.o

.debug_info     0x0000000000000000     0x1e78
 .debug_info    0x0000000000000000      0xd67 launcher_main.o
 .debug_info    0x0000000000000d67      0x841 launcher_scene_launch.o
 .debug_info    0x00000000000015a8       0xfe ./../../../../psp_rel/lib/libcrt/crtbegin1.o
 .debug_info    0x00000000000016a6      0x7d2 ./../../../../psp_rel/lib/libcrt/crtend1.o

.debug_line     0x0000000000000000      0x610
 .debug_line    0x0000000000000000      0x2b9 launcher_main.o
 .debug_line    0x00000000000002b9      0x19d launcher_scene_launch.o
 .debug_line    0x0000000000000456       0x62 ./../../../../psp_rel/lib/libcrt/crtbegin1.o
 .debug_line    0x00000000000004b8      0x158 ./../../../../psp_rel/lib/libcrt/crtend1.o

.debug_frame    0x0000000000000000      0x15c
 .debug_frame   0x0000000000000000       0x88 launcher_main.o
 .debug_frame   0x0000000000000088       0x54 launcher_scene_launch.o
 .debug_frame   0x00000000000000dc       0x20 ./../../../../psp_rel/lib/libcrt/crtbegin1.o
 .debug_frame   0x00000000000000fc       0x60 ./../../../../psp_rel/lib/libcrt/crtend1.o

.debug_pubnames
                0x0000000000000000      0x1cb
 .debug_pubnames
                0x0000000000000000       0x85 launcher_main.o
 .debug_pubnames
                0x0000000000000085       0x82 launcher_scene_launch.o
 .debug_pubnames
                0x0000000000000107       0x55 ./../../../../psp_rel/lib/libcrt/crtbegin1.o
 .debug_pubnames
                0x000000000000015c       0x6f ./../../../../psp_rel/lib/libcrt/crtend1.o

.debug_aranges  0x0000000000000000       0x80
 .debug_aranges
                0x0000000000000000       0x20 launcher_main.o
 .debug_aranges
                0x0000000000000020       0x20 launcher_scene_launch.o
 .debug_aranges
                0x0000000000000040       0x20 ./../../../../psp_rel/lib/libcrt/crtbegin1.o
 .debug_aranges
                0x0000000000000060       0x20 ./../../../../psp_rel/lib/libcrt/crtend1.o

.debug_str      0x0000000000000000     0x1d50
 .debug_str     0x0000000000000000      0xb7f launcher_main.o
                                        0xbfe (size before relaxing)
 .debug_str     0x0000000000000b7f      0xe0c launcher_scene_launch.o
                                       0x10f0 (size before relaxing)
 .debug_str     0x000000000000198b       0x6c ./../../../../psp_rel/lib/libcrt/crtbegin1.o
                                        0x1d9 (size before relaxing)
 .debug_str     0x00000000000019f7      0x359 ./../../../../psp_rel/lib/libcrt/crtend1.o
                                        0x556 (size before relaxing)

.comment        0x0000000000000000      0x2b0
 .comment       0x0000000000000000       0x2b launcher_main.o
 .comment       0x000000000000002b       0x2b launcher_scene_launch.o
 .comment       0x0000000000000056       0x2b ./desktop_appinfo.a(desktop_appinfo.o)
 .comment       0x0000000000000081       0x2b ./../../../../psp_rel/lib/libcrt/crtbegin.o
 .comment       0x00000000000000ac       0x2b ./../../../../psp_rel/lib/libcrt/crtbegin1.o
 .comment       0x00000000000000d7       0x2b ./../../../../psp_rel/lib/libcrt/crtend1.o
 .comment       0x0000000000000102       0x2b ./../../../../psp_rel/lib/libcrt/crtend.o
 .comment       0x000000000000012d       0x2b ./../../../../psp_rel/lib/libc/libc_sysindep.a(snprintf.o)
 .comment       0x0000000000000158       0x2b ./../../../../psp_rel/lib/libc/libc_sysindep.a(vsnprintf.o)
 .comment       0x0000000000000183       0x2b ./../../../../psp_rel/lib/libc/libc_sysindep.a(vsprintf.o)
 .comment       0x00000000000001ae       0x2b ./../../../../psp_rel/lib/libc/libc_sysindep.a(memset.o)
 .comment       0x00000000000001d9       0x2b ./../../../../psp_rel/lib/libc/libc_sysindep.a(strcasecmp.o)
 .comment       0x0000000000000204       0x2b ./../../../../psp_rel/lib/libc/libc_sysindep.a(strcpy.o)
 .comment       0x000000000000022f       0x2b ./../../../../psp_rel/lib/libc/libc_sysindep.a(strdup.o)
 .comment       0x000000000000025a       0x2b ./../../../../psp_rel/lib/libc/libc_sysindep.a(strlen.o)
 .comment       0x0000000000000285       0x2b ./../../../../psp_rel/lib/libc/libc_sysindep.a(memcpy.o)

.debug_ranges   0x0000000000000000       0x30
 .debug_ranges  0x0000000000000000       0x30 ./../../../../psp_rel/lib/libcrt/crtend1.o
