
./../../../case/images/lib/fusion.so:     file format elf32-tradlittlemips

Disassembly of section .init:

54000000 <_init>:
54000000:	27bdffe0 	addiu	sp,sp,-32
54000004:	afbf0014 	sw	ra,20(sp)
54000008:	0d00083f 	jal	540020fc <__do_global_ctors_aux>
5400000c:	00000000 	nop
54000010:	8fbf0014 	lw	ra,20(sp)
54000014:	27bd0020 	addiu	sp,sp,32
54000018:	03e00008 	jr	ra
5400001c:	00000000 	nop
Disassembly of section .text:

54000020 <_update_framebuffer>:
54000020:	27bdffc8 	addiu	sp,sp,-56
54000024:	afb60030 	sw	s6,48(sp)
54000028:	afb5002c 	sw	s5,44(sp)
5400002c:	afbf0034 	sw	ra,52(sp)
54000030:	afb40028 	sw	s4,40(sp)
54000034:	afb30024 	sw	s3,36(sp)
54000038:	afb20020 	sw	s2,32(sp)
5400003c:	afb1001c 	sw	s1,28(sp)
54000040:	afb00018 	sw	s0,24(sp)
54000044:	8ca30088 	lw	v1,136(a1)
54000048:	24020001 	li	v0,1
5400004c:	00a0a821 	move	s5,a1
54000050:	10620054 	beq	v1,v0,540001a4 <_update_framebuffer+0x184>
54000054:	0080b021 	move	s6,a0
54000058:	8ea80030 	lw	t0,48(s5)
5400005c:	8ea700b4 	lw	a3,180(s5)
54000060:	51070018 	beql	t0,a3,540000c4 <_update_framebuffer+0xa4>
54000064:	8ea20044 	lw	v0,68(s5)
54000068:	8ea5008c 	lw	a1,140(s5)
5400006c:	86ac00c2 	lh	t4,194(s5)
54000070:	86a300c0 	lh	v1,192(s5)
54000074:	71855802 	mul	t3,t4,a1
54000078:	8ea90018 	lw	t1,24(s5)
5400007c:	01635021 	addu	t2,t3,v1
54000080:	8ea3001c 	lw	v1,28(s5)
54000084:	000a3040 	sll	a2,t2,0x1
54000088:	00c79021 	addu	s2,a2,a3
5400008c:	01008821 	move	s1,t0
54000090:	00099840 	sll	s3,t1,0x1
54000094:	1860000a 	blez	v1,540000c0 <_update_framebuffer+0xa0>
54000098:	0005a040 	sll	s4,a1,0x1
5400009c:	00608021 	move	s0,v1
540000a0:	02402021 	move	a0,s2
540000a4:	02202821 	move	a1,s1
540000a8:	02603021 	move	a2,s3
540000ac:	0d000867 	jal	5400219c <memcpy>
540000b0:	2610ffff 	addiu	s0,s0,-1
540000b4:	02549021 	addu	s2,s2,s4
540000b8:	1600fff9 	bnez	s0,540000a0 <_update_framebuffer+0x80>
540000bc:	02338821 	addu	s1,s1,s3
540000c0:	8ea20044 	lw	v0,68(s5)
540000c4:	14400011 	bnez	v0,5400010c <_update_framebuffer+0xec>
540000c8:	02c02021 	move	a0,s6
540000cc:	24054666 	li	a1,18022
540000d0:	0d000862 	jal	54002188 <ioctl>
540000d4:	00003021 	move	a2,zero
540000d8:	04400016 	bltz	v0,54000134 <_update_framebuffer+0x114>
540000dc:	24030001 	li	v1,1
540000e0:	8fbf0034 	lw	ra,52(sp)
540000e4:	8fb60030 	lw	s6,48(sp)
540000e8:	8fb5002c 	lw	s5,44(sp)
540000ec:	8fb40028 	lw	s4,40(sp)
540000f0:	8fb30024 	lw	s3,36(sp)
540000f4:	8fb20020 	lw	s2,32(sp)
540000f8:	8fb1001c 	lw	s1,28(sp)
540000fc:	8fb00018 	lw	s0,24(sp)
54000100:	00601021 	move	v0,v1
54000104:	03e00008 	jr	ra
54000108:	27bd0038 	addiu	sp,sp,56
5400010c:	8ea60038 	lw	a2,56(s5)
54000110:	8ea400b4 	lw	a0,180(s5)
54000114:	0040f809 	jalr	v0
54000118:	8ea50034 	lw	a1,52(s5)
5400011c:	02c02021 	move	a0,s6
54000120:	24054666 	li	a1,18022
54000124:	0d000862 	jal	54002188 <ioctl>
54000128:	00003021 	move	a2,zero
5400012c:	0441ffec 	bgez	v0,540000e0 <_update_framebuffer+0xc0>
54000130:	24030001 	li	v1,1
54000134:	0d00085c 	jal	54002170 <__errno>
54000138:	00000000 	nop
5400013c:	0d000859 	jal	54002164 <getpid>
54000140:	00408021 	move	s0,v0
54000144:	8e050000 	lw	a1,0(s0)
54000148:	3c0f5401 	lui	t7,0x5401
5400014c:	3c0d5401 	lui	t5,0x5401
54000150:	3c075401 	lui	a3,0x5401
54000154:	240e00c5 	li	t6,197
54000158:	25a88fe0 	addiu	t0,t5,-28704
5400015c:	25e49164 	addiu	a0,t7,-28316
54000160:	00403021 	move	a2,v0
54000164:	24e791a0 	addiu	a3,a3,-28256
54000168:	afae0010 	sw	t6,16(sp)
5400016c:	0d0023e3 	jal	54008f8c <printf>
54000170:	afa80014 	sw	t0,20(sp)
54000174:	00001821 	move	v1,zero
54000178:	8fbf0034 	lw	ra,52(sp)
5400017c:	8fb60030 	lw	s6,48(sp)
54000180:	8fb5002c 	lw	s5,44(sp)
54000184:	8fb40028 	lw	s4,40(sp)
54000188:	8fb30024 	lw	s3,36(sp)
5400018c:	8fb20020 	lw	s2,32(sp)
54000190:	8fb1001c 	lw	s1,28(sp)
54000194:	8fb00018 	lw	s0,24(sp)
54000198:	00601021 	move	v0,v1
5400019c:	03e00008 	jr	ra
540001a0:	27bd0038 	addiu	sp,sp,56
540001a4:	8ca400cc 	lw	a0,204(a1)
540001a8:	5483ffac 	bnel	a0,v1,5400005c <_update_framebuffer+0x3c>
540001ac:	8ea80030 	lw	t0,48(s5)
540001b0:	1000ffc4 	b	540000c4 <_update_framebuffer+0xa4>
540001b4:	8ea20044 	lw	v0,68(s5)

540001b8 <_display_other>:
540001b8:	27bdffd0 	addiu	sp,sp,-48
540001bc:	ac85000c 	sw	a1,12(a0)
540001c0:	afb20020 	sw	s2,32(sp)
540001c4:	00809021 	move	s2,a0
540001c8:	3c045401 	lui	a0,0x5401
540001cc:	248491ac 	addiu	a0,a0,-28244
540001d0:	24050002 	li	a1,2
540001d4:	00003021 	move	a2,zero
540001d8:	afb30024 	sw	s3,36(sp)
540001dc:	afb00018 	sw	s0,24(sp)
540001e0:	afbf0028 	sw	ra,40(sp)
540001e4:	0d000865 	jal	54002194 <open>
540001e8:	afb1001c 	sw	s1,28(sp)
540001ec:	00409821 	move	s3,v0
540001f0:	04400045 	bltz	v0,54000308 <_display_other+0x150>
540001f4:	2650000c 	addiu	s0,s2,12
540001f8:	8e050014 	lw	a1,20(s0)
540001fc:	18a00012 	blez	a1,54000248 <_display_other+0x90>
54000200:	00001821 	move	v1,zero
54000204:	24710001 	addiu	s1,v1,1
54000208:	02002021 	move	a0,s0
5400020c:	0d0008e6 	jal	54002398 <transimage>
54000210:	ae110018 	sw	s1,24(s0)
54000214:	02602021 	move	a0,s3
54000218:	04400015 	bltz	v0,54000270 <_display_other+0xb8>
5400021c:	02402821 	move	a1,s2
54000220:	0d000008 	jal	54000020 <_update_framebuffer>
54000224:	00000000 	nop
54000228:	1040002b 	beqz	v0,540002d8 <_display_other+0x120>
5400022c:	00002021 	move	a0,zero
54000230:	0d0023e6 	jal	54008f98 <mdelay>
54000234:	00000000 	nop
54000238:	8e180014 	lw	t8,20(s0)
5400023c:	0238782a 	slt	t7,s1,t8
54000240:	15e0fff0 	bnez	t7,54000204 <_display_other+0x4c>
54000244:	02201821 	move	v1,s1
54000248:	0d00085f 	jal	5400217c <close>
5400024c:	02602021 	move	a0,s3
54000250:	8fbf0028 	lw	ra,40(sp)
54000254:	8fb30024 	lw	s3,36(sp)
54000258:	8fb20020 	lw	s2,32(sp)
5400025c:	8fb1001c 	lw	s1,28(sp)
54000260:	8fb00018 	lw	s0,24(sp)
54000264:	24020001 	li	v0,1
54000268:	03e00008 	jr	ra
5400026c:	27bd0030 	addiu	sp,sp,48
54000270:	0d00085c 	jal	54002170 <__errno>
54000274:	00000000 	nop
54000278:	0d000859 	jal	54002164 <getpid>
5400027c:	00408821 	move	s1,v0
54000280:	3c0a5401 	lui	t2,0x5401
54000284:	3c095401 	lui	t1,0x5401
54000288:	8e250000 	lw	a1,0(s1)
5400028c:	254491b4 	addiu	a0,t2,-28236
54000290:	00403021 	move	a2,v0
54000294:	252791a0 	addiu	a3,t1,-28256
54000298:	24030213 	li	v1,531
5400029c:	3c0e5401 	lui	t6,0x5401
540002a0:	25cd8ff4 	addiu	t5,t6,-28684
540002a4:	afa30010 	sw	v1,16(sp)
540002a8:	0d0023e3 	jal	54008f8c <printf>
540002ac:	afad0014 	sw	t5,20(sp)
540002b0:	0d00085f 	jal	5400217c <close>
540002b4:	02602021 	move	a0,s3
540002b8:	00001021 	move	v0,zero
540002bc:	8fbf0028 	lw	ra,40(sp)
540002c0:	8fb30024 	lw	s3,36(sp)
540002c4:	8fb20020 	lw	s2,32(sp)
540002c8:	8fb1001c 	lw	s1,28(sp)
540002cc:	8fb00018 	lw	s0,24(sp)
540002d0:	03e00008 	jr	ra
540002d4:	27bd0030 	addiu	sp,sp,48
540002d8:	0d00085c 	jal	54002170 <__errno>
540002dc:	00000000 	nop
540002e0:	0d000859 	jal	54002164 <getpid>
540002e4:	00409021 	move	s2,v0
540002e8:	3c0c5401 	lui	t4,0x5401
540002ec:	3c0b5401 	lui	t3,0x5401
540002f0:	8e450000 	lw	a1,0(s2)
540002f4:	25849164 	addiu	a0,t4,-28316
540002f8:	00403021 	move	a2,v0
540002fc:	256791a0 	addiu	a3,t3,-28256
54000300:	1000ffe6 	b	5400029c <_display_other+0xe4>
54000304:	2403021a 	li	v1,538
54000308:	0d00085c 	jal	54002170 <__errno>
5400030c:	00000000 	nop
54000310:	0d000859 	jal	54002164 <getpid>
54000314:	00408021 	move	s0,v0
54000318:	8e050000 	lw	a1,0(s0)
5400031c:	3c065401 	lui	a2,0x5401
54000320:	3c035401 	lui	v1,0x5401
54000324:	3c075401 	lui	a3,0x5401
54000328:	24c491e8 	addiu	a0,a2,-28184
5400032c:	2408020a 	li	t0,522
54000330:	00403021 	move	a2,v0
54000334:	24e791a0 	addiu	a3,a3,-28256
54000338:	24628ff4 	addiu	v0,v1,-28684
5400033c:	afa80010 	sw	t0,16(sp)
54000340:	0d0023e3 	jal	54008f8c <printf>
54000344:	afa20014 	sw	v0,20(sp)
54000348:	1000ffdc 	b	540002bc <_display_other+0x104>
5400034c:	00001021 	move	v0,zero

54000350 <_get_cur_framebuffer_data>:
54000350:	27bdffc0 	addiu	sp,sp,-64
54000354:	afb20038 	sw	s2,56(sp)
54000358:	afb10034 	sw	s1,52(sp)
5400035c:	afb00030 	sw	s0,48(sp)
54000360:	afbf003c 	sw	ra,60(sp)
54000364:	00808021 	move	s0,a0
54000368:	86030006 	lh	v1,6(s0)
5400036c:	84840004 	lh	a0,4(a0)
54000370:	8e060008 	lw	a2,8(s0)
54000374:	70831002 	mul	v0,a0,v1
54000378:	00a09021 	move	s2,a1
5400037c:	00c02021 	move	a0,a2
54000380:	14c0001b 	bnez	a2,540003f0 <_get_cur_framebuffer_data+0xa0>
54000384:	00028840 	sll	s1,v0,0x1
54000388:	0d0023e9 	jal	54008fa4 <malloc>
5400038c:	02202021 	move	a0,s1
54000390:	00403821 	move	a3,v0
54000394:	1040001d 	beqz	v0,5400040c <_get_cur_framebuffer_data+0xbc>
54000398:	ae020008 	sw	v0,8(s0)
5400039c:	24050001 	li	a1,1
540003a0:	12450031 	beq	s2,a1,54000468 <_get_cur_framebuffer_data+0x118>
540003a4:	00000000 	nop
540003a8:	860c0006 	lh	t4,6(s0)
540003ac:	860f0000 	lh	t7,0(s0)
540003b0:	860e0002 	lh	t6,2(s0)
540003b4:	860d0004 	lh	t5,4(s0)
540003b8:	27a40018 	addiu	a0,sp,24
540003bc:	afaf001c 	sw	t7,28(sp)
540003c0:	afae0020 	sw	t6,32(sp)
540003c4:	afad0024 	sw	t5,36(sp)
540003c8:	afac0028 	sw	t4,40(sp)
540003cc:	0d0008df 	jal	5400237c <gui_get_area>
540003d0:	afa70018 	sw	a3,24(sp)
540003d4:	8fbf003c 	lw	ra,60(sp)
540003d8:	8fb20038 	lw	s2,56(sp)
540003dc:	8fb10034 	lw	s1,52(sp)
540003e0:	8fb00030 	lw	s0,48(sp)
540003e4:	2c420001 	sltiu	v0,v0,1
540003e8:	03e00008 	jr	ra
540003ec:	27bd0040 	addiu	sp,sp,64
540003f0:	0d0023ec 	jal	54008fb0 <free>
540003f4:	00000000 	nop
540003f8:	0d0023e9 	jal	54008fa4 <malloc>
540003fc:	02202021 	move	a0,s1
54000400:	00403821 	move	a3,v0
54000404:	1440ffe5 	bnez	v0,5400039c <_get_cur_framebuffer_data+0x4c>
54000408:	ae020008 	sw	v0,8(s0)
5400040c:	0d00085c 	jal	54002170 <__errno>
54000410:	00000000 	nop
54000414:	0d000859 	jal	54002164 <getpid>
54000418:	00408021 	move	s0,v0
5400041c:	8e050000 	lw	a1,0(s0)
54000420:	3c0b5401 	lui	t3,0x5401
54000424:	3c095401 	lui	t1,0x5401
54000428:	3c075401 	lui	a3,0x5401
5400042c:	240a025d 	li	t2,605
54000430:	25289004 	addiu	t0,t1,-28668
54000434:	25649224 	addiu	a0,t3,-28124
54000438:	00403021 	move	a2,v0
5400043c:	24e791a0 	addiu	a3,a3,-28256
54000440:	afaa0010 	sw	t2,16(sp)
54000444:	0d0023e3 	jal	54008f8c <printf>
54000448:	afa80014 	sw	t0,20(sp)
5400044c:	8fbf003c 	lw	ra,60(sp)
54000450:	8fb20038 	lw	s2,56(sp)
54000454:	8fb10034 	lw	s1,52(sp)
54000458:	8fb00030 	lw	s0,48(sp)
5400045c:	00001021 	move	v0,zero
54000460:	03e00008 	jr	ra
54000464:	27bd0040 	addiu	sp,sp,64
54000468:	0d0008e2 	jal	54002388 <gui_framebuffer_update>
5400046c:	00000000 	nop
54000470:	1000ffcd 	b	540003a8 <_get_cur_framebuffer_data+0x58>
54000474:	8e070008 	lw	a3,8(s0)

54000478 <_get_fusion_info>:
54000478:	27bdffb0 	addiu	sp,sp,-80
5400047c:	afb40040 	sw	s4,64(sp)
54000480:	0080a021 	move	s4,a0
54000484:	3c045401 	lui	a0,0x5401
54000488:	afb50044 	sw	s5,68(sp)
5400048c:	afb3003c 	sw	s3,60(sp)
54000490:	00c0a821 	move	s5,a2
54000494:	00a09821 	move	s3,a1
54000498:	248491ac 	addiu	a0,a0,-28244
5400049c:	00002821 	move	a1,zero
540004a0:	00003021 	move	a2,zero
540004a4:	afb10034 	sw	s1,52(sp)
540004a8:	afbf0048 	sw	ra,72(sp)
540004ac:	afb20038 	sw	s2,56(sp)
540004b0:	0d000865 	jal	54002194 <open>
540004b4:	afb00030 	sw	s0,48(sp)
540004b8:	04400064 	bltz	v0,5400064c <_get_fusion_info+0x1d4>
540004bc:	00408821 	move	s1,v0
540004c0:	00402021 	move	a0,v0
540004c4:	24054662 	li	a1,18018
540004c8:	0d000862 	jal	54002188 <ioctl>
540004cc:	02803021 	move	a2,s4
540004d0:	0440008f 	bltz	v0,54000710 <_get_fusion_info+0x298>
540004d4:	00409021 	move	s2,v0
540004d8:	02202021 	move	a0,s1
540004dc:	24054663 	li	a1,18019
540004e0:	0d000862 	jal	54002188 <ioctl>
540004e4:	26860028 	addiu	a2,s4,40
540004e8:	0440006a 	bltz	v0,54000694 <_get_fusion_info+0x21c>
540004ec:	00409021 	move	s2,v0
540004f0:	02202021 	move	a0,s1
540004f4:	24054683 	li	a1,18051
540004f8:	0d000862 	jal	54002188 <ioctl>
540004fc:	2686002c 	addiu	a2,s4,44
54000500:	04400077 	bltz	v0,540006e0 <_get_fusion_info+0x268>
54000504:	00409021 	move	s2,v0
54000508:	0d00085f 	jal	5400217c <close>
5400050c:	02202021 	move	a0,s1
54000510:	52600014 	beqzl	s3,54000564 <_get_fusion_info+0xec>
54000514:	27a40020 	addiu	a0,sp,32
54000518:	86790000 	lh	t9,0(s3)
5400051c:	867f0004 	lh	ra,4(s3)
54000520:	8e910000 	lw	s1,0(s4)
54000524:	033f9021 	addu	s2,t9,ra
54000528:	0232282a 	slt	a1,s1,s2
5400052c:	14a0003d 	bnez	a1,54000624 <_get_fusion_info+0x1ac>
54000530:	00001821 	move	v1,zero
54000534:	86680002 	lh	t0,2(s3)
54000538:	86670006 	lh	a3,6(s3)
5400053c:	8e830004 	lw	v1,4(s4)
54000540:	01071021 	addu	v0,t0,a3
54000544:	0062202a 	slt	a0,v1,v0
54000548:	14800036 	bnez	a0,54000624 <_get_fusion_info+0x1ac>
5400054c:	00001821 	move	v1,zero
54000550:	8e69000c 	lw	t1,12(s3)
54000554:	24060001 	li	a2,1
54000558:	5126002f 	beql	t1,a2,54000618 <_get_fusion_info+0x1a0>
5400055c:	8e6a0008 	lw	t2,8(s3)
54000560:	27a40020 	addiu	a0,sp,32
54000564:	00002821 	move	a1,zero
54000568:	0d00087b 	jal	540021ec <memset>
5400056c:	24060010 	li	a2,16
54000570:	52600080 	beqzl	s3,54000774 <_get_fusion_info+0x2fc>
54000574:	8e8b0000 	lw	t3,0(s4)
54000578:	8e6c0008 	lw	t4,8(s3)
5400057c:	11800070 	beqz	t4,54000740 <_get_fusion_info+0x2c8>
54000580:	02602821 	move	a1,s3
54000584:	8e63000c 	lw	v1,12(s3)
54000588:	24150001 	li	s5,1
5400058c:	10750076 	beq	v1,s5,54000768 <_get_fusion_info+0x2f0>
54000590:	24040002 	li	a0,2
54000594:	afa0002c 	sw	zero,44(sp)
54000598:	86700004 	lh	s0,4(s3)
5400059c:	866d0006 	lh	t5,6(s3)
540005a0:	72047002 	mul	t6,s0,a0
540005a4:	71cd8002 	mul	s0,t6,t5
540005a8:	0d0023e9 	jal	54008fa4 <malloc>
540005ac:	02002021 	move	a0,s0
540005b0:	afa20028 	sw	v0,40(sp)
540005b4:	1040001b 	beqz	v0,54000624 <_get_fusion_info+0x1ac>
540005b8:	00001821 	move	v1,zero
540005bc:	8e650008 	lw	a1,8(s3)
540005c0:	00402021 	move	a0,v0
540005c4:	0d000867 	jal	5400219c <memcpy>
540005c8:	02003021 	move	a2,s0
540005cc:	02602821 	move	a1,s3
540005d0:	26840034 	addiu	a0,s4,52
540005d4:	0d000867 	jal	5400219c <memcpy>
540005d8:	24060008 	li	a2,8
540005dc:	8fb8002c 	lw	t8,44(sp)
540005e0:	8faf0028 	lw	t7,40(sp)
540005e4:	ae980040 	sw	t8,64(s4)
540005e8:	ae8f003c 	sw	t7,60(s4)
540005ec:	24030001 	li	v1,1
540005f0:	8fbf0048 	lw	ra,72(sp)
540005f4:	8fb50044 	lw	s5,68(sp)
540005f8:	8fb40040 	lw	s4,64(sp)
540005fc:	8fb3003c 	lw	s3,60(sp)
54000600:	8fb20038 	lw	s2,56(sp)
54000604:	8fb10034 	lw	s1,52(sp)
54000608:	8fb00030 	lw	s0,48(sp)
5400060c:	00601021 	move	v0,v1
54000610:	03e00008 	jr	ra
54000614:	27bd0050 	addiu	sp,sp,80
54000618:	1540ffd2 	bnez	t2,54000564 <_get_fusion_info+0xec>
5400061c:	27a40020 	addiu	a0,sp,32
54000620:	00001821 	move	v1,zero
54000624:	8fbf0048 	lw	ra,72(sp)
54000628:	8fb50044 	lw	s5,68(sp)
5400062c:	8fb40040 	lw	s4,64(sp)
54000630:	8fb3003c 	lw	s3,60(sp)
54000634:	8fb20038 	lw	s2,56(sp)
54000638:	8fb10034 	lw	s1,52(sp)
5400063c:	8fb00030 	lw	s0,48(sp)
54000640:	00601021 	move	v0,v1
54000644:	03e00008 	jr	ra
54000648:	27bd0050 	addiu	sp,sp,80
5400064c:	0d00085c 	jal	54002170 <__errno>
54000650:	00000000 	nop
54000654:	0d000859 	jal	54002164 <getpid>
54000658:	00408021 	move	s0,v0
5400065c:	8e050000 	lw	a1,0(s0)
54000660:	3c065401 	lui	a2,0x5401
54000664:	3c035401 	lui	v1,0x5401
54000668:	3c075401 	lui	a3,0x5401
5400066c:	24c491e8 	addiu	a0,a2,-28184
54000670:	2408022b 	li	t0,555
54000674:	00403021 	move	a2,v0
54000678:	24e791a0 	addiu	a3,a3,-28256
5400067c:	24629020 	addiu	v0,v1,-28640
54000680:	afa80010 	sw	t0,16(sp)
54000684:	0d0023e3 	jal	54008f8c <printf>
54000688:	afa20014 	sw	v0,20(sp)
5400068c:	1000ffa0 	b	54000510 <_get_fusion_info+0x98>
54000690:	00000000 	nop
54000694:	0d00085c 	jal	54002170 <__errno>
54000698:	00000000 	nop
5400069c:	0d000859 	jal	54002164 <getpid>
540006a0:	00408021 	move	s0,v0
540006a4:	3c0c5401 	lui	t4,0x5401
540006a8:	3c0b5401 	lui	t3,0x5401
540006ac:	8e050000 	lw	a1,0(s0)
540006b0:	25849258 	addiu	a0,t4,-28072
540006b4:	00403021 	move	a2,v0
540006b8:	256791a0 	addiu	a3,t3,-28256
540006bc:	2403023c 	li	v1,572
540006c0:	3c185401 	lui	t8,0x5401
540006c4:	270f9020 	addiu	t7,t8,-28640
540006c8:	afa30010 	sw	v1,16(sp)
540006cc:	afaf0014 	sw	t7,20(sp)
540006d0:	0d0023e3 	jal	54008f8c <printf>
540006d4:	afb20018 	sw	s2,24(sp)
540006d8:	1000ff8b 	b	54000508 <_get_fusion_info+0x90>
540006dc:	00000000 	nop
540006e0:	0d00085c 	jal	54002170 <__errno>
540006e4:	00000000 	nop
540006e8:	0d000859 	jal	54002164 <getpid>
540006ec:	00408021 	move	s0,v0
540006f0:	3c0e5401 	lui	t6,0x5401
540006f4:	3c0d5401 	lui	t5,0x5401
540006f8:	8e050000 	lw	a1,0(s0)
540006fc:	25c49258 	addiu	a0,t6,-28072
54000700:	00403021 	move	a2,v0
54000704:	25a791a0 	addiu	a3,t5,-28256
54000708:	1000ffed 	b	540006c0 <_get_fusion_info+0x248>
5400070c:	24030245 	li	v1,581
54000710:	0d00085c 	jal	54002170 <__errno>
54000714:	00000000 	nop
54000718:	0d000859 	jal	54002164 <getpid>
5400071c:	00408021 	move	s0,v0
54000720:	3c0a5401 	lui	t2,0x5401
54000724:	3c095401 	lui	t1,0x5401
54000728:	8e050000 	lw	a1,0(s0)
5400072c:	25449258 	addiu	a0,t2,-28072
54000730:	00403021 	move	a2,v0
54000734:	252791a0 	addiu	a3,t1,-28256
54000738:	1000ffe1 	b	540006c0 <_get_fusion_info+0x248>
5400073c:	24030233 	li	v1,563
54000740:	27a40020 	addiu	a0,sp,32
54000744:	24060010 	li	a2,16
54000748:	0d000867 	jal	5400219c <memcpy>
5400074c:	afa0002c 	sw	zero,44(sp)
54000750:	02a02821 	move	a1,s5
54000754:	0d0000d4 	jal	54000350 <_get_cur_framebuffer_data>
54000758:	27a40020 	addiu	a0,sp,32
5400075c:	26840034 	addiu	a0,s4,52
54000760:	1000ff9c 	b	540005d4 <_get_fusion_info+0x15c>
54000764:	27a50020 	addiu	a1,sp,32
54000768:	24040003 	li	a0,3
5400076c:	1000ff8a 	b	54000598 <_get_fusion_info+0x120>
54000770:	afa3002c 	sw	v1,44(sp)
54000774:	8e930004 	lw	s3,4(s4)
54000778:	02a02821 	move	a1,s5
5400077c:	27a40020 	addiu	a0,sp,32
54000780:	a7ab0024 	sh	t3,36(sp)
54000784:	a7b30026 	sh	s3,38(sp)
54000788:	0d0000d4 	jal	54000350 <_get_cur_framebuffer_data>
5400078c:	afa0002c 	sw	zero,44(sp)
54000790:	26840034 	addiu	a0,s4,52
54000794:	1000ff8f 	b	540005d4 <_get_fusion_info+0x15c>
54000798:	27a50020 	addiu	a1,sp,32

5400079c <fusion_set_effect>:
5400079c:	27bdffe0 	addiu	sp,sp,-32
540007a0:	afb20018 	sw	s2,24(sp)
540007a4:	3c125401 	lui	s2,0x5401
540007a8:	afb10014 	sw	s1,20(sp)
540007ac:	afb00010 	sw	s0,16(sp)
540007b0:	afbf001c 	sw	ra,28(sp)
540007b4:	2650216c 	addiu	s0,s2,8556
540007b8:	8e0200d0 	lw	v0,208(s0)
540007bc:	00808821 	move	s1,a0
540007c0:	00002821 	move	a1,zero
540007c4:	240600d4 	li	a2,212
540007c8:	1040000e 	beqz	v0,54000804 <fusion_set_effect+0x68>
540007cc:	02002021 	move	a0,s0
540007d0:	8e250004 	lw	a1,4(s1)
540007d4:	8e260000 	lw	a2,0(s1)
540007d8:	24040001 	li	a0,1
540007dc:	ae46216c 	sw	a2,8556(s2)
540007e0:	ae040008 	sw	a0,8(s0)
540007e4:	ae050004 	sw	a1,4(s0)
540007e8:	8fbf001c 	lw	ra,28(sp)
540007ec:	8fb20018 	lw	s2,24(sp)
540007f0:	8fb10014 	lw	s1,20(sp)
540007f4:	8fb00010 	lw	s0,16(sp)
540007f8:	24020001 	li	v0,1
540007fc:	03e00008 	jr	ra
54000800:	27bd0020 	addiu	sp,sp,32
54000804:	0d00087b 	jal	540021ec <memset>
54000808:	00000000 	nop
5400080c:	8e250004 	lw	a1,4(s1)
54000810:	8e260000 	lw	a2,0(s1)
54000814:	24030001 	li	v1,1
54000818:	24040001 	li	a0,1
5400081c:	ae0300d0 	sw	v1,208(s0)
54000820:	ae46216c 	sw	a2,8556(s2)
54000824:	ae040008 	sw	a0,8(s0)
54000828:	ae050004 	sw	a1,4(s0)
5400082c:	8fbf001c 	lw	ra,28(sp)
54000830:	8fb20018 	lw	s2,24(sp)
54000834:	8fb10014 	lw	s1,20(sp)
54000838:	8fb00010 	lw	s0,16(sp)
5400083c:	24020001 	li	v0,1
54000840:	03e00008 	jr	ra
54000844:	27bd0020 	addiu	sp,sp,32

54000848 <fusion_set_first_frame>:
54000848:	27bdffe0 	addiu	sp,sp,-32
5400084c:	3c055401 	lui	a1,0x5401
54000850:	afb10014 	sw	s1,20(sp)
54000854:	24b1216c 	addiu	s1,a1,8556
54000858:	8e230008 	lw	v1,8(s1)
5400085c:	24020001 	li	v0,1
54000860:	afb20018 	sw	s2,24(sp)
54000864:	afb00010 	sw	s0,16(sp)
54000868:	afbf001c 	sw	ra,28(sp)
5400086c:	02208021 	move	s0,s1
54000870:	1062001c 	beq	v1,v0,540008e4 <fusion_set_first_frame+0x9c>
54000874:	00809021 	move	s2,a0
54000878:	8e0700d0 	lw	a3,208(s0)
5400087c:	02002021 	move	a0,s0
54000880:	00002821 	move	a1,zero
54000884:	10e0001f 	beqz	a3,54000904 <fusion_set_first_frame+0xbc>
54000888:	240600d4 	li	a2,212
5400088c:	3c055401 	lui	a1,0x5401
54000890:	24a421b4 	addiu	a0,a1,8628
54000894:	00003021 	move	a2,zero
54000898:	0d00011e 	jal	54000478 <_get_fusion_info>
5400089c:	02402821 	move	a1,s2
540008a0:	10400009 	beqz	v0,540008c8 <fusion_set_first_frame+0x80>
540008a4:	00002021 	move	a0,zero
540008a8:	8e080010 	lw	t0,16(s0)
540008ac:	1500001a 	bnez	t0,54000918 <fusion_set_first_frame+0xd0>
540008b0:	01002021 	move	a0,t0
540008b4:	8e290084 	lw	t1,132(s1)
540008b8:	240a0001 	li	t2,1
540008bc:	24040001 	li	a0,1
540008c0:	ae2a0078 	sw	t2,120(s1)
540008c4:	ae290010 	sw	t1,16(s1)
540008c8:	8fbf001c 	lw	ra,28(sp)
540008cc:	8fb20018 	lw	s2,24(sp)
540008d0:	8fb10014 	lw	s1,20(sp)
540008d4:	8fb00010 	lw	s0,16(sp)
540008d8:	00801021 	move	v0,a0
540008dc:	03e00008 	jr	ra
540008e0:	27bd0020 	addiu	sp,sp,32
540008e4:	8ca6216c 	lw	a2,8556(a1)
540008e8:	10c0fff7 	beqz	a2,540008c8 <fusion_set_first_frame+0x80>
540008ec:	24040001 	li	a0,1
540008f0:	8e0700d0 	lw	a3,208(s0)
540008f4:	02002021 	move	a0,s0
540008f8:	00002821 	move	a1,zero
540008fc:	14e0ffe3 	bnez	a3,5400088c <fusion_set_first_frame+0x44>
54000900:	240600d4 	li	a2,212
54000904:	0d00087b 	jal	540021ec <memset>
54000908:	00000000 	nop
5400090c:	24040001 	li	a0,1
54000910:	1000ffde 	b	5400088c <fusion_set_first_frame+0x44>
54000914:	ae0400d0 	sw	a0,208(s0)
54000918:	0d0023ec 	jal	54008fb0 <free>
5400091c:	00000000 	nop
54000920:	8e290084 	lw	t1,132(s1)
54000924:	240a0001 	li	t2,1
54000928:	24040001 	li	a0,1
5400092c:	ae2a0078 	sw	t2,120(s1)
54000930:	1000ffe5 	b	540008c8 <fusion_set_first_frame+0x80>
54000934:	ae290010 	sw	t1,16(s1)

54000938 <fusion_set_last_frame>:
54000938:	27bdffe0 	addiu	sp,sp,-32
5400093c:	3c055401 	lui	a1,0x5401
54000940:	afb10014 	sw	s1,20(sp)
54000944:	afb00010 	sw	s0,16(sp)
54000948:	afbf0018 	sw	ra,24(sp)
5400094c:	24b0216c 	addiu	s0,a1,8556
54000950:	8e030008 	lw	v1,8(s0)
54000954:	24020001 	li	v0,1
54000958:	10620028 	beq	v1,v0,540009fc <fusion_set_last_frame+0xc4>
5400095c:	00808821 	move	s1,a0
54000960:	3c055401 	lui	a1,0x5401
54000964:	24a421f8 	addiu	a0,a1,8696
54000968:	24060001 	li	a2,1
5400096c:	0d00011e 	jal	54000478 <_get_fusion_info>
54000970:	02202821 	move	a1,s1
54000974:	1040001b 	beqz	v0,540009e4 <fusion_set_last_frame+0xac>
54000978:	00001821 	move	v1,zero
5400097c:	8e040014 	lw	a0,20(s0)
54000980:	14800035 	bnez	a0,54000a58 <fusion_set_last_frame+0x120>
54000984:	00000000 	nop
54000988:	8e0900c8 	lw	t1,200(s0)
5400098c:	860800c4 	lh	t0,196(s0)
54000990:	860700c6 	lh	a3,198(s0)
54000994:	8e0600cc 	lw	a2,204(s0)
54000998:	ae090014 	sw	t1,20(s0)
5400099c:	ae080018 	sw	t0,24(s0)
540009a0:	10c0001f 	beqz	a2,54000a20 <fusion_set_last_frame+0xe8>
540009a4:	ae07001c 	sw	a3,28(s0)
540009a8:	12200036 	beqz	s1,54000a84 <fusion_set_last_frame+0x14c>
540009ac:	3c185401 	lui	t8,0x5401
540009b0:	8e240008 	lw	a0,8(s1)
540009b4:	1080002c 	beqz	a0,54000a68 <fusion_set_last_frame+0x130>
540009b8:	3c1f5401 	lui	ra,0x5401
540009bc:	860200c4 	lh	v0,196(s0)
540009c0:	861100c6 	lh	s1,198(s0)
540009c4:	24030001 	li	v1,1
540009c8:	ae0300bc 	sw	v1,188(s0)
540009cc:	ae040030 	sw	a0,48(s0)
540009d0:	ae020034 	sw	v0,52(s0)
540009d4:	ae110038 	sw	s1,56(s0)
540009d8:	ae00003c 	sw	zero,60(s0)
540009dc:	ae000040 	sw	zero,64(s0)
540009e0:	24030001 	li	v1,1
540009e4:	8fbf0018 	lw	ra,24(sp)
540009e8:	8fb10014 	lw	s1,20(sp)
540009ec:	8fb00010 	lw	s0,16(sp)
540009f0:	00601021 	move	v0,v1
540009f4:	03e00008 	jr	ra
540009f8:	27bd0020 	addiu	sp,sp,32
540009fc:	8ca4216c 	lw	a0,8556(a1)
54000a00:	1480ffd7 	bnez	a0,54000960 <fusion_set_last_frame+0x28>
54000a04:	24030001 	li	v1,1
54000a08:	8fbf0018 	lw	ra,24(sp)
54000a0c:	8fb10014 	lw	s1,20(sp)
54000a10:	8fb00010 	lw	s0,16(sp)
54000a14:	00601021 	move	v0,v1
54000a18:	03e00008 	jr	ra
54000a1c:	27bd0020 	addiu	sp,sp,32
54000a20:	24030001 	li	v1,1
54000a24:	8e0e00b4 	lw	t6,180(s0)
54000a28:	860d00c0 	lh	t5,192(s0)
54000a2c:	860c00c2 	lh	t4,194(s0)
54000a30:	8e0b008c 	lw	t3,140(s0)
54000a34:	8e0a0090 	lw	t2,144(s0)
54000a38:	ae0300bc 	sw	v1,188(s0)
54000a3c:	24030001 	li	v1,1
54000a40:	ae0e0030 	sw	t6,48(s0)
54000a44:	ae0d003c 	sw	t5,60(s0)
54000a48:	ae0c0040 	sw	t4,64(s0)
54000a4c:	ae0b0034 	sw	t3,52(s0)
54000a50:	1000ffe4 	b	540009e4 <fusion_set_last_frame+0xac>
54000a54:	ae0a0038 	sw	t2,56(s0)
54000a58:	0d0023ec 	jal	54008fb0 <free>
54000a5c:	00000000 	nop
54000a60:	1000ffca 	b	5400098c <fusion_set_last_frame+0x54>
54000a64:	8e0900c8 	lw	t1,200(s0)
54000a68:	3c195401 	lui	t9,0x5401
54000a6c:	27e4929c 	addiu	a0,ra,-28004
54000a70:	272591a0 	addiu	a1,t9,-28256
54000a74:	0d0023e3 	jal	54008f8c <printf>
54000a78:	2406030e 	li	a2,782
54000a7c:	1000ffcf 	b	540009bc <fusion_set_last_frame+0x84>
54000a80:	8e240008 	lw	a0,8(s1)
54000a84:	3c0f5401 	lui	t7,0x5401
54000a88:	2704929c 	addiu	a0,t8,-28004
54000a8c:	25e591a0 	addiu	a1,t7,-28256
54000a90:	0d0023e3 	jal	54008f8c <printf>
54000a94:	2406030d 	li	a2,781
54000a98:	1000ffc6 	b	540009b4 <fusion_set_last_frame+0x7c>
54000a9c:	8e240008 	lw	a0,8(s1)

54000aa0 <_get_rtc_stdsec>:
54000aa0:	27bdffb0 	addiu	sp,sp,-80
54000aa4:	afb00040 	sw	s0,64(sp)
54000aa8:	00808021 	move	s0,a0
54000aac:	3c045401 	lui	a0,0x5401
54000ab0:	248492c4 	addiu	a0,a0,-27964
54000ab4:	afb10044 	sw	s1,68(sp)
54000ab8:	afbf0048 	sw	ra,72(sp)
54000abc:	0d000865 	jal	54002194 <open>
54000ac0:	24050002 	li	a1,2
54000ac4:	00408821 	move	s1,v0
54000ac8:	00402021 	move	a0,v0
54000acc:	27a60018 	addiu	a2,sp,24
54000ad0:	0440002f 	bltz	v0,54000b90 <_get_rtc_stdsec+0xf0>
54000ad4:	24050002 	li	a1,2
54000ad8:	0d000862 	jal	54002188 <ioctl>
54000adc:	00000000 	nop
54000ae0:	02202021 	move	a0,s1
54000ae4:	27a60018 	addiu	a2,sp,24
54000ae8:	10400019 	beqz	v0,54000b50 <_get_rtc_stdsec+0xb0>
54000aec:	24050005 	li	a1,5
54000af0:	0d00085c 	jal	54002170 <__errno>
54000af4:	00000000 	nop
54000af8:	0d000859 	jal	54002164 <getpid>
54000afc:	00408021 	move	s0,v0
54000b00:	3c0a5401 	lui	t2,0x5401
54000b04:	3c095401 	lui	t1,0x5401
54000b08:	8e050000 	lw	a1,0(s0)
54000b0c:	254492d0 	addiu	a0,t2,-27952
54000b10:	00403021 	move	a2,v0
54000b14:	252791a0 	addiu	a3,t1,-28256
54000b18:	24030350 	li	v1,848
54000b1c:	3c0e5401 	lui	t6,0x5401
54000b20:	25cd9030 	addiu	t5,t6,-28624
54000b24:	afa30010 	sw	v1,16(sp)
54000b28:	0d0023e3 	jal	54008f8c <printf>
54000b2c:	afad0014 	sw	t5,20(sp)
54000b30:	0d00085f 	jal	5400217c <close>
54000b34:	02202021 	move	a0,s1
54000b38:	8fbf0048 	lw	ra,72(sp)
54000b3c:	8fb10044 	lw	s1,68(sp)
54000b40:	8fb00040 	lw	s0,64(sp)
54000b44:	00001021 	move	v0,zero
54000b48:	03e00008 	jr	ra
54000b4c:	27bd0050 	addiu	sp,sp,80
54000b50:	0d000862 	jal	54002188 <ioctl>
54000b54:	00000000 	nop
54000b58:	1040001f 	beqz	v0,54000bd8 <_get_rtc_stdsec+0x138>
54000b5c:	02202021 	move	a0,s1
54000b60:	0d00085c 	jal	54002170 <__errno>
54000b64:	00000000 	nop
54000b68:	0d000859 	jal	54002164 <getpid>
54000b6c:	00408021 	move	s0,v0
54000b70:	3c0c5401 	lui	t4,0x5401
54000b74:	3c0b5401 	lui	t3,0x5401
54000b78:	8e050000 	lw	a1,0(s0)
54000b7c:	25849314 	addiu	a0,t4,-27884
54000b80:	00403021 	move	a2,v0
54000b84:	256791a0 	addiu	a3,t3,-28256
54000b88:	1000ffe4 	b	54000b1c <_get_rtc_stdsec+0x7c>
54000b8c:	24030357 	li	v1,855
54000b90:	0d00085c 	jal	54002170 <__errno>
54000b94:	00000000 	nop
54000b98:	0d000859 	jal	54002164 <getpid>
54000b9c:	00408021 	move	s0,v0
54000ba0:	8e050000 	lw	a1,0(s0)
54000ba4:	3c065401 	lui	a2,0x5401
54000ba8:	3c035401 	lui	v1,0x5401
54000bac:	3c075401 	lui	a3,0x5401
54000bb0:	24c4935c 	addiu	a0,a2,-27812
54000bb4:	2408034b 	li	t0,843
54000bb8:	00403021 	move	a2,v0
54000bbc:	24e791a0 	addiu	a3,a3,-28256
54000bc0:	24629030 	addiu	v0,v1,-28624
54000bc4:	afa80010 	sw	t0,16(sp)
54000bc8:	0d0023e3 	jal	54008f8c <printf>
54000bcc:	afa20014 	sw	v0,20(sp)
54000bd0:	1000ffda 	b	54000b3c <_get_rtc_stdsec+0x9c>
54000bd4:	8fbf0048 	lw	ra,72(sp)
54000bd8:	8fa50038 	lw	a1,56(sp)
54000bdc:	0d00085f 	jal	5400217c <close>
54000be0:	ae050000 	sw	a1,0(s0)
54000be4:	8fbf0048 	lw	ra,72(sp)
54000be8:	8fb10044 	lw	s1,68(sp)
54000bec:	8fb00040 	lw	s0,64(sp)
54000bf0:	24020001 	li	v0,1
54000bf4:	03e00008 	jr	ra
54000bf8:	27bd0050 	addiu	sp,sp,80

54000bfc <fusion_display>:
54000bfc:	27bdffa8 	addiu	sp,sp,-88
54000c00:	3c035401 	lui	v1,0x5401
54000c04:	afb7004c 	sw	s7,76(sp)
54000c08:	afb10034 	sw	s1,52(sp)
54000c0c:	afbf0054 	sw	ra,84(sp)
54000c10:	afbe0050 	sw	s8,80(sp)
54000c14:	afb60048 	sw	s6,72(sp)
54000c18:	afb50044 	sw	s5,68(sp)
54000c1c:	afb40040 	sw	s4,64(sp)
54000c20:	afb3003c 	sw	s3,60(sp)
54000c24:	afb20038 	sw	s2,56(sp)
54000c28:	afb00030 	sw	s0,48(sp)
54000c2c:	2471216c 	addiu	s1,v1,8556
54000c30:	8e220008 	lw	v0,8(s1)
54000c34:	14400006 	bnez	v0,54000c50 <fusion_display+0x54>
54000c38:	0080b821 	move	s7,a0
54000c3c:	ac60216c 	sw	zero,8556(v1)
54000c40:	24040002 	li	a0,2
54000c44:	24030001 	li	v1,1
54000c48:	ae240004 	sw	a0,4(s1)
54000c4c:	ae230008 	sw	v1,8(s1)
54000c50:	8e250078 	lw	a1,120(s1)
54000c54:	0220a821 	move	s5,s1
54000c58:	24130001 	li	s3,1
54000c5c:	10a00007 	beqz	a1,54000c7c <fusion_display+0x80>
54000c60:	0000f021 	move	s8,zero
54000c64:	8e2400bc 	lw	a0,188(s1)
54000c68:	2e280001 	sltiu	t0,s1,1
54000c6c:	2c870001 	sltiu	a3,a0,1
54000c70:	00e83025 	or	a2,a3,t0
54000c74:	50c00017 	beqzl	a2,54000cd4 <fusion_display+0xd8>
54000c78:	8e2a0004 	lw	t2,4(s1)
54000c7c:	00009821 	move	s3,zero
54000c80:	8e240010 	lw	a0,16(s1)
54000c84:	14800078 	bnez	a0,54000e68 <fusion_display+0x26c>
54000c88:	02208021 	move	s0,s1
54000c8c:	8e040014 	lw	a0,20(s0)
54000c90:	14800062 	bnez	a0,54000e1c <fusion_display+0x220>
54000c94:	02601021 	move	v0,s3
54000c98:	ae2000d0 	sw	zero,208(s1)
54000c9c:	ae200078 	sw	zero,120(s1)
54000ca0:	ae2000bc 	sw	zero,188(s1)
54000ca4:	8fbf0054 	lw	ra,84(sp)
54000ca8:	8fbe0050 	lw	s8,80(sp)
54000cac:	8fb7004c 	lw	s7,76(sp)
54000cb0:	8fb60048 	lw	s6,72(sp)
54000cb4:	8fb50044 	lw	s5,68(sp)
54000cb8:	8fb40040 	lw	s4,64(sp)
54000cbc:	8fb3003c 	lw	s3,60(sp)
54000cc0:	8fb20038 	lw	s2,56(sp)
54000cc4:	8fb10034 	lw	s1,52(sp)
54000cc8:	8fb00030 	lw	s0,48(sp)
54000ccc:	03e00008 	jr	ra
54000cd0:	27bd0058 	addiu	sp,sp,88
54000cd4:	2d490004 	sltiu	t1,t2,4
54000cd8:	5120ffe9 	beqzl	t1,54000c80 <fusion_display+0x84>
54000cdc:	00009821 	move	s3,zero
54000ce0:	8e2500b8 	lw	a1,184(s1)
54000ce4:	8e230074 	lw	v1,116(s1)
54000ce8:	50a30030 	beql	a1,v1,54000dac <fusion_display+0x1b0>
54000cec:	8eb60004 	lw	s6,4(s5)
54000cf0:	8e340018 	lw	s4,24(s1)
54000cf4:	8e32001c 	lw	s2,28(s1)
54000cf8:	02203021 	move	a2,s1
54000cfc:	10800027 	beqz	a0,54000d9c <fusion_display+0x1a0>
54000d00:	00008021 	move	s0,zero
54000d04:	10600084 	beqz	v1,54000f18 <fusion_display+0x31c>
54000d08:	240b005a 	li	t3,90
54000d0c:	240c005a 	li	t4,90
54000d10:	106c0210 	beq	v1,t4,54001554 <fusion_display+0x958>
54000d14:	240d00b4 	li	t5,180
54000d18:	240e00b4 	li	t6,180
54000d1c:	106e0216 	beq	v1,t6,54001578 <fusion_display+0x97c>
54000d20:	240f010e 	li	t7,270
54000d24:	2410010e 	li	s0,270
54000d28:	10700217 	beq	v1,s0,54001588 <fusion_display+0x98c>
54000d2c:	00000000 	nop
54000d30:	8cc40074 	lw	a0,116(a2)
54000d34:	2405005a 	li	a1,90
54000d38:	5085020a 	beql	a0,a1,54001564 <fusion_display+0x968>
54000d3c:	8cd600b8 	lw	s6,184(a2)
54000d40:	240300b4 	li	v1,180
54000d44:	50830253 	beql	a0,v1,54001694 <fusion_display+0xa98>
54000d48:	8cd800b8 	lw	t8,184(a2)
54000d4c:	2405010e 	li	a1,270
54000d50:	50850254 	beql	a0,a1,540016a4 <fusion_display+0xaa8>
54000d54:	8cd900b8 	lw	t9,184(a2)
54000d58:	54800006 	bnezl	a0,54000d74 <fusion_display+0x178>
54000d5c:	2405005a 	li	a1,90
54000d60:	8cc200b8 	lw	v0,184(a2)
54000d64:	50450202 	beql	v0,a1,54001570 <fusion_display+0x974>
54000d68:	2402ffa6 	li	v0,-90
54000d6c:	10430083 	beq	v0,v1,54000f7c <fusion_display+0x380>
54000d70:	2405005a 	li	a1,90
54000d74:	5085024f 	beql	a0,a1,540016b4 <fusion_display+0xab8>
54000d78:	8cc200b8 	lw	v0,184(a2)
54000d7c:	240300b4 	li	v1,180
54000d80:	50830251 	beql	a0,v1,540016c8 <fusion_display+0xacc>
54000d84:	8cc700b8 	lw	a3,184(a2)
54000d88:	2408010e 	li	t0,270
54000d8c:	50880079 	beql	a0,t0,54000f74 <fusion_display+0x378>
54000d90:	8cc400b8 	lw	a0,184(a2)
54000d94:	00001021 	move	v0,zero
54000d98:	00408021 	move	s0,v0
54000d9c:	24050001 	li	a1,1
54000da0:	16000044 	bnez	s0,54000eb4 <fusion_display+0x2b8>
54000da4:	afa5001c 	sw	a1,28(sp)
54000da8:	8eb60004 	lw	s6,4(s5)
54000dac:	8ea80000 	lw	t0,0(s5)
54000db0:	2409000a 	li	t1,10
54000db4:	ae370044 	sw	s7,68(s1)
54000db8:	2417000f 	li	s7,15
54000dbc:	ae290020 	sw	t1,32(s1)
54000dc0:	111701c3 	beq	t0,s7,540014d0 <fusion_display+0x8d4>
54000dc4:	ae360028 	sw	s6,40(s1)
54000dc8:	1500002b 	bnez	t0,54000e78 <fusion_display+0x27c>
54000dcc:	240a0001 	li	t2,1
54000dd0:	57caffac 	bnel	s8,t2,54000c84 <fusion_display+0x88>
54000dd4:	8e240010 	lw	a0,16(s1)
54000dd8:	8e220044 	lw	v0,68(s1)
54000ddc:	5440020a 	bnezl	v0,54001608 <fusion_display+0xa0c>
54000de0:	8e240030 	lw	a0,48(s1)
54000de4:	3c055401 	lui	a1,0x5401
54000de8:	24a491ac 	addiu	a0,a1,-28244
54000dec:	00003021 	move	a2,zero
54000df0:	0d000865 	jal	54002194 <open>
54000df4:	24050002 	li	a1,2
54000df8:	0040f021 	move	s8,v0
54000dfc:	00402021 	move	a0,v0
54000e00:	24054666 	li	a1,18022
54000e04:	0d000862 	jal	54002188 <ioctl>
54000e08:	00003021 	move	a2,zero
54000e0c:	0d00085f 	jal	5400217c <close>
54000e10:	03c02021 	move	a0,s8
54000e14:	1000ff9b 	b	54000c84 <fusion_display+0x88>
54000e18:	8e240010 	lw	a0,16(s1)
54000e1c:	0d0023ec 	jal	54008fb0 <free>
54000e20:	00000000 	nop
54000e24:	02601021 	move	v0,s3
54000e28:	ae000014 	sw	zero,20(s0)
54000e2c:	ae2000d0 	sw	zero,208(s1)
54000e30:	ae200078 	sw	zero,120(s1)
54000e34:	ae2000bc 	sw	zero,188(s1)
54000e38:	8fbf0054 	lw	ra,84(sp)
54000e3c:	8fbe0050 	lw	s8,80(sp)
54000e40:	8fb7004c 	lw	s7,76(sp)
54000e44:	8fb60048 	lw	s6,72(sp)
54000e48:	8fb50044 	lw	s5,68(sp)
54000e4c:	8fb40040 	lw	s4,64(sp)
54000e50:	8fb3003c 	lw	s3,60(sp)
54000e54:	8fb20038 	lw	s2,56(sp)
54000e58:	8fb10034 	lw	s1,52(sp)
54000e5c:	8fb00030 	lw	s0,48(sp)
54000e60:	03e00008 	jr	ra
54000e64:	27bd0058 	addiu	sp,sp,88
54000e68:	0d0023ec 	jal	54008fb0 <free>
54000e6c:	00000000 	nop
54000e70:	1000ff86 	b	54000c8c <fusion_display+0x90>
54000e74:	ae200010 	sw	zero,16(s1)
54000e78:	3c025401 	lui	v0,0x5401
54000e7c:	245e9444 	addiu	s8,v0,-27580
54000e80:	0d00081f 	jal	5400207c <sys_pm_set_clk_domain>
54000e84:	8fc40000 	lw	a0,0(s8)
54000e88:	8ea30000 	lw	v1,0(s5)
54000e8c:	2c750012 	sltiu	s5,v1,18
54000e90:	52a00027 	beqzl	s5,54000f30 <fusion_display+0x334>
54000e94:	8e220044 	lw	v0,68(s1)
54000e98:	3c105401 	lui	s0,0x5401
54000e9c:	00035080 	sll	t2,v1,0x2
54000ea0:	260b9094 	addiu	t3,s0,-28524
54000ea4:	014b4821 	addu	t1,t2,t3
54000ea8:	8d360000 	lw	s6,0(t1)
54000eac:	02c00008 	jr	s6
54000eb0:	00000000 	nop
54000eb4:	72923002 	mul	a2,s4,s2
54000eb8:	0d0023e9 	jal	54008fa4 <malloc>
54000ebc:	00062040 	sll	a0,a2,0x1
54000ec0:	10400205 	beqz	v0,540016d8 <fusion_display+0xadc>
54000ec4:	0040b021 	move	s6,v0
54000ec8:	3c0e5401 	lui	t6,0x5401
54000ecc:	25cd217c 	addiu	t5,t6,8572
54000ed0:	240c005a 	li	t4,90
54000ed4:	120c01d1 	beq	s0,t4,5400161c <fusion_display+0xa20>
54000ed8:	8da40000 	lw	a0,0(t5)
54000edc:	2a0f005b 	slti	t7,s0,91
54000ee0:	11e001ad 	beqz	t7,54001598 <fusion_display+0x99c>
54000ee4:	241900b4 	li	t9,180
54000ee8:	2418ffa6 	li	t8,-90
54000eec:	12180026 	beq	s0,t8,54000f88 <fusion_display+0x38c>
54000ef0:	00000000 	nop
54000ef4:	afa0001c 	sw	zero,28(sp)
54000ef8:	8fb2001c 	lw	s2,28(sp)
54000efc:	24080001 	li	t0,1
54000f00:	124801df 	beq	s2,t0,54001680 <fusion_display+0xa84>
54000f04:	00000000 	nop
54000f08:	0d0023ec 	jal	54008fb0 <free>
54000f0c:	02c02021 	move	a0,s6
54000f10:	1000ffa6 	b	54000dac <fusion_display+0x1b0>
54000f14:	8eb60004 	lw	s6,4(s5)
54000f18:	14abff7d 	bne	a1,t3,54000d10 <fusion_display+0x114>
54000f1c:	240c005a 	li	t4,90
54000f20:	2402005a 	li	v0,90
54000f24:	1000ff9d 	b	54000d9c <fusion_display+0x1a0>
54000f28:	00408021 	move	s0,v0
54000f2c:	8e220044 	lw	v0,68(s1)
54000f30:	54400007 	bnezl	v0,54000f50 <fusion_display+0x354>
54000f34:	8e240030 	lw	a0,48(s1)
54000f38:	3c175401 	lui	s7,0x5401
54000f3c:	26f29444 	addiu	s2,s7,-27580
54000f40:	0d000822 	jal	54002088 <sys_pm_clear_clk_domain>
54000f44:	8e440000 	lw	a0,0(s2)
54000f48:	1000ff4e 	b	54000c84 <fusion_display+0x88>
54000f4c:	8e240010 	lw	a0,16(s1)
54000f50:	8e250034 	lw	a1,52(s1)
54000f54:	8e260038 	lw	a2,56(s1)
54000f58:	3c175401 	lui	s7,0x5401
54000f5c:	0040f809 	jalr	v0
54000f60:	26f29444 	addiu	s2,s7,-27580
54000f64:	0d000822 	jal	54002088 <sys_pm_clear_clk_domain>
54000f68:	8e440000 	lw	a0,0(s2)
54000f6c:	1000ff45 	b	54000c84 <fusion_display+0x88>
54000f70:	8e240010 	lw	a0,16(s1)
54000f74:	1485ff88 	bne	a0,a1,54000d98 <fusion_display+0x19c>
54000f78:	00001021 	move	v0,zero
54000f7c:	240200b4 	li	v0,180
54000f80:	1000ff86 	b	54000d9c <fusion_display+0x1a0>
54000f84:	00408021 	move	s0,v0
54000f88:	1a40ffdb 	blez	s2,54000ef8 <fusion_display+0x2fc>
54000f8c:	00005021 	move	t2,zero
54000f90:	0014582a 	slt	t3,zero,s4
54000f94:	00004821 	move	t1,zero
54000f98:	00124040 	sll	t0,s2,0x1
54000f9c:	1160000b 	beqz	t3,54000fcc <fusion_display+0x3d0>
54000fa0:	0009c840 	sll	t9,t1,0x1
54000fa4:	03363021 	addu	a2,t9,s6
54000fa8:	01042821 	addu	a1,t0,a0
54000fac:	00123840 	sll	a3,s2,0x1
54000fb0:	02801821 	move	v1,s4
54000fb4:	94bffffe 	lhu	ra,-2(a1)
54000fb8:	2463ffff 	addiu	v1,v1,-1
54000fbc:	a4df0000 	sh	ra,0(a2)
54000fc0:	00a72821 	addu	a1,a1,a3
54000fc4:	1460fffb 	bnez	v1,54000fb4 <fusion_display+0x3b8>
54000fc8:	24c60002 	addiu	a2,a2,2
54000fcc:	254a0001 	addiu	t2,t2,1
54000fd0:	0152182a 	slt	v1,t2,s2
54000fd4:	2508fffe 	addiu	t0,t0,-2
54000fd8:	1460fff0 	bnez	v1,54000f9c <fusion_display+0x3a0>
54000fdc:	01344821 	addu	t1,t1,s4
54000fe0:	1000ffc6 	b	54000efc <fusion_display+0x300>
54000fe4:	8fb2001c 	lw	s2,28(sp)
54000fe8:	02202021 	move	a0,s1
54000fec:	0d00006e 	jal	540001b8 <_display_other>
54000ff0:	2405000c 	li	a1,12
54000ff4:	00409821 	move	s3,v0
54000ff8:	3c175401 	lui	s7,0x5401
54000ffc:	26f29444 	addiu	s2,s7,-27580
54001000:	0d000822 	jal	54002088 <sys_pm_clear_clk_domain>
54001004:	8e440000 	lw	a0,0(s2)
54001008:	1000ff1e 	b	54000c84 <fusion_display+0x88>
5400100c:	8e240010 	lw	a0,16(s1)
54001010:	02202021 	move	a0,s1
54001014:	0d00006e 	jal	540001b8 <_display_other>
54001018:	24050011 	li	a1,17
5400101c:	1000fff6 	b	54000ff8 <fusion_display+0x3fc>
54001020:	00409821 	move	s3,v0
54001024:	2632000c 	addiu	s2,s1,12
54001028:	8e4c0028 	lw	t4,40(s2)
5400102c:	8e47002c 	lw	a3,44(s2)
54001030:	8e4b0008 	lw	t3,8(s2)
54001034:	7187b002 	mul	s6,t4,a3
54001038:	8e570004 	lw	s7,4(s2)
5400103c:	00162040 	sll	a0,s6,0x1
54001040:	afab0024 	sw	t3,36(sp)
54001044:	0d0023e9 	jal	54008fa4 <malloc>
54001048:	8e5e0024 	lw	s8,36(s2)
5400104c:	00409821 	move	s3,v0
54001050:	0220a821 	move	s5,s1
54001054:	104002b7 	beqz	v0,54001b34 <fusion_display+0xf38>
54001058:	afa00020 	sw	zero,32(sp)
5400105c:	3c055401 	lui	a1,0x5401
54001060:	24a491ac 	addiu	a0,a1,-28244
54001064:	00003021 	move	a2,zero
54001068:	0d000865 	jal	54002194 <open>
5400106c:	24050002 	li	a1,2
54001070:	04400300 	bltz	v0,54001c74 <fusion_display+0x1078>
54001074:	0040b021 	move	s6,v0
54001078:	8e430014 	lw	v1,20(s2)
5400107c:	186001e5 	blez	v1,54001814 <fusion_display+0xc18>
54001080:	00008021 	move	s0,zero
54001084:	10000019 	b	540010ec <fusion_display+0x4f0>
54001088:	2414000d 	li	s4,13
5400108c:	240e005a 	li	t6,90
54001090:	720e6802 	mul	t5,s0,t6
54001094:	8e470014 	lw	a3,20(s2)
54001098:	240c0168 	li	t4,360
5400109c:	01a7001a 	div	zero,t5,a3
540010a0:	00e001f4 	teq	a3,zero,0x7
540010a4:	00005812 	mflo	t3
540010a8:	018b1023 	subu	v0,t4,t3
540010ac:	ae420020 	sw	v0,32(s2)
540010b0:	0d0008e6 	jal	54002398 <transimage>
540010b4:	02402021 	move	a0,s2
540010b8:	04400292 	bltz	v0,54001b04 <fusion_display+0xf08>
540010bc:	00000000 	nop
540010c0:	02c02021 	move	a0,s6
540010c4:	0d000008 	jal	54000020 <_update_framebuffer>
540010c8:	02a02821 	move	a1,s5
540010cc:	10400281 	beqz	v0,54001ad4 <fusion_display+0xed8>
540010d0:	00000000 	nop
540010d4:	0d0023e6 	jal	54008f98 <mdelay>
540010d8:	00002021 	move	a0,zero
540010dc:	8e430014 	lw	v1,20(s2)
540010e0:	0203782a 	slt	t7,s0,v1
540010e4:	11e00192 	beqz	t7,54001730 <fusion_display+0xb34>
540010e8:	00000000 	nop
540010ec:	0070f823 	subu	ra,v1,s0
540010f0:	02402021 	move	a0,s2
540010f4:	ae5f0018 	sw	ra,24(s2)
540010f8:	ae540000 	sw	s4,0(s2)
540010fc:	ae400004 	sw	zero,4(s2)
54001100:	ae570008 	sw	s7,8(s2)
54001104:	0d0008e6 	jal	54002398 <transimage>
54001108:	ae530024 	sw	s3,36(s2)
5400110c:	0440024e 	bltz	v0,54001a48 <fusion_display+0xe4c>
54001110:	26100001 	addiu	s0,s0,1
54001114:	8e44001c 	lw	a0,28(s2)
54001118:	24030010 	li	v1,16
5400111c:	24080002 	li	t0,2
54001120:	ae430000 	sw	v1,0(s2)
54001124:	ae530004 	sw	s3,4(s2)
54001128:	ae570008 	sw	s7,8(s2)
5400112c:	ae5e0024 	sw	s8,36(s2)
54001130:	1488ffd6 	bne	a0,t0,5400108c <fusion_display+0x490>
54001134:	ae500018 	sw	s0,24(s2)
54001138:	240a005a 	li	t2,90
5400113c:	720a1002 	mul	v0,s0,t2
54001140:	8e490014 	lw	t1,20(s2)
54001144:	0049001a 	div	zero,v0,t1
54001148:	012001f4 	teq	t1,zero,0x7
5400114c:	1000ffd7 	b	540010ac <fusion_display+0x4b0>
54001150:	00001012 	mflo	v0
54001154:	02202021 	move	a0,s1
54001158:	0d00006e 	jal	540001b8 <_display_other>
5400115c:	24050013 	li	a1,19
54001160:	1000ffa5 	b	54000ff8 <fusion_display+0x3fc>
54001164:	00409821 	move	s3,v0
54001168:	24130009 	li	s3,9
5400116c:	ae33002c 	sw	s3,44(s1)
54001170:	02202021 	move	a0,s1
54001174:	0d00006e 	jal	540001b8 <_display_other>
54001178:	24050012 	li	a1,18
5400117c:	8e2700cc 	lw	a3,204(s1)
54001180:	240c0001 	li	t4,1
54001184:	10ec0007 	beq	a3,t4,540011a4 <fusion_display+0x5a8>
54001188:	00409821 	move	s3,v0
5400118c:	3c0d5401 	lui	t5,0x5401
54001190:	3c055401 	lui	a1,0x5401
54001194:	25a4929c 	addiu	a0,t5,-28004
54001198:	24a591a0 	addiu	a1,a1,-28256
5400119c:	0d0023e3 	jal	54008f8c <printf>
540011a0:	2406039c 	li	a2,924
540011a4:	862600c4 	lh	a2,196(s1)
540011a8:	863800c6 	lh	t8,198(s1)
540011ac:	8e240030 	lw	a0,48(s1)
540011b0:	70d87002 	mul	t6,a2,t8
540011b4:	8e2500c8 	lw	a1,200(s1)
540011b8:	000e7840 	sll	t7,t6,0x1
540011bc:	3c175401 	lui	s7,0x5401
540011c0:	01ee3021 	addu	a2,t7,t6
540011c4:	0d000867 	jal	5400219c <memcpy>
540011c8:	26f29444 	addiu	s2,s7,-27580
540011cc:	0d000822 	jal	54002088 <sys_pm_clear_clk_domain>
540011d0:	8e440000 	lw	a0,0(s2)
540011d4:	1000feab 	b	54000c84 <fusion_display+0x88>
540011d8:	8e240010 	lw	a0,16(s1)
540011dc:	3c1f5401 	lui	ra,0x5401
540011e0:	24190007 	li	t9,7
540011e4:	27e491ac 	addiu	a0,ra,-28244
540011e8:	24050002 	li	a1,2
540011ec:	00003021 	move	a2,zero
540011f0:	0d000865 	jal	54002194 <open>
540011f4:	ae39000c 	sw	t9,12(s1)
540011f8:	00409821 	move	s3,v0
540011fc:	0220a821 	move	s5,s1
54001200:	04400223 	bltz	v0,54001a90 <fusion_display+0xe94>
54001204:	2632000c 	addiu	s2,s1,12
54001208:	8e430014 	lw	v1,20(s2)
5400120c:	18600143 	blez	v1,5400171c <fusion_display+0xb20>
54001210:	00002021 	move	a0,zero
54001214:	24160002 	li	s6,2
54001218:	10000015 	b	54001270 <fusion_display+0x674>
5400121c:	2414005a 	li	s4,90
54001220:	72143802 	mul	a3,s0,s4
54001224:	00e3001a 	div	zero,a3,v1
54001228:	006001f4 	teq	v1,zero,0x7
5400122c:	00001012 	mflo	v0
54001230:	ae420020 	sw	v0,32(s2)
54001234:	0d0008e6 	jal	54002398 <transimage>
54001238:	02402021 	move	a0,s2
5400123c:	044001e2 	bltz	v0,540019c8 <fusion_display+0xdcc>
54001240:	00000000 	nop
54001244:	02602021 	move	a0,s3
54001248:	0d000008 	jal	54000020 <_update_framebuffer>
5400124c:	02a02821 	move	a1,s5
54001250:	104001cf 	beqz	v0,54001990 <fusion_display+0xd94>
54001254:	00000000 	nop
54001258:	0d0023e6 	jal	54008f98 <mdelay>
5400125c:	00002021 	move	a0,zero
54001260:	8e430014 	lw	v1,20(s2)
54001264:	0203282a 	slt	a1,s0,v1
54001268:	10a0012c 	beqz	a1,5400171c <fusion_display+0xb20>
5400126c:	02002021 	move	a0,s0
54001270:	8e4a001c 	lw	t2,28(s2)
54001274:	24900001 	addiu	s0,a0,1
54001278:	1556ffe9 	bne	t2,s6,54001220 <fusion_display+0x624>
5400127c:	ae500018 	sw	s0,24(s2)
54001280:	72146002 	mul	t4,s0,s4
54001284:	0183001a 	div	zero,t4,v1
54001288:	006001f4 	teq	v1,zero,0x7
5400128c:	00005812 	mflo	t3
54001290:	1000ffe7 	b	54001230 <fusion_display+0x634>
54001294:	028b1023 	subu	v0,s4,t3
54001298:	3c0e5401 	lui	t6,0x5401
5400129c:	240d0014 	li	t5,20
540012a0:	2413000a 	li	s3,10
540012a4:	2632000c 	addiu	s2,s1,12
540012a8:	ae33000c 	sw	s3,12(s1)
540012ac:	25c491ac 	addiu	a0,t6,-28244
540012b0:	24050002 	li	a1,2
540012b4:	00003021 	move	a2,zero
540012b8:	0d000865 	jal	54002194 <open>
540012bc:	ae4d0014 	sw	t5,20(s2)
540012c0:	00409821 	move	s3,v0
540012c4:	044001ce 	bltz	v0,54001a00 <fusion_display+0xe04>
540012c8:	0220a021 	move	s4,s1
540012cc:	8e430014 	lw	v1,20(s2)
540012d0:	18600112 	blez	v1,5400171c <fusion_display+0xb20>
540012d4:	00002021 	move	a0,zero
540012d8:	24150003 	li	s5,3
540012dc:	241600b4 	li	s6,180
540012e0:	10000017 	b	54001340 <fusion_display+0x744>
540012e4:	24170168 	li	s7,360
540012e8:	72165002 	mul	t2,s0,s6
540012ec:	0143001a 	div	zero,t2,v1
540012f0:	006001f4 	teq	v1,zero,0x7
540012f4:	00004812 	mflo	t1
540012f8:	02e91023 	subu	v0,s7,t1
540012fc:	ae420020 	sw	v0,32(s2)
54001300:	0d0008e6 	jal	54002398 <transimage>
54001304:	02402021 	move	a0,s2
54001308:	04400195 	bltz	v0,54001960 <fusion_display+0xd64>
5400130c:	00000000 	nop
54001310:	02602021 	move	a0,s3
54001314:	0d000008 	jal	54000020 <_update_framebuffer>
54001318:	02802821 	move	a1,s4
5400131c:	1040017c 	beqz	v0,54001910 <fusion_display+0xd14>
54001320:	00000000 	nop
54001324:	0d0023e6 	jal	54008f98 <mdelay>
54001328:	00002021 	move	a0,zero
5400132c:	8e430014 	lw	v1,20(s2)
54001330:	02002021 	move	a0,s0
54001334:	0203802a 	slt	s0,s0,v1
54001338:	120000f8 	beqz	s0,5400171c <fusion_display+0xb20>
5400133c:	00000000 	nop
54001340:	8e5e001c 	lw	s8,28(s2)
54001344:	24900001 	addiu	s0,a0,1
54001348:	17d5ffe7 	bne	s8,s5,540012e8 <fusion_display+0x6ec>
5400134c:	ae500018 	sw	s0,24(s2)
54001350:	72161002 	mul	v0,s0,s6
54001354:	0043001a 	div	zero,v0,v1
54001358:	006001f4 	teq	v1,zero,0x7
5400135c:	1000ffe7 	b	540012fc <fusion_display+0x700>
54001360:	00001012 	mflo	v0
54001364:	02202021 	move	a0,s1
54001368:	0d00006e 	jal	540001b8 <_display_other>
5400136c:	24050009 	li	a1,9
54001370:	1000ff21 	b	54000ff8 <fusion_display+0x3fc>
54001374:	00409821 	move	s3,v0
54001378:	02202021 	move	a0,s1
5400137c:	0d00006e 	jal	540001b8 <_display_other>
54001380:	24050008 	li	a1,8
54001384:	1000ff1c 	b	54000ff8 <fusion_display+0x3fc>
54001388:	00409821 	move	s3,v0
5400138c:	02202021 	move	a0,s1
54001390:	0d00006e 	jal	540001b8 <_display_other>
54001394:	24050002 	li	a1,2
54001398:	1000ff17 	b	54000ff8 <fusion_display+0x3fc>
5400139c:	00409821 	move	s3,v0
540013a0:	02202021 	move	a0,s1
540013a4:	0d00006e 	jal	540001b8 <_display_other>
540013a8:	24050003 	li	a1,3
540013ac:	1000ff12 	b	54000ff8 <fusion_display+0x3fc>
540013b0:	00409821 	move	s3,v0
540013b4:	02202021 	move	a0,s1
540013b8:	0d00006e 	jal	540001b8 <_display_other>
540013bc:	24050006 	li	a1,6
540013c0:	1000ff0d 	b	54000ff8 <fusion_display+0x3fc>
540013c4:	00409821 	move	s3,v0
540013c8:	02202021 	move	a0,s1
540013cc:	0d00006e 	jal	540001b8 <_display_other>
540013d0:	24050005 	li	a1,5
540013d4:	1000ff08 	b	54000ff8 <fusion_display+0x3fc>
540013d8:	00409821 	move	s3,v0
540013dc:	2632000c 	addiu	s2,s1,12
540013e0:	8e4b0008 	lw	t3,8(s2)
540013e4:	8e54001c 	lw	s4,28(s2)
540013e8:	24130003 	li	s3,3
540013ec:	ae20000c 	sw	zero,12(s1)
540013f0:	0220b021 	move	s6,s1
540013f4:	0000b821 	move	s7,zero
540013f8:	8e5e0004 	lw	s8,4(s2)
540013fc:	12930120 	beq	s4,s3,54001880 <fusion_display+0xc84>
54001400:	afab0028 	sw	t3,40(sp)
54001404:	3c0d5401 	lui	t5,0x5401
54001408:	25a491ac 	addiu	a0,t5,-28244
5400140c:	24050002 	li	a1,2
54001410:	0d000865 	jal	54002194 <open>
54001414:	00003021 	move	a2,zero
54001418:	044001fe 	bltz	v0,54001c14 <fusion_display+0x1018>
5400141c:	00409821 	move	s3,v0
54001420:	8e430014 	lw	v1,20(s2)
54001424:	18600017 	blez	v1,54001484 <fusion_display+0x888>
54001428:	00008021 	move	s0,zero
5400142c:	24150003 	li	s5,3
54001430:	00702023 	subu	a0,v1,s0
54001434:	12950002 	beq	s4,s5,54001440 <fusion_display+0x844>
54001438:	2482ffff 	addiu	v0,a0,-1
5400143c:	26020001 	addiu	v0,s0,1
54001440:	ae420018 	sw	v0,24(s2)
54001444:	0d0008e6 	jal	54002398 <transimage>
54001448:	02402021 	move	a0,s2
5400144c:	04400124 	bltz	v0,540018e0 <fusion_display+0xce4>
54001450:	00000000 	nop
54001454:	02602021 	move	a0,s3
54001458:	0d000008 	jal	54000020 <_update_framebuffer>
5400145c:	02c02821 	move	a1,s6
54001460:	1040010d 	beqz	v0,54001898 <fusion_display+0xc9c>
54001464:	00000000 	nop
54001468:	0d0023e6 	jal	54008f98 <mdelay>
5400146c:	00002021 	move	a0,zero
54001470:	8e430014 	lw	v1,20(s2)
54001474:	26100001 	addiu	s0,s0,1
54001478:	0203102a 	slt	v0,s0,v1
5400147c:	1440ffed 	bnez	v0,54001434 <fusion_display+0x838>
54001480:	00702023 	subu	a0,v1,s0
54001484:	24170001 	li	s7,1
54001488:	8fa30028 	lw	v1,40(sp)
5400148c:	ae5e0004 	sw	s8,4(s2)
54001490:	06600003 	bltz	s3,540014a0 <fusion_display+0x8a4>
54001494:	ae430008 	sw	v1,8(s2)
54001498:	0d00085f 	jal	5400217c <close>
5400149c:	02602021 	move	a0,s3
540014a0:	02e09821 	move	s3,s7
540014a4:	3c175401 	lui	s7,0x5401
540014a8:	26f29444 	addiu	s2,s7,-27580
540014ac:	0d000822 	jal	54002088 <sys_pm_clear_clk_domain>
540014b0:	8e440000 	lw	a0,0(s2)
540014b4:	1000fdf3 	b	54000c84 <fusion_display+0x88>
540014b8:	8e240010 	lw	a0,16(s1)
540014bc:	02202021 	move	a0,s1
540014c0:	0d00006e 	jal	540001b8 <_display_other>
540014c4:	24050004 	li	a1,4
540014c8:	1000fecb 	b	54000ff8 <fusion_display+0x3fc>
540014cc:	00409821 	move	s3,v0
540014d0:	0d0002a8 	jal	54000aa0 <_get_rtc_stdsec>
540014d4:	27a40018 	addiu	a0,sp,24
540014d8:	8fa40018 	lw	a0,24(sp)
540014dc:	0d0008ad 	jal	540022b4 <srandom>
540014e0:	3c17ba2e 	lui	s7,0xba2e
540014e4:	0d00088c 	jal	54002230 <random>
540014e8:	36f48ba3 	ori	s4,s7,0x8ba3
540014ec:	00540019 	multu	v0,s4
540014f0:	00008021 	move	s0,zero
540014f4:	00002010 	mfhi	a0
540014f8:	3c065401 	lui	a2,0x5401
540014fc:	000440c2 	srl	t0,a0,0x3
54001500:	00089040 	sll	s2,t0,0x1
54001504:	02481821 	addu	v1,s2,t0
54001508:	0003f880 	sll	ra,v1,0x2
5400150c:	03e8c823 	subu	t9,ra,t0
54001510:	00595023 	subu	t2,v0,t9
54001514:	2958000a 	slti	t8,t2,10
54001518:	0158800b 	movn	s0,t2,t8
5400151c:	24cca018 	addiu	t4,a2,-24552
54001520:	00107080 	sll	t6,s0,0x2
54001524:	000a7880 	sll	t7,t2,0x2
54001528:	01ec6821 	addu	t5,t7,t4
5400152c:	01cc2821 	addu	a1,t6,t4
54001530:	8da80000 	lw	t0,0(t5)
54001534:	8ca70000 	lw	a3,0(a1)
54001538:	3c0b5401 	lui	t3,0x5401
5400153c:	241e0001 	li	s8,1
54001540:	ad870028 	sw	a3,40(t4)
54001544:	ad702168 	sw	s0,8552(t3)
54001548:	afaa0018 	sw	t2,24(sp)
5400154c:	1000fe1e 	b	54000dc8 <fusion_display+0x1cc>
54001550:	aea80000 	sw	t0,0(s5)
54001554:	14adfdf1 	bne	a1,t5,54000d1c <fusion_display+0x120>
54001558:	240e00b4 	li	t6,180
5400155c:	1000fe71 	b	54000f24 <fusion_display+0x328>
54001560:	2402005a 	li	v0,90
54001564:	16c0fdf7 	bnez	s6,54000d44 <fusion_display+0x148>
54001568:	240300b4 	li	v1,180
5400156c:	2402ffa6 	li	v0,-90
54001570:	1000fe0a 	b	54000d9c <fusion_display+0x1a0>
54001574:	00408021 	move	s0,v0
54001578:	54affdeb 	bnel	a1,t7,54000d28 <fusion_display+0x12c>
5400157c:	2410010e 	li	s0,270
54001580:	1000fe68 	b	54000f24 <fusion_display+0x328>
54001584:	2402005a 	li	v0,90
54001588:	54a0fdea 	bnezl	a1,54000d34 <fusion_display+0x138>
5400158c:	8cc40074 	lw	a0,116(a2)
54001590:	1000fe64 	b	54000f24 <fusion_display+0x328>
54001594:	2402005a 	li	v0,90
54001598:	5619fe57 	bnel	s0,t9,54000ef8 <fusion_display+0x2fc>
5400159c:	afa0001c 	sw	zero,28(sp)
540015a0:	1a40fe55 	blez	s2,54000ef8 <fusion_display+0x2fc>
540015a4:	00004821 	move	t1,zero
540015a8:	0014502a 	slt	t2,zero,s4
540015ac:	2647ffff 	addiu	a3,s2,-1
540015b0:	00004021 	move	t0,zero
540015b4:	1140000d 	beqz	t2,540015ec <fusion_display+0x9f0>
540015b8:	70f47002 	mul	t6,a3,s4
540015bc:	00082840 	sll	a1,t0,0x1
540015c0:	01d43021 	addu	a2,t6,s4
540015c4:	00066840 	sll	t5,a2,0x1
540015c8:	00b61821 	addu	v1,a1,s6
540015cc:	01a43021 	addu	a2,t5,a0
540015d0:	02802821 	move	a1,s4
540015d4:	94cffffe 	lhu	t7,-2(a2)
540015d8:	24a5ffff 	addiu	a1,a1,-1
540015dc:	a46f0000 	sh	t7,0(v1)
540015e0:	24c6fffe 	addiu	a2,a2,-2
540015e4:	14a0fffb 	bnez	a1,540015d4 <fusion_display+0x9d8>
540015e8:	24630002 	addiu	v1,v1,2
540015ec:	25290001 	addiu	t1,t1,1
540015f0:	0132c02a 	slt	t8,t1,s2
540015f4:	01144021 	addu	t0,t0,s4
540015f8:	1700ffee 	bnez	t8,540015b4 <fusion_display+0x9b8>
540015fc:	24e7ffff 	addiu	a3,a3,-1
54001600:	1000fe3e 	b	54000efc <fusion_display+0x300>
54001604:	8fb2001c 	lw	s2,28(sp)
54001608:	8e250034 	lw	a1,52(s1)
5400160c:	0040f809 	jalr	v0
54001610:	8e260038 	lw	a2,56(s1)
54001614:	1000fdf4 	b	54000de8 <fusion_display+0x1ec>
54001618:	3c055401 	lui	a1,0x5401
5400161c:	1a40fe36 	blez	s2,54000ef8 <fusion_display+0x2fc>
54001620:	00004021 	move	t0,zero
54001624:	0014502a 	slt	t2,zero,s4
54001628:	00004821 	move	t1,zero
5400162c:	1140000e 	beqz	t2,54001668 <fusion_display+0xa6c>
54001630:	2682ffff 	addiu	v0,s4,-1
54001634:	70521802 	mul	v1,v0,s2
54001638:	0009f840 	sll	ra,t1,0x1
5400163c:	00683821 	addu	a3,v1,t0
54001640:	03f63021 	addu	a2,ra,s6
54001644:	02802821 	move	a1,s4
54001648:	00076040 	sll	t4,a3,0x1
5400164c:	01848021 	addu	s0,t4,a0
54001650:	960b0000 	lhu	t3,0(s0)
54001654:	24a5ffff 	addiu	a1,a1,-1
54001658:	a4cb0000 	sh	t3,0(a2)
5400165c:	00f23823 	subu	a3,a3,s2
54001660:	14a0fff9 	bnez	a1,54001648 <fusion_display+0xa4c>
54001664:	24c60002 	addiu	a2,a2,2
54001668:	25080001 	addiu	t0,t0,1
5400166c:	0112382a 	slt	a3,t0,s2
54001670:	14e0ffee 	bnez	a3,5400162c <fusion_display+0xa30>
54001674:	01344821 	addu	t1,t1,s4
54001678:	1000fe20 	b	54000efc <fusion_display+0x300>
5400167c:	8fb2001c 	lw	s2,28(sp)
54001680:	0d0023ec 	jal	54008fb0 <free>
54001684:	3c145401 	lui	s4,0x5401
54001688:	2684217c 	addiu	a0,s4,8572
5400168c:	1000fdc6 	b	54000da8 <fusion_display+0x1ac>
54001690:	ac960000 	sw	s6,0(a0)
54001694:	1705fdae 	bne	t8,a1,54000d50 <fusion_display+0x154>
54001698:	2405010e 	li	a1,270
5400169c:	1000ffb4 	b	54001570 <fusion_display+0x974>
540016a0:	2402ffa6 	li	v0,-90
540016a4:	1723fdac 	bne	t9,v1,54000d58 <fusion_display+0x15c>
540016a8:	2402ffa6 	li	v0,-90
540016ac:	1000fdbb 	b	54000d9c <fusion_display+0x1a0>
540016b0:	00408021 	move	s0,v0
540016b4:	241f010e 	li	ra,270
540016b8:	145ffdb1 	bne	v0,ra,54000d80 <fusion_display+0x184>
540016bc:	240300b4 	li	v1,180
540016c0:	1000fe2f 	b	54000f80 <fusion_display+0x384>
540016c4:	240200b4 	li	v0,180
540016c8:	14e0fdb0 	bnez	a3,54000d8c <fusion_display+0x190>
540016cc:	2408010e 	li	t0,270
540016d0:	1000fe2b 	b	54000f80 <fusion_display+0x384>
540016d4:	240200b4 	li	v0,180
540016d8:	0d00085c 	jal	54002170 <__errno>
540016dc:	3c145401 	lui	s4,0x5401
540016e0:	0d000859 	jal	54002164 <getpid>
540016e4:	00408021 	move	s0,v0
540016e8:	8e050000 	lw	a1,0(s0)
540016ec:	3c0b5401 	lui	t3,0x5401
540016f0:	3c0a5401 	lui	t2,0x5401
540016f4:	24090054 	li	t1,84
540016f8:	26929040 	addiu	s2,s4,-28608
540016fc:	25649398 	addiu	a0,t3,-27752
54001700:	00403021 	move	a2,v0
54001704:	254791a0 	addiu	a3,t2,-28256
54001708:	afa90010 	sw	t1,16(sp)
5400170c:	0d0023e3 	jal	54008f8c <printf>
54001710:	afb20014 	sw	s2,20(sp)
54001714:	1000fda5 	b	54000dac <fusion_display+0x1b0>
54001718:	8eb60004 	lw	s6,4(s5)
5400171c:	0d00085f 	jal	5400217c <close>
54001720:	02602021 	move	a0,s3
54001724:	24020001 	li	v0,1
54001728:	1000fe33 	b	54000ff8 <fusion_display+0x3fc>
5400172c:	00409821 	move	s3,v0
54001730:	1c60001b 	bgtz	v1,540017a0 <fusion_display+0xba4>
54001734:	00008021 	move	s0,zero
54001738:	10000037 	b	54001818 <fusion_display+0xc1c>
5400173c:	8fbe0024 	lw	s8,36(sp)
54001740:	240a005a 	li	t2,90
54001744:	706a1002 	mul	v0,v1,t2
54001748:	24030168 	li	v1,360
5400174c:	0044001a 	div	zero,v0,a0
54001750:	008001f4 	teq	a0,zero,0x7
54001754:	00002012 	mflo	a0
54001758:	00641023 	subu	v0,v1,a0
5400175c:	ae420020 	sw	v0,32(s2)
54001760:	0d0008e6 	jal	54002398 <transimage>
54001764:	02402021 	move	a0,s2
54001768:	04400113 	bltz	v0,54001bb8 <fusion_display+0xfbc>
5400176c:	00000000 	nop
54001770:	02c02021 	move	a0,s6
54001774:	0d000008 	jal	54000020 <_update_framebuffer>
54001778:	02a02821 	move	a1,s5
5400177c:	10400102 	beqz	v0,54001b88 <fusion_display+0xf8c>
54001780:	00000000 	nop
54001784:	0d0023e6 	jal	54008f98 <mdelay>
54001788:	00002021 	move	a0,zero
5400178c:	8e4b0014 	lw	t3,20(s2)
54001790:	02808021 	move	s0,s4
54001794:	028ba02a 	slt	s4,s4,t3
54001798:	5280001f 	beqzl	s4,54001818 <fusion_display+0xc1c>
5400179c:	8fbe0024 	lw	s8,36(sp)
540017a0:	8fb80024 	lw	t8,36(sp)
540017a4:	26140001 	addiu	s4,s0,1
540017a8:	2405000d 	li	a1,13
540017ac:	02402021 	move	a0,s2
540017b0:	ae450000 	sw	a1,0(s2)
540017b4:	ae540018 	sw	s4,24(s2)
540017b8:	ae400004 	sw	zero,4(s2)
540017bc:	ae580008 	sw	t8,8(s2)
540017c0:	0d0008e6 	jal	54002398 <transimage>
540017c4:	ae530024 	sw	s3,36(s2)
540017c8:	0440011e 	bltz	v0,54001c44 <fusion_display+0x1048>
540017cc:	241f0010 	li	ra,16
540017d0:	8e440014 	lw	a0,20(s2)
540017d4:	8fa60024 	lw	a2,36(sp)
540017d8:	8e59001c 	lw	t9,28(s2)
540017dc:	00901823 	subu	v1,a0,s0
540017e0:	24100003 	li	s0,3
540017e4:	ae5f0000 	sw	ra,0(s2)
540017e8:	ae530004 	sw	s3,4(s2)
540017ec:	ae460008 	sw	a2,8(s2)
540017f0:	ae5e0024 	sw	s8,36(s2)
540017f4:	1730ffd2 	bne	t9,s0,54001740 <fusion_display+0xb44>
540017f8:	ae430018 	sw	v1,24(s2)
540017fc:	2409005a 	li	t1,90
54001800:	70694002 	mul	t0,v1,t1
54001804:	0104001a 	div	zero,t0,a0
54001808:	008001f4 	teq	a0,zero,0x7
5400180c:	1000ffd3 	b	5400175c <fusion_display+0xb60>
54001810:	00001012 	mflo	v0
54001814:	8fbe0024 	lw	s8,36(sp)
54001818:	02a02821 	move	a1,s5
5400181c:	02c02021 	move	a0,s6
54001820:	0d000008 	jal	54000020 <_update_framebuffer>
54001824:	ae5e0024 	sw	s8,36(s2)
54001828:	104000ef 	beqz	v0,54001be8 <fusion_display+0xfec>
5400182c:	00000000 	nop
54001830:	24050001 	li	a1,1
54001834:	afa50020 	sw	a1,32(sp)
54001838:	12600003 	beqz	s3,54001848 <fusion_display+0xc4c>
5400183c:	00000000 	nop
54001840:	0d0023ec 	jal	54008fb0 <free>
54001844:	02602021 	move	a0,s3
54001848:	06c20004 	bltzl	s6,5400185c <fusion_display+0xc60>
5400184c:	8fb60024 	lw	s6,36(sp)
54001850:	0d00085f 	jal	5400217c <close>
54001854:	02c02021 	move	a0,s6
54001858:	8fb60024 	lw	s6,36(sp)
5400185c:	8fb30020 	lw	s3,32(sp)
54001860:	ae560008 	sw	s6,8(s2)
54001864:	ae570004 	sw	s7,4(s2)
54001868:	3c175401 	lui	s7,0x5401
5400186c:	26f29444 	addiu	s2,s7,-27580
54001870:	0d000822 	jal	54002088 <sys_pm_clear_clk_domain>
54001874:	8e440000 	lw	a0,0(s2)
54001878:	1000fd02 	b	54000c84 <fusion_display+0x88>
5400187c:	8e240010 	lw	a0,16(s1)
54001880:	8fac0028 	lw	t4,40(sp)
54001884:	24070002 	li	a3,2
54001888:	ae47001c 	sw	a3,28(s2)
5400188c:	ae4c0004 	sw	t4,4(s2)
54001890:	1000fedc 	b	54001404 <fusion_display+0x808>
54001894:	ae5e0008 	sw	s8,8(s2)
54001898:	0d00085c 	jal	54002170 <__errno>
5400189c:	00000000 	nop
540018a0:	0d000859 	jal	54002164 <getpid>
540018a4:	0040a021 	move	s4,v0
540018a8:	3c065401 	lui	a2,0x5401
540018ac:	3c1f5401 	lui	ra,0x5401
540018b0:	8e850000 	lw	a1,0(s4)
540018b4:	24c49164 	addiu	a0,a2,-28316
540018b8:	27e791a0 	addiu	a3,ra,-28256
540018bc:	00403021 	move	a2,v0
540018c0:	240301ed 	li	v1,493
540018c4:	3c095401 	lui	t1,0x5401
540018c8:	25289084 	addiu	t0,t1,-28540
540018cc:	afa30010 	sw	v1,16(sp)
540018d0:	0d0023e3 	jal	54008f8c <printf>
540018d4:	afa80014 	sw	t0,20(sp)
540018d8:	1000feec 	b	5400148c <fusion_display+0x890>
540018dc:	8fa30028 	lw	v1,40(sp)
540018e0:	0d00085c 	jal	54002170 <__errno>
540018e4:	00000000 	nop
540018e8:	0d000859 	jal	54002164 <getpid>
540018ec:	00408021 	move	s0,v0
540018f0:	3c195401 	lui	t9,0x5401
540018f4:	3c185401 	lui	t8,0x5401
540018f8:	8e050000 	lw	a1,0(s0)
540018fc:	272491b4 	addiu	a0,t9,-28236
54001900:	00403021 	move	a2,v0
54001904:	270791a0 	addiu	a3,t8,-28256
54001908:	1000ffee 	b	540018c4 <fusion_display+0xcc8>
5400190c:	240301e7 	li	v1,487
54001910:	0d00085c 	jal	54002170 <__errno>
54001914:	3c155401 	lui	s5,0x5401
54001918:	0d000859 	jal	54002164 <getpid>
5400191c:	0040b821 	move	s7,v0
54001920:	3c035401 	lui	v1,0x5401
54001924:	3c045401 	lui	a0,0x5401
54001928:	8ee50000 	lw	a1,0(s7)
5400192c:	246791a0 	addiu	a3,v1,-28256
54001930:	24849164 	addiu	a0,a0,-28316
54001934:	00403021 	move	a2,v0
54001938:	240301ad 	li	v1,429
5400193c:	afa30010 	sw	v1,16(sp)
54001940:	26a29060 	addiu	v0,s5,-28576
54001944:	0d0023e3 	jal	54008f8c <printf>
54001948:	afa20014 	sw	v0,20(sp)
5400194c:	0d00085f 	jal	5400217c <close>
54001950:	02602021 	move	a0,s3
54001954:	00001021 	move	v0,zero
54001958:	1000fda7 	b	54000ff8 <fusion_display+0x3fc>
5400195c:	00409821 	move	s3,v0
54001960:	0d00085c 	jal	54002170 <__errno>
54001964:	3c155401 	lui	s5,0x5401
54001968:	0d000859 	jal	54002164 <getpid>
5400196c:	0040a021 	move	s4,v0
54001970:	3c085401 	lui	t0,0x5401
54001974:	3c1f5401 	lui	ra,0x5401
54001978:	8e850000 	lw	a1,0(s4)
5400197c:	250491b4 	addiu	a0,t0,-28236
54001980:	00403021 	move	a2,v0
54001984:	27e791a0 	addiu	a3,ra,-28256
54001988:	1000ffec 	b	5400193c <fusion_display+0xd40>
5400198c:	240301a6 	li	v1,422
54001990:	0d00085c 	jal	54002170 <__errno>
54001994:	3c165401 	lui	s6,0x5401
54001998:	0d000859 	jal	54002164 <getpid>
5400199c:	00408021 	move	s0,v0
540019a0:	8e050000 	lw	a1,0(s0)
540019a4:	00403021 	move	a2,v0
540019a8:	3c095401 	lui	t1,0x5401
540019ac:	3c025401 	lui	v0,0x5401
540019b0:	244791a0 	addiu	a3,v0,-28256
540019b4:	240300f2 	li	v1,242
540019b8:	26c49164 	addiu	a0,s6,-28316
540019bc:	25229050 	addiu	v0,t1,-28592
540019c0:	1000ffe0 	b	54001944 <fusion_display+0xd48>
540019c4:	afa30010 	sw	v1,16(sp)
540019c8:	0d00085c 	jal	54002170 <__errno>
540019cc:	3c155401 	lui	s5,0x5401
540019d0:	0d000859 	jal	54002164 <getpid>
540019d4:	0040f021 	move	s8,v0
540019d8:	3c175401 	lui	s7,0x5401
540019dc:	8fc50000 	lw	a1,0(s8)
540019e0:	3c095401 	lui	t1,0x5401
540019e4:	00403021 	move	a2,v0
540019e8:	240300eb 	li	v1,235
540019ec:	26a491b4 	addiu	a0,s5,-28236
540019f0:	26e791a0 	addiu	a3,s7,-28256
540019f4:	25229050 	addiu	v0,t1,-28592
540019f8:	1000ffd2 	b	54001944 <fusion_display+0xd48>
540019fc:	afa30010 	sw	v1,16(sp)
54001a00:	0d00085c 	jal	54002170 <__errno>
54001a04:	00000000 	nop
54001a08:	0d000859 	jal	54002164 <getpid>
54001a0c:	00409021 	move	s2,v0
54001a10:	8e450000 	lw	a1,0(s2)
54001a14:	3c065401 	lui	a2,0x5401
54001a18:	3c195401 	lui	t9,0x5401
54001a1c:	3c0f5401 	lui	t7,0x5401
54001a20:	24c491e8 	addiu	a0,a2,-28184
54001a24:	24180194 	li	t8,404
54001a28:	00403021 	move	a2,v0
54001a2c:	272791a0 	addiu	a3,t9,-28256
54001a30:	25e29060 	addiu	v0,t7,-28576
54001a34:	afb80010 	sw	t8,16(sp)
54001a38:	0d0023e3 	jal	54008f8c <printf>
54001a3c:	afa20014 	sw	v0,20(sp)
54001a40:	1000ffc5 	b	54001958 <fusion_display+0xd5c>
54001a44:	00001021 	move	v0,zero
54001a48:	0d00085c 	jal	54002170 <__errno>
54001a4c:	00000000 	nop
54001a50:	0d000859 	jal	54002164 <getpid>
54001a54:	0040a021 	move	s4,v0
54001a58:	3c0d5401 	lui	t5,0x5401
54001a5c:	3c075401 	lui	a3,0x5401
54001a60:	8e850000 	lw	a1,0(s4)
54001a64:	25a491b4 	addiu	a0,t5,-28236
54001a68:	00403021 	move	a2,v0
54001a6c:	24e791a0 	addiu	a3,a3,-28256
54001a70:	24030122 	li	v1,290
54001a74:	3c0a5401 	lui	t2,0x5401
54001a78:	25429074 	addiu	v0,t2,-28556
54001a7c:	afa30010 	sw	v1,16(sp)
54001a80:	0d0023e3 	jal	54008f8c <printf>
54001a84:	afa20014 	sw	v0,20(sp)
54001a88:	1000ff6b 	b	54001838 <fusion_display+0xc3c>
54001a8c:	00000000 	nop
54001a90:	0d00085c 	jal	54002170 <__errno>
54001a94:	3c125401 	lui	s2,0x5401
54001a98:	0d000859 	jal	54002164 <getpid>
54001a9c:	0040a021 	move	s4,v0
54001aa0:	8e850000 	lw	a1,0(s4)
54001aa4:	3c085401 	lui	t0,0x5401
54001aa8:	3c045401 	lui	a0,0x5401
54001aac:	00403021 	move	a2,v0
54001ab0:	240300d9 	li	v1,217
54001ab4:	25029050 	addiu	v0,t0,-28592
54001ab8:	248491e8 	addiu	a0,a0,-28184
54001abc:	264791a0 	addiu	a3,s2,-28256
54001ac0:	afa30010 	sw	v1,16(sp)
54001ac4:	0d0023e3 	jal	54008f8c <printf>
54001ac8:	afa20014 	sw	v0,20(sp)
54001acc:	1000ffa2 	b	54001958 <fusion_display+0xd5c>
54001ad0:	00001021 	move	v0,zero
54001ad4:	0d00085c 	jal	54002170 <__errno>
54001ad8:	00000000 	nop
54001adc:	0d000859 	jal	54002164 <getpid>
54001ae0:	0040a821 	move	s5,v0
54001ae4:	3c195401 	lui	t9,0x5401
54001ae8:	3c185401 	lui	t8,0x5401
54001aec:	8ea50000 	lw	a1,0(s5)
54001af0:	27249258 	addiu	a0,t9,-28072
54001af4:	00403021 	move	a2,v0
54001af8:	270791a0 	addiu	a3,t8,-28256
54001afc:	1000ffdd 	b	54001a74 <fusion_display+0xe78>
54001b00:	2403013d 	li	v1,317
54001b04:	0d00085c 	jal	54002170 <__errno>
54001b08:	00000000 	nop
54001b0c:	0d000859 	jal	54002164 <getpid>
54001b10:	0040f021 	move	s8,v0
54001b14:	3c0f5401 	lui	t7,0x5401
54001b18:	3c0e5401 	lui	t6,0x5401
54001b1c:	8fc50000 	lw	a1,0(s8)
54001b20:	25e491b4 	addiu	a0,t7,-28236
54001b24:	00403021 	move	a2,v0
54001b28:	25c791a0 	addiu	a3,t6,-28256
54001b2c:	1000ffd1 	b	54001a74 <fusion_display+0xe78>
54001b30:	24030137 	li	v1,311
54001b34:	0d00085c 	jal	54002170 <__errno>
54001b38:	00000000 	nop
54001b3c:	0d000859 	jal	54002164 <getpid>
54001b40:	0040a021 	move	s4,v0
54001b44:	8e850000 	lw	a1,0(s4)
54001b48:	3c185401 	lui	t8,0x5401
54001b4c:	3c0f5401 	lui	t7,0x5401
54001b50:	3c0d5401 	lui	t5,0x5401
54001b54:	25b39074 	addiu	s3,t5,-28556
54001b58:	240e010c 	li	t6,268
54001b5c:	270493c8 	addiu	a0,t8,-27704
54001b60:	00403021 	move	a2,v0
54001b64:	25e791a0 	addiu	a3,t7,-28256
54001b68:	afb30014 	sw	s3,20(sp)
54001b6c:	0d0023e3 	jal	54008f8c <printf>
54001b70:	afae0010 	sw	t6,16(sp)
54001b74:	8fb60024 	lw	s6,36(sp)
54001b78:	8fb30020 	lw	s3,32(sp)
54001b7c:	ae560008 	sw	s6,8(s2)
54001b80:	1000ff39 	b	54001868 <fusion_display+0xc6c>
54001b84:	ae570004 	sw	s7,4(s2)
54001b88:	0d00085c 	jal	54002170 <__errno>
54001b8c:	00000000 	nop
54001b90:	0d000859 	jal	54002164 <getpid>
54001b94:	0040f021 	move	s8,v0
54001b98:	3c035401 	lui	v1,0x5401
54001b9c:	3c045401 	lui	a0,0x5401
54001ba0:	8fc50000 	lw	a1,0(s8)
54001ba4:	246791a0 	addiu	a3,v1,-28256
54001ba8:	24849404 	addiu	a0,a0,-27644
54001bac:	00403021 	move	a2,v0
54001bb0:	1000ffb0 	b	54001a74 <fusion_display+0xe78>
54001bb4:	24030169 	li	v1,361
54001bb8:	0d00085c 	jal	54002170 <__errno>
54001bbc:	00000000 	nop
54001bc0:	0d000859 	jal	54002164 <getpid>
54001bc4:	0040a021 	move	s4,v0
54001bc8:	3c095401 	lui	t1,0x5401
54001bcc:	3c085401 	lui	t0,0x5401
54001bd0:	8e850000 	lw	a1,0(s4)
54001bd4:	252491b4 	addiu	a0,t1,-28236
54001bd8:	00403021 	move	a2,v0
54001bdc:	250791a0 	addiu	a3,t0,-28256
54001be0:	1000ffa4 	b	54001a74 <fusion_display+0xe78>
54001be4:	24030163 	li	v1,355
54001be8:	0d00085c 	jal	54002170 <__errno>
54001bec:	3c155401 	lui	s5,0x5401
54001bf0:	0d000859 	jal	54002164 <getpid>
54001bf4:	00408021 	move	s0,v0
54001bf8:	3c0c5401 	lui	t4,0x5401
54001bfc:	8e050000 	lw	a1,0(s0)
54001c00:	25849404 	addiu	a0,t4,-27644
54001c04:	00403021 	move	a2,v0
54001c08:	26a791a0 	addiu	a3,s5,-28256
54001c0c:	1000ff99 	b	54001a74 <fusion_display+0xe78>
54001c10:	24030173 	li	v1,371
54001c14:	0d00085c 	jal	54002170 <__errno>
54001c18:	00000000 	nop
54001c1c:	0d000859 	jal	54002164 <getpid>
54001c20:	0040a821 	move	s5,v0
54001c24:	3c0f5401 	lui	t7,0x5401
54001c28:	3c0e5401 	lui	t6,0x5401
54001c2c:	8ea50000 	lw	a1,0(s5)
54001c30:	25e491e8 	addiu	a0,t7,-28184
54001c34:	00403021 	move	a2,v0
54001c38:	25c791a0 	addiu	a3,t6,-28256
54001c3c:	1000ff21 	b	540018c4 <fusion_display+0xcc8>
54001c40:	240301d2 	li	v1,466
54001c44:	0d00085c 	jal	54002170 <__errno>
54001c48:	00000000 	nop
54001c4c:	0d000859 	jal	54002164 <getpid>
54001c50:	00408021 	move	s0,v0
54001c54:	3c065401 	lui	a2,0x5401
54001c58:	3c1f5401 	lui	ra,0x5401
54001c5c:	8e050000 	lw	a1,0(s0)
54001c60:	24c491b4 	addiu	a0,a2,-28236
54001c64:	27e791a0 	addiu	a3,ra,-28256
54001c68:	00403021 	move	a2,v0
54001c6c:	1000ff81 	b	54001a74 <fusion_display+0xe78>
54001c70:	2403014e 	li	v1,334
54001c74:	0d00085c 	jal	54002170 <__errno>
54001c78:	00000000 	nop
54001c7c:	0d000859 	jal	54002164 <getpid>
54001c80:	0040a821 	move	s5,v0
54001c84:	3c065401 	lui	a2,0x5401
54001c88:	3c195401 	lui	t9,0x5401
54001c8c:	8ea50000 	lw	a1,0(s5)
54001c90:	24c491e8 	addiu	a0,a2,-28184
54001c94:	272791a0 	addiu	a3,t9,-28256
54001c98:	00403021 	move	a2,v0
54001c9c:	1000ff75 	b	54001a74 <fusion_display+0xe78>
54001ca0:	24030113 	li	v1,275

54001ca4 <fusion_api_init>:
54001ca4:	3c055401 	lui	a1,0x5401
54001ca8:	27bdffe8 	addiu	sp,sp,-24
54001cac:	24a58fbc 	addiu	a1,a1,-28740
54001cb0:	afbf0010 	sw	ra,16(sp)
54001cb4:	0d0023dd 	jal	54008f74 <api_install>
54001cb8:	24040016 	li	a0,22
54001cbc:	8fbf0010 	lw	ra,16(sp)
54001cc0:	00001021 	move	v0,zero
54001cc4:	03e00008 	jr	ra
54001cc8:	27bd0018 	addiu	sp,sp,24

54001ccc <fusion_api_exit>:
54001ccc:	090023e0 	j	54008f80 <api_uninstall>
54001cd0:	24040016 	li	a0,22

54001cd4 <fusion_set_config>:
54001cd4:	27bdffc0 	addiu	sp,sp,-64
54001cd8:	afb20030 	sw	s2,48(sp)
54001cdc:	00c09021 	move	s2,a2
54001ce0:	2c860006 	sltiu	a2,a0,6
54001ce4:	afb1002c 	sw	s1,44(sp)
54001ce8:	38c20001 	xori	v0,a2,0x1
54001cec:	00808821 	move	s1,a0
54001cf0:	2e440001 	sltiu	a0,s2,1
54001cf4:	00821825 	or	v1,a0,v0
54001cf8:	afb30034 	sw	s3,52(sp)
54001cfc:	afbf003c 	sw	ra,60(sp)
54001d00:	afb40038 	sw	s4,56(sp)
54001d04:	afb00028 	sw	s0,40(sp)
54001d08:	00a09821 	move	s3,a1
54001d0c:	14600008 	bnez	v1,54001d30 <fusion_set_config+0x5c>
54001d10:	2ca40002 	sltiu	a0,a1,2
54001d14:	00114040 	sll	t0,s1,0x1
54001d18:	01118021 	addu	s0,t0,s1
54001d1c:	3c075401 	lui	a3,0x5401
54001d20:	24f4a044 	addiu	s4,a3,-24508
54001d24:	001028c0 	sll	a1,s0,0x3
54001d28:	1480001d 	bnez	a0,54001da0 <fusion_set_config+0xcc>
54001d2c:	00b41821 	addu	v1,a1,s4
54001d30:	0d00085c 	jal	54002170 <__errno>
54001d34:	00000000 	nop
54001d38:	0d000859 	jal	54002164 <getpid>
54001d3c:	00408021 	move	s0,v0
54001d40:	8e050000 	lw	a1,0(s0)
54001d44:	3c0d5401 	lui	t5,0x5401
54001d48:	3c0c5401 	lui	t4,0x5401
54001d4c:	3c0a5401 	lui	t2,0x5401
54001d50:	240b004d 	li	t3,77
54001d54:	254990dc 	addiu	t1,t2,-28452
54001d58:	25a49544 	addiu	a0,t5,-27324
54001d5c:	00403021 	move	a2,v0
54001d60:	25879594 	addiu	a3,t4,-27244
54001d64:	afb10018 	sw	s1,24(sp)
54001d68:	afb3001c 	sw	s3,28(sp)
54001d6c:	afb20020 	sw	s2,32(sp)
54001d70:	afab0010 	sw	t3,16(sp)
54001d74:	0d0023e3 	jal	54008f8c <printf>
54001d78:	afa90014 	sw	t1,20(sp)
54001d7c:	8fbf003c 	lw	ra,60(sp)
54001d80:	8fb40038 	lw	s4,56(sp)
54001d84:	8fb30034 	lw	s3,52(sp)
54001d88:	8fb20030 	lw	s2,48(sp)
54001d8c:	8fb1002c 	lw	s1,44(sp)
54001d90:	8fb00028 	lw	s0,40(sp)
54001d94:	00001021 	move	v0,zero
54001d98:	03e00008 	jr	ra
54001d9c:	27bd0040 	addiu	sp,sp,64
54001da0:	8c6e0004 	lw	t6,4(v1)
54001da4:	8e470000 	lw	a3,0(s2)
54001da8:	02402821 	move	a1,s2
54001dac:	11c70004 	beq	t6,a3,54001dc0 <fusion_set_config+0xec>
54001db0:	24060004 	li	a2,4
54001db4:	8c640000 	lw	a0,0(v1)
54001db8:	0d0023d6 	jal	54008f58 <set_config>
54001dbc:	ac670004 	sw	a3,4(v1)
54001dc0:	0213c021 	addu	t8,s0,s3
54001dc4:	001888c0 	sll	s1,t8,0x3
54001dc8:	02341821 	addu	v1,s1,s4
54001dcc:	8e470004 	lw	a3,4(s2)
54001dd0:	8c6f000c 	lw	t7,12(v1)
54001dd4:	26450004 	addiu	a1,s2,4
54001dd8:	11e70004 	beq	t7,a3,54001dec <fusion_set_config+0x118>
54001ddc:	24060004 	li	a2,4
54001de0:	8c640008 	lw	a0,8(v1)
54001de4:	0d0023d6 	jal	54008f58 <set_config>
54001de8:	ac67000c 	sw	a3,12(v1)
54001dec:	8fbf003c 	lw	ra,60(sp)
54001df0:	8fb40038 	lw	s4,56(sp)
54001df4:	8fb30034 	lw	s3,52(sp)
54001df8:	8fb20030 	lw	s2,48(sp)
54001dfc:	8fb1002c 	lw	s1,44(sp)
54001e00:	8fb00028 	lw	s0,40(sp)
54001e04:	24020001 	li	v0,1
54001e08:	03e00008 	jr	ra
54001e0c:	27bd0040 	addiu	sp,sp,64

54001e10 <fusion_get_config>:
54001e10:	27bdffb8 	addiu	sp,sp,-72
54001e14:	afb3003c 	sw	s3,60(sp)
54001e18:	00c09821 	move	s3,a2
54001e1c:	2c860006 	sltiu	a2,a0,6
54001e20:	afb10034 	sw	s1,52(sp)
54001e24:	2e620001 	sltiu	v0,s3,1
54001e28:	00808821 	move	s1,a0
54001e2c:	38c40001 	xori	a0,a2,0x1
54001e30:	00441825 	or	v1,v0,a0
54001e34:	afb20038 	sw	s2,56(sp)
54001e38:	afbf0044 	sw	ra,68(sp)
54001e3c:	afb40040 	sw	s4,64(sp)
54001e40:	afb00030 	sw	s0,48(sp)
54001e44:	00a09021 	move	s2,a1
54001e48:	14600004 	bnez	v1,54001e5c <fusion_get_config+0x4c>
54001e4c:	afa00028 	sw	zero,40(sp)
54001e50:	2ca50002 	sltiu	a1,a1,2
54001e54:	14a0001e 	bnez	a1,54001ed0 <fusion_get_config+0xc0>
54001e58:	00000000 	nop
54001e5c:	0d00085c 	jal	54002170 <__errno>
54001e60:	00000000 	nop
54001e64:	0d000859 	jal	54002164 <getpid>
54001e68:	00408021 	move	s0,v0
54001e6c:	8e050000 	lw	a1,0(s0)
54001e70:	3c095401 	lui	t1,0x5401
54001e74:	3c045401 	lui	a0,0x5401
54001e78:	3c075401 	lui	a3,0x5401
54001e7c:	240a0068 	li	t2,104
54001e80:	252890f0 	addiu	t0,t1,-28432
54001e84:	24849544 	addiu	a0,a0,-27324
54001e88:	00403021 	move	a2,v0
54001e8c:	24e79594 	addiu	a3,a3,-27244
54001e90:	afb10018 	sw	s1,24(sp)
54001e94:	afb2001c 	sw	s2,28(sp)
54001e98:	afb30020 	sw	s3,32(sp)
54001e9c:	afaa0010 	sw	t2,16(sp)
54001ea0:	0d0023e3 	jal	54008f8c <printf>
54001ea4:	afa80014 	sw	t0,20(sp)
54001ea8:	00001821 	move	v1,zero
54001eac:	8fbf0044 	lw	ra,68(sp)
54001eb0:	8fb40040 	lw	s4,64(sp)
54001eb4:	8fb3003c 	lw	s3,60(sp)
54001eb8:	8fb20038 	lw	s2,56(sp)
54001ebc:	8fb10034 	lw	s1,52(sp)
54001ec0:	8fb00030 	lw	s0,48(sp)
54001ec4:	00601021 	move	v0,v1
54001ec8:	03e00008 	jr	ra
54001ecc:	27bd0048 	addiu	sp,sp,72
54001ed0:	14800037 	bnez	a0,54001fb0 <fusion_get_config+0x1a0>
54001ed4:	00113040 	sll	a2,s1,0x1
54001ed8:	00d18021 	addu	s0,a2,s1
54001edc:	3c025401 	lui	v0,0x5401
54001ee0:	0010c8c0 	sll	t9,s0,0x3
54001ee4:	2454a044 	addiu	s4,v0,-24508
54001ee8:	03341821 	addu	v1,t9,s4
54001eec:	3c1f5401 	lui	ra,0x5401
54001ef0:	27f8a048 	addiu	t8,ra,-24504
54001ef4:	8c640000 	lw	a0,0(v1)
54001ef8:	03382821 	addu	a1,t9,t8
54001efc:	0d0023da 	jal	54008f68 <get_config>
54001f00:	24060004 	li	a2,4
54001f04:	04400009 	bltz	v0,54001f2c <fusion_get_config+0x11c>
54001f08:	02123821 	addu	a3,s0,s2
54001f0c:	000728c0 	sll	a1,a3,0x3
54001f10:	00b45021 	addu	t2,a1,s4
54001f14:	3c095401 	lui	t1,0x5401
54001f18:	2528a050 	addiu	t0,t1,-24496
54001f1c:	8d440008 	lw	a0,8(t2)
54001f20:	00a82821 	addu	a1,a1,t0
54001f24:	0d0023da 	jal	54008f68 <get_config>
54001f28:	24060004 	li	a2,4
54001f2c:	16400035 	bnez	s2,54002004 <fusion_get_config+0x1f4>
54001f30:	3c0b5401 	lui	t3,0x5401
54001f34:	3c045401 	lui	a0,0x5401
54001f38:	24100001 	li	s0,1
54001f3c:	248495a4 	addiu	a0,a0,-27228
54001f40:	27a50028 	addiu	a1,sp,40
54001f44:	24060004 	li	a2,4
54001f48:	afb00028 	sw	s0,40(sp)
54001f4c:	0d0023d6 	jal	54008f58 <set_config>
54001f50:	00000000 	nop
54001f54:	00112840 	sll	a1,s1,0x1
54001f58:	00b11021 	addu	v0,a1,s1
54001f5c:	00523021 	addu	a2,v0,s2
54001f60:	3c035401 	lui	v1,0x5401
54001f64:	2479a044 	addiu	t9,v1,-24508
54001f68:	0006f8c0 	sll	ra,a2,0x3
54001f6c:	0002c0c0 	sll	t8,v0,0x3
54001f70:	03f97821 	addu	t7,ra,t9
54001f74:	0319a021 	addu	s4,t8,t9
54001f78:	8e8e0004 	lw	t6,4(s4)
54001f7c:	8df2000c 	lw	s2,12(t7)
54001f80:	ae6e0000 	sw	t6,0(s3)
54001f84:	ae720004 	sw	s2,4(s3)
54001f88:	24030001 	li	v1,1
54001f8c:	8fbf0044 	lw	ra,68(sp)
54001f90:	8fb40040 	lw	s4,64(sp)
54001f94:	8fb3003c 	lw	s3,60(sp)
54001f98:	8fb20038 	lw	s2,56(sp)
54001f9c:	8fb10034 	lw	s1,52(sp)
54001fa0:	8fb00030 	lw	s0,48(sp)
54001fa4:	00601021 	move	v0,v1
54001fa8:	03e00008 	jr	ra
54001fac:	27bd0048 	addiu	sp,sp,72
54001fb0:	0d00085c 	jal	54002170 <__errno>
54001fb4:	00000000 	nop
54001fb8:	0d000859 	jal	54002164 <getpid>
54001fbc:	0040a021 	move	s4,v0
54001fc0:	8e850000 	lw	a1,0(s4)
54001fc4:	3c0f5401 	lui	t7,0x5401
54001fc8:	3c0e5401 	lui	t6,0x5401
54001fcc:	3c0c5401 	lui	t4,0x5401
54001fd0:	240d0035 	li	t5,53
54001fd4:	258b9104 	addiu	t3,t4,-28412
54001fd8:	25e495b8 	addiu	a0,t7,-27208
54001fdc:	00403021 	move	a2,v0
54001fe0:	25c79594 	addiu	a3,t6,-27244
54001fe4:	afad0010 	sw	t5,16(sp)
54001fe8:	afab0014 	sw	t3,20(sp)
54001fec:	afb10018 	sw	s1,24(sp)
54001ff0:	0d0023e3 	jal	54008f8c <printf>
54001ff4:	afb2001c 	sw	s2,28(sp)
54001ff8:	1240ffcf 	beqz	s2,54001f38 <fusion_get_config+0x128>
54001ffc:	3c045401 	lui	a0,0x5401
54002000:	3c0b5401 	lui	t3,0x5401
54002004:	257095a4 	addiu	s0,t3,-27228
54002008:	02002021 	move	a0,s0
5400200c:	27a50028 	addiu	a1,sp,40
54002010:	0d0023da 	jal	54008f68 <get_config>
54002014:	24060004 	li	a2,4
54002018:	54400006 	bnezl	v0,54002034 <fusion_get_config+0x224>
5400201c:	24110002 	li	s1,2
54002020:	8fad0028 	lw	t5,40(sp)
54002024:	240c0001 	li	t4,1
54002028:	11ac000e 	beq	t5,t4,54002064 <fusion_get_config+0x254>
5400202c:	02002021 	move	a0,s0
54002030:	24110002 	li	s1,2
54002034:	ae710004 	sw	s1,4(s3)
54002038:	24030001 	li	v1,1
5400203c:	ae600000 	sw	zero,0(s3)
54002040:	8fbf0044 	lw	ra,68(sp)
54002044:	8fb40040 	lw	s4,64(sp)
54002048:	8fb3003c 	lw	s3,60(sp)
5400204c:	8fb20038 	lw	s2,56(sp)
54002050:	8fb10034 	lw	s1,52(sp)
54002054:	8fb00030 	lw	s0,48(sp)
54002058:	00601021 	move	v0,v1
5400205c:	03e00008 	jr	ra
54002060:	27bd0048 	addiu	sp,sp,72
54002064:	27a50028 	addiu	a1,sp,40
54002068:	24060004 	li	a2,4
5400206c:	1000ffb7 	b	54001f4c <fusion_get_config+0x13c>
54002070:	afa00028 	sw	zero,40(sp)

54002074 <fusion_update_config>:
54002074:	03e00008 	jr	ra
54002078:	24020001 	li	v0,1

5400207c <sys_pm_set_clk_domain>:
5400207c:	3c030012 	lui	v1,0x12
54002080:	3463008f 	ori	v1,v1,0x8f
54002084:	0000000c 	syscall

54002088 <sys_pm_clear_clk_domain>:
54002088:	3c030012 	lui	v1,0x12
5400208c:	34630090 	ori	v1,v1,0x90
54002090:	0000000c 	syscall

54002094 <__do_global_dtors_aux>:
54002094:	27bdffe0 	addiu	sp,sp,-32
54002098:	afbf001c 	sw	ra,28(sp)
5400209c:	afbe0018 	sw	s8,24(sp)
540020a0:	03a0f021 	move	s8,sp
540020a4:	3c025401 	lui	v0,0x5401
540020a8:	2442a010 	addiu	v0,v0,-24560
540020ac:	afc20010 	sw	v0,16(s8)
540020b0:	8fc20010 	lw	v0,16(s8)
540020b4:	8c420000 	lw	v0,0(v0)
540020b8:	1040000a 	beqz	v0,540020e4 <__do_global_dtors_aux+0x50>
540020bc:	00000000 	nop
540020c0:	8fc20010 	lw	v0,16(s8)
540020c4:	8c420000 	lw	v0,0(v0)
540020c8:	0040f809 	jalr	v0
540020cc:	00000000 	nop
540020d0:	8fc20010 	lw	v0,16(s8)
540020d4:	24420004 	addiu	v0,v0,4
540020d8:	afc20010 	sw	v0,16(s8)
540020dc:	1000fff4 	b	540020b0 <__do_global_dtors_aux+0x1c>
540020e0:	00000000 	nop
540020e4:	03c0e821 	move	sp,s8
540020e8:	8fbf001c 	lw	ra,28(sp)
540020ec:	8fbe0018 	lw	s8,24(sp)
540020f0:	27bd0020 	addiu	sp,sp,32
540020f4:	03e00008 	jr	ra
540020f8:	00000000 	nop

540020fc <__do_global_ctors_aux>:
540020fc:	27bdffe0 	addiu	sp,sp,-32
54002100:	afbf001c 	sw	ra,28(sp)
54002104:	afbe0018 	sw	s8,24(sp)
54002108:	03a0f021 	move	s8,sp
5400210c:	3c025401 	lui	v0,0x5401
54002110:	2442a004 	addiu	v0,v0,-24572
54002114:	afc20010 	sw	v0,16(s8)
54002118:	8fc20010 	lw	v0,16(s8)
5400211c:	8c420000 	lw	v0,0(v0)
54002120:	1040000a 	beqz	v0,5400214c <__do_global_ctors_aux+0x50>
54002124:	00000000 	nop
54002128:	8fc20010 	lw	v0,16(s8)
5400212c:	8c420000 	lw	v0,0(v0)
54002130:	0040f809 	jalr	v0
54002134:	00000000 	nop
54002138:	8fc20010 	lw	v0,16(s8)
5400213c:	24420004 	addiu	v0,v0,4
54002140:	afc20010 	sw	v0,16(s8)
54002144:	1000fff4 	b	54002118 <__do_global_ctors_aux+0x1c>
54002148:	00000000 	nop
5400214c:	03c0e821 	move	sp,s8
54002150:	8fbf001c 	lw	ra,28(sp)
54002154:	8fbe0018 	lw	s8,24(sp)
54002158:	27bd0020 	addiu	sp,sp,32
5400215c:	03e00008 	jr	ra
54002160:	00000000 	nop

54002164 <getpid>:
54002164:	3c030007 	lui	v1,0x7
54002168:	34630016 	ori	v1,v1,0x16
5400216c:	0000000c 	syscall

54002170 <__errno>:
54002170:	3c030007 	lui	v1,0x7
54002174:	34630024 	ori	v1,v1,0x24
54002178:	0000000c 	syscall

5400217c <close>:
5400217c:	3c030006 	lui	v1,0x6
54002180:	34630001 	ori	v1,v1,0x1
54002184:	0000000c 	syscall

54002188 <ioctl>:
54002188:	3c030006 	lui	v1,0x6
5400218c:	3463003f 	ori	v1,v1,0x3f
54002190:	0000000c 	syscall

54002194 <open>:
54002194:	3c030006 	lui	v1,0x6
54002198:	0000000c 	syscall

5400219c <memcpy>:
5400219c:	10000005 	b	540021b4 <memcpy+0x18>
540021a0:	00801821 	move	v1,a0
540021a4:	24c6ffff 	addiu	a2,a2,-1
540021a8:	a0820000 	sb	v0,0(a0)
540021ac:	24a50001 	addiu	a1,a1,1
540021b0:	24840001 	addiu	a0,a0,1
540021b4:	54c0fffb 	bnezl	a2,540021a4 <memcpy+0x8>
540021b8:	90a20000 	lbu	v0,0(a1)
540021bc:	03e00008 	jr	ra
540021c0:	00601021 	move	v0,v1

540021c4 <bcopy>:
540021c4:	10c00007 	beqz	a2,540021e4 <bcopy+0x20>
540021c8:	00000000 	nop
540021cc:	90820000 	lbu	v0,0(a0)
540021d0:	24c6ffff 	addiu	a2,a2,-1
540021d4:	a0a20000 	sb	v0,0(a1)
540021d8:	24840001 	addiu	a0,a0,1
540021dc:	14c0fffb 	bnez	a2,540021cc <bcopy+0x8>
540021e0:	24a50001 	addiu	a1,a1,1
540021e4:	03e00008 	jr	ra
540021e8:	00000000 	nop

540021ec <memset>:
540021ec:	00801021 	move	v0,a0
540021f0:	10000003 	b	54002200 <memset+0x14>
540021f4:	00801821 	move	v1,a0
540021f8:	24c6ffff 	addiu	a2,a2,-1
540021fc:	24630001 	addiu	v1,v1,1
54002200:	54c0fffd 	bnezl	a2,540021f8 <memset+0xc>
54002204:	a0650000 	sb	a1,0(v1)
54002208:	03e00008 	jr	ra
5400220c:	00000000 	nop

54002210 <bzero>:
54002210:	10a00005 	beqz	a1,54002228 <bzero+0x18>
54002214:	00000000 	nop
54002218:	a0800000 	sb	zero,0(a0)
5400221c:	24a5ffff 	addiu	a1,a1,-1
54002220:	14a0fffd 	bnez	a1,54002218 <bzero+0x8>
54002224:	24840001 	addiu	a0,a0,1
54002228:	03e00008 	jr	ra
5400222c:	00000000 	nop

54002230 <random>:
54002230:	3c0a5401 	lui	t2,0x5401
54002234:	3c095401 	lui	t1,0x5401
54002238:	8d26a158 	lw	a2,-24232(t1)
5400223c:	8d45a0d4 	lw	a1,-24364(t2)
54002240:	3c075401 	lui	a3,0x5401
54002244:	8ca20000 	lw	v0,0(a1)
54002248:	8ceba160 	lw	t3,-24224(a3)
5400224c:	8ccc0000 	lw	t4,0(a2)
54002250:	24c70004 	addiu	a3,a2,4
54002254:	01821821 	addu	v1,t4,v0
54002258:	24a80004 	addiu	t0,a1,4
5400225c:	00eb202b 	sltu	a0,a3,t3
54002260:	acc30000 	sw	v1,0(a2)
54002264:	01002821 	move	a1,t0
54002268:	010b102b 	sltu	v0,t0,t3
5400226c:	14800007 	bnez	a0,5400228c <random+0x5c>
54002270:	00033042 	srl	a2,v1,0x1
54002274:	3c0d5401 	lui	t5,0x5401
54002278:	8da8a15c 	lw	t0,-24228(t5)
5400227c:	00c01021 	move	v0,a2
54002280:	ad45a0d4 	sw	a1,-24364(t2)
54002284:	03e00008 	jr	ra
54002288:	ad28a158 	sw	t0,-24232(t1)
5400228c:	14400006 	bnez	v0,540022a8 <random+0x78>
54002290:	ad27a158 	sw	a3,-24232(t1)
54002294:	3c0e5401 	lui	t6,0x5401
54002298:	8dc9a15c 	lw	t1,-24228(t6)
5400229c:	00c01021 	move	v0,a2
540022a0:	03e00008 	jr	ra
540022a4:	ad49a0d4 	sw	t1,-24364(t2)
540022a8:	00c01021 	move	v0,a2
540022ac:	03e00008 	jr	ra
540022b0:	ad48a0d4 	sw	t0,-24364(t2)

540022b4 <srandom>:
540022b4:	3c075401 	lui	a3,0x5401
540022b8:	8ceca15c 	lw	t4,-24228(a3)
540022bc:	24060001 	li	a2,1
540022c0:	0084300b 	movn	a2,a0,a0
540022c4:	27bdffe8 	addiu	sp,sp,-24
540022c8:	3c05834e 	lui	a1,0x834e
540022cc:	3c020001 	lui	v0,0x1
540022d0:	3c037fff 	lui	v1,0x7fff
540022d4:	ad860000 	sw	a2,0(t4)
540022d8:	00c02021 	move	a0,a2
540022dc:	34ab0b5f 	ori	t3,a1,0xb5f
540022e0:	afbf0014 	sw	ra,20(sp)
540022e4:	afb00010 	sw	s0,16(sp)
540022e8:	344af31d 	ori	t2,v0,0xf31d
540022ec:	3469ffff 	ori	t1,v1,0xffff
540022f0:	01802821 	move	a1,t4
540022f4:	240841a7 	li	t0,16807
540022f8:	24070b14 	li	a3,2836
540022fc:	2406001d 	li	a2,29
54002300:	008b0018 	mult	a0,t3
54002304:	00041fc3 	sra	v1,a0,0x1f
54002308:	00007010 	mfhi	t6
5400230c:	24a50004 	addiu	a1,a1,4
54002310:	01c46821 	addu	t5,t6,a0
54002314:	000d1403 	sra	v0,t5,0x10
54002318:	0043c023 	subu	t8,v0,v1
5400231c:	730af802 	mul	ra,t8,t2
54002320:	73078002 	mul	s0,t8,a3
54002324:	009fc823 	subu	t9,a0,ra
54002328:	73287802 	mul	t7,t9,t0
5400232c:	24c6ffff 	addiu	a2,a2,-1
54002330:	01f02023 	subu	a0,t7,s0
54002334:	288e0000 	slti	t6,a0,0
54002338:	71c96802 	mul	t5,t6,t1
5400233c:	01a42021 	addu	a0,t5,a0
54002340:	04c1ffef 	bgez	a2,54002300 <srandom+0x4c>
54002344:	aca40000 	sw	a0,0(a1)
54002348:	258a000c 	addiu	t2,t4,12
5400234c:	3c095401 	lui	t1,0x5401
54002350:	3c085401 	lui	t0,0x5401
54002354:	ad2aa158 	sw	t2,-24232(t1)
54002358:	ad0ca0d4 	sw	t4,-24364(t0)
5400235c:	24100135 	li	s0,309
54002360:	0d00088c 	jal	54002230 <random>
54002364:	2610ffff 	addiu	s0,s0,-1
54002368:	0601fffd 	bgez	s0,54002360 <srandom+0xac>
5400236c:	8fbf0014 	lw	ra,20(sp)
54002370:	8fb00010 	lw	s0,16(sp)
54002374:	03e00008 	jr	ra
54002378:	27bd0018 	addiu	sp,sp,24

5400237c <gui_get_area>:
5400237c:	3c030003 	lui	v1,0x3
54002380:	34630031 	ori	v1,v1,0x31
54002384:	0000000c 	syscall

54002388 <gui_framebuffer_update>:
54002388:	3c030003 	lui	v1,0x3
5400238c:	3463003b 	ori	v1,v1,0x3b
54002390:	0000000c 	syscall
54002394:	00000000 	nop

54002398 <transimage>:
54002398:	27bdffa8 	addiu	sp,sp,-88
5400239c:	00802821 	move	a1,a0
540023a0:	afb00048 	sw	s0,72(sp)
540023a4:	00808021 	move	s0,a0
540023a8:	24060038 	li	a2,56
540023ac:	27a40010 	addiu	a0,sp,16
540023b0:	afbf0050 	sw	ra,80(sp)
540023b4:	0d000867 	jal	5400219c <memcpy>
540023b8:	afb1004c 	sw	s1,76(sp)
540023bc:	8e030000 	lw	v1,0(s0)
540023c0:	2c620014 	sltiu	v0,v1,20
540023c4:	10400012 	beqz	v0,54002410 <transimage+0x78>
540023c8:	3c075401 	lui	a3,0x5401
540023cc:	00033080 	sll	a2,v1,0x2
540023d0:	24e39114 	addiu	v1,a3,-28396
540023d4:	00c32821 	addu	a1,a2,v1
540023d8:	8ca40000 	lw	a0,0(a1)
540023dc:	00800008 	jr	a0
540023e0:	00000000 	nop
540023e4:	8fa9002c 	lw	t1,44(sp)
540023e8:	24080002 	li	t0,2
540023ec:	11280090 	beq	t1,t0,54002630 <transimage+0x298>
540023f0:	27a40010 	addiu	a0,sp,16
540023f4:	8e0d0008 	lw	t5,8(s0)
540023f8:	8e0c0004 	lw	t4,4(s0)
540023fc:	afad0014 	sw	t5,20(sp)
54002400:	0d0014c4 	jal	54005310 <moveimage>
54002404:	afac0018 	sw	t4,24(sp)
54002408:	00408821 	move	s1,v0
5400240c:	00000000 	nop
54002410:	02201021 	move	v0,s1
54002414:	8fbf0050 	lw	ra,80(sp)
54002418:	8fb1004c 	lw	s1,76(sp)
5400241c:	8fb00048 	lw	s0,72(sp)
54002420:	03e00008 	jr	ra
54002424:	27bd0058 	addiu	sp,sp,88
54002428:	8e0f0008 	lw	t7,8(s0)
5400242c:	8e0e0004 	lw	t6,4(s0)
54002430:	afaf0014 	sw	t7,20(sp)
54002434:	afae0018 	sw	t6,24(sp)
54002438:	0d000df2 	jal	540037c8 <zoomimage>
5400243c:	27a40010 	addiu	a0,sp,16
54002440:	1000fff3 	b	54002410 <transimage+0x78>
54002444:	00408821 	move	s1,v0
54002448:	0d00207c 	jal	540081f0 <rotaionimage2d>
5400244c:	27a40010 	addiu	a0,sp,16
54002450:	1000ffef 	b	54002410 <transimage+0x78>
54002454:	00408821 	move	s1,v0
54002458:	0d000d6c 	jal	540035b0 <fadezoomimage>
5400245c:	27a40010 	addiu	a0,sp,16
54002460:	1000ffeb 	b	54002410 <transimage+0x78>
54002464:	00408821 	move	s1,v0
54002468:	0d001180 	jal	54004600 <fadeimage>
5400246c:	27a40010 	addiu	a0,sp,16
54002470:	1000ffe7 	b	54002410 <transimage+0x78>
54002474:	00408821 	move	s1,v0
54002478:	0d001e58 	jal	54007960 <reverseimage>
5400247c:	27a40010 	addiu	a0,sp,16
54002480:	1000ffe3 	b	54002410 <transimage+0x78>
54002484:	00408821 	move	s1,v0
54002488:	0d0009e6 	jal	54002798 <waveimage>
5400248c:	27a40010 	addiu	a0,sp,16
54002490:	1000ffdf 	b	54002410 <transimage+0x78>
54002494:	00408821 	move	s1,v0
54002498:	8fb8002c 	lw	t8,44(sp)
5400249c:	24110002 	li	s1,2
540024a0:	13110054 	beq	t8,s1,540025f4 <transimage+0x25c>
540024a4:	27a40010 	addiu	a0,sp,16
540024a8:	8e040004 	lw	a0,4(s0)
540024ac:	8e020008 	lw	v0,8(s0)
540024b0:	afa40018 	sw	a0,24(sp)
540024b4:	27a40010 	addiu	a0,sp,16
540024b8:	0d000f58 	jal	54003d60 <cubeimage>
540024bc:	afa20014 	sw	v0,20(sp)
540024c0:	1000ffd3 	b	54002410 <transimage+0x78>
540024c4:	00408821 	move	s1,v0
540024c8:	8e050008 	lw	a1,8(s0)
540024cc:	8e060004 	lw	a2,4(s0)
540024d0:	27a40010 	addiu	a0,sp,16
540024d4:	afa60018 	sw	a2,24(sp)
540024d8:	0d0016f2 	jal	54005bc8 <ImpDisp_Check>
540024dc:	afa50014 	sw	a1,20(sp)
540024e0:	1000ffcb 	b	54002410 <transimage+0x78>
540024e4:	00408821 	move	s1,v0
540024e8:	8e030008 	lw	v1,8(s0)
540024ec:	8e070004 	lw	a3,4(s0)
540024f0:	27a40010 	addiu	a0,sp,16
540024f4:	afa70018 	sw	a3,24(sp)
540024f8:	0d0018e4 	jal	54006390 <ImpDisp_Cut>
540024fc:	afa30014 	sw	v1,20(sp)
54002500:	1000ffc3 	b	54002410 <transimage+0x78>
54002504:	00408821 	move	s1,v0
54002508:	8e080008 	lw	t0,8(s0)
5400250c:	8e090004 	lw	t1,4(s0)
54002510:	27a40010 	addiu	a0,sp,16
54002514:	afa90018 	sw	t1,24(sp)
54002518:	0d0019f4 	jal	540067d0 <ImpDisp_Erase>
5400251c:	afa80014 	sw	t0,20(sp)
54002520:	1000ffbb 	b	54002410 <transimage+0x78>
54002524:	00408821 	move	s1,v0
54002528:	8e0a0008 	lw	t2,8(s0)
5400252c:	8e0b0004 	lw	t3,4(s0)
54002530:	27a40010 	addiu	a0,sp,16
54002534:	afab0018 	sw	t3,24(sp)
54002538:	0d001b0e 	jal	54006c38 <ImpDisp_Louver>
5400253c:	afaa0014 	sw	t2,20(sp)
54002540:	1000ffb3 	b	54002410 <transimage+0x78>
54002544:	00408821 	move	s1,v0
54002548:	8e0c0008 	lw	t4,8(s0)
5400254c:	8e0d0004 	lw	t5,4(s0)
54002550:	27a40010 	addiu	a0,sp,16
54002554:	afad0018 	sw	t5,24(sp)
54002558:	0d001c5c 	jal	54007170 <ImpDisp_RandomLine>
5400255c:	afac0014 	sw	t4,20(sp)
54002560:	1000ffab 	b	54002410 <transimage+0x78>
54002564:	00408821 	move	s1,v0
54002568:	8e0e0008 	lw	t6,8(s0)
5400256c:	8e0f0004 	lw	t7,4(s0)
54002570:	27a40010 	addiu	a0,sp,16
54002574:	afaf0018 	sw	t7,24(sp)
54002578:	0d001d3c 	jal	540074f0 <ImpDisp_Fade>
5400257c:	afae0014 	sw	t6,20(sp)
54002580:	1000ffa3 	b	54002410 <transimage+0x78>
54002584:	00408821 	move	s1,v0
54002588:	0d000ed0 	jal	54003b40 <zoomhrimage>
5400258c:	27a40010 	addiu	a0,sp,16
54002590:	1000ff9f 	b	54002410 <transimage+0x78>
54002594:	00408821 	move	s1,v0
54002598:	8fbf002c 	lw	ra,44(sp)
5400259c:	24190002 	li	t9,2
540025a0:	13f9001b 	beq	ra,t9,54002610 <transimage+0x278>
540025a4:	27a40010 	addiu	a0,sp,16
540025a8:	8e060008 	lw	a2,8(s0)
540025ac:	8e050004 	lw	a1,4(s0)
540025b0:	afa60014 	sw	a2,20(sp)
540025b4:	0d00159a 	jal	54005668 <movealphaimage>
540025b8:	afa50018 	sw	a1,24(sp)
540025bc:	1000ff94 	b	54002410 <transimage+0x78>
540025c0:	00408821 	move	s1,v0
540025c4:	8e110008 	lw	s1,8(s0)
540025c8:	8e180004 	lw	t8,4(s0)
540025cc:	27a40010 	addiu	a0,sp,16
540025d0:	afb10014 	sw	s1,20(sp)
540025d4:	0d0011d6 	jal	54004758 <popupalphaimage>
540025d8:	afb80018 	sw	t8,24(sp)
540025dc:	1000ff8c 	b	54002410 <transimage+0x78>
540025e0:	00408821 	move	s1,v0
540025e4:	0d00136c 	jal	54004db0 <popupimage>
540025e8:	27a40010 	addiu	a0,sp,16
540025ec:	1000ff88 	b	54002410 <transimage+0x78>
540025f0:	00408821 	move	s1,v0
540025f4:	8e1f0008 	lw	ra,8(s0)
540025f8:	8e190004 	lw	t9,4(s0)
540025fc:	afbf0018 	sw	ra,24(sp)
54002600:	0d000f58 	jal	54003d60 <cubeimage>
54002604:	afb90014 	sw	t9,20(sp)
54002608:	1000ff81 	b	54002410 <transimage+0x78>
5400260c:	00408821 	move	s1,v0
54002610:	8e040004 	lw	a0,4(s0)
54002614:	8e020008 	lw	v0,8(s0)
54002618:	afa40014 	sw	a0,20(sp)
5400261c:	27a40010 	addiu	a0,sp,16
54002620:	0d00159a 	jal	54005668 <movealphaimage>
54002624:	afa20018 	sw	v0,24(sp)
54002628:	1000ff79 	b	54002410 <transimage+0x78>
5400262c:	00408821 	move	s1,v0
54002630:	8e0b0008 	lw	t3,8(s0)
54002634:	8e0a0004 	lw	t2,4(s0)
54002638:	afab0018 	sw	t3,24(sp)
5400263c:	0d0014c4 	jal	54005310 <moveimage>
54002640:	afaa0014 	sw	t2,20(sp)
54002644:	1000ff72 	b	54002410 <transimage+0x78>
54002648:	00408821 	move	s1,v0
5400264c:	00000000 	nop

54002650 <fsin>:
54002650:	04800007 	bltz	a0,54002670 <fsin+0x20>
54002654:	308603ff 	andi	a2,a0,0x3ff
54002658:	3c055401 	lui	a1,0x5401
5400265c:	24a2d964 	addiu	v0,a1,-9884
54002660:	00062080 	sll	a0,a2,0x2
54002664:	00821821 	addu	v1,a0,v0
54002668:	03e00008 	jr	ra
5400266c:	8c620000 	lw	v0,0(v1)
54002670:	24840400 	addiu	a0,a0,1024
54002674:	0481fff8 	bgez	a0,54002658 <fsin+0x8>
54002678:	308603ff 	andi	a2,a0,0x3ff
5400267c:	24840400 	addiu	a0,a0,1024
54002680:	0480fffb 	bltz	a0,54002670 <fsin+0x20>
54002684:	308603ff 	andi	a2,a0,0x3ff
54002688:	1000fff4 	b	5400265c <fsin+0xc>
5400268c:	3c055401 	lui	a1,0x5401

54002690 <fcos>:
54002690:	09000994 	j	54002650 <fsin>
54002694:	24840100 	addiu	a0,a0,256

54002698 <SQRT2>:
54002698:	8ca30000 	lw	v1,0(a1)
5400269c:	24020200 	li	v0,512
540026a0:	10620015 	beq	v1,v0,540026f8 <SQRT2+0x60>
540026a4:	3c085401 	lui	t0,0x5401
540026a8:	00603021 	move	a2,v1
540026ac:	250ae964 	addiu	t2,t0,-5788
540026b0:	00064880 	sll	t1,a2,0x2
540026b4:	012a4021 	addu	t0,t1,t2
540026b8:	24c7ffff 	addiu	a3,a2,-1
540026bc:	8d020000 	lw	v0,0(t0)
540026c0:	0082c82a 	slt	t9,a0,v0
540026c4:	17200005 	bnez	t9,540026dc <SQRT2+0x44>
540026c8:	24c90001 	addiu	t1,a2,1
540026cc:	8d0b0004 	lw	t3,4(t0)
540026d0:	008b182a 	slt	v1,a0,t3
540026d4:	14600006 	bnez	v1,540026f0 <SQRT2+0x58>
540026d8:	00c01021 	move	v0,a2
540026dc:	8d060000 	lw	a2,0(t0)
540026e0:	0086602a 	slt	t4,a0,a2
540026e4:	00e03021 	move	a2,a3
540026e8:	1000fff1 	b	540026b0 <SQRT2+0x18>
540026ec:	012c300a 	movz	a2,t1,t4
540026f0:	03e00008 	jr	ra
540026f4:	aca60000 	sw	a2,0(a1)
540026f8:	3c035401 	lui	v1,0x5401
540026fc:	2469e964 	addiu	t1,v1,-5788
54002700:	24080100 	li	t0,256
54002704:	24030100 	li	v1,256
54002708:	0003382a 	slt	a3,zero,v1
5400270c:	24060001 	li	a2,1
54002710:	0067300b 	movn	a2,v1,a3
54002714:	00066080 	sll	t4,a2,0x2
54002718:	01893821 	addu	a3,t4,t1
5400271c:	8cebfffc 	lw	t3,-4(a3)
54002720:	008b502a 	slt	t2,a0,t3
54002724:	15400005 	bnez	t2,5400273c <SQRT2+0xa4>
54002728:	00000000 	nop
5400272c:	8cee0000 	lw	t6,0(a3)
54002730:	008e682a 	slt	t5,a0,t6
54002734:	15a0ffee 	bnez	t5,540026f0 <SQRT2+0x58>
54002738:	00c01021 	move	v0,a2
5400273c:	8cf80000 	lw	t8,0(a3)
54002740:	0098782a 	slt	t7,a0,t8
54002744:	15e00010 	bnez	t7,54002788 <SQRT2+0xf0>
54002748:	00000000 	nop
5400274c:	00084043 	sra	t0,t0,0x1
54002750:	00c81821 	addu	v1,a2,t0
54002754:	0003382a 	slt	a3,zero,v1
54002758:	24060001 	li	a2,1
5400275c:	0067300b 	movn	a2,v1,a3
54002760:	00066080 	sll	t4,a2,0x2
54002764:	01893821 	addu	a3,t4,t1
54002768:	8cebfffc 	lw	t3,-4(a3)
5400276c:	008b502a 	slt	t2,a0,t3
54002770:	1140ffee 	beqz	t2,5400272c <SQRT2+0x94>
54002774:	00000000 	nop
54002778:	8cf80000 	lw	t8,0(a3)
5400277c:	0098782a 	slt	t7,a0,t8
54002780:	11e0fff2 	beqz	t7,5400274c <SQRT2+0xb4>
54002784:	00000000 	nop
54002788:	00084043 	sra	t0,t0,0x1
5400278c:	1000ffde 	b	54002708 <SQRT2+0x70>
54002790:	00c81823 	subu	v1,a2,t0
54002794:	00000000 	nop

54002798 <waveimage>:
54002798:	27bdff30 	addiu	sp,sp,-208
5400279c:	24060258 	li	a2,600
540027a0:	afb000a8 	sw	s0,168(sp)
540027a4:	afbf00cc 	sw	ra,204(sp)
540027a8:	afbe00c8 	sw	s8,200(sp)
540027ac:	afb700c4 	sw	s7,196(sp)
540027b0:	afb600c0 	sw	s6,192(sp)
540027b4:	afb500bc 	sw	s5,188(sp)
540027b8:	afb400b8 	sw	s4,184(sp)
540027bc:	afb300b4 	sw	s3,180(sp)
540027c0:	afb200b0 	sw	s2,176(sp)
540027c4:	afb100ac 	sw	s1,172(sp)
540027c8:	8c850014 	lw	a1,20(a0)
540027cc:	240b0002 	li	t3,2
540027d0:	00c5001a 	div	zero,a2,a1
540027d4:	00a001f4 	teq	a1,zero,0x7
540027d8:	8c860018 	lw	a2,24(a0)
540027dc:	2409003c 	li	t1,60
540027e0:	00808021 	move	s0,a0
540027e4:	afa90024 	sw	t1,36(sp)
540027e8:	afa0002c 	sw	zero,44(sp)
540027ec:	afab0028 	sw	t3,40(sp)
540027f0:	24090040 	li	t1,64
540027f4:	00005012 	mflo	t2
540027f8:	00ab001a 	div	zero,a1,t3
540027fc:	016001f4 	teq	t3,zero,0x7
54002800:	00004012 	mflo	t0
54002804:	70ca1002 	mul	v0,a2,t2
54002808:	00c8202a 	slt	a0,a2,t0
5400280c:	244300c8 	addiu	v1,v0,200
54002810:	10800005 	beqz	a0,54002828 <waveimage+0x90>
54002814:	afa30020 	sw	v1,32(sp)
54002818:	000661c0 	sll	t4,a2,0x7
5400281c:	0185001a 	div	zero,t4,a1
54002820:	00a001f4 	teq	a1,zero,0x7
54002824:	00004812 	mflo	t1
54002828:	8e070024 	lw	a3,36(s0)
5400282c:	8e0d0028 	lw	t5,40(s0)
54002830:	afa7005c 	sw	a3,92(sp)
54002834:	8e14000c 	lw	s4,12(s0)
54002838:	8e150010 	lw	s5,16(s0)
5400283c:	24070002 	li	a3,2
54002840:	8e110030 	lw	s1,48(s0)
54002844:	8e120034 	lw	s2,52(s0)
54002848:	afad0068 	sw	t5,104(sp)
5400284c:	10c500db 	beq	a2,a1,54002bbc <waveimage+0x424>
54002850:	8e03002c 	lw	v1,44(s0)
54002854:	afa3004c 	sw	v1,76(sp)
54002858:	8fa2005c 	lw	v0,92(sp)
5400285c:	8fa30068 	lw	v1,104(sp)
54002860:	27a40030 	addiu	a0,sp,48
54002864:	afa900a0 	sw	t1,160(sp)
54002868:	afa7003c 	sw	a3,60(sp)
5400286c:	afb40034 	sw	s4,52(sp)
54002870:	afb50038 	sw	s5,56(sp)
54002874:	afa20040 	sw	v0,64(sp)
54002878:	afb10050 	sw	s1,80(sp)
5400287c:	afb20054 	sw	s2,84(sp)
54002880:	0d0023ae 	jal	54008eb8 <fillzerofun>
54002884:	afa30048 	sw	v1,72(sp)
54002888:	8fa80020 	lw	t0,32(sp)
5400288c:	8fbf0028 	lw	ra,40(sp)
54002890:	3c180001 	lui	t8,0x1
54002894:	011f001a 	div	zero,t0,ra
54002898:	03e001f4 	teq	ra,zero,0x7
5400289c:	8e1e0004 	lw	s8,4(s0)
540028a0:	8e190008 	lw	t9,8(s0)
540028a4:	02b4982a 	slt	s3,s5,s4
540028a8:	001487c2 	srl	s0,s4,0x1f
540028ac:	afb3007c 	sw	s3,124(sp)
540028b0:	afbe0064 	sw	s8,100(sp)
540028b4:	afb90060 	sw	t9,96(sp)
540028b8:	8fa900a0 	lw	t1,160(sp)
540028bc:	02901021 	addu	v0,s4,s0
540028c0:	0000b812 	mflo	s7
540028c4:	0317001a 	div	zero,t8,s7
540028c8:	02e001f4 	teq	s7,zero,0x7
540028cc:	afb7006c 	sw	s7,108(sp)
540028d0:	0000b012 	mflo	s6
540028d4:	126000b6 	beqz	s3,54002bb0 <waveimage+0x418>
540028d8:	afb60070 	sw	s6,112(sp)
540028dc:	00021043 	sra	v0,v0,0x1
540028e0:	0048502a 	slt	t2,v0,t0
540028e4:	11400003 	beqz	t2,540028f4 <waveimage+0x15c>
540028e8:	00000000 	nop
540028ec:	00404021 	move	t0,v0
540028f0:	afa20020 	sw	v0,32(sp)
540028f4:	050000c0 	bltz	t0,54002bf8 <waveimage+0x460>
540028f8:	00009821 	move	s3,zero
540028fc:	8fa50068 	lw	a1,104(sp)
54002900:	00157023 	negu	t6,s5
54002904:	70b23802 	mul	a3,a1,s2
54002908:	afae0078 	sw	t6,120(sp)
5400290c:	8fac0078 	lw	t4,120(sp)
54002910:	00155fc2 	srl	t3,s5,0x1f
54002914:	000c37c3 	sra	a2,t4,0x1f
54002918:	00f16821 	addu	t5,a3,s1
5400291c:	2692ffff 	addiu	s2,s4,-1
54002920:	26b1ffff 	addiu	s1,s5,-1
54002924:	0014f023 	negu	s8,s4
54002928:	0014b7c2 	srl	s6,s4,0x1f
5400292c:	afad0098 	sw	t5,152(sp)
54002930:	afa60084 	sw	a2,132(sp)
54002934:	afab008c 	sw	t3,140(sp)
54002938:	afb20090 	sw	s2,144(sp)
5400293c:	10000006 	b	54002958 <waveimage+0x1c0>
54002940:	afb10094 	sw	s1,148(sp)
54002944:	00000000 	nop
54002948:	26730001 	addiu	s3,s3,1
5400294c:	0113882a 	slt	s1,t0,s3
54002950:	162000aa 	bnez	s1,54002bfc <waveimage+0x464>
54002954:	8fbf00cc 	lw	ra,204(sp)
54002958:	8fbf0084 	lw	ra,132(sp)
5400295c:	8fb90078 	lw	t9,120(sp)
54002960:	001fc7c2 	srl	t8,ra,0x1f
54002964:	0338b821 	addu	s7,t9,t8
54002968:	00178043 	sra	s0,s7,0x1
5400296c:	0270782a 	slt	t7,s3,s0
54002970:	15e0fff5 	bnez	t7,54002948 <waveimage+0x1b0>
54002974:	8fa4008c 	lw	a0,140(sp)
54002978:	02a41021 	addu	v0,s5,a0
5400297c:	00022043 	sra	a0,v0,0x1
54002980:	0093182a 	slt	v1,a0,s3
54002984:	1460fff0 	bnez	v1,54002948 <waveimage+0x1b0>
54002988:	240a0200 	li	t2,512
5400298c:	afaa0058 	sw	t2,88(sp)
54002990:	0500ffed 	bltz	t0,54002948 <waveimage+0x1b0>
54002994:	00008821 	move	s1,zero
54002998:	001e97c3 	sra	s2,s8,0x1f
5400299c:	0080b821 	move	s7,a0
540029a0:	afb20080 	sw	s2,128(sp)
540029a4:	10000006 	b	540029c0 <waveimage+0x228>
540029a8:	afa40088 	sw	a0,136(sp)
540029ac:	00000000 	nop
540029b0:	26310001 	addiu	s1,s1,1
540029b4:	0111502a 	slt	t2,t0,s1
540029b8:	1540ffe3 	bnez	t2,54002948 <waveimage+0x1b0>
540029bc:	00000000 	nop
540029c0:	8fa70080 	lw	a3,128(sp)
540029c4:	00076fc2 	srl	t5,a3,0x1f
540029c8:	03cd6021 	addu	t4,s8,t5
540029cc:	000c3043 	sra	a2,t4,0x1
540029d0:	0226582a 	slt	t3,s1,a2
540029d4:	1560fff6 	bnez	t3,540029b0 <waveimage+0x218>
540029d8:	02967821 	addu	t7,s4,s6
540029dc:	000f7043 	sra	t6,t7,0x1
540029e0:	01d1282a 	slt	a1,t6,s1
540029e4:	14a0fff2 	bnez	a1,540029b0 <waveimage+0x218>
540029e8:	8fb0007c 	lw	s0,124(sp)
540029ec:	16000002 	bnez	s0,540029f8 <waveimage+0x260>
540029f0:	0233102a 	slt	v0,s1,s3
540029f4:	0271102a 	slt	v0,s3,s1
540029f8:	1440ffed 	bnez	v0,540029b0 <waveimage+0x218>
540029fc:	02962021 	addu	a0,s4,s6
54002a00:	00041043 	sra	v0,a0,0x1
54002a04:	8fa30090 	lw	v1,144(sp)
54002a08:	00519021 	addu	s2,v0,s1
54002a0c:	0072c82a 	slt	t9,v1,s2
54002a10:	0012ffc2 	srl	ra,s2,0x1f
54002a14:	033fc025 	or	t8,t9,ra
54002a18:	afb10010 	sw	s1,16(sp)
54002a1c:	afb30014 	sw	s3,20(sp)
54002a20:	1700ffe3 	bnez	t8,540029b0 <waveimage+0x218>
54002a24:	02f31021 	addu	v0,s7,s3
54002a28:	8fac0094 	lw	t4,148(sp)
54002a2c:	000237c2 	srl	a2,v0,0x1f
54002a30:	0182582a 	slt	t3,t4,v0
54002a34:	01665025 	or	t2,t3,a2
54002a38:	1540ffdd 	bnez	t2,540029b0 <waveimage+0x218>
54002a3c:	72317002 	mul	t6,s1,s1
54002a40:	72737802 	mul	t7,s3,s3
54002a44:	27a50058 	addiu	a1,sp,88
54002a48:	afa900a0 	sw	t1,160(sp)
54002a4c:	0d0009a6 	jal	54002698 <SQRT2>
54002a50:	01ee2021 	addu	a0,t7,t6
54002a54:	8fa50070 	lw	a1,112(sp)
54002a58:	8fa9006c 	lw	t1,108(sp)
54002a5c:	70453802 	mul	a3,v0,a1
54002a60:	afa20074 	sw	v0,116(sp)
54002a64:	8fa80074 	lw	t0,116(sp)
54002a68:	8fac0070 	lw	t4,112(sp)
54002a6c:	241900b6 	li	t9,182
54002a70:	00076c03 	sra	t5,a3,0x10
54002a74:	71a98002 	mul	s0,t5,t1
54002a78:	01103023 	subu	a2,t0,s0
54002a7c:	70cc5802 	mul	t3,a2,t4
54002a80:	000b5040 	sll	t2,t3,0x1
54002a84:	014b1821 	addu	v1,t2,t3
54002a88:	00032100 	sll	a0,v1,0x4
54002a8c:	00831023 	subu	v0,a0,v1
54002a90:	0002f8c0 	sll	ra,v0,0x3
54002a94:	001fc403 	sra	t8,ra,0x10
54002a98:	73197802 	mul	t7,t8,t9
54002a9c:	000f7280 	sll	t6,t7,0xa
54002aa0:	000e8403 	sra	s0,t6,0x10
54002aa4:	0d000994 	jal	54002650 <fsin>
54002aa8:	02002021 	move	a0,s0
54002aac:	8fa50024 	lw	a1,36(sp)
54002ab0:	8fad002c 	lw	t5,44(sp)
54002ab4:	70a23802 	mul	a3,a1,v0
54002ab8:	02002021 	move	a0,s0
54002abc:	00074a83 	sra	t1,a3,0xa
54002ac0:	012d4021 	addu	t0,t1,t5
54002ac4:	0d0009a4 	jal	54002690 <fcos>
54002ac8:	afa8009c 	sw	t0,156(sp)
54002acc:	0d0009a4 	jal	54002690 <fcos>
54002ad0:	02002021 	move	a0,s0
54002ad4:	04400264 	bltz	v0,54003468 <waveimage+0xcd0>
54002ad8:	8fa900a0 	lw	t1,160(sp)
54002adc:	305003ff 	andi	s0,v0,0x3ff
54002ae0:	3c0c5401 	lui	t4,0x5401
54002ae4:	00105880 	sll	t3,s0,0x2
54002ae8:	2586a964 	addiu	a2,t4,-22172
54002aec:	01665021 	addu	t2,t3,a2
54002af0:	8d430000 	lw	v1,0(t2)
54002af4:	000317c3 	sra	v0,v1,0x1f
54002af8:	00432026 	xor	a0,v0,v1
54002afc:	00828023 	subu	s0,a0,v0
54002b00:	02002021 	move	a0,s0
54002b04:	0d000994 	jal	54002650 <fsin>
54002b08:	afa900a0 	sw	t1,160(sp)
54002b0c:	0002f840 	sll	ra,v0,0x1
54002b10:	03e2c821 	addu	t9,ra,v0
54002b14:	3c185401 	lui	t8,0x5401
54002b18:	332f0ffc 	andi	t7,t9,0xffc
54002b1c:	2707c964 	addiu	a3,t8,-13980
54002b20:	01e77021 	addu	t6,t7,a3
54002b24:	8dc50000 	lw	a1,0(t6)
54002b28:	0d000994 	jal	54002650 <fsin>
54002b2c:	02052023 	subu	a0,s0,a1
54002b30:	8fad009c 	lw	t5,156(sp)
54002b34:	8fab0074 	lw	t3,116(sp)
54002b38:	704d6002 	mul	t4,v0,t5
54002b3c:	3c095401 	lui	t1,0x5401
54002b40:	2528a164 	addiu	t0,t1,-24220
54002b44:	000b8080 	sll	s0,t3,0x2
54002b48:	02083021 	addu	a2,s0,t0
54002b4c:	000c5283 	sra	t2,t4,0xa
54002b50:	8cc3fffc 	lw	v1,-4(a2)
54002b54:	016a1023 	subu	v0,t3,t2
54002b58:	7043f802 	mul	ra,v0,v1
54002b5c:	02962021 	addu	a0,s4,s6
54002b60:	00047843 	sra	t7,a0,0x1
54002b64:	8fa50090 	lw	a1,144(sp)
54002b68:	73f1c802 	mul	t9,ra,s1
54002b6c:	73f33802 	mul	a3,ra,s3
54002b70:	0019c403 	sra	t8,t9,0x10
54002b74:	00077403 	sra	t6,a3,0x10
54002b78:	030f3821 	addu	a3,t8,t7
54002b7c:	00a7482a 	slt	t1,a1,a3
54002b80:	00076fc2 	srl	t5,a3,0x1f
54002b84:	8fa50088 	lw	a1,136(sp)
54002b88:	012d4025 	or	t0,t1,t5
54002b8c:	afb80018 	sw	t8,24(sp)
54002b90:	03005021 	move	t2,t8
54002b94:	afae001c 	sw	t6,28(sp)
54002b98:	01c05821 	move	t3,t6
54002b9c:	01c52021 	addu	a0,t6,a1
54002ba0:	11000022 	beqz	t0,54002c2c <waveimage+0x494>
54002ba4:	8fa900a0 	lw	t1,160(sp)
54002ba8:	1000ff81 	b	540029b0 <waveimage+0x218>
54002bac:	8fa80020 	lw	t0,32(sp)
54002bb0:	001527c2 	srl	a0,s5,0x1f
54002bb4:	1000ff49 	b	540028dc <waveimage+0x144>
54002bb8:	02a41021 	addu	v0,s5,a0
54002bbc:	8e0f0008 	lw	t7,8(s0)
54002bc0:	8fae005c 	lw	t6,92(sp)
54002bc4:	8fa50068 	lw	a1,104(sp)
54002bc8:	27a40030 	addiu	a0,sp,48
54002bcc:	afaf0030 	sw	t7,48(sp)
54002bd0:	afb40034 	sw	s4,52(sp)
54002bd4:	afb50038 	sw	s5,56(sp)
54002bd8:	afae0040 	sw	t6,64(sp)
54002bdc:	afa7003c 	sw	a3,60(sp)
54002be0:	afb10050 	sw	s1,80(sp)
54002be4:	afb20054 	sw	s2,84(sp)
54002be8:	afa50048 	sw	a1,72(sp)
54002bec:	0d00237c 	jal	54008df0 <fillimagefun>
54002bf0:	afa3004c 	sw	v1,76(sp)
54002bf4:	00000000 	nop
54002bf8:	8fbf00cc 	lw	ra,204(sp)
54002bfc:	8fbe00c8 	lw	s8,200(sp)
54002c00:	8fb700c4 	lw	s7,196(sp)
54002c04:	8fb600c0 	lw	s6,192(sp)
54002c08:	8fb500bc 	lw	s5,188(sp)
54002c0c:	8fb400b8 	lw	s4,184(sp)
54002c10:	8fb300b4 	lw	s3,180(sp)
54002c14:	8fb200b0 	lw	s2,176(sp)
54002c18:	8fb100ac 	lw	s1,172(sp)
54002c1c:	8fb000a8 	lw	s0,168(sp)
54002c20:	00001021 	move	v0,zero
54002c24:	03e00008 	jr	ra
54002c28:	27bd00d0 	addiu	sp,sp,208
54002c2c:	8fa80094 	lw	t0,148(sp)
54002c30:	00041fc2 	srl	v1,a0,0x1f
54002c34:	0104602a 	slt	t4,t0,a0
54002c38:	01833025 	or	a2,t4,v1
54002c3c:	14c0ffda 	bnez	a2,54002ba8 <waveimage+0x410>
54002c40:	70941002 	mul	v0,a0,s4
54002c44:	8fad0014 	lw	t5,20(sp)
54002c48:	8fa40094 	lw	a0,148(sp)
54002c4c:	01a52821 	addu	a1,t5,a1
54002c50:	0085f82a 	slt	ra,a0,a1
54002c54:	0047c821 	addu	t9,v0,a3
54002c58:	8fb80064 	lw	t8,100(sp)
54002c5c:	00053fc2 	srl	a3,a1,0x1f
54002c60:	8fae0060 	lw	t6,96(sp)
54002c64:	00197840 	sll	t7,t9,0x1
54002c68:	03e78025 	or	s0,ra,a3
54002c6c:	01ee3021 	addu	a2,t7,t6
54002c70:	1600ffcd 	bnez	s0,54002ba8 <waveimage+0x410>
54002c74:	01f83821 	addu	a3,t7,t8
54002c78:	8fb90068 	lw	t9,104(sp)
54002c7c:	8fae005c 	lw	t6,92(sp)
54002c80:	70b97802 	mul	t7,a1,t9
54002c84:	8fb80098 	lw	t8,152(sp)
54002c88:	00121840 	sll	v1,s2,0x1
54002c8c:	00186040 	sll	t4,t8,0x1
54002c90:	24120040 	li	s2,64
54002c94:	000f8040 	sll	s0,t7,0x1
54002c98:	020e4021 	addu	t0,s0,t6
54002c9c:	00682821 	addu	a1,v1,t0
54002ca0:	113201f9 	beq	t1,s2,54003488 <waveimage+0xcf0>
54002ca4:	00ac4021 	addu	t0,a1,t4
54002ca8:	94ce0000 	lhu	t6,0(a2)
54002cac:	94e50000 	lhu	a1,0(a3)
54002cb0:	31c3f800 	andi	v1,t6,0xf800
54002cb4:	30a6f800 	andi	a2,a1,0xf800
54002cb8:	30b807e0 	andi	t8,a1,0x7e0
54002cbc:	31d007e0 	andi	s0,t6,0x7e0
54002cc0:	00666023 	subu	t4,v1,a2
54002cc4:	31d2001f 	andi	s2,t6,0x1f
54002cc8:	02182023 	subu	a0,s0,t8
54002ccc:	30a5001f 	andi	a1,a1,0x1f
54002cd0:	71893802 	mul	a3,t4,t1
54002cd4:	7089f802 	mul	ra,a0,t1
54002cd8:	02451023 	subu	v0,s2,a1
54002cdc:	70497002 	mul	t6,v0,t1
54002ce0:	0007c983 	sra	t9,a3,0x6
54002ce4:	001f7983 	sra	t7,ra,0x6
54002ce8:	03261821 	addu	v1,t9,a2
54002cec:	01f86021 	addu	t4,t7,t8
54002cf0:	000e8183 	sra	s0,t6,0x6
54002cf4:	02051021 	addu	v0,s0,a1
54002cf8:	3072f800 	andi	s2,v1,0xf800
54002cfc:	318407e0 	andi	a0,t4,0x7e0
54002d00:	0244f825 	or	ra,s2,a0
54002d04:	3047001f 	andi	a3,v0,0x1f
54002d08:	03e73025 	or	a2,ra,a3
54002d0c:	a5060000 	sh	a2,0(t0)
54002d10:	02963021 	addu	a2,s4,s6
54002d14:	0006c843 	sra	t9,a2,0x1
54002d18:	8fa70090 	lw	a3,144(sp)
54002d1c:	032a3023 	subu	a2,t9,t2
54002d20:	00e6402a 	slt	t0,a3,a2
54002d24:	8fac0010 	lw	t4,16(sp)
54002d28:	0006ffc2 	srl	ra,a2,0x1f
54002d2c:	011fc025 	or	t8,t0,ra
54002d30:	01b73821 	addu	a3,t5,s7
54002d34:	032c4023 	subu	t0,t9,t4
54002d38:	1700ff9b 	bnez	t8,54002ba8 <waveimage+0x410>
54002d3c:	01772821 	addu	a1,t3,s7
54002d40:	8fa40094 	lw	a0,148(sp)
54002d44:	000587c2 	srl	s0,a1,0x1f
54002d48:	0085902a 	slt	s2,a0,a1
54002d4c:	02501025 	or	v0,s2,s0
54002d50:	1440ff95 	bnez	v0,54002ba8 <waveimage+0x410>
54002d54:	70b4f802 	mul	ra,a1,s4
54002d58:	0087c02a 	slt	t8,a0,a3
54002d5c:	8fa50064 	lw	a1,100(sp)
54002d60:	0007cfc2 	srl	t9,a3,0x1f
54002d64:	8fa30060 	lw	v1,96(sp)
54002d68:	03e67821 	addu	t7,ra,a2
54002d6c:	000f7040 	sll	t6,t7,0x1
54002d70:	03192025 	or	a0,t8,t9
54002d74:	01c53021 	addu	a2,t6,a1
54002d78:	1480ff8b 	bnez	a0,54002ba8 <waveimage+0x410>
54002d7c:	01c32821 	addu	a1,t6,v1
54002d80:	8fb80068 	lw	t8,104(sp)
54002d84:	8fa3005c 	lw	v1,92(sp)
54002d88:	70f87002 	mul	t6,a3,t8
54002d8c:	8faf0098 	lw	t7,152(sp)
54002d90:	00082040 	sll	a0,t0,0x1
54002d94:	000f9040 	sll	s2,t7,0x1
54002d98:	24070040 	li	a3,64
54002d9c:	000e1040 	sll	v0,t6,0x1
54002da0:	00434021 	addu	t0,v0,v1
54002da4:	00888021 	addu	s0,a0,t0
54002da8:	112701ba 	beq	t1,a3,54003494 <waveimage+0xcfc>
54002dac:	02124021 	addu	t0,s0,s2
54002db0:	94a20000 	lhu	v0,0(a1)
54002db4:	94c50000 	lhu	a1,0(a2)
54002db8:	3059f800 	andi	t9,v0,0xf800
54002dbc:	30a6f800 	andi	a2,a1,0xf800
54002dc0:	30b807e0 	andi	t8,a1,0x7e0
54002dc4:	304407e0 	andi	a0,v0,0x7e0
54002dc8:	03261823 	subu	v1,t9,a2
54002dcc:	30ae001f 	andi	t6,a1,0x1f
54002dd0:	3050001f 	andi	s0,v0,0x1f
54002dd4:	00987823 	subu	t7,a0,t8
54002dd8:	70693802 	mul	a3,v1,t1
54002ddc:	71e9f802 	mul	ra,t7,t1
54002de0:	020e9023 	subu	s2,s0,t6
54002de4:	72497802 	mul	t7,s2,t1
54002de8:	0007c983 	sra	t9,a3,0x6
54002dec:	001f2183 	sra	a0,ra,0x6
54002df0:	03261821 	addu	v1,t9,a2
54002df4:	00988021 	addu	s0,a0,t8
54002df8:	000f1183 	sra	v0,t7,0x6
54002dfc:	004ef821 	addu	ra,v0,t6
54002e00:	3067f800 	andi	a3,v1,0xf800
54002e04:	321207e0 	andi	s2,s0,0x7e0
54002e08:	00f22825 	or	a1,a3,s2
54002e0c:	33f9001f 	andi	t9,ra,0x1f
54002e10:	00b93025 	or	a2,a1,t9
54002e14:	a5060000 	sh	a2,0(t0)
54002e18:	02963021 	addu	a2,s4,s6
54002e1c:	0006f843 	sra	ra,a2,0x1
54002e20:	8fb20090 	lw	s2,144(sp)
54002e24:	015f3021 	addu	a2,t2,ra
54002e28:	0246402a 	slt	t0,s2,a2
54002e2c:	00063fc2 	srl	a3,a2,0x1f
54002e30:	0107c025 	or	t8,t0,a3
54002e34:	02eb2823 	subu	a1,s7,t3
54002e38:	019f4021 	addu	t0,t4,ra
54002e3c:	1700ff5a 	bnez	t8,54002ba8 <waveimage+0x410>
54002e40:	02ed3823 	subu	a3,s7,t5
54002e44:	8fa40094 	lw	a0,148(sp)
54002e48:	00051fc2 	srl	v1,a1,0x1f
54002e4c:	0085782a 	slt	t7,a0,a1
54002e50:	01e38025 	or	s0,t7,v1
54002e54:	1600ff54 	bnez	s0,54002ba8 <waveimage+0x410>
54002e58:	0087c02a 	slt	t8,a0,a3
54002e5c:	70b49002 	mul	s2,a1,s4
54002e60:	8fa50064 	lw	a1,100(sp)
54002e64:	0007ffc2 	srl	ra,a3,0x1f
54002e68:	8fb90060 	lw	t9,96(sp)
54002e6c:	02467021 	addu	t6,s2,a2
54002e70:	000e1040 	sll	v0,t6,0x1
54002e74:	031f2025 	or	a0,t8,ra
54002e78:	00453021 	addu	a2,v0,a1
54002e7c:	1480ff4a 	bnez	a0,54002ba8 <waveimage+0x410>
54002e80:	00592821 	addu	a1,v0,t9
54002e84:	8fb80068 	lw	t8,104(sp)
54002e88:	8fb9005c 	lw	t9,92(sp)
54002e8c:	70f81002 	mul	v0,a3,t8
54002e90:	8fae0098 	lw	t6,152(sp)
54002e94:	00081840 	sll	v1,t0,0x1
54002e98:	000e8040 	sll	s0,t6,0x1
54002e9c:	24070040 	li	a3,64
54002ea0:	00022040 	sll	a0,v0,0x1
54002ea4:	00994021 	addu	t0,a0,t9
54002ea8:	00687821 	addu	t7,v1,t0
54002eac:	1127017f 	beq	t1,a3,540034ac <waveimage+0xd14>
54002eb0:	01f04021 	addu	t0,t7,s0
54002eb4:	94a20000 	lhu	v0,0(a1)
54002eb8:	94c50000 	lhu	a1,0(a2)
54002ebc:	305ff800 	andi	ra,v0,0xf800
54002ec0:	30a6f800 	andi	a2,a1,0xf800
54002ec4:	30b807e0 	andi	t8,a1,0x7e0
54002ec8:	304407e0 	andi	a0,v0,0x7e0
54002ecc:	03e61823 	subu	v1,ra,a2
54002ed0:	30ae001f 	andi	t6,a1,0x1f
54002ed4:	304f001f 	andi	t7,v0,0x1f
54002ed8:	0098c823 	subu	t9,a0,t8
54002edc:	70693802 	mul	a3,v1,t1
54002ee0:	73299002 	mul	s2,t9,t1
54002ee4:	01ee8023 	subu	s0,t7,t6
54002ee8:	72091002 	mul	v0,s0,t1
54002eec:	0007f983 	sra	ra,a3,0x6
54002ef0:	00122183 	sra	a0,s2,0x6
54002ef4:	03e61821 	addu	v1,ra,a2
54002ef8:	00987821 	addu	t7,a0,t8
54002efc:	0002c983 	sra	t9,v0,0x6
54002f00:	032e9021 	addu	s2,t9,t6
54002f04:	3067f800 	andi	a3,v1,0xf800
54002f08:	31f007e0 	andi	s0,t7,0x7e0
54002f0c:	00f02825 	or	a1,a3,s0
54002f10:	325f001f 	andi	ra,s2,0x1f
54002f14:	00bf3025 	or	a2,a1,ra
54002f18:	a5060000 	sh	a2,0(t0)
54002f1c:	02963021 	addu	a2,s4,s6
54002f20:	00069043 	sra	s2,a2,0x1
54002f24:	8fb00090 	lw	s0,144(sp)
54002f28:	024a3023 	subu	a2,s2,t2
54002f2c:	0206402a 	slt	t0,s0,a2
54002f30:	00063fc2 	srl	a3,a2,0x1f
54002f34:	0107c025 	or	t8,t0,a3
54002f38:	02eb2823 	subu	a1,s7,t3
54002f3c:	024c4023 	subu	t0,s2,t4
54002f40:	1700ff19 	bnez	t8,54002ba8 <waveimage+0x410>
54002f44:	02ed3823 	subu	a3,s7,t5
54002f48:	8fa40094 	lw	a0,148(sp)
54002f4c:	00051fc2 	srl	v1,a1,0x1f
54002f50:	0085c82a 	slt	t9,a0,a1
54002f54:	03237825 	or	t7,t9,v1
54002f58:	15e0ff13 	bnez	t7,54002ba8 <waveimage+0x410>
54002f5c:	70b48002 	mul	s0,a1,s4
54002f60:	0087c02a 	slt	t8,a0,a3
54002f64:	8fa50064 	lw	a1,100(sp)
54002f68:	000797c2 	srl	s2,a3,0x1f
54002f6c:	8fbf0060 	lw	ra,96(sp)
54002f70:	02067021 	addu	t6,s0,a2
54002f74:	000e1040 	sll	v0,t6,0x1
54002f78:	03122025 	or	a0,t8,s2
54002f7c:	00453021 	addu	a2,v0,a1
54002f80:	1480ff09 	bnez	a0,54002ba8 <waveimage+0x410>
54002f84:	005f2821 	addu	a1,v0,ra
54002f88:	8fb80068 	lw	t8,104(sp)
54002f8c:	8fbf005c 	lw	ra,92(sp)
54002f90:	70f81002 	mul	v0,a3,t8
54002f94:	8fae0098 	lw	t6,152(sp)
54002f98:	00081840 	sll	v1,t0,0x1
54002f9c:	000e7840 	sll	t7,t6,0x1
54002fa0:	24070040 	li	a3,64
54002fa4:	00022040 	sll	a0,v0,0x1
54002fa8:	009f4021 	addu	t0,a0,ra
54002fac:	0068c821 	addu	t9,v1,t0
54002fb0:	1127013b 	beq	t1,a3,540034a0 <waveimage+0xd08>
54002fb4:	032f4021 	addu	t0,t9,t7
54002fb8:	94a20000 	lhu	v0,0(a1)
54002fbc:	94c50000 	lhu	a1,0(a2)
54002fc0:	3052f800 	andi	s2,v0,0xf800
54002fc4:	30a6f800 	andi	a2,a1,0xf800
54002fc8:	30b807e0 	andi	t8,a1,0x7e0
54002fcc:	304407e0 	andi	a0,v0,0x7e0
54002fd0:	02461823 	subu	v1,s2,a2
54002fd4:	30ae001f 	andi	t6,a1,0x1f
54002fd8:	3059001f 	andi	t9,v0,0x1f
54002fdc:	0098f823 	subu	ra,a0,t8
54002fe0:	70693802 	mul	a3,v1,t1
54002fe4:	73e98002 	mul	s0,ra,t1
54002fe8:	032e7823 	subu	t7,t9,t6
54002fec:	71e91002 	mul	v0,t7,t1
54002ff0:	00079183 	sra	s2,a3,0x6
54002ff4:	00102183 	sra	a0,s0,0x6
54002ff8:	02461821 	addu	v1,s2,a2
54002ffc:	0098c821 	addu	t9,a0,t8
54003000:	0002f983 	sra	ra,v0,0x6
54003004:	03ee8021 	addu	s0,ra,t6
54003008:	3067f800 	andi	a3,v1,0xf800
5400300c:	332f07e0 	andi	t7,t9,0x7e0
54003010:	00ef2825 	or	a1,a3,t7
54003014:	3212001f 	andi	s2,s0,0x1f
54003018:	00b23025 	or	a2,a1,s2
5400301c:	a5060000 	sh	a2,0(t0)
54003020:	02963021 	addu	a2,s4,s6
54003024:	00068043 	sra	s0,a2,0x1
54003028:	8faf0090 	lw	t7,144(sp)
5400302c:	01703021 	addu	a2,t3,s0
54003030:	01e6402a 	slt	t0,t7,a2
54003034:	00063fc2 	srl	a3,a2,0x1f
54003038:	0107c025 	or	t8,t0,a3
5400303c:	01572821 	addu	a1,t2,s7
54003040:	01b04021 	addu	t0,t5,s0
54003044:	1700fed8 	bnez	t8,54002ba8 <waveimage+0x410>
54003048:	01973821 	addu	a3,t4,s7
5400304c:	8fa40094 	lw	a0,148(sp)
54003050:	00051fc2 	srl	v1,a1,0x1f
54003054:	0085f82a 	slt	ra,a0,a1
54003058:	03e3c825 	or	t9,ra,v1
5400305c:	1720fed2 	bnez	t9,54002ba8 <waveimage+0x410>
54003060:	70b48002 	mul	s0,a1,s4
54003064:	8fae0060 	lw	t6,96(sp)
54003068:	8fa50064 	lw	a1,100(sp)
5400306c:	8fb2007c 	lw	s2,124(sp)
54003070:	0206c021 	addu	t8,s0,a2
54003074:	00181040 	sll	v0,t8,0x1
54003078:	00453021 	addu	a2,v0,a1
5400307c:	12400126 	beqz	s2,54003518 <waveimage+0xd80>
54003080:	004e2821 	addu	a1,v0,t6
54003084:	8faf0094 	lw	t7,148(sp)
54003088:	00071fc2 	srl	v1,a3,0x1f
5400308c:	01e7102a 	slt	v0,t7,a3
54003090:	0043f825 	or	ra,v0,v1
54003094:	17e0fec4 	bnez	ra,54002ba8 <waveimage+0x410>
54003098:	8faf0068 	lw	t7,104(sp)
5400309c:	8fb8005c 	lw	t8,92(sp)
540030a0:	70ef1002 	mul	v0,a3,t7
540030a4:	8fb00098 	lw	s0,152(sp)
540030a8:	00089040 	sll	s2,t0,0x1
540030ac:	00102040 	sll	a0,s0,0x1
540030b0:	24070040 	li	a3,64
540030b4:	00027040 	sll	t6,v0,0x1
540030b8:	01d84021 	addu	t0,t6,t8
540030bc:	02481821 	addu	v1,s2,t0
540030c0:	11270112 	beq	t1,a3,5400350c <waveimage+0xd74>
540030c4:	00644021 	addu	t0,v1,a0
540030c8:	94a20000 	lhu	v0,0(a1)
540030cc:	94c50000 	lhu	a1,0(a2)
540030d0:	3059f800 	andi	t9,v0,0xf800
540030d4:	30a6f800 	andi	a2,a1,0xf800
540030d8:	30af07e0 	andi	t7,a1,0x7e0
540030dc:	305007e0 	andi	s0,v0,0x7e0
540030e0:	03261823 	subu	v1,t9,a2
540030e4:	30b8001f 	andi	t8,a1,0x1f
540030e8:	304e001f 	andi	t6,v0,0x1f
540030ec:	020f2023 	subu	a0,s0,t7
540030f0:	70693802 	mul	a3,v1,t1
540030f4:	7089f802 	mul	ra,a0,t1
540030f8:	01d89023 	subu	s2,t6,t8
540030fc:	72491002 	mul	v0,s2,t1
54003100:	0007c983 	sra	t9,a3,0x6
54003104:	001f8183 	sra	s0,ra,0x6
54003108:	03261821 	addu	v1,t9,a2
5400310c:	020f9021 	addu	s2,s0,t7
54003110:	00027183 	sra	t6,v0,0x6
54003114:	01d8f821 	addu	ra,t6,t8
54003118:	3067f800 	andi	a3,v1,0xf800
5400311c:	324407e0 	andi	a0,s2,0x7e0
54003120:	00e42825 	or	a1,a3,a0
54003124:	33f9001f 	andi	t9,ra,0x1f
54003128:	00b93025 	or	a2,a1,t9
5400312c:	a5060000 	sh	a2,0(t0)
54003130:	02963021 	addu	a2,s4,s6
54003134:	0006f843 	sra	ra,a2,0x1
54003138:	8fb20090 	lw	s2,144(sp)
5400313c:	03eb3023 	subu	a2,ra,t3
54003140:	0246402a 	slt	t0,s2,a2
54003144:	00063fc2 	srl	a3,a2,0x1f
54003148:	01077825 	or	t7,t0,a3
5400314c:	01572821 	addu	a1,t2,s7
54003150:	03ed4023 	subu	t0,ra,t5
54003154:	15e0fe94 	bnez	t7,54002ba8 <waveimage+0x410>
54003158:	01973821 	addu	a3,t4,s7
5400315c:	8fa30094 	lw	v1,148(sp)
54003160:	000527c2 	srl	a0,a1,0x1f
54003164:	0065802a 	slt	s0,v1,a1
54003168:	02047025 	or	t6,s0,a0
5400316c:	15c0fe8e 	bnez	t6,54002ba8 <waveimage+0x410>
54003170:	70b4f802 	mul	ra,a1,s4
54003174:	8fb80060 	lw	t8,96(sp)
54003178:	8fa50064 	lw	a1,100(sp)
5400317c:	8fb9007c 	lw	t9,124(sp)
54003180:	03e67821 	addu	t7,ra,a2
54003184:	000f1040 	sll	v0,t7,0x1
54003188:	00453021 	addu	a2,v0,a1
5400318c:	132000db 	beqz	t9,540034fc <waveimage+0xd64>
54003190:	00582821 	addu	a1,v0,t8
54003194:	8fb20094 	lw	s2,148(sp)
54003198:	00071fc2 	srl	v1,a3,0x1f
5400319c:	0247102a 	slt	v0,s2,a3
540031a0:	00438025 	or	s0,v0,v1
540031a4:	1600fe80 	bnez	s0,54002ba8 <waveimage+0x410>
540031a8:	8faf005c 	lw	t7,92(sp)
540031ac:	8fb20068 	lw	s2,104(sp)
540031b0:	70f21002 	mul	v0,a3,s2
540031b4:	8fbf0098 	lw	ra,152(sp)
540031b8:	0008c840 	sll	t9,t0,0x1
540031bc:	001f2040 	sll	a0,ra,0x1
540031c0:	24070040 	li	a3,64
540031c4:	0002c040 	sll	t8,v0,0x1
540031c8:	030f4021 	addu	t0,t8,t7
540031cc:	03281821 	addu	v1,t9,t0
540031d0:	112700c7 	beq	t1,a3,540034f0 <waveimage+0xd58>
540031d4:	00644021 	addu	t0,v1,a0
540031d8:	94a20000 	lhu	v0,0(a1)
540031dc:	94c50000 	lhu	a1,0(a2)
540031e0:	304ef800 	andi	t6,v0,0xf800
540031e4:	30a6f800 	andi	a2,a1,0xf800
540031e8:	30b207e0 	andi	s2,a1,0x7e0
540031ec:	305f07e0 	andi	ra,v0,0x7e0
540031f0:	01c61823 	subu	v1,t6,a2
540031f4:	30af001f 	andi	t7,a1,0x1f
540031f8:	3058001f 	andi	t8,v0,0x1f
540031fc:	03f22023 	subu	a0,ra,s2
54003200:	70693802 	mul	a3,v1,t1
54003204:	70898002 	mul	s0,a0,t1
54003208:	030fc823 	subu	t9,t8,t7
5400320c:	73291002 	mul	v0,t9,t1
54003210:	00077183 	sra	t6,a3,0x6
54003214:	0010f983 	sra	ra,s0,0x6
54003218:	01c61821 	addu	v1,t6,a2
5400321c:	03f2c821 	addu	t9,ra,s2
54003220:	0002c183 	sra	t8,v0,0x6
54003224:	030f8021 	addu	s0,t8,t7
54003228:	3067f800 	andi	a3,v1,0xf800
5400322c:	332407e0 	andi	a0,t9,0x7e0
54003230:	00e42825 	or	a1,a3,a0
54003234:	320e001f 	andi	t6,s0,0x1f
54003238:	00ae3025 	or	a2,a1,t6
5400323c:	a5060000 	sh	a2,0(t0)
54003240:	02963021 	addu	a2,s4,s6
54003244:	00068043 	sra	s0,a2,0x1
54003248:	8fb90090 	lw	t9,144(sp)
5400324c:	020b3023 	subu	a2,s0,t3
54003250:	0326402a 	slt	t0,t9,a2
54003254:	00063fc2 	srl	a3,a2,0x1f
54003258:	01079025 	or	s2,t0,a3
5400325c:	02ea2823 	subu	a1,s7,t2
54003260:	020d4023 	subu	t0,s0,t5
54003264:	1640fe50 	bnez	s2,54002ba8 <waveimage+0x410>
54003268:	02ec3823 	subu	a3,s7,t4
5400326c:	8fa30094 	lw	v1,148(sp)
54003270:	000527c2 	srl	a0,a1,0x1f
54003274:	0065f82a 	slt	ra,v1,a1
54003278:	03e4c025 	or	t8,ra,a0
5400327c:	1700fe4a 	bnez	t8,54002ba8 <waveimage+0x410>
54003280:	70b48002 	mul	s0,a1,s4
54003284:	8faf0060 	lw	t7,96(sp)
54003288:	8fa50064 	lw	a1,100(sp)
5400328c:	8fae007c 	lw	t6,124(sp)
54003290:	02069021 	addu	s2,s0,a2
54003294:	00121040 	sll	v0,s2,0x1
54003298:	00453021 	addu	a2,v0,a1
5400329c:	11c00090 	beqz	t6,540034e0 <waveimage+0xd48>
540032a0:	004f2821 	addu	a1,v0,t7
540032a4:	8fb90094 	lw	t9,148(sp)
540032a8:	00071fc2 	srl	v1,a3,0x1f
540032ac:	0327102a 	slt	v0,t9,a3
540032b0:	0043f825 	or	ra,v0,v1
540032b4:	17e0fe3c 	bnez	ra,54002ba8 <waveimage+0x410>
540032b8:	8fb90068 	lw	t9,104(sp)
540032bc:	8fb2005c 	lw	s2,92(sp)
540032c0:	70f91002 	mul	v0,a3,t9
540032c4:	8fb00098 	lw	s0,152(sp)
540032c8:	00087040 	sll	t6,t0,0x1
540032cc:	00102040 	sll	a0,s0,0x1
540032d0:	24070040 	li	a3,64
540032d4:	00027840 	sll	t7,v0,0x1
540032d8:	01f24021 	addu	t0,t7,s2
540032dc:	01c81821 	addu	v1,t6,t0
540032e0:	1127007c 	beq	t1,a3,540034d4 <waveimage+0xd3c>
540032e4:	00644021 	addu	t0,v1,a0
540032e8:	94a20000 	lhu	v0,0(a1)
540032ec:	94c50000 	lhu	a1,0(a2)
540032f0:	3058f800 	andi	t8,v0,0xf800
540032f4:	30a6f800 	andi	a2,a1,0xf800
540032f8:	30b907e0 	andi	t9,a1,0x7e0
540032fc:	305007e0 	andi	s0,v0,0x7e0
54003300:	03061823 	subu	v1,t8,a2
54003304:	30b2001f 	andi	s2,a1,0x1f
54003308:	304f001f 	andi	t7,v0,0x1f
5400330c:	02192023 	subu	a0,s0,t9
54003310:	70693802 	mul	a3,v1,t1
54003314:	7089f802 	mul	ra,a0,t1
54003318:	01f27023 	subu	t6,t7,s2
5400331c:	71c91002 	mul	v0,t6,t1
54003320:	0007c183 	sra	t8,a3,0x6
54003324:	001f8183 	sra	s0,ra,0x6
54003328:	03061821 	addu	v1,t8,a2
5400332c:	02197021 	addu	t6,s0,t9
54003330:	00027983 	sra	t7,v0,0x6
54003334:	01f2f821 	addu	ra,t7,s2
54003338:	3067f800 	andi	a3,v1,0xf800
5400333c:	31c407e0 	andi	a0,t6,0x7e0
54003340:	00e42825 	or	a1,a3,a0
54003344:	33f8001f 	andi	t8,ra,0x1f
54003348:	00b83025 	or	a2,a1,t8
5400334c:	a5060000 	sh	a2,0(t0)
54003350:	02963021 	addu	a2,s4,s6
54003354:	0006c843 	sra	t9,a2,0x1
54003358:	8fa70090 	lw	a3,144(sp)
5400335c:	01793021 	addu	a2,t3,t9
54003360:	00e6402a 	slt	t0,a3,a2
54003364:	0006ffc2 	srl	ra,a2,0x1f
54003368:	011f5825 	or	t3,t0,ra
5400336c:	02ec3823 	subu	a3,s7,t4
54003370:	01b94021 	addu	t0,t5,t9
54003374:	1560fe0c 	bnez	t3,54002ba8 <waveimage+0x410>
54003378:	02ea2823 	subu	a1,s7,t2
5400337c:	8fae0094 	lw	t6,148(sp)
54003380:	000567c2 	srl	t4,a1,0x1f
54003384:	01c5682a 	slt	t5,t6,a1
54003388:	01ac5025 	or	t2,t5,t4
5400338c:	1540fe06 	bnez	t2,54002ba8 <waveimage+0x410>
54003390:	70b41002 	mul	v0,a1,s4
54003394:	8fb00064 	lw	s0,100(sp)
54003398:	8fa40060 	lw	a0,96(sp)
5400339c:	8faf007c 	lw	t7,124(sp)
540033a0:	0046c021 	addu	t8,v0,a2
540033a4:	00181840 	sll	v1,t8,0x1
540033a8:	00703021 	addu	a2,v1,s0
540033ac:	11e00045 	beqz	t7,540034c4 <waveimage+0xd2c>
540033b0:	00642821 	addu	a1,v1,a0
540033b4:	8fb20094 	lw	s2,148(sp)
540033b8:	00071fc2 	srl	v1,a3,0x1f
540033bc:	0247102a 	slt	v0,s2,a3
540033c0:	0043c825 	or	t9,v0,v1
540033c4:	1720fdf8 	bnez	t9,54002ba8 <waveimage+0x410>
540033c8:	8fa30068 	lw	v1,104(sp)
540033cc:	8fae005c 	lw	t6,92(sp)
540033d0:	70e37802 	mul	t7,a3,v1
540033d4:	8fa40098 	lw	a0,152(sp)
540033d8:	00085040 	sll	t2,t0,0x1
540033dc:	0004f840 	sll	ra,a0,0x1
540033e0:	24080040 	li	t0,64
540033e4:	000f6040 	sll	t4,t7,0x1
540033e8:	018e6821 	addu	t5,t4,t6
540033ec:	014d3821 	addu	a3,t2,t5
540033f0:	11280031 	beq	t1,t0,540034b8 <waveimage+0xd20>
540033f4:	00ff5021 	addu	t2,a3,ra
540033f8:	94a20000 	lhu	v0,0(a1)
540033fc:	94c50000 	lhu	a1,0(a2)
54003400:	304bf800 	andi	t3,v0,0xf800
54003404:	30aff800 	andi	t7,a1,0xf800
54003408:	30a707e0 	andi	a3,a1,0x7e0
5400340c:	305207e0 	andi	s2,v0,0x7e0
54003410:	30bf001f 	andi	ra,a1,0x1f
54003414:	016fc023 	subu	t8,t3,t7
54003418:	02478023 	subu	s0,s2,a3
5400341c:	3043001f 	andi	v1,v0,0x1f
54003420:	73093002 	mul	a2,t8,t1
54003424:	72092002 	mul	a0,s0,t1
54003428:	007f4023 	subu	t0,v1,ra
5400342c:	71096802 	mul	t5,t0,t1
54003430:	8fa80020 	lw	t0,32(sp)
54003434:	00067183 	sra	t6,a2,0x6
54003438:	00046183 	sra	t4,a0,0x6
5400343c:	01cf1021 	addu	v0,t6,t7
54003440:	01875821 	addu	t3,t4,a3
54003444:	000dc983 	sra	t9,t5,0x6
54003448:	3058f800 	andi	t8,v0,0xf800
5400344c:	033f8021 	addu	s0,t9,ra
54003450:	317207e0 	andi	s2,t3,0x7e0
54003454:	03122825 	or	a1,t8,s2
54003458:	3206001f 	andi	a2,s0,0x1f
5400345c:	00a61025 	or	v0,a1,a2
54003460:	1000fd53 	b	540029b0 <waveimage+0x218>
54003464:	a5420000 	sh	v0,0(t2)
54003468:	00021823 	negu	v1,v0
5400346c:	306203ff 	andi	v0,v1,0x3ff
54003470:	3c045401 	lui	a0,0x5401
54003474:	0002c880 	sll	t9,v0,0x2
54003478:	249fb964 	addiu	ra,a0,-18076
5400347c:	033fc021 	addu	t8,t9,ra
54003480:	1000fd9c 	b	54002af4 <waveimage+0x35c>
54003484:	8f030000 	lw	v1,0(t8)
54003488:	94cf0000 	lhu	t7,0(a2)
5400348c:	1000fe20 	b	54002d10 <waveimage+0x578>
54003490:	a50f0000 	sh	t7,0(t0)
54003494:	94ae0000 	lhu	t6,0(a1)
54003498:	1000fe5f 	b	54002e18 <waveimage+0x680>
5400349c:	a50e0000 	sh	t6,0(t0)
540034a0:	94ae0000 	lhu	t6,0(a1)
540034a4:	1000fede 	b	54003020 <waveimage+0x888>
540034a8:	a50e0000 	sh	t6,0(t0)
540034ac:	94ae0000 	lhu	t6,0(a1)
540034b0:	1000fe9a 	b	54002f1c <waveimage+0x784>
540034b4:	a50e0000 	sh	t6,0(t0)
540034b8:	94a20000 	lhu	v0,0(a1)
540034bc:	1000ffe8 	b	54003460 <waveimage+0xcc8>
540034c0:	8fa80020 	lw	t0,32(sp)
540034c4:	8fab0090 	lw	t3,144(sp)
540034c8:	00081fc2 	srl	v1,t0,0x1f
540034cc:	1000ffbc 	b	540033c0 <waveimage+0xc28>
540034d0:	0168102a 	slt	v0,t3,t0
540034d4:	94b20000 	lhu	s2,0(a1)
540034d8:	1000ff9d 	b	54003350 <waveimage+0xbb8>
540034dc:	a5120000 	sh	s2,0(t0)
540034e0:	8fb80090 	lw	t8,144(sp)
540034e4:	00081fc2 	srl	v1,t0,0x1f
540034e8:	1000ff71 	b	540032b0 <waveimage+0xb18>
540034ec:	0308102a 	slt	v0,t8,t0
540034f0:	94af0000 	lhu	t7,0(a1)
540034f4:	1000ff52 	b	54003240 <waveimage+0xaa8>
540034f8:	a50f0000 	sh	t7,0(t0)
540034fc:	8fae0090 	lw	t6,144(sp)
54003500:	00081fc2 	srl	v1,t0,0x1f
54003504:	1000ff26 	b	540031a0 <waveimage+0xa08>
54003508:	01c8102a 	slt	v0,t6,t0
5400350c:	94b80000 	lhu	t8,0(a1)
54003510:	1000ff07 	b	54003130 <waveimage+0x998>
54003514:	a5180000 	sh	t8,0(t0)
54003518:	8fb90090 	lw	t9,144(sp)
5400351c:	00081fc2 	srl	v1,t0,0x1f
54003520:	1000fedb 	b	54003090 <waveimage+0x8f8>
54003524:	0328102a 	slt	v0,t9,t0

54003528 <linesample>:
54003528:	00e5102b 	sltu	v0,a3,a1
5400352c:	00e05021 	move	t2,a3
54003530:	10400004 	beqz	v0,54003544 <linesample+0x1c>
54003534:	240b0001 	li	t3,1
54003538:	00a05021 	move	t2,a1
5400353c:	240b0002 	li	t3,2
54003540:	00e02821 	move	a1,a3
54003544:	11400010 	beqz	t2,54003588 <linesample+0x60>
54003548:	00001821 	move	v1,zero
5400354c:	24070001 	li	a3,1
54003550:	01404021 	move	t0,t2
54003554:	00000000 	nop
54003558:	00651821 	addu	v1,v1,a1
5400355c:	1167000c 	beq	t3,a3,54003590 <linesample+0x68>
54003560:	006a102b 	sltu	v0,v1,t2
54003564:	94cc0000 	lhu	t4,0(a2)
54003568:	a48c0000 	sh	t4,0(a0)
5400356c:	14400003 	bnez	v0,5400357c <linesample+0x54>
54003570:	24840002 	addiu	a0,a0,2
54003574:	006a1823 	subu	v1,v1,t2
54003578:	24c60002 	addiu	a2,a2,2
5400357c:	2508ffff 	addiu	t0,t0,-1
54003580:	1500fff5 	bnez	t0,54003558 <linesample+0x30>
54003584:	00000000 	nop
54003588:	03e00008 	jr	ra
5400358c:	00001021 	move	v0,zero
54003590:	1440fff9 	bnez	v0,54003578 <linesample+0x50>
54003594:	00000000 	nop
54003598:	94c90000 	lhu	t1,0(a2)
5400359c:	006a1823 	subu	v1,v1,t2
540035a0:	a4890000 	sh	t1,0(a0)
540035a4:	1000fff4 	b	54003578 <linesample+0x50>
540035a8:	24840002 	addiu	a0,a0,2
540035ac:	00000000 	nop

540035b0 <fadezoomimage>:
540035b0:	27bdffb8 	addiu	sp,sp,-72
540035b4:	2407fffe 	li	a3,-2
540035b8:	afbe0040 	sw	s8,64(sp)
540035bc:	afb40030 	sw	s4,48(sp)
540035c0:	afbf0044 	sw	ra,68(sp)
540035c4:	afb7003c 	sw	s7,60(sp)
540035c8:	afb60038 	sw	s6,56(sp)
540035cc:	afb50034 	sw	s5,52(sp)
540035d0:	afb3002c 	sw	s3,44(sp)
540035d4:	afb20028 	sw	s2,40(sp)
540035d8:	afb10024 	sw	s1,36(sp)
540035dc:	afb00020 	sw	s0,32(sp)
540035e0:	8c880018 	lw	t0,24(a0)
540035e4:	8c970010 	lw	s7,16(a0)
540035e8:	8c90000c 	lw	s0,12(a0)
540035ec:	72e87802 	mul	t7,s7,t0
540035f0:	8c8d0014 	lw	t5,20(a0)
540035f4:	72087002 	mul	t6,s0,t0
540035f8:	8c890024 	lw	t1,36(a0)
540035fc:	8c880004 	lw	t0,4(a0)
54003600:	01ed001a 	div	zero,t7,t5
54003604:	01a001f4 	teq	t5,zero,0x7
54003608:	00006012 	mflo	t4
5400360c:	01cd001a 	div	zero,t6,t5
54003610:	01a001f4 	teq	t5,zero,0x7
54003614:	01973021 	addu	a2,t4,s7
54003618:	00c73024 	and	a2,a2,a3
5400361c:	02e65823 	subu	t3,s7,a2
54003620:	000b1fc2 	srl	v1,t3,0x1f
54003624:	01631021 	addu	v0,t3,v1
54003628:	02e6202a 	slt	a0,s7,a2
5400362c:	0002a043 	sra	s4,v0,0x1
54003630:	00005012 	mflo	t2
54003634:	01502821 	addu	a1,t2,s0
54003638:	1080003d 	beqz	a0,54003730 <fadezoomimage+0x180>
5400363c:	00a7f024 	and	s8,a1,a3
54003640:	3c195401 	lui	t9,0x5401
54003644:	03d0b023 	subu	s6,s8,s0
54003648:	27382240 	addiu	t8,t9,8768
5400364c:	02d8a821 	addu	s5,s6,t8
54003650:	24110002 	li	s1,2
54003654:	00c09821 	move	s3,a2
54003658:	afb50018 	sw	s5,24(sp)
5400365c:	afb70010 	sw	s7,16(sp)
54003660:	afb10014 	sw	s1,20(sp)
54003664:	0000b021 	move	s6,zero
54003668:	1260003d 	beqz	s3,54003760 <fadezoomimage+0x1b0>
5400366c:	0000a821 	move	s5,zero
54003670:	72902002 	mul	a0,s4,s0
54003674:	00103840 	sll	a3,s0,0x1
54003678:	01009021 	move	s2,t0
5400367c:	afa7001c 	sw	a3,28(sp)
54003680:	0004f840 	sll	ra,a0,0x1
54003684:	1000000b 	b	540036b4 <fadezoomimage+0x104>
54003688:	03e98821 	addu	s1,ra,t1
5400368c:	00000000 	nop
54003690:	02d3302b 	sltu	a2,s6,s3
54003694:	14c00005 	bnez	a2,540036ac <fadezoomimage+0xfc>
54003698:	02b3402b 	sltu	t0,s5,s3
5400369c:	8faf001c 	lw	t7,28(sp)
540036a0:	02d3b023 	subu	s6,s6,s3
540036a4:	024f9021 	addu	s2,s2,t7
540036a8:	02b3402b 	sltu	t0,s5,s3
540036ac:	1100002d 	beqz	t0,54003764 <fadezoomimage+0x1b4>
540036b0:	8fbf0044 	lw	ra,68(sp)
540036b4:	3c0b5401 	lui	t3,0x5401
540036b8:	25659600 	addiu	a1,t3,-27136
540036bc:	8fa20010 	lw	v0,16(sp)
540036c0:	8faa0014 	lw	t2,20(sp)
540036c4:	24090001 	li	t1,1
540036c8:	8ca40000 	lw	a0,0(a1)
540036cc:	26b50001 	addiu	s5,s5,1
540036d0:	02403021 	move	a2,s2
540036d4:	03c02821 	move	a1,s8
540036d8:	02003821 	move	a3,s0
540036dc:	1149fff2 	beq	t2,t1,540036a8 <fadezoomimage+0xf8>
540036e0:	02c2b021 	addu	s6,s6,v0
540036e4:	0d000d4a 	jal	54003528 <linesample>
540036e8:	26940001 	addiu	s4,s4,1
540036ec:	8fa3001c 	lw	v1,28(sp)
540036f0:	00147027 	nor	t6,zero,s4
540036f4:	00403821 	move	a3,v0
540036f8:	000e67c2 	srl	t4,t6,0x1f
540036fc:	0297682a 	slt	t5,s4,s7
54003700:	02238821 	addu	s1,s1,v1
54003704:	8fa50018 	lw	a1,24(sp)
54003708:	00103040 	sll	a2,s0,0x1
5400370c:	018d1024 	and	v0,t4,t5
54003710:	04e00020 	bltz	a3,54003794 <fadezoomimage+0x1e4>
54003714:	02202021 	move	a0,s1
54003718:	1040ffdd 	beqz	v0,54003690 <fadezoomimage+0xe0>
5400371c:	00000000 	nop
54003720:	0d000867 	jal	5400219c <memcpy>
54003724:	00000000 	nop
54003728:	1000ffda 	b	54003694 <fadezoomimage+0xe4>
5400372c:	02d3302b 	sltu	a2,s6,s3
54003730:	3c195401 	lui	t9,0x5401
54003734:	03d0b023 	subu	s6,s8,s0
54003738:	27382240 	addiu	t8,t9,8768
5400373c:	02d8a821 	addu	s5,s6,t8
54003740:	24120001 	li	s2,1
54003744:	02e09821 	move	s3,s7
54003748:	afb50018 	sw	s5,24(sp)
5400374c:	afa60010 	sw	a2,16(sp)
54003750:	afb20014 	sw	s2,20(sp)
54003754:	0000b021 	move	s6,zero
54003758:	1660ffc5 	bnez	s3,54003670 <fadezoomimage+0xc0>
5400375c:	0000a821 	move	s5,zero
54003760:	8fbf0044 	lw	ra,68(sp)
54003764:	8fbe0040 	lw	s8,64(sp)
54003768:	8fb7003c 	lw	s7,60(sp)
5400376c:	8fb60038 	lw	s6,56(sp)
54003770:	8fb50034 	lw	s5,52(sp)
54003774:	8fb40030 	lw	s4,48(sp)
54003778:	8fb3002c 	lw	s3,44(sp)
5400377c:	8fb20028 	lw	s2,40(sp)
54003780:	8fb10024 	lw	s1,36(sp)
54003784:	8fb00020 	lw	s0,32(sp)
54003788:	00001021 	move	v0,zero
5400378c:	03e00008 	jr	ra
54003790:	27bd0048 	addiu	sp,sp,72
54003794:	8fbf0044 	lw	ra,68(sp)
54003798:	8fbe0040 	lw	s8,64(sp)
5400379c:	8fb7003c 	lw	s7,60(sp)
540037a0:	8fb60038 	lw	s6,56(sp)
540037a4:	8fb50034 	lw	s5,52(sp)
540037a8:	8fb40030 	lw	s4,48(sp)
540037ac:	8fb3002c 	lw	s3,44(sp)
540037b0:	8fb20028 	lw	s2,40(sp)
540037b4:	8fb10024 	lw	s1,36(sp)
540037b8:	8fb00020 	lw	s0,32(sp)
540037bc:	00e01021 	move	v0,a3
540037c0:	03e00008 	jr	ra
540037c4:	27bd0048 	addiu	sp,sp,72

540037c8 <zoomimage>:
540037c8:	27bdff80 	addiu	sp,sp,-128
540037cc:	2402000f 	li	v0,15
540037d0:	afb60070 	sw	s6,112(sp)
540037d4:	afbf007c 	sw	ra,124(sp)
540037d8:	afbe0078 	sw	s8,120(sp)
540037dc:	afb70074 	sw	s7,116(sp)
540037e0:	afb5006c 	sw	s5,108(sp)
540037e4:	afb40068 	sw	s4,104(sp)
540037e8:	afb30064 	sw	s3,100(sp)
540037ec:	afb20060 	sw	s2,96(sp)
540037f0:	afb1005c 	sw	s1,92(sp)
540037f4:	afb00058 	sw	s0,88(sp)
540037f8:	0080b021 	move	s6,a0
540037fc:	8c850004 	lw	a1,4(a0)
54003800:	8c830000 	lw	v1,0(a0)
54003804:	afa50038 	sw	a1,56(sp)
54003808:	8c950024 	lw	s5,36(a0)
5400380c:	8c850008 	lw	a1,8(a0)
54003810:	8c94000c 	lw	s4,12(a0)
54003814:	8c900010 	lw	s0,16(a0)
54003818:	8c910014 	lw	s1,20(a0)
5400381c:	8c930018 	lw	s3,24(a0)
54003820:	8ec60034 	lw	a2,52(s6)
54003824:	8c840030 	lw	a0,48(a0)
54003828:	8ec70028 	lw	a3,40(s6)
5400382c:	afa40044 	sw	a0,68(sp)
54003830:	afa60048 	sw	a2,72(sp)
54003834:	afa7004c 	sw	a3,76(sp)
54003838:	106200ba 	beq	v1,v0,54003b24 <zoomimage+0x35c>
5400383c:	8ec4002c 	lw	a0,44(s6)
54003840:	8fab0044 	lw	t3,68(sp)
54003844:	8faa0048 	lw	t2,72(sp)
54003848:	8fa9004c 	lw	t1,76(sp)
5400384c:	240c0002 	li	t4,2
54003850:	afac001c 	sw	t4,28(sp)
54003854:	afa4002c 	sw	a0,44(sp)
54003858:	afa50010 	sw	a1,16(sp)
5400385c:	afb40014 	sw	s4,20(sp)
54003860:	afb00018 	sw	s0,24(sp)
54003864:	afb50020 	sw	s5,32(sp)
54003868:	afab0030 	sw	t3,48(sp)
5400386c:	afaa0034 	sw	t2,52(sp)
54003870:	10a000a8 	beqz	a1,54003b14 <zoomimage+0x34c>
54003874:	afa90028 	sw	t1,40(sp)
54003878:	0d00237c 	jal	54008df0 <fillimagefun>
5400387c:	27a40010 	addiu	a0,sp,16
54003880:	8eca0000 	lw	t2,0(s6)
54003884:	240d000d 	li	t5,13
54003888:	114d006b 	beq	t2,t5,54003a38 <zoomimage+0x270>
5400388c:	240e000f 	li	t6,15
54003890:	114e007c 	beq	t2,t6,54003a84 <zoomimage+0x2bc>
54003894:	2a090000 	slti	t1,s0,0
54003898:	02126823 	subu	t5,s0,s2
5400389c:	000d77c2 	srl	t6,t5,0x1f
540038a0:	01ae6021 	addu	t4,t5,t6
540038a4:	0212882a 	slt	s1,s0,s2
540038a8:	12200040 	beqz	s1,540039ac <zoomimage+0x1e4>
540038ac:	000c2843 	sra	a1,t4,0x1
540038b0:	afb0003c 	sw	s0,60(sp)
540038b4:	2413000f 	li	s3,15
540038b8:	24100002 	li	s0,2
540038bc:	02408821 	move	s1,s2
540038c0:	afb00040 	sw	s0,64(sp)
540038c4:	00009021 	move	s2,zero
540038c8:	11530040 	beq	t2,s3,540039cc <zoomimage+0x204>
540038cc:	8fa60038 	lw	a2,56(sp)
540038d0:	8fa90048 	lw	t1,72(sp)
540038d4:	8fa8004c 	lw	t0,76(sp)
540038d8:	00a91021 	addu	v0,a1,t1
540038dc:	70483802 	mul	a3,v0,t0
540038e0:	8fa40044 	lw	a0,68(sp)
540038e4:	8fa30054 	lw	v1,84(sp)
540038e8:	0283f823 	subu	ra,s4,v1
540038ec:	00e4f021 	addu	s8,a3,a0
540038f0:	03f5b821 	addu	s7,ra,s5
540038f4:	001ec840 	sll	t9,s8,0x1
540038f8:	03374021 	addu	t0,t9,s7
540038fc:	1220001e 	beqz	s1,54003978 <zoomimage+0x1b0>
54003900:	00008021 	move	s0,zero
54003904:	8fac004c 	lw	t4,76(sp)
54003908:	70b45802 	mul	t3,a1,s4
5400390c:	70acf002 	mul	s8,a1,t4
54003910:	8fb30038 	lw	s3,56(sp)
54003914:	00142840 	sll	a1,s4,0x1
54003918:	afa50050 	sw	a1,80(sp)
5400391c:	10000005 	b	54003934 <zoomimage+0x16c>
54003920:	000ba840 	sll	s5,t3,0x1
54003924:	00000000 	nop
54003928:	0211482b 	sltu	t1,s0,s1
5400392c:	11200013 	beqz	t1,5400397c <zoomimage+0x1b4>
54003930:	00001021 	move	v0,zero
54003934:	8faf003c 	lw	t7,60(sp)
54003938:	8fae0040 	lw	t6,64(sp)
5400393c:	024f9021 	addu	s2,s2,t7
54003940:	240d0001 	li	t5,1
54003944:	26100001 	addiu	s0,s0,1
54003948:	15cdfff7 	bne	t6,t5,54003928 <zoomimage+0x160>
5400394c:	0251102b 	sltu	v0,s2,s1
54003950:	8faa0050 	lw	t2,80(sp)
54003954:	01002021 	move	a0,t0
54003958:	8fa50054 	lw	a1,84(sp)
5400395c:	02803821 	move	a3,s4
54003960:	10400021 	beqz	v0,540039e8 <zoomimage+0x220>
54003964:	026a9821 	addu	s3,s3,t2
54003968:	02603021 	move	a2,s3
5400396c:	0211482b 	sltu	t1,s0,s1
54003970:	1520fff1 	bnez	t1,54003938 <zoomimage+0x170>
54003974:	8faf003c 	lw	t7,60(sp)
54003978:	00001021 	move	v0,zero
5400397c:	8fbf007c 	lw	ra,124(sp)
54003980:	8fbe0078 	lw	s8,120(sp)
54003984:	8fb70074 	lw	s7,116(sp)
54003988:	8fb60070 	lw	s6,112(sp)
5400398c:	8fb5006c 	lw	s5,108(sp)
54003990:	8fb40068 	lw	s4,104(sp)
54003994:	8fb30064 	lw	s3,100(sp)
54003998:	8fb20060 	lw	s2,96(sp)
5400399c:	8fb1005c 	lw	s1,92(sp)
540039a0:	8fb00058 	lw	s0,88(sp)
540039a4:	03e00008 	jr	ra
540039a8:	27bd0080 	addiu	sp,sp,128
540039ac:	240f0001 	li	t7,1
540039b0:	2413000f 	li	s3,15
540039b4:	afb2003c 	sw	s2,60(sp)
540039b8:	02008821 	move	s1,s0
540039bc:	afaf0040 	sw	t7,64(sp)
540039c0:	00009021 	move	s2,zero
540039c4:	1553ffc2 	bne	t2,s3,540038d0 <zoomimage+0x108>
540039c8:	8fa60038 	lw	a2,56(sp)
540039cc:	70b45002 	mul	t2,a1,s4
540039d0:	8fb70054 	lw	s7,84(sp)
540039d4:	0297c023 	subu	t8,s4,s7
540039d8:	0315b821 	addu	s7,t8,s5
540039dc:	000aa840 	sll	s5,t2,0x1
540039e0:	1000ffc6 	b	540038fc <zoomimage+0x134>
540039e4:	02f54021 	addu	t0,s7,s5
540039e8:	0d000d4a 	jal	54003528 <linesample>
540039ec:	02519023 	subu	s2,s2,s1
540039f0:	8fa60050 	lw	a2,80(sp)
540039f4:	0440ffe1 	bltz	v0,5400397c <zoomimage+0x1b4>
540039f8:	02a6a821 	addu	s5,s5,a2
540039fc:	8fa2004c 	lw	v0,76(sp)
54003a00:	8fa80048 	lw	t0,72(sp)
54003a04:	03c2f021 	addu	s8,s8,v0
54003a08:	70483802 	mul	a3,v0,t0
54003a0c:	8fa40044 	lw	a0,68(sp)
54003a10:	8ed90000 	lw	t9,0(s6)
54003a14:	2418000f 	li	t8,15
54003a18:	02f54021 	addu	t0,s7,s5
54003a1c:	00fe1821 	addu	v1,a3,s8
54003a20:	0064f821 	addu	ra,v1,a0
54003a24:	1338ffd0 	beq	t9,t8,54003968 <zoomimage+0x1a0>
54003a28:	001f1040 	sll	v0,ra,0x1
54003a2c:	00574021 	addu	t0,v0,s7
54003a30:	1000ffce 	b	5400396c <zoomimage+0x1a4>
54003a34:	02603021 	move	a2,s3
54003a38:	0010f083 	sra	s8,s0,0x2
54003a3c:	021e3823 	subu	a3,s0,s8
54003a40:	70f31002 	mul	v0,a3,s3
54003a44:	0014c083 	sra	t8,s4,0x2
54003a48:	02981823 	subu	v1,s4,t8
54003a4c:	7073f802 	mul	ra,v1,s3
54003a50:	2413fffe 	li	s3,-2
54003a54:	0051001a 	div	zero,v0,s1
54003a58:	022001f4 	teq	s1,zero,0x7
54003a5c:	00009012 	mflo	s2
54003a60:	03f1001a 	div	zero,ra,s1
54003a64:	022001f4 	teq	s1,zero,0x7
54003a68:	025ec821 	addu	t9,s2,s8
54003a6c:	03339024 	and	s2,t9,s3
54003a70:	0000b812 	mflo	s7
54003a74:	02f88821 	addu	s1,s7,t8
54003a78:	02337824 	and	t7,s1,s3
54003a7c:	1000ff86 	b	54003898 <zoomimage+0xd0>
54003a80:	afaf0054 	sw	t7,84(sp)
54003a84:	26080003 	addiu	t0,s0,3
54003a88:	0209400a 	movz	t0,s0,t1
54003a8c:	00082083 	sra	a0,t0,0x2
54003a90:	70933002 	mul	a2,a0,s3
54003a94:	2a8b0000 	slti	t3,s4,0
54003a98:	26850003 	addiu	a1,s4,3
54003a9c:	028b280a 	movz	a1,s4,t3
54003aa0:	00053883 	sra	a3,a1,0x2
54003aa4:	70f37002 	mul	t6,a3,s3
54003aa8:	00141040 	sll	v0,s4,0x1
54003aac:	00101840 	sll	v1,s0,0x1
54003ab0:	0054f821 	addu	ra,v0,s4
54003ab4:	0070f021 	addu	s8,v1,s0
54003ab8:	00d1001a 	div	zero,a2,s1
54003abc:	022001f4 	teq	s1,zero,0x7
54003ac0:	2bf20000 	slti	s2,ra,0
54003ac4:	03e09821 	move	s3,ra
54003ac8:	03c07821 	move	t7,s8
54003acc:	27f90003 	addiu	t9,ra,3
54003ad0:	27d70003 	addiu	s7,s8,3
54003ad4:	2bd80000 	slti	t8,s8,0
54003ad8:	0332980b 	movn	s3,t9,s2
54003adc:	02f8780b 	movn	t7,s7,t8
54003ae0:	00132883 	sra	a1,s3,0x2
54003ae4:	000f6083 	sra	t4,t7,0x2
54003ae8:	2408fffe 	li	t0,-2
54003aec:	00006812 	mflo	t5
54003af0:	01d1001a 	div	zero,t6,s1
54003af4:	022001f4 	teq	s1,zero,0x7
54003af8:	018d5821 	addu	t3,t4,t5
54003afc:	01689024 	and	s2,t3,t0
54003b00:	00004812 	mflo	t1
54003b04:	00a92021 	addu	a0,a1,t1
54003b08:	00883024 	and	a2,a0,t0
54003b0c:	1000ff62 	b	54003898 <zoomimage+0xd0>
54003b10:	afa60054 	sw	a2,84(sp)
54003b14:	0d0023ae 	jal	54008eb8 <fillzerofun>
54003b18:	27a40010 	addiu	a0,sp,16
54003b1c:	1000ff59 	b	54003884 <zoomimage+0xbc>
54003b20:	8eca0000 	lw	t2,0(s6)
54003b24:	72904002 	mul	t0,s4,s0
54003b28:	02a02021 	move	a0,s5
54003b2c:	00002821 	move	a1,zero
54003b30:	0d00087b 	jal	540021ec <memset>
54003b34:	00083040 	sll	a2,t0,0x1
54003b38:	1000ff52 	b	54003884 <zoomimage+0xbc>
54003b3c:	8eca0000 	lw	t2,0(s6)

54003b40 <zoomhrimage>:
54003b40:	27bdff98 	addiu	sp,sp,-104
54003b44:	00801021 	move	v0,a0
54003b48:	afb00040 	sw	s0,64(sp)
54003b4c:	afbf0064 	sw	ra,100(sp)
54003b50:	afbe0060 	sw	s8,96(sp)
54003b54:	afb7005c 	sw	s7,92(sp)
54003b58:	afb60058 	sw	s6,88(sp)
54003b5c:	afb50054 	sw	s5,84(sp)
54003b60:	afb40050 	sw	s4,80(sp)
54003b64:	afb3004c 	sw	s3,76(sp)
54003b68:	afb20048 	sw	s2,72(sp)
54003b6c:	afb10044 	sw	s1,68(sp)
54003b70:	8c86002c 	lw	a2,44(a0)
54003b74:	8c870008 	lw	a3,8(a0)
54003b78:	8c840024 	lw	a0,36(a0)
54003b7c:	8c53000c 	lw	s3,12(v0)
54003b80:	afa4003c 	sw	a0,60(sp)
54003b84:	8fa5003c 	lw	a1,60(sp)
54003b88:	8c550010 	lw	s5,16(v0)
54003b8c:	8c560030 	lw	s6,48(v0)
54003b90:	8c570034 	lw	s7,52(v0)
54003b94:	8c5e0028 	lw	s8,40(v0)
54003b98:	afa70010 	sw	a3,16(sp)
54003b9c:	afa50020 	sw	a1,32(sp)
54003ba0:	8c54001c 	lw	s4,28(v0)
54003ba4:	24100002 	li	s0,2
54003ba8:	8c430004 	lw	v1,4(v0)
54003bac:	afa6002c 	sw	a2,44(sp)
54003bb0:	afb30014 	sw	s3,20(sp)
54003bb4:	afb50018 	sw	s5,24(sp)
54003bb8:	afb0001c 	sw	s0,28(sp)
54003bbc:	afb60030 	sw	s6,48(sp)
54003bc0:	afb70034 	sw	s7,52(sp)
54003bc4:	afbe0028 	sw	s8,40(sp)
54003bc8:	27a40010 	addiu	a0,sp,16
54003bcc:	afa30038 	sw	v1,56(sp)
54003bd0:	8c520014 	lw	s2,20(v0)
54003bd4:	0d00237c 	jal	54008df0 <fillimagefun>
54003bd8:	8c510018 	lw	s1,24(v0)
54003bdc:	12900030 	beq	s4,s0,54003ca0 <zoomhrimage+0x160>
54003be0:	24080003 	li	t0,3
54003be4:	1288000e 	beq	s4,t0,54003c20 <zoomhrimage+0xe0>
54003be8:	02515823 	subu	t3,s2,s1
54003bec:	00001021 	move	v0,zero
54003bf0:	8fbf0064 	lw	ra,100(sp)
54003bf4:	8fbe0060 	lw	s8,96(sp)
54003bf8:	8fb7005c 	lw	s7,92(sp)
54003bfc:	8fb60058 	lw	s6,88(sp)
54003c00:	8fb50054 	lw	s5,84(sp)
54003c04:	8fb40050 	lw	s4,80(sp)
54003c08:	8fb3004c 	lw	s3,76(sp)
54003c0c:	8fb20048 	lw	s2,72(sp)
54003c10:	8fb10044 	lw	s1,68(sp)
54003c14:	8fb00040 	lw	s0,64(sp)
54003c18:	03e00008 	jr	ra
54003c1c:	27bd0068 	addiu	sp,sp,104
54003c20:	71735002 	mul	t2,t3,s3
54003c24:	2409fffe 	li	t1,-2
54003c28:	0000a021 	move	s4,zero
54003c2c:	0152001a 	div	zero,t2,s2
54003c30:	024001f4 	teq	s2,zero,0x7
54003c34:	00009012 	mflo	s2
54003c38:	1aa0ffec 	blez	s5,54003bec <zoomhrimage+0xac>
54003c3c:	02499024 	and	s2,s2,t1
54003c40:	72fe8802 	mul	s1,s7,s8
54003c44:	0272c023 	subu	t8,s3,s2
54003c48:	03167821 	addu	t7,t8,s6
54003c4c:	8fac003c 	lw	t4,60(sp)
54003c50:	8fb00038 	lw	s0,56(sp)
54003c54:	022f7021 	addu	t6,s1,t7
54003c58:	000e6840 	sll	t5,t6,0x1
54003c5c:	01ac8821 	addu	s1,t5,t4
54003c60:	001eb840 	sll	s7,s8,0x1
54003c64:	0013b040 	sll	s6,s3,0x1
54003c68:	02202021 	move	a0,s1
54003c6c:	02003021 	move	a2,s0
54003c70:	02402821 	move	a1,s2
54003c74:	02603821 	move	a3,s3
54003c78:	0d000d4a 	jal	54003528 <linesample>
54003c7c:	26940001 	addiu	s4,s4,1
54003c80:	02168021 	addu	s0,s0,s6
54003c84:	0295182a 	slt	v1,s4,s5
54003c88:	0440ffd9 	bltz	v0,54003bf0 <zoomhrimage+0xb0>
54003c8c:	02378821 	addu	s1,s1,s7
54003c90:	1460fff6 	bnez	v1,54003c6c <zoomhrimage+0x12c>
54003c94:	02202021 	move	a0,s1
54003c98:	1000ffd5 	b	54003bf0 <zoomhrimage+0xb0>
54003c9c:	00001021 	move	v0,zero
54003ca0:	02518023 	subu	s0,s2,s1
54003ca4:	7213a002 	mul	s4,s0,s3
54003ca8:	2419fffe 	li	t9,-2
54003cac:	00008821 	move	s1,zero
54003cb0:	0292001a 	div	zero,s4,s2
54003cb4:	024001f4 	teq	s2,zero,0x7
54003cb8:	0000f812 	mflo	ra
54003cbc:	1aa0ffcb 	blez	s5,54003bec <zoomhrimage+0xac>
54003cc0:	03f9a024 	and	s4,ra,t9
54003cc4:	8fb00038 	lw	s0,56(sp)
54003cc8:	00139040 	sll	s2,s3,0x1
54003ccc:	02373821 	addu	a3,s1,s7
54003cd0:	70fe3002 	mul	a2,a3,s8
54003cd4:	8fa3003c 	lw	v1,60(sp)
54003cd8:	02603821 	move	a3,s3
54003cdc:	26310001 	addiu	s1,s1,1
54003ce0:	00d62821 	addu	a1,a2,s6
54003ce4:	00051040 	sll	v0,a1,0x1
54003ce8:	00432021 	addu	a0,v0,v1
54003cec:	02003021 	move	a2,s0
54003cf0:	0d000d4a 	jal	54003528 <linesample>
54003cf4:	02802821 	move	a1,s4
54003cf8:	02128021 	addu	s0,s0,s2
54003cfc:	0440ffbc 	bltz	v0,54003bf0 <zoomhrimage+0xb0>
54003d00:	0235182a 	slt	v1,s1,s5
54003d04:	1460fff2 	bnez	v1,54003cd0 <zoomhrimage+0x190>
54003d08:	02373821 	addu	a3,s1,s7
54003d0c:	1000ffb8 	b	54003bf0 <zoomhrimage+0xb0>
54003d10:	00001021 	move	v0,zero
54003d14:	00000000 	nop

54003d18 <fsin>:
54003d18:	04800007 	bltz	a0,54003d38 <fsin+0x20>
54003d1c:	308603ff 	andi	a2,a0,0x3ff
54003d20:	3c055401 	lui	a1,0x5401
54003d24:	24a2f164 	addiu	v0,a1,-3740
54003d28:	00062080 	sll	a0,a2,0x2
54003d2c:	00821821 	addu	v1,a0,v0
54003d30:	03e00008 	jr	ra
54003d34:	8c620000 	lw	v0,0(v1)
54003d38:	24840400 	addiu	a0,a0,1024
54003d3c:	0481fff8 	bgez	a0,54003d20 <fsin+0x8>
54003d40:	308603ff 	andi	a2,a0,0x3ff
54003d44:	24840400 	addiu	a0,a0,1024
54003d48:	0480fffb 	bltz	a0,54003d38 <fsin+0x20>
54003d4c:	308603ff 	andi	a2,a0,0x3ff
54003d50:	1000fff4 	b	54003d24 <fsin+0xc>
54003d54:	3c055401 	lui	a1,0x5401

54003d58 <fcos>:
54003d58:	09000f46 	j	54003d18 <fsin>
54003d5c:	24840100 	addiu	a0,a0,256

54003d60 <cubeimage>:
54003d60:	27bdff50 	addiu	sp,sp,-176
54003d64:	24080140 	li	t0,320
54003d68:	afa400b0 	sw	a0,176(sp)
54003d6c:	8faf00b0 	lw	t7,176(sp)
54003d70:	8fa500b0 	lw	a1,176(sp)
54003d74:	8faa00b0 	lw	t2,176(sp)
54003d78:	8fa700b0 	lw	a3,176(sp)
54003d7c:	8fa200b0 	lw	v0,176(sp)
54003d80:	afb1008c 	sw	s1,140(sp)
54003d84:	afbf00ac 	sw	ra,172(sp)
54003d88:	afbe00a8 	sw	s8,168(sp)
54003d8c:	afb700a4 	sw	s7,164(sp)
54003d90:	afb600a0 	sw	s6,160(sp)
54003d94:	afb5009c 	sw	s5,156(sp)
54003d98:	afb40098 	sw	s4,152(sp)
54003d9c:	afb30094 	sw	s3,148(sp)
54003da0:	afb20090 	sw	s2,144(sp)
54003da4:	afb00088 	sw	s0,136(sp)
54003da8:	8ce6000c 	lw	a2,12(a3)
54003dac:	8ca90010 	lw	t1,16(a1)
54003db0:	3c115401 	lui	s1,0x5401
54003db4:	8c4c0024 	lw	t4,36(v0)
54003db8:	8df50030 	lw	s5,48(t7)
54003dbc:	8dff0034 	lw	ra,52(t7)
54003dc0:	8c840018 	lw	a0,24(a0)
54003dc4:	8d430014 	lw	v1,20(t2)
54003dc8:	afa60058 	sw	a2,88(sp)
54003dcc:	ae285664 	sw	t0,22116(s1)
54003dd0:	afa9005c 	sw	t1,92(sp)
54003dd4:	afac0060 	sw	t4,96(sp)
54003dd8:	8df00020 	lw	s0,32(t7)
54003ddc:	24050002 	li	a1,2
54003de0:	afb50044 	sw	s5,68(sp)
54003de4:	afbf0048 	sw	ra,72(sp)
54003de8:	8df60028 	lw	s6,40(t7)
54003dec:	108301e0 	beq	a0,v1,54004570 <cubeimage+0x810>
54003df0:	8de6002c 	lw	a2,44(t7)
54003df4:	8fa70058 	lw	a3,88(sp)
54003df8:	8fb7005c 	lw	s7,92(sp)
54003dfc:	8fb40060 	lw	s4,96(sp)
54003e00:	afa5001c 	sw	a1,28(sp)
54003e04:	afa6002c 	sw	a2,44(sp)
54003e08:	8fa50048 	lw	a1,72(sp)
54003e0c:	8fa60044 	lw	a2,68(sp)
54003e10:	27a40010 	addiu	a0,sp,16
54003e14:	afa70014 	sw	a3,20(sp)
54003e18:	afb70018 	sw	s7,24(sp)
54003e1c:	afb40020 	sw	s4,32(sp)
54003e20:	afa60030 	sw	a2,48(sp)
54003e24:	afa50034 	sw	a1,52(sp)
54003e28:	0d0023ae 	jal	54008eb8 <fillzerofun>
54003e2c:	afb60028 	sw	s6,40(sp)
54003e30:	3c03b60b 	lui	v1,0xb60b
54003e34:	00104a80 	sll	t1,s0,0xa
54003e38:	347860b7 	ori	t8,v1,0x60b7
54003e3c:	01380018 	mult	t1,t8
54003e40:	00009810 	mfhi	s3
54003e44:	8fa500b0 	lw	a1,176(sp)
54003e48:	8fa40058 	lw	a0,88(sp)
54003e4c:	8fbe005c 	lw	s8,92(sp)
54003e50:	8faa005c 	lw	t2,92(sp)
54003e54:	02691021 	addu	v0,s3,t1
54003e58:	0004c823 	negu	t9,a0
54003e5c:	001e47c2 	srl	t0,s8,0x1f
54003e60:	000967c3 	sra	t4,t1,0x1f
54003e64:	8fbf0058 	lw	ra,88(sp)
54003e68:	00029203 	sra	s2,v0,0x8
54003e6c:	8ca30004 	lw	v1,4(a1)
54003e70:	024c7023 	subu	t6,s2,t4
54003e74:	8e275664 	lw	a3,22116(s1)
54003e78:	001987c3 	sra	s0,t9,0x1f
54003e7c:	0148a021 	addu	s4,t2,t0
54003e80:	8fad0058 	lw	t5,88(sp)
54003e84:	00143043 	sra	a2,s4,0x1
54003e88:	001f5fc2 	srl	t3,ra,0x1f
54003e8c:	00107fc2 	srl	t7,s0,0x1f
54003e90:	01c02021 	move	a0,t6
54003e94:	afa30040 	sw	v1,64(sp)
54003e98:	032fa821 	addu	s5,t9,t7
54003e9c:	01abb821 	addu	s7,t5,t3
54003ea0:	afa7003c 	sw	a3,60(sp)
54003ea4:	afa60038 	sw	a2,56(sp)
54003ea8:	afb9004c 	sw	t9,76(sp)
54003eac:	afae0074 	sw	t6,116(sp)
54003eb0:	afab0068 	sw	t3,104(sp)
54003eb4:	afa8006c 	sw	t0,108(sp)
54003eb8:	0d000f56 	jal	54003d58 <fcos>
54003ebc:	afb00064 	sw	s0,100(sp)
54003ec0:	8fa40074 	lw	a0,116(sp)
54003ec4:	0015a843 	sra	s5,s5,0x1
54003ec8:	0017b843 	sra	s7,s7,0x1
54003ecc:	70559802 	mul	s3,v0,s5
54003ed0:	0d000f46 	jal	54003d18 <fsin>
54003ed4:	26f0ffff 	addiu	s0,s7,-1
54003ed8:	7050c002 	mul	t8,v0,s0
54003edc:	8fa40074 	lw	a0,116(sp)
54003ee0:	03134821 	addu	t1,t8,s3
54003ee4:	0d000f56 	jal	54003d58 <fcos>
54003ee8:	00099283 	sra	s2,t1,0xa
54003eec:	70508802 	mul	s1,v0,s0
54003ef0:	8fac003c 	lw	t4,60(sp)
54003ef4:	8fa40074 	lw	a0,116(sp)
54003ef8:	8fa20038 	lw	v0,56(sp)
54003efc:	0d000f46 	jal	54003d18 <fsin>
54003f00:	704c9802 	mul	s3,v0,t4
54003f04:	70557802 	mul	t7,v0,s5
54003f08:	8fa4003c 	lw	a0,60(sp)
54003f0c:	8fbf0058 	lw	ra,88(sp)
54003f10:	72445002 	mul	t2,s2,a0
54003f14:	00906821 	addu	t5,a0,s0
54003f18:	022f7023 	subu	t6,s1,t7
54003f1c:	000e5a83 	sra	t3,t6,0xa
54003f20:	01ab4023 	subu	t0,t5,t3
54003f24:	0148001a 	div	zero,t2,t0
54003f28:	010001f4 	teq	t0,zero,0x7
54003f2c:	8fb9005c 	lw	t9,92(sp)
54003f30:	8fa40074 	lw	a0,116(sp)
54003f34:	27feffff 	addiu	s8,ra,-1
54003f38:	afad0054 	sw	t5,84(sp)
54003f3c:	afbe0050 	sw	s8,80(sp)
54003f40:	273effff 	addiu	s8,t9,-1
54003f44:	00009012 	mflo	s2
54003f48:	0268001a 	div	zero,s3,t0
54003f4c:	010001f4 	teq	t0,zero,0x7
54003f50:	0d000f56 	jal	54003d58 <fcos>
54003f54:	00008812 	mflo	s1
54003f58:	8fa40074 	lw	a0,116(sp)
54003f5c:	0d000f46 	jal	54003d18 <fsin>
54003f60:	7055a002 	mul	s4,v0,s5
54003f64:	70553802 	mul	a3,v0,s5
54003f68:	8fa40074 	lw	a0,116(sp)
54003f6c:	00f43021 	addu	a2,a3,s4
54003f70:	0d000f56 	jal	54003d58 <fcos>
54003f74:	00068283 	sra	s0,a2,0xa
54003f78:	8fa40074 	lw	a0,116(sp)
54003f7c:	0d000f46 	jal	54003d18 <fsin>
54003f80:	7055a002 	mul	s4,v0,s5
54003f84:	70554802 	mul	t1,v0,s5
54003f88:	8fac0054 	lw	t4,84(sp)
54003f8c:	8fa5003c 	lw	a1,60(sp)
54003f90:	8fb80050 	lw	t8,80(sp)
54003f94:	7205f802 	mul	ra,s0,a1
54003f98:	02891023 	subu	v0,s4,t1
54003f9c:	0002aa83 	sra	s5,v0,0xa
54003fa0:	01952023 	subu	a0,t4,s5
54003fa4:	24030001 	li	v1,1
54003fa8:	0264001a 	div	zero,s3,a0
54003fac:	008001f4 	teq	a0,zero,0x7
54003fb0:	0078c82a 	slt	t9,v1,t8
54003fb4:	03007021 	move	t6,t8
54003fb8:	24180001 	li	t8,1
54003fbc:	0000a812 	mflo	s5
54003fc0:	03e4001a 	div	zero,ra,a0
54003fc4:	008001f4 	teq	a0,zero,0x7
54003fc8:	02358823 	subu	s1,s1,s5
54003fcc:	0000a012 	mflo	s4
54003fd0:	02f4b821 	addu	s7,s7,s4
54003fd4:	13200045 	beqz	t9,540040ec <cubeimage+0x38c>
54003fd8:	02549023 	subu	s2,s2,s4
54003fdc:	8fbf0048 	lw	ra,72(sp)
54003fe0:	8faf0058 	lw	t7,88(sp)
54003fe4:	73f6c802 	mul	t9,ra,s6
54003fe8:	8faa0044 	lw	t2,68(sp)
54003fec:	000f6840 	sll	t5,t7,0x1
54003ff0:	25b00002 	addiu	s0,t5,2
54003ff4:	02209821 	move	s3,s1
54003ff8:	afb90084 	sw	t9,132(sp)
54003ffc:	8fab0084 	lw	t3,132(sp)
54004000:	8fb90038 	lw	t9,56(sp)
54004004:	016a4021 	addu	t0,t3,t2
54004008:	02e8a021 	addu	s4,s7,t0
5400400c:	00000000 	nop
54004010:	8fa90050 	lw	t1,80(sp)
54004014:	01d27021 	addu	t6,t6,s2
54004018:	012e602a 	slt	t4,t1,t6
5400401c:	1180002f 	beqz	t4,540040dc <cubeimage+0x37c>
54004020:	8fad0050 	lw	t5,80(sp)
54004024:	0272001a 	div	zero,s3,s2
54004028:	024001f4 	teq	s2,zero,0x7
5400402c:	01c97023 	subu	t6,t6,t1
54004030:	00002012 	mflo	a0
54004034:	00951821 	addu	v1,a0,s5
54004038:	00035040 	sll	t2,v1,0x1
5400403c:	03ca102a 	slt	v0,s8,t2
54004040:	14400115 	bnez	v0,54004498 <cubeimage+0x738>
54004044:	02719821 	addu	s3,s3,s1
54004048:	24060001 	li	a2,1
5400404c:	00de282a 	slt	a1,a2,s8
54004050:	03233823 	subu	a3,t9,v1
54004054:	10a0001e 	beqz	a1,540040d0 <cubeimage+0x370>
54004058:	03c02021 	move	a0,s8
5400405c:	70f64002 	mul	t0,a3,s6
54004060:	8fa30058 	lw	v1,88(sp)
54004064:	0137682a 	slt	t5,t1,s7
54004068:	02003021 	move	a2,s0
5400406c:	00164840 	sll	t1,s6,0x1
54004070:	01145821 	addu	t3,t0,s4
54004074:	000b4040 	sll	t0,t3,0x1
54004078:	27c5ffff 	addiu	a1,s8,-1
5400407c:	00035840 	sll	t3,v1,0x1
54004080:	008a2021 	addu	a0,a0,t2
54004084:	03c4782a 	slt	t7,s8,a0
54004088:	11e0000e 	beqz	t7,540040c4 <cubeimage+0x364>
5400408c:	00000000 	nop
54004090:	06e0000a 	bltz	s7,540040bc <cubeimage+0x35c>
54004094:	009e2023 	subu	a0,a0,s8
54004098:	15a00008 	bnez	t5,540040bc <cubeimage+0x35c>
5400409c:	00000000 	nop
540040a0:	04e00006 	bltz	a3,540040bc <cubeimage+0x35c>
540040a4:	03c7102a 	slt	v0,s8,a3
540040a8:	8fac0040 	lw	t4,64(sp)
540040ac:	8fbf0060 	lw	ra,96(sp)
540040b0:	00cc1821 	addu	v1,a2,t4
540040b4:	104000b2 	beqz	v0,54004380 <cubeimage+0x620>
540040b8:	011f6021 	addu	t4,t0,ra
540040bc:	24e70001 	addiu	a3,a3,1
540040c0:	01094021 	addu	t0,t0,t1
540040c4:	24a5ffff 	addiu	a1,a1,-1
540040c8:	14a0ffed 	bnez	a1,54004080 <cubeimage+0x320>
540040cc:	00cb3021 	addu	a2,a2,t3
540040d0:	26f70001 	addiu	s7,s7,1
540040d4:	26940001 	addiu	s4,s4,1
540040d8:	8fad0050 	lw	t5,80(sp)
540040dc:	27180001 	addiu	t8,t8,1
540040e0:	030d502a 	slt	t2,t8,t5
540040e4:	1540ffca 	bnez	t2,54004010 <cubeimage+0x2b0>
540040e8:	26100002 	addiu	s0,s0,2
540040ec:	8fab00b0 	lw	t3,176(sp)
540040f0:	8fa7006c 	lw	a3,108(sp)
540040f4:	8fac005c 	lw	t4,92(sp)
540040f8:	8fa20064 	lw	v0,100(sp)
540040fc:	8fa3004c 	lw	v1,76(sp)
54004100:	01874021 	addu	t0,t4,a3
54004104:	8d650008 	lw	a1,8(t3)
54004108:	8fb80068 	lw	t8,104(sp)
5400410c:	00024fc2 	srl	t1,v0,0x1f
54004110:	8fb40058 	lw	s4,88(sp)
54004114:	8fa40074 	lw	a0,116(sp)
54004118:	00697021 	addu	t6,v1,t1
5400411c:	0008a843 	sra	s5,t0,0x1
54004120:	000e8043 	sra	s0,t6,0x1
54004124:	0298b821 	addu	s7,s4,t8
54004128:	afa5007c 	sw	a1,124(sp)
5400412c:	0d000f56 	jal	54003d58 <fcos>
54004130:	afb50078 	sw	s5,120(sp)
54004134:	8fa40074 	lw	a0,116(sp)
54004138:	0017b843 	sra	s7,s7,0x1
5400413c:	26f5ffff 	addiu	s5,s7,-1
54004140:	0d000f46 	jal	54003d18 <fsin>
54004144:	70509802 	mul	s3,v0,s0
54004148:	7055c802 	mul	t9,v0,s5
5400414c:	8fa40074 	lw	a0,116(sp)
54004150:	03337821 	addu	t7,t9,s3
54004154:	0d000f56 	jal	54003d58 <fcos>
54004158:	000f9283 	sra	s2,t7,0xa
5400415c:	8fa60078 	lw	a2,120(sp)
54004160:	8fad003c 	lw	t5,60(sp)
54004164:	8fa40074 	lw	a0,116(sp)
54004168:	70cd9802 	mul	s3,a2,t5
5400416c:	0d000f46 	jal	54003d18 <fsin>
54004170:	70558802 	mul	s1,v0,s5
54004174:	70505002 	mul	t2,v0,s0
54004178:	8fa4003c 	lw	a0,60(sp)
5400417c:	8fa20054 	lw	v0,84(sp)
54004180:	72444802 	mul	t1,s2,a0
54004184:	8fa40074 	lw	a0,116(sp)
54004188:	022af823 	subu	ra,s1,t2
5400418c:	001f1a83 	sra	v1,ra,0xa
54004190:	00436023 	subu	t4,v0,v1
54004194:	012c001a 	div	zero,t1,t4
54004198:	018001f4 	teq	t4,zero,0x7
5400419c:	00009012 	mflo	s2
540041a0:	026c001a 	div	zero,s3,t4
540041a4:	018001f4 	teq	t4,zero,0x7
540041a8:	02f2b821 	addu	s7,s7,s2
540041ac:	0d000f56 	jal	54003d58 <fcos>
540041b0:	00008812 	mflo	s1
540041b4:	8fa40074 	lw	a0,116(sp)
540041b8:	0d000f46 	jal	54003d18 <fsin>
540041bc:	7055a002 	mul	s4,v0,s5
540041c0:	70553802 	mul	a3,v0,s5
540041c4:	8fa40074 	lw	a0,116(sp)
540041c8:	00f4c021 	addu	t8,a3,s4
540041cc:	0d000f56 	jal	54003d58 <fcos>
540041d0:	00188283 	sra	s0,t8,0xa
540041d4:	8fa40074 	lw	a0,116(sp)
540041d8:	0d000f46 	jal	54003d18 <fsin>
540041dc:	7055a002 	mul	s4,v0,s5
540041e0:	70555802 	mul	t3,v0,s5
540041e4:	8fb90054 	lw	t9,84(sp)
540041e8:	8fae003c 	lw	t6,60(sp)
540041ec:	8fa80050 	lw	t0,80(sp)
540041f0:	720e8002 	mul	s0,s0,t6
540041f4:	028b2823 	subu	a1,s4,t3
540041f8:	0005a283 	sra	s4,a1,0xa
540041fc:	03347823 	subu	t7,t9,s4
54004200:	24180001 	li	t8,1
54004204:	026f001a 	div	zero,s3,t7
54004208:	01e001f4 	teq	t7,zero,0x7
5400420c:	0308302a 	slt	a2,t8,t0
54004210:	01007021 	move	t6,t0
54004214:	24140001 	li	s4,1
54004218:	0000c812 	mflo	t9
5400421c:	020f001a 	div	zero,s0,t7
54004220:	01e001f4 	teq	t7,zero,0x7
54004224:	02398823 	subu	s1,s1,t9
54004228:	0000a812 	mflo	s5
5400422c:	10c000e5 	beqz	a2,540045c4 <cubeimage+0x864>
54004230:	02b28023 	subu	s0,s5,s2
54004234:	8faf0048 	lw	t7,72(sp)
54004238:	8fa60058 	lw	a2,88(sp)
5400423c:	71f65002 	mul	t2,t7,s6
54004240:	8fa40044 	lw	a0,68(sp)
54004244:	8fb20078 	lw	s2,120(sp)
54004248:	00066840 	sll	t5,a2,0x1
5400424c:	afb20080 	sw	s2,128(sp)
54004250:	0144f821 	addu	ra,t2,a0
54004254:	afaa0070 	sw	t2,112(sp)
54004258:	25b20002 	addiu	s2,t5,2
5400425c:	02ff9821 	addu	s3,s7,ra
54004260:	8fac0050 	lw	t4,80(sp)
54004264:	01d07021 	addu	t6,t6,s0
54004268:	018e282a 	slt	a1,t4,t6
5400426c:	10a00032 	beqz	a1,54004338 <cubeimage+0x5d8>
54004270:	00000000 	nop
54004274:	02143823 	subu	a3,s0,s4
54004278:	70f14002 	mul	t0,a3,s1
5400427c:	01cc7023 	subu	t6,t6,t4
54004280:	0110001a 	div	zero,t0,s0
54004284:	020001f4 	teq	s0,zero,0x7
54004288:	0000a812 	mflo	s5
5400428c:	02b91821 	addu	v1,s5,t9
54004290:	00035040 	sll	t2,v1,0x1
54004294:	03ca582a 	slt	t3,s8,t2
54004298:	15600047 	bnez	t3,540043b8 <cubeimage+0x658>
5400429c:	26940001 	addiu	s4,s4,1
540042a0:	24020001 	li	v0,1
540042a4:	8fbf0080 	lw	ra,128(sp)
540042a8:	005e482a 	slt	t1,v0,s8
540042ac:	03e33823 	subu	a3,ra,v1
540042b0:	1120001f 	beqz	t1,54004330 <cubeimage+0x5d0>
540042b4:	03c02021 	move	a0,s8
540042b8:	70f61802 	mul	v1,a3,s6
540042bc:	02403021 	move	a2,s2
540042c0:	00164840 	sll	t1,s6,0x1
540042c4:	27c5ffff 	addiu	a1,s8,-1
540042c8:	00736821 	addu	t5,v1,s3
540042cc:	000d4040 	sll	t0,t5,0x1
540042d0:	0197682a 	slt	t5,t4,s7
540042d4:	8fac0058 	lw	t4,88(sp)
540042d8:	000c5840 	sll	t3,t4,0x1
540042dc:	00000000 	nop
540042e0:	008a2021 	addu	a0,a0,t2
540042e4:	03c4782a 	slt	t7,s8,a0
540042e8:	11e0000e 	beqz	t7,54004324 <cubeimage+0x5c4>
540042ec:	00000000 	nop
540042f0:	06e0000a 	bltz	s7,5400431c <cubeimage+0x5bc>
540042f4:	009e2023 	subu	a0,a0,s8
540042f8:	15a00008 	bnez	t5,5400431c <cubeimage+0x5bc>
540042fc:	00000000 	nop
54004300:	04e00006 	bltz	a3,5400431c <cubeimage+0x5bc>
54004304:	03c7102a 	slt	v0,s8,a3
54004308:	8fbf007c 	lw	ra,124(sp)
5400430c:	8fb50060 	lw	s5,96(sp)
54004310:	00df1821 	addu	v1,a2,ra
54004314:	10400021 	beqz	v0,5400439c <cubeimage+0x63c>
54004318:	01156021 	addu	t4,t0,s5
5400431c:	24e70001 	addiu	a3,a3,1
54004320:	01094021 	addu	t0,t0,t1
54004324:	24a5ffff 	addiu	a1,a1,-1
54004328:	14a0ffed 	bnez	a1,540042e0 <cubeimage+0x580>
5400432c:	00cb3021 	addu	a2,a2,t3
54004330:	26f70001 	addiu	s7,s7,1
54004334:	26730001 	addiu	s3,s3,1
54004338:	8fa50050 	lw	a1,80(sp)
5400433c:	27180001 	addiu	t8,t8,1
54004340:	0305502a 	slt	t2,t8,a1
54004344:	1540ffc6 	bnez	t2,54004260 <cubeimage+0x500>
54004348:	26520002 	addiu	s2,s2,2
5400434c:	8fbf00ac 	lw	ra,172(sp)
54004350:	8fbe00a8 	lw	s8,168(sp)
54004354:	8fb700a4 	lw	s7,164(sp)
54004358:	8fb600a0 	lw	s6,160(sp)
5400435c:	8fb5009c 	lw	s5,156(sp)
54004360:	8fb40098 	lw	s4,152(sp)
54004364:	8fb30094 	lw	s3,148(sp)
54004368:	8fb20090 	lw	s2,144(sp)
5400436c:	8fb1008c 	lw	s1,140(sp)
54004370:	8fb00088 	lw	s0,136(sp)
54004374:	00001021 	move	v0,zero
54004378:	03e00008 	jr	ra
5400437c:	27bd00b0 	addiu	sp,sp,176
54004380:	906f0000 	lbu	t7,0(v1)
54004384:	24e70001 	addiu	a3,a3,1
54004388:	a18f0000 	sb	t7,0(t4)
5400438c:	90620001 	lbu	v0,1(v1)
54004390:	01094021 	addu	t0,t0,t1
54004394:	1000ff4b 	b	540040c4 <cubeimage+0x364>
54004398:	a1820001 	sb	v0,1(t4)
5400439c:	906f0000 	lbu	t7,0(v1)
540043a0:	24e70001 	addiu	a3,a3,1
540043a4:	a18f0000 	sb	t7,0(t4)
540043a8:	90620001 	lbu	v0,1(v1)
540043ac:	01094021 	addu	t0,t0,t1
540043b0:	1000ffdc 	b	54004324 <cubeimage+0x5c4>
540043b4:	a1820001 	sb	v0,1(t4)
540043b8:	8fa60080 	lw	a2,128(sp)
540043bc:	240d0001 	li	t5,1
540043c0:	01be202a 	slt	a0,t5,s8
540043c4:	00c32823 	subu	a1,a2,v1
540043c8:	1080ffd9 	beqz	a0,54004330 <cubeimage+0x5d0>
540043cc:	03c03021 	move	a2,s8
540043d0:	70b66002 	mul	t4,a1,s6
540043d4:	8fb50070 	lw	s5,112(sp)
540043d8:	8fa30044 	lw	v1,68(sp)
540043dc:	02f53821 	addu	a3,s7,s5
540043e0:	8fab0050 	lw	t3,80(sp)
540043e4:	8fa80058 	lw	t0,88(sp)
540043e8:	00e34821 	addu	t1,a3,v1
540043ec:	01893821 	addu	a3,t4,t1
540043f0:	00087840 	sll	t7,t0,0x1
540043f4:	0177602a 	slt	t4,t3,s7
540043f8:	02405821 	move	t3,s2
540043fc:	00000000 	nop
54004400:	00ca3023 	subu	a2,a2,t2
54004404:	00caf82a 	slt	ra,a2,t2
54004408:	13e00015 	beqz	ra,54004460 <cubeimage+0x700>
5400440c:	00072040 	sll	a0,a3,0x1
54004410:	00164040 	sll	t0,s6,0x1
54004414:	00000000 	nop
54004418:	06e0000b 	bltz	s7,54004448 <cubeimage+0x6e8>
5400441c:	00de3021 	addu	a2,a2,s8
54004420:	15800009 	bnez	t4,54004448 <cubeimage+0x6e8>
54004424:	00000000 	nop
54004428:	04a00007 	bltz	a1,54004448 <cubeimage+0x6e8>
5400442c:	03c5102a 	slt	v0,s8,a1
54004430:	8fa9007c 	lw	t1,124(sp)
54004434:	8fb50060 	lw	s5,96(sp)
54004438:	01691821 	addu	v1,t3,t1
5400443c:	1040000e 	beqz	v0,54004478 <cubeimage+0x718>
54004440:	00954821 	addu	t1,a0,s5
54004444:	00000000 	nop
54004448:	24a50001 	addiu	a1,a1,1
5400444c:	00f63821 	addu	a3,a3,s6
54004450:	00882021 	addu	a0,a0,t0
54004454:	00ca182a 	slt	v1,a2,t2
54004458:	1460ffef 	bnez	v1,54004418 <cubeimage+0x6b8>
5400445c:	00000000 	nop
54004460:	25ad0001 	addiu	t5,t5,1
54004464:	01be202a 	slt	a0,t5,s8
54004468:	1480ffe5 	bnez	a0,54004400 <cubeimage+0x6a0>
5400446c:	016f5821 	addu	t3,t3,t7
54004470:	1000ffb0 	b	54004334 <cubeimage+0x5d4>
54004474:	26f70001 	addiu	s7,s7,1
54004478:	907f0000 	lbu	ra,0(v1)
5400447c:	24a50001 	addiu	a1,a1,1
54004480:	a13f0000 	sb	ra,0(t1)
54004484:	90620001 	lbu	v0,1(v1)
54004488:	00f63821 	addu	a3,a3,s6
5400448c:	00882021 	addu	a0,a0,t0
54004490:	1000fff0 	b	54004454 <cubeimage+0x6f4>
54004494:	a1220001 	sb	v0,1(t1)
54004498:	240d0001 	li	t5,1
5400449c:	01be482a 	slt	t1,t5,s8
540044a0:	03232823 	subu	a1,t9,v1
540044a4:	1120ff0a 	beqz	t1,540040d0 <cubeimage+0x370>
540044a8:	03c03021 	move	a2,s8
540044ac:	70b64002 	mul	t0,a1,s6
540044b0:	8fac0084 	lw	t4,132(sp)
540044b4:	8fbf0044 	lw	ra,68(sp)
540044b8:	02ec3821 	addu	a3,s7,t4
540044bc:	8fa30050 	lw	v1,80(sp)
540044c0:	8fa40058 	lw	a0,88(sp)
540044c4:	00ff5821 	addu	t3,a3,ra
540044c8:	010b3821 	addu	a3,t0,t3
540044cc:	0077602a 	slt	t4,v1,s7
540044d0:	02005821 	move	t3,s0
540044d4:	00047840 	sll	t7,a0,0x1
540044d8:	00ca3023 	subu	a2,a2,t2
540044dc:	00ca102a 	slt	v0,a2,t2
540044e0:	10400015 	beqz	v0,54004538 <cubeimage+0x7d8>
540044e4:	00072040 	sll	a0,a3,0x1
540044e8:	00164040 	sll	t0,s6,0x1
540044ec:	00000000 	nop
540044f0:	06e0000b 	bltz	s7,54004520 <cubeimage+0x7c0>
540044f4:	00de3021 	addu	a2,a2,s8
540044f8:	15800009 	bnez	t4,54004520 <cubeimage+0x7c0>
540044fc:	00000000 	nop
54004500:	04a00007 	bltz	a1,54004520 <cubeimage+0x7c0>
54004504:	03c5102a 	slt	v0,s8,a1
54004508:	8fa90040 	lw	t1,64(sp)
5400450c:	8fbf0060 	lw	ra,96(sp)
54004510:	01691821 	addu	v1,t3,t1
54004514:	1040000e 	beqz	v0,54004550 <cubeimage+0x7f0>
54004518:	009f4821 	addu	t1,a0,ra
5400451c:	00000000 	nop
54004520:	24a50001 	addiu	a1,a1,1
54004524:	00f63821 	addu	a3,a3,s6
54004528:	00882021 	addu	a0,a0,t0
5400452c:	00caf82a 	slt	ra,a2,t2
54004530:	17e0ffef 	bnez	ra,540044f0 <cubeimage+0x790>
54004534:	00000000 	nop
54004538:	25ad0001 	addiu	t5,t5,1
5400453c:	01be202a 	slt	a0,t5,s8
54004540:	1480ffe5 	bnez	a0,540044d8 <cubeimage+0x778>
54004544:	016f5821 	addu	t3,t3,t7
54004548:	1000fee2 	b	540040d4 <cubeimage+0x374>
5400454c:	26f70001 	addiu	s7,s7,1
54004550:	90620000 	lbu	v0,0(v1)
54004554:	24a50001 	addiu	a1,a1,1
54004558:	a1220000 	sb	v0,0(t1)
5400455c:	90630001 	lbu	v1,1(v1)
54004560:	00f63821 	addu	a3,a3,s6
54004564:	00882021 	addu	a0,a0,t0
54004568:	1000fff0 	b	5400452c <cubeimage+0x7cc>
5400456c:	a1230001 	sb	v1,1(t1)
54004570:	8deb001c 	lw	t3,28(t7)
54004574:	11650020 	beq	t3,a1,540045f8 <cubeimage+0x898>
54004578:	8fad00b0 	lw	t5,176(sp)
5400457c:	8da20004 	lw	v0,4(t5)
54004580:	8fb30058 	lw	s3,88(sp)
54004584:	8fb2005c 	lw	s2,92(sp)
54004588:	8fb10060 	lw	s1,96(sp)
5400458c:	8faf0044 	lw	t7,68(sp)
54004590:	8fae0048 	lw	t6,72(sp)
54004594:	24100002 	li	s0,2
54004598:	27a40010 	addiu	a0,sp,16
5400459c:	afa20010 	sw	v0,16(sp)
540045a0:	afb30014 	sw	s3,20(sp)
540045a4:	afb20018 	sw	s2,24(sp)
540045a8:	afb10020 	sw	s1,32(sp)
540045ac:	afb0001c 	sw	s0,28(sp)
540045b0:	afaf0030 	sw	t7,48(sp)
540045b4:	afae0034 	sw	t6,52(sp)
540045b8:	afb60028 	sw	s6,40(sp)
540045bc:	0d00237c 	jal	54008df0 <fillimagefun>
540045c0:	afa6002c 	sw	a2,44(sp)
540045c4:	8fbf00ac 	lw	ra,172(sp)
540045c8:	8fbe00a8 	lw	s8,168(sp)
540045cc:	8fb700a4 	lw	s7,164(sp)
540045d0:	8fb600a0 	lw	s6,160(sp)
540045d4:	8fb5009c 	lw	s5,156(sp)
540045d8:	8fb40098 	lw	s4,152(sp)
540045dc:	8fb30094 	lw	s3,148(sp)
540045e0:	8fb20090 	lw	s2,144(sp)
540045e4:	8fb1008c 	lw	s1,140(sp)
540045e8:	8fb00088 	lw	s0,136(sp)
540045ec:	00001021 	move	v0,zero
540045f0:	03e00008 	jr	ra
540045f4:	27bd00b0 	addiu	sp,sp,176
540045f8:	1000ffe1 	b	54004580 <cubeimage+0x820>
540045fc:	8de20008 	lw	v0,8(t7)

54004600 <fadeimage>:
54004600:	27bdffc0 	addiu	sp,sp,-64
54004604:	afbf0038 	sw	ra,56(sp)
54004608:	8c850014 	lw	a1,20(a0)
5400460c:	8c8a0018 	lw	t2,24(a0)
54004610:	8c8f0034 	lw	t7,52(a0)
54004614:	00aa3023 	subu	a2,a1,t2
54004618:	8c870028 	lw	a3,40(a0)
5400461c:	00061280 	sll	v0,a2,0xa
54004620:	70ef4002 	mul	t0,a3,t7
54004624:	8c8d0030 	lw	t5,48(a0)
54004628:	8c8c0008 	lw	t4,8(a0)
5400462c:	8c8e000c 	lw	t6,12(a0)
54004630:	0045001a 	div	zero,v0,a1
54004634:	00a001f4 	teq	a1,zero,0x7
54004638:	010d4821 	addu	t1,t0,t5
5400463c:	8c880024 	lw	t0,36(a0)
54004640:	00091840 	sll	v1,t1,0x1
54004644:	00685021 	addu	t2,v1,t0
54004648:	8c85002c 	lw	a1,44(a0)
5400464c:	8c830010 	lw	v1,16(a0)
54004650:	8c890004 	lw	t1,4(a0)
54004654:	10c00030 	beqz	a2,54004718 <fadeimage+0x118>
54004658:	00005812 	mflo	t3
5400465c:	1860002a 	blez	v1,54004708 <fadeimage+0x108>
54004660:	00ee2023 	subu	a0,a3,t6
54004664:	0004c040 	sll	t8,a0,0x1
54004668:	00606821 	move	t5,v1
5400466c:	000e782a 	slt	t7,zero,t6
54004670:	11e00022 	beqz	t7,540046fc <fadeimage+0xfc>
54004674:	00000000 	nop
54004678:	01c04021 	move	t0,t6
5400467c:	00000000 	nop
54004680:	85230000 	lh	v1,0(t1)
54004684:	85850000 	lh	a1,0(t4)
54004688:	3062f800 	andi	v0,v1,0xf800
5400468c:	30a6f800 	andi	a2,a1,0xf800
54004690:	30a707e0 	andi	a3,a1,0x7e0
54004694:	306407e0 	andi	a0,v1,0x7e0
54004698:	30bf001f 	andi	ra,a1,0x1f
5400469c:	3079001f 	andi	t9,v1,0x1f
540046a0:	00461023 	subu	v0,v0,a2
540046a4:	00872023 	subu	a0,a0,a3
540046a8:	033f1823 	subu	v1,t9,ra
540046ac:	704b1002 	mul	v0,v0,t3
540046b0:	708b2002 	mul	a0,a0,t3
540046b4:	706b1802 	mul	v1,v1,t3
540046b8:	2508ffff 	addiu	t0,t0,-1
540046bc:	25290002 	addiu	t1,t1,2
540046c0:	0002ca83 	sra	t9,v0,0xa
540046c4:	00042283 	sra	a0,a0,0xa
540046c8:	03261021 	addu	v0,t9,a2
540046cc:	00031a83 	sra	v1,v1,0xa
540046d0:	0087c821 	addu	t9,a0,a3
540046d4:	007f3021 	addu	a2,v1,ra
540046d8:	3045f800 	andi	a1,v0,0xf800
540046dc:	332407e0 	andi	a0,t9,0x7e0
540046e0:	00a4c825 	or	t9,a1,a0
540046e4:	30df001f 	andi	ra,a2,0x1f
540046e8:	033f3825 	or	a3,t9,ra
540046ec:	a5470000 	sh	a3,0(t2)
540046f0:	258c0002 	addiu	t4,t4,2
540046f4:	1500ffe2 	bnez	t0,54004680 <fadeimage+0x80>
540046f8:	254a0002 	addiu	t2,t2,2
540046fc:	25adffff 	addiu	t5,t5,-1
54004700:	15a0ffdb 	bnez	t5,54004670 <fadeimage+0x70>
54004704:	01585021 	addu	t2,t2,t8
54004708:	8fbf0038 	lw	ra,56(sp)
5400470c:	00001021 	move	v0,zero
54004710:	03e00008 	jr	ra
54004714:	27bd0040 	addiu	sp,sp,64
54004718:	27a40010 	addiu	a0,sp,16
5400471c:	240b0002 	li	t3,2
54004720:	afac0010 	sw	t4,16(sp)
54004724:	afae0014 	sw	t6,20(sp)
54004728:	afa30018 	sw	v1,24(sp)
5400472c:	afa80020 	sw	t0,32(sp)
54004730:	afab001c 	sw	t3,28(sp)
54004734:	afad0030 	sw	t5,48(sp)
54004738:	afaf0034 	sw	t7,52(sp)
5400473c:	afa70028 	sw	a3,40(sp)
54004740:	0d00237c 	jal	54008df0 <fillimagefun>
54004744:	afa5002c 	sw	a1,44(sp)
54004748:	8fbf0038 	lw	ra,56(sp)
5400474c:	00001021 	move	v0,zero
54004750:	03e00008 	jr	ra
54004754:	27bd0040 	addiu	sp,sp,64

54004758 <popupalphaimage>:
54004758:	27bdff78 	addiu	sp,sp,-136
5400475c:	3c0b6666 	lui	t3,0x6666
54004760:	afb7007c 	sw	s7,124(sp)
54004764:	afb10064 	sw	s1,100(sp)
54004768:	afb00060 	sw	s0,96(sp)
5400476c:	afbf0084 	sw	ra,132(sp)
54004770:	afbe0080 	sw	s8,128(sp)
54004774:	afb60078 	sw	s6,120(sp)
54004778:	afb50074 	sw	s5,116(sp)
5400477c:	afb40070 	sw	s4,112(sp)
54004780:	afb3006c 	sw	s3,108(sp)
54004784:	afb20068 	sw	s2,104(sp)
54004788:	8c94000c 	lw	s4,12(a0)
5400478c:	8c960030 	lw	s6,48(a0)
54004790:	8c930018 	lw	s3,24(a0)
54004794:	02968021 	addu	s0,s4,s6
54004798:	72133002 	mul	a2,s0,s3
5400479c:	8c920014 	lw	s2,20(a0)
540047a0:	8c8f0020 	lw	t7,32(a0)
540047a4:	35696667 	ori	t1,t3,0x6667
540047a8:	000f5280 	sll	t2,t7,0xa
540047ac:	00d2001a 	div	zero,a2,s2
540047b0:	024001f4 	teq	s2,zero,0x7
540047b4:	00808821 	move	s1,a0
540047b8:	8c86001c 	lw	a2,28(a0)
540047bc:	8e250004 	lw	a1,4(s1)
540047c0:	8e2e0024 	lw	t6,36(s1)
540047c4:	8e2d0034 	lw	t5,52(s1)
540047c8:	8e2c0028 	lw	t4,40(s1)
540047cc:	000a27c3 	sra	a0,t2,0x1f
540047d0:	2407fffc 	li	a3,-4
540047d4:	24020001 	li	v0,1
540047d8:	afa50038 	sw	a1,56(sp)
540047dc:	afae003c 	sw	t6,60(sp)
540047e0:	8e250008 	lw	a1,8(s1)
540047e4:	8e3e0010 	lw	s8,16(s1)
540047e8:	afad0040 	sw	t5,64(sp)
540047ec:	afac0044 	sw	t4,68(sp)
540047f0:	8e35002c 	lw	s5,44(s1)
540047f4:	0000b812 	mflo	s7
540047f8:	01490018 	mult	t2,t1
540047fc:	00004010 	mfhi	t0
54004800:	02e7b824 	and	s7,s7,a3
54004804:	00081883 	sra	v1,t0,0x2
54004808:	10c200c9 	beq	a2,v0,54004b30 <popupalphaimage+0x3d8>
5400480c:	00648023 	subu	s0,v1,a0
54004810:	28d80002 	slti	t8,a2,2
54004814:	17000097 	bnez	t8,54004a74 <popupalphaimage+0x31c>
54004818:	00000000 	nop
5400481c:	24110002 	li	s1,2
54004820:	10d100e7 	beq	a2,s1,54004bc0 <popupalphaimage+0x468>
54004824:	00000000 	nop
54004828:	24120003 	li	s2,3
5400482c:	10d2000e 	beq	a2,s2,54004868 <popupalphaimage+0x110>
54004830:	8fbf0044 	lw	ra,68(sp)
54004834:	8fbf0084 	lw	ra,132(sp)
54004838:	8fbe0080 	lw	s8,128(sp)
5400483c:	8fb7007c 	lw	s7,124(sp)
54004840:	8fb60078 	lw	s6,120(sp)
54004844:	8fb50074 	lw	s5,116(sp)
54004848:	8fb40070 	lw	s4,112(sp)
5400484c:	8fb3006c 	lw	s3,108(sp)
54004850:	8fb20068 	lw	s2,104(sp)
54004854:	8fb10064 	lw	s1,100(sp)
54004858:	8fb00060 	lw	s0,96(sp)
5400485c:	00001021 	move	v0,zero
54004860:	03e00008 	jr	ra
54004864:	27bd0088 	addiu	sp,sp,136
54004868:	8fa4003c 	lw	a0,60(sp)
5400486c:	73f5b002 	mul	s6,ra,s5
54004870:	0d000867 	jal	5400219c <memcpy>
54004874:	00163040 	sll	a2,s6,0x1
54004878:	1bc0ffee 	blez	s8,54004834 <popupalphaimage+0xdc>
5400487c:	8fad0040 	lw	t5,64(sp)
54004880:	8fac0044 	lw	t4,68(sp)
54004884:	02972023 	subu	a0,s4,s7
54004888:	71ac4002 	mul	t0,t5,t4
5400488c:	02f45023 	subu	t2,s7,s4
54004890:	02f4382a 	slt	a3,s7,s4
54004894:	00045840 	sll	t3,a0,0x1
54004898:	00171840 	sll	v1,s7,0x1
5400489c:	010a4821 	addu	t1,t0,t2
540048a0:	00141040 	sll	v0,s4,0x1
540048a4:	afa70050 	sw	a3,80(sp)
540048a8:	03c09021 	move	s2,s8
540048ac:	0164b021 	addu	s6,t3,a0
540048b0:	00099840 	sll	s3,t1,0x1
540048b4:	0008a840 	sll	s5,t0,0x1
540048b8:	afa30048 	sw	v1,72(sp)
540048bc:	afa2004c 	sw	v0,76(sp)
540048c0:	8fae0050 	lw	t6,80(sp)
540048c4:	11c00064 	beqz	t6,54004a58 <popupalphaimage+0x300>
540048c8:	0000f021 	move	s8,zero
540048cc:	8faf0038 	lw	t7,56(sp)
540048d0:	8fa6003c 	lw	a2,60(sp)
540048d4:	8fa50048 	lw	a1,72(sp)
540048d8:	02cfc021 	addu	t8,s6,t7
540048dc:	02a6c821 	addu	t9,s5,a2
540048e0:	1000004e 	b	54004a1c <popupalphaimage+0x2c4>
540048e4:	00b78821 	addu	s1,a1,s7
540048e8:	93050004 	lbu	a1,4(t8)
540048ec:	93030001 	lbu	v1,1(t8)
540048f0:	93040003 	lbu	a0,3(t8)
540048f4:	872a0002 	lh	t2,2(t9)
540048f8:	930f0000 	lbu	t7,0(t8)
540048fc:	00051200 	sll	v0,a1,0x8
54004900:	00823025 	or	a2,a0,v0
54004904:	872b0000 	lh	t3,0(t9)
54004908:	00037200 	sll	t6,v1,0x8
5400490c:	93080005 	lbu	t0,5(t8)
54004910:	01ee2825 	or	a1,t7,t6
54004914:	93090002 	lbu	t1,2(t8)
54004918:	314ef800 	andi	t6,t2,0xf800
5400491c:	314f07e0 	andi	t7,t2,0x7e0
54004920:	30ccf800 	andi	t4,a2,0xf800
54004924:	30cd07e0 	andi	t5,a2,0x7e0
54004928:	25080001 	addiu	t0,t0,1
5400492c:	018ef823 	subu	ra,t4,t6
54004930:	01af3823 	subu	a3,t5,t7
54004934:	316cf800 	andi	t4,t3,0xf800
54004938:	316d07e0 	andi	t5,t3,0x7e0
5400493c:	314a001f 	andi	t2,t2,0x1f
54004940:	30a2f800 	andi	v0,a1,0xf800
54004944:	30a407e0 	andi	a0,a1,0x7e0
54004948:	30c6001f 	andi	a2,a2,0x1f
5400494c:	25290001 	addiu	t1,t1,1
54004950:	73e81802 	mul	v1,ra,t0
54004954:	316b001f 	andi	t3,t3,0x1f
54004958:	70e8f802 	mul	ra,a3,t0
5400495c:	004c1023 	subu	v0,v0,t4
54004960:	008d2023 	subu	a0,a0,t5
54004964:	00ca3023 	subu	a2,a2,t2
54004968:	30a5001f 	andi	a1,a1,0x1f
5400496c:	70491002 	mul	v0,v0,t1
54004970:	70c83002 	mul	a2,a2,t0
54004974:	70892002 	mul	a0,a0,t1
54004978:	00ab2823 	subu	a1,a1,t3
5400497c:	001f3a03 	sra	a3,ra,0x8
54004980:	70a92802 	mul	a1,a1,t1
54004984:	00034203 	sra	t0,v1,0x8
54004988:	71101802 	mul	v1,t0,s0
5400498c:	0002fa03 	sra	ra,v0,0x8
54004990:	70f04002 	mul	t0,a3,s0
54004994:	00042203 	sra	a0,a0,0x8
54004998:	00063203 	sra	a2,a2,0x8
5400499c:	73f01002 	mul	v0,ra,s0
540049a0:	70d03002 	mul	a2,a2,s0
540049a4:	7090f802 	mul	ra,a0,s0
540049a8:	00054a03 	sra	t1,a1,0x8
540049ac:	00031a83 	sra	v1,v1,0xa
540049b0:	71302802 	mul	a1,t1,s0
540049b4:	00083a83 	sra	a3,t0,0xa
540049b8:	006e4821 	addu	t1,v1,t6
540049bc:	00ef4021 	addu	t0,a3,t7
540049c0:	001f2283 	sra	a0,ra,0xa
540049c4:	00021283 	sra	v0,v0,0xa
540049c8:	00067283 	sra	t6,a2,0xa
540049cc:	004cf821 	addu	ra,v0,t4
540049d0:	01ca3021 	addu	a2,t6,t2
540049d4:	3123f800 	andi	v1,t1,0xf800
540049d8:	310707e0 	andi	a3,t0,0x7e0
540049dc:	008d7821 	addu	t7,a0,t5
540049e0:	00052a83 	sra	a1,a1,0xa
540049e4:	00ab6021 	addu	t4,a1,t3
540049e8:	33eef800 	andi	t6,ra,0xf800
540049ec:	00675825 	or	t3,v1,a3
540049f0:	31e407e0 	andi	a0,t7,0x7e0
540049f4:	30cd001f 	andi	t5,a2,0x1f
540049f8:	01c44825 	or	t1,t6,a0
540049fc:	016d4025 	or	t0,t3,t5
54004a00:	318a001f 	andi	t2,t4,0x1f
54004a04:	012a1025 	or	v0,t1,t2
54004a08:	00083c00 	sll	a3,t0,0x10
54004a0c:	00e21825 	or	v1,a3,v0
54004a10:	af230000 	sw	v1,0(t9)
54004a14:	27180006 	addiu	t8,t8,6
54004a18:	27390004 	addiu	t9,t9,4
54004a1c:	1e20ffb2 	bgtz	s1,540048e8 <popupalphaimage+0x190>
54004a20:	2631fffa 	addiu	s1,s1,-6
54004a24:	8fb90044 	lw	t9,68(sp)
54004a28:	00145840 	sll	t3,s4,0x1
54004a2c:	01748821 	addu	s1,t3,s4
54004a30:	0019c040 	sll	t8,t9,0x1
54004a34:	2652ffff 	addiu	s2,s2,-1
54004a38:	03d1f021 	addu	s8,s8,s1
54004a3c:	02789821 	addu	s3,s3,t8
54004a40:	02d1b021 	addu	s6,s6,s1
54004a44:	1240ff7b 	beqz	s2,54004834 <popupalphaimage+0xdc>
54004a48:	02b8a821 	addu	s5,s5,t8
54004a4c:	8fae0050 	lw	t6,80(sp)
54004a50:	15c0ff9f 	bnez	t6,540048d0 <popupalphaimage+0x178>
54004a54:	8faf0038 	lw	t7,56(sp)
54004a58:	8fb90038 	lw	t9,56(sp)
54004a5c:	8fb1003c 	lw	s1,60(sp)
54004a60:	8fbf004c 	lw	ra,76(sp)
54004a64:	03d9c021 	addu	t8,s8,t9
54004a68:	0271c821 	addu	t9,s3,s1
54004a6c:	1000ffeb 	b	54004a1c <popupalphaimage+0x2c4>
54004a70:	03f48821 	addu	s1,ra,s4
54004a74:	14c0ff70 	bnez	a2,54004838 <popupalphaimage+0xe0>
54004a78:	8fbf0084 	lw	ra,132(sp)
54004a7c:	8fab0044 	lw	t3,68(sp)
54004a80:	8fa4003c 	lw	a0,60(sp)
54004a84:	71755002 	mul	t2,t3,s5
54004a88:	0d000867 	jal	5400219c <memcpy>
54004a8c:	000a3040 	sll	a2,t2,0x1
54004a90:	8fa40040 	lw	a0,64(sp)
54004a94:	8e370020 	lw	s7,32(s1)
54004a98:	02a44823 	subu	t1,s5,a0
54004a9c:	71333802 	mul	a3,t1,s3
54004aa0:	afb40014 	sw	s4,20(sp)
54004aa4:	8fa80038 	lw	t0,56(sp)
54004aa8:	8fa3003c 	lw	v1,60(sp)
54004aac:	afb60030 	sw	s6,48(sp)
54004ab0:	00f2001a 	div	zero,a3,s2
54004ab4:	024001f4 	teq	s2,zero,0x7
54004ab8:	8fbf0044 	lw	ra,68(sp)
54004abc:	24020002 	li	v0,2
54004ac0:	27a40010 	addiu	a0,sp,16
54004ac4:	afa80010 	sw	t0,16(sp)
54004ac8:	afa30020 	sw	v1,32(sp)
54004acc:	afb70024 	sw	s7,36(sp)
54004ad0:	afa2001c 	sw	v0,28(sp)
54004ad4:	afbf0028 	sw	ra,40(sp)
54004ad8:	afb5002c 	sw	s5,44(sp)
54004adc:	0000c812 	mflo	t9
54004ae0:	0000a012 	mflo	s4
54004ae4:	033eb02a 	slt	s6,t9,s8
54004ae8:	03d6a00a 	movz	s4,s8,s6
54004aec:	02b99823 	subu	s3,s5,t9
54004af0:	afb40018 	sw	s4,24(sp)
54004af4:	0d00212e 	jal	540084b8 <fillfadeimagealphafun>
54004af8:	afb30034 	sw	s3,52(sp)
54004afc:	8fbf0084 	lw	ra,132(sp)
54004b00:	8fbe0080 	lw	s8,128(sp)
54004b04:	8fb7007c 	lw	s7,124(sp)
54004b08:	8fb60078 	lw	s6,120(sp)
54004b0c:	8fb50074 	lw	s5,116(sp)
54004b10:	8fb40070 	lw	s4,112(sp)
54004b14:	8fb3006c 	lw	s3,108(sp)
54004b18:	8fb20068 	lw	s2,104(sp)
54004b1c:	8fb10064 	lw	s1,100(sp)
54004b20:	8fb00060 	lw	s0,96(sp)
54004b24:	00001021 	move	v0,zero
54004b28:	03e00008 	jr	ra
54004b2c:	27bd0088 	addiu	sp,sp,136
54004b30:	8fb90044 	lw	t9,68(sp)
54004b34:	8fa4003c 	lw	a0,60(sp)
54004b38:	7335c002 	mul	t8,t9,s5
54004b3c:	0d000867 	jal	5400219c <memcpy>
54004b40:	00183040 	sll	a2,t8,0x1
54004b44:	8fb00040 	lw	s0,64(sp)
54004b48:	8e250020 	lw	a1,32(s1)
54004b4c:	03d07821 	addu	t7,s8,s0
54004b50:	71f37002 	mul	t6,t7,s3
54004b54:	8fa6003c 	lw	a2,60(sp)
54004b58:	240d0002 	li	t5,2
54004b5c:	afa60020 	sw	a2,32(sp)
54004b60:	afa50024 	sw	a1,36(sp)
54004b64:	01d2001a 	div	zero,t6,s2
54004b68:	024001f4 	teq	s2,zero,0x7
54004b6c:	afad001c 	sw	t5,28(sp)
54004b70:	afb60030 	sw	s6,48(sp)
54004b74:	00001812 	mflo	v1
54004b78:	007e602a 	slt	t4,v1,s8
54004b7c:	11800087 	beqz	t4,54004d9c <popupalphaimage+0x644>
54004b80:	afb40014 	sw	s4,20(sp)
54004b84:	03c31023 	subu	v0,s8,v1
54004b88:	afa30018 	sw	v1,24(sp)
54004b8c:	afa00034 	sw	zero,52(sp)
54004b90:	72829802 	mul	s3,s4,v0
54004b94:	8fb20038 	lw	s2,56(sp)
54004b98:	8fb40044 	lw	s4,68(sp)
54004b9c:	afb5002c 	sw	s5,44(sp)
54004ba0:	27a40010 	addiu	a0,sp,16
54004ba4:	0013f040 	sll	s8,s3,0x1
54004ba8:	03d2a821 	addu	s5,s8,s2
54004bac:	afb40028 	sw	s4,40(sp)
54004bb0:	0d00212e 	jal	540084b8 <fillfadeimagealphafun>
54004bb4:	afb50010 	sw	s5,16(sp)
54004bb8:	1000ffd1 	b	54004b00 <popupalphaimage+0x3a8>
54004bbc:	8fbf0084 	lw	ra,132(sp)
54004bc0:	8fb30044 	lw	s3,68(sp)
54004bc4:	8fa4003c 	lw	a0,60(sp)
54004bc8:	72759002 	mul	s2,s3,s5
54004bcc:	0d000867 	jal	5400219c <memcpy>
54004bd0:	00123040 	sll	a2,s2,0x1
54004bd4:	1bc0ff17 	blez	s8,54004834 <popupalphaimage+0xdc>
54004bd8:	00009021 	move	s2,zero
54004bdc:	8fb60044 	lw	s6,68(sp)
54004be0:	02f4482a 	slt	t1,s7,s4
54004be4:	02d7a823 	subu	s5,s6,s7
54004be8:	afb50058 	sw	s5,88(sp)
54004bec:	afa90054 	sw	t1,84(sp)
54004bf0:	0017a840 	sll	s5,s7,0x1
54004bf4:	0014b040 	sll	s6,s4,0x1
54004bf8:	00009821 	move	s3,zero
54004bfc:	00000000 	nop
54004c00:	8fa40040 	lw	a0,64(sp)
54004c04:	8fae0044 	lw	t6,68(sp)
54004c08:	02441821 	addu	v1,s2,a0
54004c0c:	706e7802 	mul	t7,v1,t6
54004c10:	8fa80058 	lw	t0,88(sp)
54004c14:	8faa0054 	lw	t2,84(sp)
54004c18:	8fbf003c 	lw	ra,60(sp)
54004c1c:	8fa70038 	lw	a3,56(sp)
54004c20:	01e86021 	addu	t4,t7,t0
54004c24:	02b78821 	addu	s1,s5,s7
54004c28:	02d43021 	addu	a2,s6,s4
54004c2c:	000c6840 	sll	t5,t4,0x1
54004c30:	00ca880a 	movz	s1,a2,t2
54004c34:	01bfc821 	addu	t9,t5,ra
54004c38:	1000004e 	b	54004d74 <popupalphaimage+0x61c>
54004c3c:	0267c021 	addu	t8,s3,a3
54004c40:	93050004 	lbu	a1,4(t8)
54004c44:	93030001 	lbu	v1,1(t8)
54004c48:	93040003 	lbu	a0,3(t8)
54004c4c:	872a0002 	lh	t2,2(t9)
54004c50:	930f0000 	lbu	t7,0(t8)
54004c54:	00051200 	sll	v0,a1,0x8
54004c58:	00823025 	or	a2,a0,v0
54004c5c:	00037200 	sll	t6,v1,0x8
54004c60:	93080005 	lbu	t0,5(t8)
54004c64:	01ee2825 	or	a1,t7,t6
54004c68:	30ccf800 	andi	t4,a2,0xf800
54004c6c:	314ef800 	andi	t6,t2,0xf800
54004c70:	25080001 	addiu	t0,t0,1
54004c74:	018ef823 	subu	ra,t4,t6
54004c78:	872b0000 	lh	t3,0(t9)
54004c7c:	73e81802 	mul	v1,ra,t0
54004c80:	314f07e0 	andi	t7,t2,0x7e0
54004c84:	93090002 	lbu	t1,2(t8)
54004c88:	30cd07e0 	andi	t5,a2,0x7e0
54004c8c:	01af3823 	subu	a3,t5,t7
54004c90:	316cf800 	andi	t4,t3,0xf800
54004c94:	316d07e0 	andi	t5,t3,0x7e0
54004c98:	314a001f 	andi	t2,t2,0x1f
54004c9c:	30a2f800 	andi	v0,a1,0xf800
54004ca0:	30a407e0 	andi	a0,a1,0x7e0
54004ca4:	30c6001f 	andi	a2,a2,0x1f
54004ca8:	25290001 	addiu	t1,t1,1
54004cac:	70e8f802 	mul	ra,a3,t0
54004cb0:	316b001f 	andi	t3,t3,0x1f
54004cb4:	30a5001f 	andi	a1,a1,0x1f
54004cb8:	004c1023 	subu	v0,v0,t4
54004cbc:	008d2023 	subu	a0,a0,t5
54004cc0:	00ca3023 	subu	a2,a2,t2
54004cc4:	70c83002 	mul	a2,a2,t0
54004cc8:	70491002 	mul	v0,v0,t1
54004ccc:	00ab4023 	subu	t0,a1,t3
54004cd0:	70892002 	mul	a0,a0,t1
54004cd4:	00031a03 	sra	v1,v1,0x8
54004cd8:	71092802 	mul	a1,t0,t1
54004cdc:	70704002 	mul	t0,v1,s0
54004ce0:	001f3a03 	sra	a3,ra,0x8
54004ce4:	70f0f802 	mul	ra,a3,s0
54004ce8:	00044a03 	sra	t1,a0,0x8
54004cec:	00063203 	sra	a2,a2,0x8
54004cf0:	00021203 	sra	v0,v0,0x8
54004cf4:	70501002 	mul	v0,v0,s0
54004cf8:	71302002 	mul	a0,t1,s0
54004cfc:	00052a03 	sra	a1,a1,0x8
54004d00:	70d04802 	mul	t1,a2,s0
54004d04:	00081a83 	sra	v1,t0,0xa
54004d08:	70b04002 	mul	t0,a1,s0
54004d0c:	001f3a83 	sra	a3,ra,0xa
54004d10:	00ef3821 	addu	a3,a3,t7
54004d14:	006ef821 	addu	ra,v1,t6
54004d18:	00093283 	sra	a2,t1,0xa
54004d1c:	00027a83 	sra	t7,v0,0xa
54004d20:	00042283 	sra	a0,a0,0xa
54004d24:	01ec1021 	addu	v0,t7,t4
54004d28:	00082a83 	sra	a1,t0,0xa
54004d2c:	30e907e0 	andi	t1,a3,0x7e0
54004d30:	008d7021 	addu	t6,a0,t5
54004d34:	00ca7821 	addu	t7,a2,t2
54004d38:	33e3f800 	andi	v1,ra,0xf800
54004d3c:	00ab6821 	addu	t5,a1,t3
54004d40:	304af800 	andi	t2,v0,0xf800
54004d44:	00696025 	or	t4,v1,t1
54004d48:	31c807e0 	andi	t0,t6,0x7e0
54004d4c:	31e6001f 	andi	a2,t7,0x1f
54004d50:	01483825 	or	a3,t2,t0
54004d54:	01864825 	or	t1,t4,a2
54004d58:	31bf001f 	andi	ra,t5,0x1f
54004d5c:	00ff1025 	or	v0,a3,ra
54004d60:	00095c00 	sll	t3,t1,0x10
54004d64:	01622825 	or	a1,t3,v0
54004d68:	af250000 	sw	a1,0(t9)
54004d6c:	27180006 	addiu	t8,t8,6
54004d70:	27390004 	addiu	t9,t9,4
54004d74:	1e20ffb2 	bgtz	s1,54004c40 <popupalphaimage+0x4e8>
54004d78:	2631fffa 	addiu	s1,s1,-6
54004d7c:	26520001 	addiu	s2,s2,1
54004d80:	0014c840 	sll	t9,s4,0x1
54004d84:	03348821 	addu	s1,t9,s4
54004d88:	025ec02a 	slt	t8,s2,s8
54004d8c:	1700ff9c 	bnez	t8,54004c00 <popupalphaimage+0x4a8>
54004d90:	02719821 	addu	s3,s3,s1
54004d94:	1000fea8 	b	54004838 <popupalphaimage+0xe0>
54004d98:	8fbf0084 	lw	ra,132(sp)
54004d9c:	007e8823 	subu	s1,v1,s8
54004da0:	00001021 	move	v0,zero
54004da4:	afb10034 	sw	s1,52(sp)
54004da8:	1000ff79 	b	54004b90 <popupalphaimage+0x438>
54004dac:	afbe0018 	sw	s8,24(sp)

54004db0 <popupimage>:
54004db0:	27bdff90 	addiu	sp,sp,-112
54004db4:	3c0b6666 	lui	t3,0x6666
54004db8:	afb60060 	sw	s6,96(sp)
54004dbc:	afb1004c 	sw	s1,76(sp)
54004dc0:	afb00048 	sw	s0,72(sp)
54004dc4:	afbf006c 	sw	ra,108(sp)
54004dc8:	afbe0068 	sw	s8,104(sp)
54004dcc:	afb70064 	sw	s7,100(sp)
54004dd0:	afb5005c 	sw	s5,92(sp)
54004dd4:	afb40058 	sw	s4,88(sp)
54004dd8:	afb30054 	sw	s3,84(sp)
54004ddc:	afb20050 	sw	s2,80(sp)
54004de0:	8c9e000c 	lw	s8,12(a0)
54004de4:	8c950030 	lw	s5,48(a0)
54004de8:	8c930018 	lw	s3,24(a0)
54004dec:	03d58021 	addu	s0,s8,s5
54004df0:	72133002 	mul	a2,s0,s3
54004df4:	8c920014 	lw	s2,20(a0)
54004df8:	8c8f0020 	lw	t7,32(a0)
54004dfc:	35696667 	ori	t1,t3,0x6667
54004e00:	000f5280 	sll	t2,t7,0xa
54004e04:	00d2001a 	div	zero,a2,s2
54004e08:	024001f4 	teq	s2,zero,0x7
54004e0c:	00808821 	move	s1,a0
54004e10:	8c86001c 	lw	a2,28(a0)
54004e14:	8e250004 	lw	a1,4(s1)
54004e18:	8e2e0024 	lw	t6,36(s1)
54004e1c:	8e2d0034 	lw	t5,52(s1)
54004e20:	8e2c0028 	lw	t4,40(s1)
54004e24:	000a27c3 	sra	a0,t2,0x1f
54004e28:	2407fffc 	li	a3,-4
54004e2c:	24020001 	li	v0,1
54004e30:	afa50038 	sw	a1,56(sp)
54004e34:	afae003c 	sw	t6,60(sp)
54004e38:	8e250008 	lw	a1,8(s1)
54004e3c:	8e370010 	lw	s7,16(s1)
54004e40:	afad0040 	sw	t5,64(sp)
54004e44:	afac0044 	sw	t4,68(sp)
54004e48:	8e34002c 	lw	s4,44(s1)
54004e4c:	0000b012 	mflo	s6
54004e50:	01490018 	mult	t2,t1
54004e54:	00004010 	mfhi	t0
54004e58:	02c7b024 	and	s6,s6,a3
54004e5c:	00081883 	sra	v1,t0,0x2
54004e60:	10c200a7 	beq	a2,v0,54005100 <popupimage+0x350>
54004e64:	00648023 	subu	s0,v1,a0
54004e68:	28d80002 	slti	t8,a2,2
54004e6c:	17000075 	bnez	t8,54005044 <popupimage+0x294>
54004e70:	00000000 	nop
54004e74:	24110002 	li	s1,2
54004e78:	10d100c5 	beq	a2,s1,54005190 <popupimage+0x3e0>
54004e7c:	24120003 	li	s2,3
54004e80:	10d2000e 	beq	a2,s2,54004ebc <popupimage+0x10c>
54004e84:	8fa20044 	lw	v0,68(sp)
54004e88:	8fbf006c 	lw	ra,108(sp)
54004e8c:	8fbe0068 	lw	s8,104(sp)
54004e90:	8fb70064 	lw	s7,100(sp)
54004e94:	8fb60060 	lw	s6,96(sp)
54004e98:	8fb5005c 	lw	s5,92(sp)
54004e9c:	8fb40058 	lw	s4,88(sp)
54004ea0:	8fb30054 	lw	s3,84(sp)
54004ea4:	8fb20050 	lw	s2,80(sp)
54004ea8:	8fb1004c 	lw	s1,76(sp)
54004eac:	8fb00048 	lw	s0,72(sp)
54004eb0:	00001021 	move	v0,zero
54004eb4:	03e00008 	jr	ra
54004eb8:	27bd0070 	addiu	sp,sp,112
54004ebc:	7054f802 	mul	ra,v0,s4
54004ec0:	001f3040 	sll	a2,ra,0x1
54004ec4:	0d000867 	jal	5400219c <memcpy>
54004ec8:	8fa4003c 	lw	a0,60(sp)
54004ecc:	1ae0ffee 	blez	s7,54004e88 <popupimage+0xd8>
54004ed0:	8faa0040 	lw	t2,64(sp)
54004ed4:	8fa40044 	lw	a0,68(sp)
54004ed8:	02de4023 	subu	t0,s6,s8
54004edc:	71443802 	mul	a3,t2,a0
54004ee0:	03d64823 	subu	t1,s8,s6
54004ee4:	02e09021 	move	s2,s7
54004ee8:	0009a840 	sll	s5,t1,0x1
54004eec:	02dec82a 	slt	t9,s6,s8
54004ef0:	00e81821 	addu	v1,a3,t0
54004ef4:	0003a040 	sll	s4,v1,0x1
54004ef8:	00079840 	sll	s3,a3,0x1
54004efc:	0000b821 	move	s7,zero
54004f00:	1320004a 	beqz	t9,5400502c <popupimage+0x27c>
54004f04:	001ec040 	sll	t8,s8,0x1
54004f08:	8fac0038 	lw	t4,56(sp)
54004f0c:	8fab003c 	lw	t3,60(sp)
54004f10:	02ac7821 	addu	t7,s5,t4
54004f14:	026b7021 	addu	t6,s3,t3
54004f18:	10000038 	b	54004ffc <popupimage+0x24c>
54004f1c:	00168840 	sll	s1,s6,0x1
54004f20:	85e20002 	lh	v0,2(t7)
54004f24:	85c80002 	lh	t0,2(t6)
54004f28:	85e50000 	lh	a1,0(t7)
54004f2c:	85c90000 	lh	t1,0(t6)
54004f30:	310cf800 	andi	t4,t0,0xf800
54004f34:	310d07e0 	andi	t5,t0,0x7e0
54004f38:	304af800 	andi	t2,v0,0xf800
54004f3c:	304b07e0 	andi	t3,v0,0x7e0
54004f40:	3108001f 	andi	t0,t0,0x1f
54004f44:	014c1823 	subu	v1,t2,t4
54004f48:	016d3823 	subu	a3,t3,t5
54004f4c:	312af800 	andi	t2,t1,0xf800
54004f50:	312b07e0 	andi	t3,t1,0x7e0
54004f54:	30bff800 	andi	ra,a1,0xf800
54004f58:	30a607e0 	andi	a2,a1,0x7e0
54004f5c:	3044001f 	andi	a0,v0,0x1f
54004f60:	3129001f 	andi	t1,t1,0x1f
54004f64:	03ea1023 	subu	v0,ra,t2
54004f68:	00882023 	subu	a0,a0,t0
54004f6c:	00cbf823 	subu	ra,a2,t3
54004f70:	70701802 	mul	v1,v1,s0
54004f74:	70f03802 	mul	a3,a3,s0
54004f78:	30a5001f 	andi	a1,a1,0x1f
54004f7c:	73f03002 	mul	a2,ra,s0
54004f80:	00a92823 	subu	a1,a1,t1
54004f84:	7090f802 	mul	ra,a0,s0
54004f88:	70501002 	mul	v0,v0,s0
54004f8c:	00073a83 	sra	a3,a3,0xa
54004f90:	70b02802 	mul	a1,a1,s0
54004f94:	00031a83 	sra	v1,v1,0xa
54004f98:	006c1821 	addu	v1,v1,t4
54004f9c:	00021283 	sra	v0,v0,0xa
54004fa0:	00ed6021 	addu	t4,a3,t5
54004fa4:	00063283 	sra	a2,a2,0xa
54004fa8:	001f2283 	sra	a0,ra,0xa
54004fac:	00cb6821 	addu	t5,a2,t3
54004fb0:	004af821 	addu	ra,v0,t2
54004fb4:	318707e0 	andi	a3,t4,0x7e0
54004fb8:	00882021 	addu	a0,a0,t0
54004fbc:	00052a83 	sra	a1,a1,0xa
54004fc0:	3068f800 	andi	t0,v1,0xf800
54004fc4:	00a95021 	addu	t2,a1,t1
54004fc8:	01071825 	or	v1,t0,a3
54004fcc:	33ebf800 	andi	t3,ra,0xf800
54004fd0:	31ac07e0 	andi	t4,t5,0x7e0
54004fd4:	3089001f 	andi	t1,a0,0x1f
54004fd8:	016c1025 	or	v0,t3,t4
54004fdc:	00693825 	or	a3,v1,t1
54004fe0:	3148001f 	andi	t0,t2,0x1f
54004fe4:	0048f825 	or	ra,v0,t0
54004fe8:	00073400 	sll	a2,a3,0x10
54004fec:	00df2825 	or	a1,a2,ra
54004ff0:	adc50000 	sw	a1,0(t6)
54004ff4:	25ef0004 	addiu	t7,t7,4
54004ff8:	25ce0004 	addiu	t6,t6,4
54004ffc:	1e20ffc8 	bgtz	s1,54004f20 <popupimage+0x170>
54005000:	2631fffc 	addiu	s1,s1,-4
54005004:	8fb10044 	lw	s1,68(sp)
54005008:	2652ffff 	addiu	s2,s2,-1
5400500c:	00117840 	sll	t7,s1,0x1
54005010:	028fa021 	addu	s4,s4,t7
54005014:	02b8a821 	addu	s5,s5,t8
54005018:	02f8b821 	addu	s7,s7,t8
5400501c:	1240ff9a 	beqz	s2,54004e88 <popupimage+0xd8>
54005020:	026f9821 	addu	s3,s3,t7
54005024:	1720ffb9 	bnez	t9,54004f0c <popupimage+0x15c>
54005028:	8fac0038 	lw	t4,56(sp)
5400502c:	8fae0038 	lw	t6,56(sp)
54005030:	8fad003c 	lw	t5,60(sp)
54005034:	02ee7821 	addu	t7,s7,t6
54005038:	001e8840 	sll	s1,s8,0x1
5400503c:	1000ffef 	b	54004ffc <popupimage+0x24c>
54005040:	028d7021 	addu	t6,s4,t5
54005044:	14c0ff91 	bnez	a2,54004e8c <popupimage+0xdc>
54005048:	8fbf006c 	lw	ra,108(sp)
5400504c:	8fab0044 	lw	t3,68(sp)
54005050:	8fa4003c 	lw	a0,60(sp)
54005054:	71745002 	mul	t2,t3,s4
54005058:	0d000867 	jal	5400219c <memcpy>
5400505c:	000a3040 	sll	a2,t2,0x1
54005060:	8fa40040 	lw	a0,64(sp)
54005064:	8e360020 	lw	s6,32(s1)
54005068:	02844823 	subu	t1,s4,a0
5400506c:	71333802 	mul	a3,t1,s3
54005070:	afb50030 	sw	s5,48(sp)
54005074:	8fa80038 	lw	t0,56(sp)
54005078:	afbe0014 	sw	s8,20(sp)
5400507c:	8fa3003c 	lw	v1,60(sp)
54005080:	00f2001a 	div	zero,a3,s2
54005084:	024001f4 	teq	s2,zero,0x7
54005088:	8fbf0044 	lw	ra,68(sp)
5400508c:	24020002 	li	v0,2
54005090:	27a40010 	addiu	a0,sp,16
54005094:	afa80010 	sw	t0,16(sp)
54005098:	afa30020 	sw	v1,32(sp)
5400509c:	afb60024 	sw	s6,36(sp)
540050a0:	afa2001c 	sw	v0,28(sp)
540050a4:	afbf0028 	sw	ra,40(sp)
540050a8:	afb4002c 	sw	s4,44(sp)
540050ac:	0000c812 	mflo	t9
540050b0:	0000a812 	mflo	s5
540050b4:	0337f02a 	slt	s8,t9,s7
540050b8:	02fea80a 	movz	s5,s7,s8
540050bc:	02999823 	subu	s3,s4,t9
540050c0:	afb50018 	sw	s5,24(sp)
540050c4:	0d0021ac 	jal	540086b0 <fillfadeimagefun>
540050c8:	afb30034 	sw	s3,52(sp)
540050cc:	8fbf006c 	lw	ra,108(sp)
540050d0:	8fbe0068 	lw	s8,104(sp)
540050d4:	8fb70064 	lw	s7,100(sp)
540050d8:	8fb60060 	lw	s6,96(sp)
540050dc:	8fb5005c 	lw	s5,92(sp)
540050e0:	8fb40058 	lw	s4,88(sp)
540050e4:	8fb30054 	lw	s3,84(sp)
540050e8:	8fb20050 	lw	s2,80(sp)
540050ec:	8fb1004c 	lw	s1,76(sp)
540050f0:	8fb00048 	lw	s0,72(sp)
540050f4:	00001021 	move	v0,zero
540050f8:	03e00008 	jr	ra
540050fc:	27bd0070 	addiu	sp,sp,112
54005100:	8fb90044 	lw	t9,68(sp)
54005104:	8fa4003c 	lw	a0,60(sp)
54005108:	7334c002 	mul	t8,t9,s4
5400510c:	0d000867 	jal	5400219c <memcpy>
54005110:	00183040 	sll	a2,t8,0x1
54005114:	8fb00040 	lw	s0,64(sp)
54005118:	8e250020 	lw	a1,32(s1)
5400511c:	02f07821 	addu	t7,s7,s0
54005120:	71f37002 	mul	t6,t7,s3
54005124:	8fa6003c 	lw	a2,60(sp)
54005128:	240d0002 	li	t5,2
5400512c:	afa60020 	sw	a2,32(sp)
54005130:	afa50024 	sw	a1,36(sp)
54005134:	01d2001a 	div	zero,t6,s2
54005138:	024001f4 	teq	s2,zero,0x7
5400513c:	afad001c 	sw	t5,28(sp)
54005140:	afb50030 	sw	s5,48(sp)
54005144:	00001812 	mflo	v1
54005148:	0077602a 	slt	t4,v1,s7
5400514c:	1180006a 	beqz	t4,540052f8 <popupimage+0x548>
54005150:	afbe0014 	sw	s8,20(sp)
54005154:	02e31023 	subu	v0,s7,v1
54005158:	afa30018 	sw	v1,24(sp)
5400515c:	afa00034 	sw	zero,52(sp)
54005160:	73c29802 	mul	s3,s8,v0
54005164:	8fb20038 	lw	s2,56(sp)
54005168:	8fb50044 	lw	s5,68(sp)
5400516c:	afb4002c 	sw	s4,44(sp)
54005170:	27a40010 	addiu	a0,sp,16
54005174:	0013b840 	sll	s7,s3,0x1
54005178:	02f2a021 	addu	s4,s7,s2
5400517c:	afb50028 	sw	s5,40(sp)
54005180:	0d0021ac 	jal	540086b0 <fillfadeimagefun>
54005184:	afb40010 	sw	s4,16(sp)
54005188:	1000ffd1 	b	540050d0 <popupimage+0x320>
5400518c:	8fbf006c 	lw	ra,108(sp)
54005190:	8fb90044 	lw	t9,68(sp)
54005194:	8fa4003c 	lw	a0,60(sp)
54005198:	7334c002 	mul	t8,t9,s4
5400519c:	00008821 	move	s1,zero
540051a0:	0d000867 	jal	5400219c <memcpy>
540051a4:	00183040 	sll	a2,t8,0x1
540051a8:	1ae0ff37 	blez	s7,54004e88 <popupimage+0xd8>
540051ac:	8fb20044 	lw	s2,68(sp)
540051b0:	02dea02a 	slt	s4,s6,s8
540051b4:	0256a823 	subu	s5,s2,s6
540051b8:	001e9840 	sll	s3,s8,0x1
540051bc:	00009021 	move	s2,zero
540051c0:	8fa70040 	lw	a3,64(sp)
540051c4:	8fa50044 	lw	a1,68(sp)
540051c8:	02274821 	addu	t1,s1,a3
540051cc:	7125f802 	mul	ra,t1,a1
540051d0:	8fac003c 	lw	t4,60(sp)
540051d4:	8fad0038 	lw	t5,56(sp)
540051d8:	0016c040 	sll	t8,s6,0x1
540051dc:	001e3040 	sll	a2,s8,0x1
540051e0:	03f57021 	addu	t6,ra,s5
540051e4:	000e2040 	sll	a0,t6,0x1
540051e8:	00d4c00a 	movz	t8,a2,s4
540051ec:	008c7021 	addu	t6,a0,t4
540051f0:	10000039 	b	540052d8 <popupimage+0x528>
540051f4:	024d7821 	addu	t7,s2,t5
540051f8:	85ff0002 	lh	ra,2(t7)
540051fc:	85c80002 	lh	t0,2(t6)
54005200:	85e50000 	lh	a1,0(t7)
54005204:	85c90000 	lh	t1,0(t6)
54005208:	3119f800 	andi	t9,t0,0xf800
5400520c:	310d07e0 	andi	t5,t0,0x7e0
54005210:	33eaf800 	andi	t2,ra,0xf800
54005214:	33eb07e0 	andi	t3,ra,0x7e0
54005218:	01591823 	subu	v1,t2,t9
5400521c:	016d3823 	subu	a3,t3,t5
54005220:	312af800 	andi	t2,t1,0xf800
54005224:	312b07e0 	andi	t3,t1,0x7e0
54005228:	3108001f 	andi	t0,t0,0x1f
5400522c:	33e4001f 	andi	a0,ra,0x1f
54005230:	30a2f800 	andi	v0,a1,0xf800
54005234:	30a607e0 	andi	a2,a1,0x7e0
54005238:	70706002 	mul	t4,v1,s0
5400523c:	70f0f802 	mul	ra,a3,s0
54005240:	3129001f 	andi	t1,t1,0x1f
54005244:	004a1023 	subu	v0,v0,t2
54005248:	00cb3023 	subu	a2,a2,t3
5400524c:	00882023 	subu	a0,a0,t0
54005250:	30a5001f 	andi	a1,a1,0x1f
54005254:	70d03002 	mul	a2,a2,s0
54005258:	70902002 	mul	a0,a0,s0
5400525c:	70501002 	mul	v0,v0,s0
54005260:	00a92823 	subu	a1,a1,t1
54005264:	000c1a83 	sra	v1,t4,0xa
54005268:	70b02802 	mul	a1,a1,s0
5400526c:	001f3a83 	sra	a3,ra,0xa
54005270:	00066283 	sra	t4,a2,0xa
54005274:	0079f821 	addu	ra,v1,t9
54005278:	00021283 	sra	v0,v0,0xa
5400527c:	00edc821 	addu	t9,a3,t5
54005280:	00046a83 	sra	t5,a0,0xa
54005284:	004a1021 	addu	v0,v0,t2
54005288:	33e3f800 	andi	v1,ra,0xf800
5400528c:	018b5021 	addu	t2,t4,t3
54005290:	332707e0 	andi	a3,t9,0x7e0
54005294:	01a85821 	addu	t3,t5,t0
54005298:	00052a83 	sra	a1,a1,0xa
5400529c:	00676025 	or	t4,v1,a3
540052a0:	314607e0 	andi	a2,t2,0x7e0
540052a4:	3164001f 	andi	a0,t3,0x1f
540052a8:	00a96821 	addu	t5,a1,t1
540052ac:	305ff800 	andi	ra,v0,0xf800
540052b0:	03e61025 	or	v0,ra,a2
540052b4:	01844025 	or	t0,t4,a0
540052b8:	31b9001f 	andi	t9,t5,0x1f
540052bc:	00595025 	or	t2,v0,t9
540052c0:	00085c00 	sll	t3,t0,0x10
540052c4:	016a1825 	or	v1,t3,t2
540052c8:	adc30000 	sw	v1,0(t6)
540052cc:	2718fffc 	addiu	t8,t8,-4
540052d0:	25ef0004 	addiu	t7,t7,4
540052d4:	25ce0004 	addiu	t6,t6,4
540052d8:	1f00ffc7 	bgtz	t8,540051f8 <popupimage+0x448>
540052dc:	00000000 	nop
540052e0:	26310001 	addiu	s1,s1,1
540052e4:	0237782a 	slt	t7,s1,s7
540052e8:	15e0ffb5 	bnez	t7,540051c0 <popupimage+0x410>
540052ec:	02539021 	addu	s2,s2,s3
540052f0:	1000fee6 	b	54004e8c <popupimage+0xdc>
540052f4:	8fbf006c 	lw	ra,108(sp)
540052f8:	00778823 	subu	s1,v1,s7
540052fc:	00001021 	move	v0,zero
54005300:	afb10034 	sw	s1,52(sp)
54005304:	1000ff96 	b	54005160 <popupimage+0x3b0>
54005308:	afb70018 	sw	s7,24(sp)
5400530c:	00000000 	nop

54005310 <moveimage>:
54005310:	27bdff98 	addiu	sp,sp,-104
54005314:	2406fffc 	li	a2,-4
54005318:	afb20048 	sw	s2,72(sp)
5400531c:	afb00040 	sw	s0,64(sp)
54005320:	afbf0064 	sw	ra,100(sp)
54005324:	afbe0060 	sw	s8,96(sp)
54005328:	afb7005c 	sw	s7,92(sp)
5400532c:	afb60058 	sw	s6,88(sp)
54005330:	afb50054 	sw	s5,84(sp)
54005334:	afb40050 	sw	s4,80(sp)
54005338:	afb3004c 	sw	s3,76(sp)
5400533c:	afb10044 	sw	s1,68(sp)
54005340:	8c870018 	lw	a3,24(a0)
54005344:	8c91000c 	lw	s1,12(a0)
54005348:	8c820014 	lw	v0,20(a0)
5400534c:	72276002 	mul	t4,s1,a3
54005350:	24e8ffff 	addiu	t0,a3,-1
54005354:	71111802 	mul	v1,t0,s1
54005358:	8c8b0024 	lw	t3,36(a0)
5400535c:	8c850000 	lw	a1,0(a0)
54005360:	8c88001c 	lw	t0,28(a0)
54005364:	24090002 	li	t1,2
54005368:	0182001a 	div	zero,t4,v0
5400536c:	004001f4 	teq	v0,zero,0x7
54005370:	8c8a002c 	lw	t2,44(a0)
54005374:	8c970004 	lw	s7,4(a0)
54005378:	8c930008 	lw	s3,8(a0)
5400537c:	afab0038 	sw	t3,56(sp)
54005380:	8c9e0010 	lw	s8,16(a0)
54005384:	afa5003c 	sw	a1,60(sp)
54005388:	8c950030 	lw	s5,48(a0)
5400538c:	8c960034 	lw	s6,52(a0)
54005390:	8c940028 	lw	s4,40(a0)
54005394:	00009012 	mflo	s2
54005398:	0062001a 	div	zero,v1,v0
5400539c:	004001f4 	teq	v0,zero,0x7
540053a0:	02469024 	and	s2,s2,a2
540053a4:	00008012 	mflo	s0
540053a8:	11090011 	beq	t0,t1,540053f0 <moveimage+0xe0>
540053ac:	02068024 	and	s0,s0,a2
540053b0:	24040003 	li	a0,3
540053b4:	11040050 	beq	t0,a0,540054f8 <moveimage+0x1e8>
540053b8:	240d0001 	li	t5,1
540053bc:	8fbf0064 	lw	ra,100(sp)
540053c0:	8fbe0060 	lw	s8,96(sp)
540053c4:	8fb7005c 	lw	s7,92(sp)
540053c8:	8fb60058 	lw	s6,88(sp)
540053cc:	8fb50054 	lw	s5,84(sp)
540053d0:	8fb40050 	lw	s4,80(sp)
540053d4:	8fb3004c 	lw	s3,76(sp)
540053d8:	8fb20048 	lw	s2,72(sp)
540053dc:	8fb10044 	lw	s1,68(sp)
540053e0:	8fb00040 	lw	s0,64(sp)
540053e4:	00001021 	move	v0,zero
540053e8:	03e00008 	jr	ra
540053ec:	27bd0068 	addiu	sp,sp,104
540053f0:	240e0001 	li	t6,1
540053f4:	10ee008f 	beq	a3,t6,54005634 <moveimage+0x324>
540053f8:	27a40010 	addiu	a0,sp,16
540053fc:	02503023 	subu	a2,s2,s0
54005400:	1bc0ffee 	blez	s8,540053bc <moveimage+0xac>
54005404:	00066840 	sll	t5,a2,0x1
54005408:	72d43802 	mul	a3,s6,s4
5400540c:	02307823 	subu	t7,s1,s0
54005410:	01f54821 	addu	t1,t7,s5
54005414:	8fab0038 	lw	t3,56(sp)
54005418:	000d2083 	sra	a0,t5,0x2
5400541c:	00e96021 	addu	t4,a3,t1
54005420:	00118840 	sll	s1,s1,0x1
54005424:	00f52821 	addu	a1,a3,s5
54005428:	00047080 	sll	t6,a0,0x2
5400542c:	00103040 	sll	a2,s0,0x1
54005430:	000c2040 	sll	a0,t4,0x1
54005434:	016d8021 	addu	s0,t3,t5
54005438:	03c05021 	move	t2,s8
5400543c:	00052840 	sll	a1,a1,0x1
54005440:	240f0009 	li	t7,9
54005444:	00005821 	move	t3,zero
54005448:	8fb5003c 	lw	s5,60(sp)
5400544c:	12af001a 	beq	s5,t7,540054b8 <moveimage+0x1a8>
54005450:	02206021 	move	t4,s1
54005454:	8fbe0038 	lw	s8,56(sp)
54005458:	00124840 	sll	t1,s2,0x1
5400545c:	009ef821 	addu	ra,a0,s8
54005460:	03ee4023 	subu	t0,ra,t6
54005464:	10000009 	b	5400548c <moveimage+0x17c>
54005468:	01733821 	addu	a3,t3,s3
5400546c:	00000000 	nop
54005470:	8ce20000 	lw	v0,0(a3)
54005474:	8ce30004 	lw	v1,4(a3)
54005478:	2529fff8 	addiu	t1,t1,-8
5400547c:	ad020000 	sw	v0,0(t0)
54005480:	ad030004 	sw	v1,4(t0)
54005484:	24e70008 	addiu	a3,a3,8
54005488:	25080008 	addiu	t0,t0,8
5400548c:	1d20fff8 	bgtz	t1,54005470 <moveimage+0x160>
54005490:	0014b040 	sll	s6,s4,0x1
54005494:	254affff 	addiu	t2,t2,-1
54005498:	00962021 	addu	a0,a0,s6
5400549c:	00cc3021 	addu	a2,a2,t4
540054a0:	00b62821 	addu	a1,a1,s6
540054a4:	1140ffc5 	beqz	t2,540053bc <moveimage+0xac>
540054a8:	016c5821 	addu	t3,t3,t4
540054ac:	8fb5003c 	lw	s5,60(sp)
540054b0:	16afffe9 	bne	s5,t7,54005458 <moveimage+0x148>
540054b4:	8fbe0038 	lw	s8,56(sp)
540054b8:	00b03821 	addu	a3,a1,s0
540054bc:	022d4823 	subu	t1,s1,t5
540054c0:	10000008 	b	540054e4 <moveimage+0x1d4>
540054c4:	00ee4023 	subu	t0,a3,t6
540054c8:	8cf90000 	lw	t9,0(a3)
540054cc:	8cf80004 	lw	t8,4(a3)
540054d0:	2529fff8 	addiu	t1,t1,-8
540054d4:	ad190000 	sw	t9,0(t0)
540054d8:	ad180004 	sw	t8,4(t0)
540054dc:	24e70008 	addiu	a3,a3,8
540054e0:	25080008 	addiu	t0,t0,8
540054e4:	1d20fff8 	bgtz	t1,540054c8 <moveimage+0x1b8>
540054e8:	00000000 	nop
540054ec:	01a04821 	move	t1,t5
540054f0:	1000ffe6 	b	5400548c <moveimage+0x17c>
540054f4:	00d33821 	addu	a3,a2,s3
540054f8:	10ed0041 	beq	a3,t5,54005600 <moveimage+0x2f0>
540054fc:	8fa70038 	lw	a3,56(sp)
54005500:	02504823 	subu	t1,s2,s0
54005504:	1bc0ffad 	blez	s8,540053bc <moveimage+0xac>
54005508:	00097040 	sll	t6,t1,0x1
5400550c:	72d4c802 	mul	t9,s6,s4
54005510:	00115040 	sll	t2,s1,0x1
54005514:	0230b023 	subu	s6,s1,s0
54005518:	8fb10038 	lw	s1,56(sp)
5400551c:	0255f821 	addu	ra,s2,s5
54005520:	03357821 	addu	t7,t9,s5
54005524:	033f9821 	addu	s3,t9,ra
54005528:	0151c021 	addu	t8,t2,s1
5400552c:	000ea883 	sra	s5,t6,0x2
54005530:	000f3840 	sll	a3,t7,0x1
54005534:	01406021 	move	t4,t2
54005538:	030e8823 	subu	s1,t8,t6
5400553c:	00158080 	sll	s0,s5,0x2
54005540:	00163040 	sll	a2,s6,0x1
54005544:	03c05821 	move	t3,s8
54005548:	00132040 	sll	a0,s3,0x1
5400554c:	014e2823 	subu	a1,t2,t6
54005550:	240f0009 	li	t7,9
54005554:	01406821 	move	t5,t2
54005558:	8fbe003c 	lw	s8,60(sp)
5400555c:	13cf0019 	beq	s8,t7,540055c4 <moveimage+0x2b4>
54005560:	00a05021 	move	t2,a1
54005564:	8faa0038 	lw	t2,56(sp)
54005568:	01974821 	addu	t1,t4,s7
5400556c:	008a4021 	addu	t0,a0,t2
54005570:	10000008 	b	54005594 <moveimage+0x284>
54005574:	00125040 	sll	t2,s2,0x1
54005578:	8d36fffc 	lw	s6,-4(t1)
5400557c:	8d33fff8 	lw	s3,-8(t1)
54005580:	254afff8 	addiu	t2,t2,-8
54005584:	ad16fffc 	sw	s6,-4(t0)
54005588:	ad13fff8 	sw	s3,-8(t0)
5400558c:	2529fff8 	addiu	t1,t1,-8
54005590:	2508fff8 	addiu	t0,t0,-8
54005594:	1d40fff8 	bgtz	t2,54005578 <moveimage+0x268>
54005598:	00000000 	nop
5400559c:	00144040 	sll	t0,s4,0x1
540055a0:	256bffff 	addiu	t3,t3,-1
540055a4:	00882021 	addu	a0,a0,t0
540055a8:	00cd3021 	addu	a2,a2,t5
540055ac:	018d6021 	addu	t4,t4,t5
540055b0:	1160ff82 	beqz	t3,540053bc <moveimage+0xac>
540055b4:	00e83821 	addu	a3,a3,t0
540055b8:	8fbe003c 	lw	s8,60(sp)
540055bc:	17cfffe9 	bne	s8,t7,54005564 <moveimage+0x254>
540055c0:	00a05021 	move	t2,a1
540055c4:	00f14821 	addu	t1,a3,s1
540055c8:	10000008 	b	540055ec <moveimage+0x2dc>
540055cc:	02094021 	addu	t0,s0,t1
540055d0:	8d22fffc 	lw	v0,-4(t1)
540055d4:	8d23fff8 	lw	v1,-8(t1)
540055d8:	254afff8 	addiu	t2,t2,-8
540055dc:	ad02fffc 	sw	v0,-4(t0)
540055e0:	ad03fff8 	sw	v1,-8(t0)
540055e4:	2529fff8 	addiu	t1,t1,-8
540055e8:	2508fff8 	addiu	t0,t0,-8
540055ec:	1d40fff8 	bgtz	t2,540055d0 <moveimage+0x2c0>
540055f0:	00000000 	nop
540055f4:	01c05021 	move	t2,t6
540055f8:	1000ffe6 	b	54005594 <moveimage+0x284>
540055fc:	00d74821 	addu	t1,a2,s7
54005600:	27a40010 	addiu	a0,sp,16
54005604:	afb30010 	sw	s3,16(sp)
54005608:	afa9001c 	sw	t1,28(sp)
5400560c:	afaa002c 	sw	t2,44(sp)
54005610:	afb10014 	sw	s1,20(sp)
54005614:	afbe0018 	sw	s8,24(sp)
54005618:	afa70020 	sw	a3,32(sp)
5400561c:	afb50030 	sw	s5,48(sp)
54005620:	afb60034 	sw	s6,52(sp)
54005624:	0d00237c 	jal	54008df0 <fillimagefun>
54005628:	afb40028 	sw	s4,40(sp)
5400562c:	1000ffb5 	b	54005504 <moveimage+0x1f4>
54005630:	02504823 	subu	t1,s2,s0
54005634:	afb70010 	sw	s7,16(sp)
54005638:	8fb70038 	lw	s7,56(sp)
5400563c:	afa8001c 	sw	t0,28(sp)
54005640:	afaa002c 	sw	t2,44(sp)
54005644:	afb10014 	sw	s1,20(sp)
54005648:	afbe0018 	sw	s8,24(sp)
5400564c:	afb70020 	sw	s7,32(sp)
54005650:	afb50030 	sw	s5,48(sp)
54005654:	afb60034 	sw	s6,52(sp)
54005658:	0d00237c 	jal	54008df0 <fillimagefun>
5400565c:	afb40028 	sw	s4,40(sp)
54005660:	1000ff67 	b	54005400 <moveimage+0xf0>
54005664:	02503023 	subu	a2,s2,s0

54005668 <movealphaimage>:
54005668:	27bdff90 	addiu	sp,sp,-112
5400566c:	2402fffc 	li	v0,-4
54005670:	afb30054 	sw	s3,84(sp)
54005674:	afbf006c 	sw	ra,108(sp)
54005678:	afbe0068 	sw	s8,104(sp)
5400567c:	afb70064 	sw	s7,100(sp)
54005680:	afb60060 	sw	s6,96(sp)
54005684:	afb5005c 	sw	s5,92(sp)
54005688:	afb40058 	sw	s4,88(sp)
5400568c:	afb20050 	sw	s2,80(sp)
54005690:	afb1004c 	sw	s1,76(sp)
54005694:	afb00048 	sw	s0,72(sp)
54005698:	8c92000c 	lw	s2,12(a0)
5400569c:	8c900018 	lw	s0,24(a0)
540056a0:	8c910014 	lw	s1,20(a0)
540056a4:	72503802 	mul	a3,s2,s0
540056a8:	8c860004 	lw	a2,4(a0)
540056ac:	8c83001c 	lw	v1,28(a0)
540056b0:	24050001 	li	a1,1
540056b4:	afa60038 	sw	a2,56(sp)
540056b8:	00f1001a 	div	zero,a3,s1
540056bc:	022001f4 	teq	s1,zero,0x7
540056c0:	8c960008 	lw	s6,8(a0)
540056c4:	8c950024 	lw	s5,36(a0)
540056c8:	8c940010 	lw	s4,16(a0)
540056cc:	00009812 	mflo	s3
540056d0:	10650015 	beq	v1,a1,54005728 <movealphaimage+0xc0>
540056d4:	02629824 	and	s3,s3,v0
540056d8:	28640002 	slti	a0,v1,2
540056dc:	1480009d 	bnez	a0,54005954 <movealphaimage+0x2ec>
540056e0:	24080002 	li	t0,2
540056e4:	10680043 	beq	v1,t0,540057f4 <movealphaimage+0x18c>
540056e8:	24090003 	li	t1,3
540056ec:	106900c1 	beq	v1,t1,540059f4 <movealphaimage+0x38c>
540056f0:	00000000 	nop
540056f4:	8fbf006c 	lw	ra,108(sp)
540056f8:	8fbe0068 	lw	s8,104(sp)
540056fc:	8fb70064 	lw	s7,100(sp)
54005700:	8fb60060 	lw	s6,96(sp)
54005704:	8fb5005c 	lw	s5,92(sp)
54005708:	8fb40058 	lw	s4,88(sp)
5400570c:	8fb30054 	lw	s3,84(sp)
54005710:	8fb20050 	lw	s2,80(sp)
54005714:	8fb1004c 	lw	s1,76(sp)
54005718:	8fb00048 	lw	s0,72(sp)
5400571c:	00001021 	move	v0,zero
54005720:	03e00008 	jr	ra
54005724:	27bd0070 	addiu	sp,sp,112
54005728:	120500fe 	beq	s0,a1,54005b24 <movealphaimage+0x4bc>
5400572c:	72544002 	mul	t0,s2,s4
54005730:	72907802 	mul	t7,s4,s0
54005734:	8fab0038 	lw	t3,56(sp)
54005738:	02a03821 	move	a3,s5
5400573c:	01f1001a 	div	zero,t7,s1
54005740:	022001f4 	teq	s1,zero,0x7
54005744:	00002812 	mflo	a1
54005748:	02857023 	subu	t6,s4,a1
5400574c:	71d26802 	mul	t5,t6,s2
54005750:	000d6040 	sll	t4,t5,0x1
54005754:	018d5021 	addu	t2,t4,t5
54005758:	31490003 	andi	t1,t2,0x3
5400575c:	15200051 	bnez	t1,540058a4 <movealphaimage+0x23c>
54005760:	016a3021 	addu	a2,t3,t2
54005764:	7245f002 	mul	s8,s2,a1
54005768:	2417fffc 	li	s7,-4
5400576c:	001e2840 	sll	a1,s8,0x1
54005770:	00be1821 	addu	v1,a1,s8
54005774:	10000007 	b	54005794 <movealphaimage+0x12c>
54005778:	00772024 	and	a0,v1,s7
5400577c:	00000000 	nop
54005780:	8cd00000 	lw	s0,0(a2)
54005784:	2484fffc 	addiu	a0,a0,-4
54005788:	acf00000 	sw	s0,0(a3)
5400578c:	24c60004 	addiu	a2,a2,4
54005790:	24e70004 	addiu	a3,a3,4
54005794:	1c80fffa 	bgtz	a0,54005780 <movealphaimage+0x118>
54005798:	00000000 	nop
5400579c:	10000007 	b	540057bc <movealphaimage+0x154>
540057a0:	30630003 	andi	v1,v1,0x3
540057a4:	00000000 	nop
540057a8:	90f10000 	lbu	s1,0(a3)
540057ac:	2463ffff 	addiu	v1,v1,-1
540057b0:	a0d10000 	sb	s1,0(a2)
540057b4:	24e70001 	addiu	a3,a3,1
540057b8:	24c60001 	addiu	a2,a2,1
540057bc:	1c60fffa 	bgtz	v1,540057a8 <movealphaimage+0x140>
540057c0:	8fbf006c 	lw	ra,108(sp)
540057c4:	8fbe0068 	lw	s8,104(sp)
540057c8:	8fb70064 	lw	s7,100(sp)
540057cc:	8fb60060 	lw	s6,96(sp)
540057d0:	8fb5005c 	lw	s5,92(sp)
540057d4:	8fb40058 	lw	s4,88(sp)
540057d8:	8fb30054 	lw	s3,84(sp)
540057dc:	8fb20050 	lw	s2,80(sp)
540057e0:	8fb1004c 	lw	s1,76(sp)
540057e4:	8fb00048 	lw	s0,72(sp)
540057e8:	00001021 	move	v0,zero
540057ec:	03e00008 	jr	ra
540057f0:	27bd0070 	addiu	sp,sp,112
540057f4:	120500d2 	beq	s0,a1,54005b40 <movealphaimage+0x4d8>
540057f8:	7254f002 	mul	s8,s2,s4
540057fc:	1a80ffbd 	blez	s4,540056f4 <movealphaimage+0x8c>
54005800:	02538023 	subu	s0,s2,s3
54005804:	00138840 	sll	s1,s3,0x1
54005808:	0010f840 	sll	ra,s0,0x1
5400580c:	0233b821 	addu	s7,s1,s3
54005810:	03f08821 	addu	s1,ra,s0
54005814:	00009821 	move	s3,zero
54005818:	02808021 	move	s0,s4
5400581c:	32540003 	andi	s4,s2,0x3
54005820:	02762821 	addu	a1,s3,s6
54005824:	02352021 	addu	a0,s1,s5
54005828:	12800008 	beqz	s4,5400584c <movealphaimage+0x1e4>
5400582c:	02e01821 	move	v1,s7
54005830:	10000012 	b	5400587c <movealphaimage+0x214>
54005834:	02a02021 	move	a0,s5
54005838:	8ca20000 	lw	v0,0(a1)
5400583c:	2463fffc 	addiu	v1,v1,-4
54005840:	ac820000 	sw	v0,0(a0)
54005844:	24a50004 	addiu	a1,a1,4
54005848:	24840004 	addiu	a0,a0,4
5400584c:	1c60fffa 	bgtz	v1,54005838 <movealphaimage+0x1d0>
54005850:	00125040 	sll	t2,s2,0x1
54005854:	01522021 	addu	a0,t2,s2
54005858:	2610ffff 	addiu	s0,s0,-1
5400585c:	02248821 	addu	s1,s1,a0
54005860:	1200ffa4 	beqz	s0,540056f4 <movealphaimage+0x8c>
54005864:	02649821 	addu	s3,s3,a0
54005868:	02762821 	addu	a1,s3,s6
5400586c:	02352021 	addu	a0,s1,s5
54005870:	1280fff6 	beqz	s4,5400584c <movealphaimage+0x1e4>
54005874:	02e01821 	move	v1,s7
54005878:	02a02021 	move	a0,s5
5400587c:	0d000867 	jal	5400219c <memcpy>
54005880:	02e03021 	move	a2,s7
54005884:	00125040 	sll	t2,s2,0x1
54005888:	01522021 	addu	a0,t2,s2
5400588c:	2610ffff 	addiu	s0,s0,-1
54005890:	02248821 	addu	s1,s1,a0
54005894:	1600fff4 	bnez	s0,54005868 <movealphaimage+0x200>
54005898:	02649821 	addu	s3,s3,a0
5400589c:	1000ff96 	b	540056f8 <movealphaimage+0x90>
540058a0:	8fbf006c 	lw	ra,108(sp)
540058a4:	7245b002 	mul	s6,s2,a1
540058a8:	2414fffc 	li	s4,-4
540058ac:	0016a840 	sll	s5,s6,0x1
540058b0:	02b69021 	addu	s2,s5,s6
540058b4:	02544024 	and	t0,s2,s4
540058b8:	1000000f 	b	540058f8 <movealphaimage+0x290>
540058bc:	32490003 	andi	t1,s2,0x3
540058c0:	90cc0001 	lbu	t4,1(a2)
540058c4:	90cb0000 	lbu	t3,0(a2)
540058c8:	90ca0002 	lbu	t2,2(a2)
540058cc:	90d30003 	lbu	s3,3(a2)
540058d0:	000c1a00 	sll	v1,t4,0x8
540058d4:	01631025 	or	v0,t3,v1
540058d8:	000a2400 	sll	a0,t2,0x10
540058dc:	0044c825 	or	t9,v0,a0
540058e0:	0013fe00 	sll	ra,s3,0x18
540058e4:	033fc025 	or	t8,t9,ra
540058e8:	acf80000 	sw	t8,0(a3)
540058ec:	2508fffc 	addiu	t0,t0,-4
540058f0:	24c60004 	addiu	a2,a2,4
540058f4:	24e70004 	addiu	a3,a3,4
540058f8:	1d00fff1 	bgtz	t0,540058c0 <movealphaimage+0x258>
540058fc:	01201821 	move	v1,t1
54005900:	10000006 	b	5400591c <movealphaimage+0x2b4>
54005904:	00000000 	nop
54005908:	8ee70000 	lw	a3,0(s7)
5400590c:	2463ffff 	addiu	v1,v1,-1
54005910:	afc70000 	sw	a3,0(s8)
54005914:	26f70004 	addiu	s7,s7,4
54005918:	27de0004 	addiu	s8,s8,4
5400591c:	1c60fffa 	bgtz	v1,54005908 <movealphaimage+0x2a0>
54005920:	8fbf006c 	lw	ra,108(sp)
54005924:	8fbe0068 	lw	s8,104(sp)
54005928:	8fb70064 	lw	s7,100(sp)
5400592c:	8fb60060 	lw	s6,96(sp)
54005930:	8fb5005c 	lw	s5,92(sp)
54005934:	8fb40058 	lw	s4,88(sp)
54005938:	8fb30054 	lw	s3,84(sp)
5400593c:	8fb20050 	lw	s2,80(sp)
54005940:	8fb1004c 	lw	s1,76(sp)
54005944:	8fb00048 	lw	s0,72(sp)
54005948:	00001021 	move	v0,zero
5400594c:	03e00008 	jr	ra
54005950:	27bd0070 	addiu	sp,sp,112
54005954:	1460ff68 	bnez	v1,540056f8 <movealphaimage+0x90>
54005958:	8fbf006c 	lw	ra,108(sp)
5400595c:	12050086 	beq	s0,a1,54005b78 <movealphaimage+0x510>
54005960:	72545002 	mul	t2,s2,s4
54005964:	72902802 	mul	a1,s4,s0
54005968:	8fa70038 	lw	a3,56(sp)
5400596c:	00b1001a 	div	zero,a1,s1
54005970:	022001f4 	teq	s1,zero,0x7
54005974:	00002812 	mflo	a1
54005978:	02857823 	subu	t7,s4,a1
5400597c:	71f27002 	mul	t6,t7,s2
54005980:	000e6840 	sll	t5,t6,0x1
54005984:	01ae6021 	addu	t4,t5,t6
54005988:	318b0003 	andi	t3,t4,0x3
5400598c:	15600047 	bnez	t3,54005aac <movealphaimage+0x444>
54005990:	02ac3021 	addu	a2,s5,t4
54005994:	72458802 	mul	s1,s2,a1
54005998:	2410fffc 	li	s0,-4
5400599c:	00119040 	sll	s2,s1,0x1
540059a0:	02511821 	addu	v1,s2,s1
540059a4:	10000006 	b	540059c0 <movealphaimage+0x358>
540059a8:	00702024 	and	a0,v1,s0
540059ac:	8cf40000 	lw	s4,0(a3)
540059b0:	2484fffc 	addiu	a0,a0,-4
540059b4:	acd40000 	sw	s4,0(a2)
540059b8:	24e70004 	addiu	a3,a3,4
540059bc:	24c60004 	addiu	a2,a2,4
540059c0:	1c80fffa 	bgtz	a0,540059ac <movealphaimage+0x344>
540059c4:	00000000 	nop
540059c8:	10000006 	b	540059e4 <movealphaimage+0x37c>
540059cc:	30630003 	andi	v1,v1,0x3
540059d0:	90d50000 	lbu	s5,0(a2)
540059d4:	2463ffff 	addiu	v1,v1,-1
540059d8:	a0f50000 	sb	s5,0(a3)
540059dc:	24c60001 	addiu	a2,a2,1
540059e0:	24e70001 	addiu	a3,a3,1
540059e4:	1c60fffa 	bgtz	v1,540059d0 <movealphaimage+0x368>
540059e8:	8fbf006c 	lw	ra,108(sp)
540059ec:	1000ff43 	b	540056fc <movealphaimage+0x94>
540059f0:	8fbe0068 	lw	s8,104(sp)
540059f4:	12050059 	beq	s0,a1,54005b5c <movealphaimage+0x4f4>
540059f8:	72544002 	mul	t0,s2,s4
540059fc:	1a80ff3d 	blez	s4,540056f4 <movealphaimage+0x8c>
54005a00:	0253b823 	subu	s7,s2,s3
54005a04:	00174840 	sll	t1,s7,0x1
54005a08:	00136840 	sll	t5,s3,0x1
54005a0c:	02808821 	move	s1,s4
54005a10:	afa9003c 	sw	t1,60(sp)
54005a14:	325e0003 	andi	s8,s2,0x3
54005a18:	afad0040 	sw	t5,64(sp)
54005a1c:	0000a021 	move	s4,zero
54005a20:	01378021 	addu	s0,t1,s7
54005a24:	02162821 	addu	a1,s0,s6
54005a28:	17c00014 	bnez	s8,54005a7c <movealphaimage+0x414>
54005a2c:	02952021 	addu	a0,s4,s5
54005a30:	8faf0040 	lw	t7,64(sp)
54005a34:	10000007 	b	54005a54 <movealphaimage+0x3ec>
54005a38:	01f31821 	addu	v1,t7,s3
54005a3c:	00000000 	nop
54005a40:	8cb80000 	lw	t8,0(a1)
54005a44:	2463fffc 	addiu	v1,v1,-4
54005a48:	ac980000 	sw	t8,0(a0)
54005a4c:	24a50004 	addiu	a1,a1,4
54005a50:	24840004 	addiu	a0,a0,4
54005a54:	1c60fffa 	bgtz	v1,54005a40 <movealphaimage+0x3d8>
54005a58:	0012c840 	sll	t9,s2,0x1
54005a5c:	03322821 	addu	a1,t9,s2
54005a60:	2631ffff 	addiu	s1,s1,-1
54005a64:	0285a021 	addu	s4,s4,a1
54005a68:	1220ff22 	beqz	s1,540056f4 <movealphaimage+0x8c>
54005a6c:	02058021 	addu	s0,s0,a1
54005a70:	02162821 	addu	a1,s0,s6
54005a74:	13c0ffee 	beqz	s8,54005a30 <movealphaimage+0x3c8>
54005a78:	02952021 	addu	a0,s4,s5
54005a7c:	8fae003c 	lw	t6,60(sp)
54005a80:	02a02021 	move	a0,s5
54005a84:	0d000867 	jal	5400219c <memcpy>
54005a88:	01d73021 	addu	a2,t6,s7
54005a8c:	0012c840 	sll	t9,s2,0x1
54005a90:	03322821 	addu	a1,t9,s2
54005a94:	2631ffff 	addiu	s1,s1,-1
54005a98:	0285a021 	addu	s4,s4,a1
54005a9c:	1620fff4 	bnez	s1,54005a70 <movealphaimage+0x408>
54005aa0:	02058021 	addu	s0,s0,a1
54005aa4:	1000ff14 	b	540056f8 <movealphaimage+0x90>
54005aa8:	8fbf006c 	lw	ra,108(sp)
54005aac:	7245f802 	mul	ra,s2,a1
54005ab0:	2418fffc 	li	t8,-4
54005ab4:	001fc840 	sll	t9,ra,0x1
54005ab8:	033fb021 	addu	s6,t9,ra
54005abc:	02d84024 	and	t0,s6,t8
54005ac0:	1000000c 	b	54005af4 <movealphaimage+0x48c>
54005ac4:	32c90003 	andi	t1,s6,0x3
54005ac8:	8cf30000 	lw	s3,0(a3)
54005acc:	2508fffc 	addiu	t0,t0,-4
54005ad0:	00131603 	sra	v0,s3,0x18
54005ad4:	00131a03 	sra	v1,s3,0x8
54005ad8:	00132403 	sra	a0,s3,0x10
54005adc:	a0c30001 	sb	v1,1(a2)
54005ae0:	a0c40002 	sb	a0,2(a2)
54005ae4:	a0c20003 	sb	v0,3(a2)
54005ae8:	a0d30000 	sb	s3,0(a2)
54005aec:	24e70004 	addiu	a3,a3,4
54005af0:	24c60004 	addiu	a2,a2,4
54005af4:	1d00fff4 	bgtz	t0,54005ac8 <movealphaimage+0x460>
54005af8:	00000000 	nop
54005afc:	1920fefd 	blez	t1,540056f4 <movealphaimage+0x8c>
54005b00:	01201821 	move	v1,t1
54005b04:	8fc70000 	lw	a3,0(s8)
54005b08:	2463ffff 	addiu	v1,v1,-1
54005b0c:	aee70000 	sw	a3,0(s7)
54005b10:	27de0004 	addiu	s8,s8,4
54005b14:	1c60fffb 	bgtz	v1,54005b04 <movealphaimage+0x49c>
54005b18:	26f70004 	addiu	s7,s7,4
54005b1c:	1000fef6 	b	540056f8 <movealphaimage+0x90>
54005b20:	8fbf006c 	lw	ra,108(sp)
54005b24:	02c02821 	move	a1,s6
54005b28:	02a02021 	move	a0,s5
54005b2c:	00083040 	sll	a2,t0,0x1
54005b30:	0d000867 	jal	5400219c <memcpy>
54005b34:	00c83021 	addu	a2,a2,t0
54005b38:	1000fefe 	b	54005734 <movealphaimage+0xcc>
54005b3c:	72907802 	mul	t7,s4,s0
54005b40:	02a02021 	move	a0,s5
54005b44:	02c02821 	move	a1,s6
54005b48:	001eb840 	sll	s7,s8,0x1
54005b4c:	0d000867 	jal	5400219c <memcpy>
54005b50:	02fe3021 	addu	a2,s7,s8
54005b54:	1000ff29 	b	540057fc <movealphaimage+0x194>
54005b58:	00000000 	nop
54005b5c:	02a02021 	move	a0,s5
54005b60:	02c02821 	move	a1,s6
54005b64:	00083040 	sll	a2,t0,0x1
54005b68:	0d000867 	jal	5400219c <memcpy>
54005b6c:	00c83021 	addu	a2,a2,t0
54005b70:	1000ffa2 	b	540059fc <movealphaimage+0x394>
54005b74:	00000000 	nop
54005b78:	02c02821 	move	a1,s6
54005b7c:	02a02021 	move	a0,s5
54005b80:	000a1840 	sll	v1,t2,0x1
54005b84:	0d000867 	jal	5400219c <memcpy>
54005b88:	006a3021 	addu	a2,v1,t2
54005b8c:	1000ff76 	b	54005968 <movealphaimage+0x300>
54005b90:	72902802 	mul	a1,s4,s0
54005b94:	00000000 	nop

54005b98 <MemCopy>:
54005b98:	10c00009 	beqz	a2,54005bc0 <MemCopy+0x28>
54005b9c:	24c3ffff 	addiu	v1,a2,-1
54005ba0:	2406ffff 	li	a2,-1
54005ba4:	00000000 	nop
54005ba8:	90a20000 	lbu	v0,0(a1)
54005bac:	2463ffff 	addiu	v1,v1,-1
54005bb0:	a0820000 	sb	v0,0(a0)
54005bb4:	24a50001 	addiu	a1,a1,1
54005bb8:	1466fffb 	bne	v1,a2,54005ba8 <MemCopy+0x10>
54005bbc:	24840001 	addiu	a0,a0,1
54005bc0:	03e00008 	jr	ra
54005bc4:	00000000 	nop

54005bc8 <ImpDisp_Check>:
54005bc8:	27bdff10 	addiu	sp,sp,-240
54005bcc:	240c000a 	li	t4,10
54005bd0:	afb700e4 	sw	s7,228(sp)
54005bd4:	afb600e0 	sw	s6,224(sp)
54005bd8:	afb500dc 	sw	s5,220(sp)
54005bdc:	afb400d8 	sw	s4,216(sp)
54005be0:	afb300d4 	sw	s3,212(sp)
54005be4:	afb100cc 	sw	s1,204(sp)
54005be8:	afb000c8 	sw	s0,200(sp)
54005bec:	afbf00ec 	sw	ra,236(sp)
54005bf0:	afbe00e8 	sw	s8,232(sp)
54005bf4:	afb200d0 	sw	s2,208(sp)
54005bf8:	8c99000c 	lw	t9,12(a0)
54005bfc:	8c920010 	lw	s2,16(a0)
54005c00:	032c001a 	div	zero,t9,t4
54005c04:	018001f4 	teq	t4,zero,0x7
54005c08:	8c880018 	lw	t0,24(a0)
54005c0c:	8c8a0014 	lw	t2,20(a0)
54005c10:	00081840 	sll	v1,t0,0x1
54005c14:	0068a821 	addu	s5,v1,t0
54005c18:	001530c0 	sll	a2,s5,0x3
54005c1c:	00c8a021 	addu	s4,a2,t0
54005c20:	00148880 	sll	s1,s4,0x2
54005c24:	0019a040 	sll	s4,t9,0x1
54005c28:	8c9f0034 	lw	ra,52(a0)
54005c2c:	3c0b6666 	lui	t3,0x6666
54005c30:	afbf005c 	sw	ra,92(sp)
54005c34:	35756667 	ori	s5,t3,0x6667
54005c38:	8c850004 	lw	a1,4(a0)
54005c3c:	8c820008 	lw	v0,8(a0)
54005c40:	8c870030 	lw	a3,48(a0)
54005c44:	8c9e0028 	lw	s8,40(a0)
54005c48:	8c8d002c 	lw	t5,44(a0)
54005c4c:	00807021 	move	t6,a0
54005c50:	afa50054 	sw	a1,84(sp)
54005c54:	afa20078 	sw	v0,120(sp)
54005c58:	afa70058 	sw	a3,88(sp)
54005c5c:	afbe0060 	sw	s8,96(sp)
54005c60:	afad0064 	sw	t5,100(sp)
54005c64:	afa00050 	sw	zero,80(sp)
54005c68:	00005821 	move	t3,zero
54005c6c:	240d0064 	li	t5,100
54005c70:	0000c010 	mfhi	t8
54005c74:	024c001a 	div	zero,s2,t4
54005c78:	018001f4 	teq	t4,zero,0x7
54005c7c:	0338b023 	subu	s6,t9,t8
54005c80:	0018b840 	sll	s7,t8,0x1
54005c84:	afb70044 	sw	s7,68(sp)
54005c88:	00009810 	mfhi	s3
54005c8c:	02cc001a 	div	zero,s6,t4
54005c90:	018001f4 	teq	t4,zero,0x7
54005c94:	02537823 	subu	t7,s2,s3
54005c98:	afb30068 	sw	s3,104(sp)
54005c9c:	0000c812 	mflo	t9
54005ca0:	022a001a 	div	zero,s1,t2
54005ca4:	014001f4 	teq	t2,zero,0x7
54005ca8:	00191fc3 	sra	v1,t9,0x1f
54005cac:	00198040 	sll	s0,t9,0x1
54005cb0:	afb0003c 	sw	s0,60(sp)
54005cb4:	0000f812 	mflo	ra
54005cb8:	01ec001a 	div	zero,t7,t4
54005cbc:	018001f4 	teq	t4,zero,0x7
54005cc0:	001fbfc3 	sra	s7,ra,0x1f
54005cc4:	00004812 	mflo	t1
54005cc8:	03350018 	mult	t9,s5
54005ccc:	00002010 	mfhi	a0
54005cd0:	03f50018 	mult	ra,s5
54005cd4:	0000c010 	mfhi	t8
54005cd8:	afa9006c 	sw	t1,108(sp)
54005cdc:	00042843 	sra	a1,a0,0x1
54005ce0:	00a31023 	subu	v0,a1,v1
54005ce4:	00023880 	sll	a3,v0,0x2
54005ce8:	00e2f021 	addu	s8,a3,v0
54005cec:	033e2823 	subu	a1,t9,s8
54005cf0:	03259023 	subu	s2,t9,a1
54005cf4:	02550018 	mult	s2,s5
54005cf8:	00009810 	mfhi	s3
54005cfc:	8fa4006c 	lw	a0,108(sp)
54005d00:	0018b083 	sra	s6,t8,0x2
54005d04:	72841802 	mul	v1,s4,a0
54005d08:	02d77823 	subu	t7,s6,s7
54005d0c:	00138043 	sra	s0,s3,0x1
54005d10:	00128fc3 	sra	s1,s2,0x1f
54005d14:	000f4880 	sll	t1,t7,0x2
54005d18:	02113823 	subu	a3,s0,s1
54005d1c:	012f1021 	addu	v0,t1,t7
54005d20:	00073040 	sll	a2,a3,0x1
54005d24:	afa30040 	sw	v1,64(sp)
54005d28:	00052840 	sll	a1,a1,0x1
54005d2c:	afa60048 	sw	a2,72(sp)
54005d30:	11480004 	beq	t2,t0,54005d44 <ImpDisp_Check+0x17c>
54005d34:	00021840 	sll	v1,v0,0x1
54005d38:	2868000a 	slti	t0,v1,10
54005d3c:	01806821 	move	t5,t4
54005d40:	0068680a 	movz	t5,v1,t0
54005d44:	39b20032 	xori	s2,t5,0x32
54005d48:	39b10064 	xori	s1,t5,0x64
54005d4c:	2e500001 	sltiu	s0,s2,1
54005d50:	2e3e0001 	sltiu	s8,s1,1
54005d54:	021e7825 	or	t7,s0,s8
54005d58:	71e54802 	mul	t1,t7,a1
54005d5c:	8fa40048 	lw	a0,72(sp)
54005d60:	29ac0033 	slti	t4,t5,51
54005d64:	afb00080 	sw	s0,128(sp)
54005d68:	01245021 	addu	t2,t1,a0
54005d6c:	118000d8 	beqz	t4,540060d0 <ImpDisp_Check+0x508>
54005d70:	afaa004c 	sw	t2,76(sp)
54005d74:	8fb7003c 	lw	s7,60(sp)
54005d78:	25b6fff6 	addiu	s6,t5,-10
54005d7c:	00179840 	sll	s3,s7,0x1
54005d80:	afb60098 	sw	s6,152(sp)
54005d84:	afb3009c 	sw	s3,156(sp)
54005d88:	afa00038 	sw	zero,56(sp)
54005d8c:	afb600a0 	sw	s6,160(sp)
54005d90:	afb300a4 	sw	s3,164(sp)
54005d94:	afa000a8 	sw	zero,168(sp)
54005d98:	8fbe0038 	lw	s8,56(sp)
54005d9c:	8fa50050 	lw	a1,80(sp)
54005da0:	3bcd0009 	xori	t5,s8,0x9
54005da4:	24190001 	li	t9,1
54005da8:	032d280a 	movz	a1,t9,t5
54005dac:	33d80001 	andi	t8,s8,0x1
54005db0:	13000063 	beqz	t8,54005f40 <ImpDisp_Check+0x378>
54005db4:	afa50050 	sw	a1,80(sp)
54005db8:	8fa20068 	lw	v0,104(sp)
54005dbc:	8fa7006c 	lw	a3,108(sp)
54005dc0:	70a23002 	mul	a2,a1,v0
54005dc4:	8fb6003c 	lw	s6,60(sp)
54005dc8:	24170001 	li	s7,1
54005dcc:	00c7f821 	addu	ra,a2,a3
54005dd0:	afbf007c 	sw	ra,124(sp)
54005dd4:	001ff02a 	slt	s8,zero,ra
54005dd8:	3ae80009 	xori	t0,s7,0x9
54005ddc:	8fa50080 	lw	a1,128(sp)
54005de0:	2d150001 	sltiu	s5,t0,1
54005de4:	02a51824 	and	v1,s5,a1
54005de8:	24150001 	li	s5,1
54005dec:	13c00022 	beqz	s8,54005e78 <ImpDisp_Check+0x2b0>
54005df0:	0163a80a 	movz	s5,t3,v1
54005df4:	8fa20098 	lw	v0,152(sp)
54005df8:	8fa30048 	lw	v1,72(sp)
54005dfc:	3c1f6666 	lui	ra,0x6666
54005e00:	7043c002 	mul	t8,v0,v1
54005e04:	37ed6667 	ori	t5,ra,0x6667
54005e08:	8fb00044 	lw	s0,68(sp)
54005e0c:	8fa600a8 	lw	a2,168(sp)
54005e10:	8fb20054 	lw	s2,84(sp)
54005e14:	030d0018 	mult	t8,t5
54005e18:	0000c810 	mfhi	t9
54005e1c:	72b07802 	mul	t7,s5,s0
54005e20:	8fa70078 	lw	a3,120(sp)
54005e24:	02c62021 	addu	a0,s6,a2
54005e28:	00189fc3 	sra	s3,t8,0x1f
54005e2c:	00198883 	sra	s1,t9,0x2
54005e30:	8fa9004c 	lw	t1,76(sp)
54005e34:	02335823 	subu	t3,s1,s3
54005e38:	02446021 	addu	t4,s2,a0
54005e3c:	00e45021 	addu	t2,a3,a0
54005e40:	8fb2007c 	lw	s2,124(sp)
54005e44:	01e99821 	addu	s3,t7,t1
54005e48:	014b8821 	addu	s1,t2,t3
54005e4c:	018b8021 	addu	s0,t4,t3
54005e50:	02202021 	move	a0,s1
54005e54:	02002821 	move	a1,s0
54005e58:	02603021 	move	a2,s3
54005e5c:	2652ffff 	addiu	s2,s2,-1
54005e60:	afae00c0 	sw	t6,192(sp)
54005e64:	0d0016e6 	jal	54005b98 <MemCopy>
54005e68:	02348821 	addu	s1,s1,s4
54005e6c:	02148021 	addu	s0,s0,s4
54005e70:	1640fff7 	bnez	s2,54005e50 <ImpDisp_Check+0x288>
54005e74:	8fae00c0 	lw	t6,192(sp)
54005e78:	3aa80001 	xori	t0,s5,0x1
54005e7c:	00005821 	move	t3,zero
54005e80:	26f70002 	addiu	s7,s7,2
54005e84:	02a8580b 	movn	t3,s5,t0
54005e88:	8fb5009c 	lw	s5,156(sp)
54005e8c:	2ae5000a 	slti	a1,s7,10
54005e90:	14a0ffd1 	bnez	a1,54005dd8 <ImpDisp_Check+0x210>
54005e94:	02d5b021 	addu	s6,s6,s5
54005e98:	8fad0038 	lw	t5,56(sp)
54005e9c:	8fbe00a8 	lw	s8,168(sp)
54005ea0:	8fb80040 	lw	t8,64(sp)
54005ea4:	25b90001 	addiu	t9,t5,1
54005ea8:	03d8b021 	addu	s6,s8,t8
54005eac:	2b37000a 	slti	s7,t9,10
54005eb0:	afb90038 	sw	t9,56(sp)
54005eb4:	16e0ffb8 	bnez	s7,54005d98 <ImpDisp_Check+0x1d0>
54005eb8:	afb600a8 	sw	s6,168(sp)
54005ebc:	8dcf000c 	lw	t7,12(t6)
54005ec0:	8dc90010 	lw	t1,16(t6)
54005ec4:	8dd00008 	lw	s0,8(t6)
54005ec8:	8dcb0024 	lw	t3,36(t6)
54005ecc:	8fbe005c 	lw	s8,92(sp)
54005ed0:	8fb40060 	lw	s4,96(sp)
54005ed4:	8faa0058 	lw	t2,88(sp)
54005ed8:	8fae0064 	lw	t6,100(sp)
54005edc:	27a40010 	addiu	a0,sp,16
54005ee0:	24030002 	li	v1,2
54005ee4:	afb00010 	sw	s0,16(sp)
54005ee8:	afbe0034 	sw	s8,52(sp)
54005eec:	afb40028 	sw	s4,40(sp)
54005ef0:	afaf0014 	sw	t7,20(sp)
54005ef4:	afa90018 	sw	t1,24(sp)
54005ef8:	afab0020 	sw	t3,32(sp)
54005efc:	afa3001c 	sw	v1,28(sp)
54005f00:	afaa0030 	sw	t2,48(sp)
54005f04:	0d00237c 	jal	54008df0 <fillimagefun>
54005f08:	afae002c 	sw	t6,44(sp)
54005f0c:	8fbf00ec 	lw	ra,236(sp)
54005f10:	8fbe00e8 	lw	s8,232(sp)
54005f14:	8fb700e4 	lw	s7,228(sp)
54005f18:	8fb600e0 	lw	s6,224(sp)
54005f1c:	8fb500dc 	lw	s5,220(sp)
54005f20:	8fb400d8 	lw	s4,216(sp)
54005f24:	8fb300d4 	lw	s3,212(sp)
54005f28:	8fb200d0 	lw	s2,208(sp)
54005f2c:	8fb100cc 	lw	s1,204(sp)
54005f30:	8fb000c8 	lw	s0,200(sp)
54005f34:	00001021 	move	v0,zero
54005f38:	03e00008 	jr	ra
54005f3c:	27bd00f0 	addiu	sp,sp,240
54005f40:	8faa0050 	lw	t2,80(sp)
54005f44:	8fac0068 	lw	t4,104(sp)
54005f48:	8fb6006c 	lw	s6,108(sp)
54005f4c:	714cf002 	mul	s8,t2,t4
54005f50:	03d6b821 	addu	s7,s8,s6
54005f54:	afb700ac 	sw	s7,172(sp)
54005f58:	0017f02a 	slt	s8,zero,s7
54005f5c:	0000b021 	move	s6,zero
54005f60:	0000b821 	move	s7,zero
54005f64:	00000000 	nop
54005f68:	3ad10008 	xori	s1,s6,0x8
54005f6c:	8fb00080 	lw	s0,128(sp)
54005f70:	2e2f0001 	sltiu	t7,s1,1
54005f74:	01f04824 	and	t1,t7,s0
54005f78:	24150001 	li	s5,1
54005f7c:	13c00022 	beqz	s8,54006008 <ImpDisp_Check+0x440>
54005f80:	0169a80a 	movz	s5,t3,t1
54005f84:	8faf00a0 	lw	t7,160(sp)
54005f88:	8fa90048 	lw	t1,72(sp)
54005f8c:	3c086666 	lui	t0,0x6666
54005f90:	71e91802 	mul	v1,t7,t1
54005f94:	35056667 	ori	a1,t0,0x6667
54005f98:	8fb30044 	lw	s3,68(sp)
54005f9c:	8faa00a8 	lw	t2,168(sp)
54005fa0:	8fb20054 	lw	s2,84(sp)
54005fa4:	00650018 	mult	v1,a1
54005fa8:	00001010 	mfhi	v0
54005fac:	72b3f802 	mul	ra,s5,s3
54005fb0:	8fac0078 	lw	t4,120(sp)
54005fb4:	02ea2021 	addu	a0,s7,t2
54005fb8:	000337c3 	sra	a2,v1,0x1f
54005fbc:	00023883 	sra	a3,v0,0x2
54005fc0:	8fad004c 	lw	t5,76(sp)
54005fc4:	0244c021 	addu	t8,s2,a0
54005fc8:	00e65823 	subu	t3,a3,a2
54005fcc:	0184c821 	addu	t9,t4,a0
54005fd0:	8fb200ac 	lw	s2,172(sp)
54005fd4:	03ed9821 	addu	s3,ra,t5
54005fd8:	032b8821 	addu	s1,t9,t3
54005fdc:	030b8021 	addu	s0,t8,t3
54005fe0:	02202021 	move	a0,s1
54005fe4:	02002821 	move	a1,s0
54005fe8:	02603021 	move	a2,s3
54005fec:	2652ffff 	addiu	s2,s2,-1
54005ff0:	afae00c0 	sw	t6,192(sp)
54005ff4:	0d0016e6 	jal	54005b98 <MemCopy>
54005ff8:	02348821 	addu	s1,s1,s4
54005ffc:	02148021 	addu	s0,s0,s4
54006000:	1640fff7 	bnez	s2,54005fe0 <ImpDisp_Check+0x418>
54006004:	8fae00c0 	lw	t6,192(sp)
54006008:	3ab10001 	xori	s1,s5,0x1
5400600c:	00005821 	move	t3,zero
54006010:	26d60002 	addiu	s6,s6,2
54006014:	02b1580b 	movn	t3,s5,s1
54006018:	8fb500a4 	lw	s5,164(sp)
5400601c:	2ad00009 	slti	s0,s6,9
54006020:	1600ffd1 	bnez	s0,54005f68 <ImpDisp_Check+0x3a0>
54006024:	02f5b821 	addu	s7,s7,s5
54006028:	8fad0038 	lw	t5,56(sp)
5400602c:	8fbe00a8 	lw	s8,168(sp)
54006030:	8fb80040 	lw	t8,64(sp)
54006034:	25b90001 	addiu	t9,t5,1
54006038:	03d8b021 	addu	s6,s8,t8
5400603c:	2b37000a 	slti	s7,t9,10
54006040:	afb90038 	sw	t9,56(sp)
54006044:	16e0ff54 	bnez	s7,54005d98 <ImpDisp_Check+0x1d0>
54006048:	afb600a8 	sw	s6,168(sp)
5400604c:	8dcf000c 	lw	t7,12(t6)
54006050:	8dc90010 	lw	t1,16(t6)
54006054:	8dd00008 	lw	s0,8(t6)
54006058:	8dcb0024 	lw	t3,36(t6)
5400605c:	8fbe005c 	lw	s8,92(sp)
54006060:	8fb40060 	lw	s4,96(sp)
54006064:	8faa0058 	lw	t2,88(sp)
54006068:	8fae0064 	lw	t6,100(sp)
5400606c:	27a40010 	addiu	a0,sp,16
54006070:	24030002 	li	v1,2
54006074:	afb00010 	sw	s0,16(sp)
54006078:	afbe0034 	sw	s8,52(sp)
5400607c:	afb40028 	sw	s4,40(sp)
54006080:	afaf0014 	sw	t7,20(sp)
54006084:	afa90018 	sw	t1,24(sp)
54006088:	afab0020 	sw	t3,32(sp)
5400608c:	afa3001c 	sw	v1,28(sp)
54006090:	afaa0030 	sw	t2,48(sp)
54006094:	0d00237c 	jal	54008df0 <fillimagefun>
54006098:	afae002c 	sw	t6,44(sp)
5400609c:	8fbf00ec 	lw	ra,236(sp)
540060a0:	8fbe00e8 	lw	s8,232(sp)
540060a4:	8fb700e4 	lw	s7,228(sp)
540060a8:	8fb600e0 	lw	s6,224(sp)
540060ac:	8fb500dc 	lw	s5,220(sp)
540060b0:	8fb400d8 	lw	s4,216(sp)
540060b4:	8fb300d4 	lw	s3,212(sp)
540060b8:	8fb200d0 	lw	s2,208(sp)
540060bc:	8fb100cc 	lw	s1,204(sp)
540060c0:	8fb000c8 	lw	s0,200(sp)
540060c4:	00001021 	move	v0,zero
540060c8:	03e00008 	jr	ra
540060cc:	27bd00f0 	addiu	sp,sp,240
540060d0:	8fa7003c 	lw	a3,60(sp)
540060d4:	25b3ffc4 	addiu	s3,t5,-60
540060d8:	0007f840 	sll	ra,a3,0x1
540060dc:	afb30084 	sw	s3,132(sp)
540060e0:	afbf0088 	sw	ra,136(sp)
540060e4:	afa000b0 	sw	zero,176(sp)
540060e8:	afb3008c 	sw	s3,140(sp)
540060ec:	afbf0090 	sw	ra,144(sp)
540060f0:	afa00094 	sw	zero,148(sp)
540060f4:	8fa500b0 	lw	a1,176(sp)
540060f8:	24030001 	li	v1,1
540060fc:	38a20009 	xori	v0,a1,0x9
54006100:	30a60001 	andi	a2,a1,0x1
54006104:	8fa50050 	lw	a1,80(sp)
54006108:	0062280a 	movz	a1,v1,v0
5400610c:	10c0003c 	beqz	a2,54006200 <ImpDisp_Check+0x638>
54006110:	afa50050 	sw	a1,80(sp)
54006114:	8faa0068 	lw	t2,104(sp)
54006118:	8fac006c 	lw	t4,108(sp)
5400611c:	70aa2002 	mul	a0,a1,t2
54006120:	0000b021 	move	s6,zero
54006124:	0000b821 	move	s7,zero
54006128:	008c9021 	addu	s2,a0,t4
5400612c:	0012402a 	slt	t0,zero,s2
54006130:	afb200b4 	sw	s2,180(sp)
54006134:	afa80070 	sw	t0,112(sp)
54006138:	3ad00008 	xori	s0,s6,0x8
5400613c:	2e0f0001 	sltiu	t7,s0,1
54006140:	01fe4824 	and	t1,t7,s8
54006144:	24150001 	li	s5,1
54006148:	0169a80a 	movz	s5,t3,t1
5400614c:	8fab0070 	lw	t3,112(sp)
54006150:	11600021 	beqz	t3,540061d8 <ImpDisp_Check+0x610>
54006154:	8fa90084 	lw	t1,132(sp)
54006158:	8fab0048 	lw	t3,72(sp)
5400615c:	3c086666 	lui	t0,0x6666
54006160:	712b1802 	mul	v1,t1,t3
54006164:	35056667 	ori	a1,t0,0x6667
54006168:	8fb30044 	lw	s3,68(sp)
5400616c:	8faa0094 	lw	t2,148(sp)
54006170:	8fa40078 	lw	a0,120(sp)
54006174:	00650018 	mult	v1,a1
54006178:	00001010 	mfhi	v0
5400617c:	72b3f802 	mul	ra,s5,s3
54006180:	8fac0054 	lw	t4,84(sp)
54006184:	02ea9021 	addu	s2,s7,t2
54006188:	8fb1004c 	lw	s1,76(sp)
5400618c:	00023883 	sra	a3,v0,0x2
54006190:	000337c3 	sra	a2,v1,0x1f
54006194:	02446821 	addu	t5,s2,a0
54006198:	024cc821 	addu	t9,s2,t4
5400619c:	00e6c023 	subu	t8,a3,a2
540061a0:	8fb200b4 	lw	s2,180(sp)
540061a4:	03f19821 	addu	s3,ra,s1
540061a8:	03388021 	addu	s0,t9,t8
540061ac:	01b88821 	addu	s1,t5,t8
540061b0:	02202021 	move	a0,s1
540061b4:	02002821 	move	a1,s0
540061b8:	02603021 	move	a2,s3
540061bc:	2652ffff 	addiu	s2,s2,-1
540061c0:	afae00c0 	sw	t6,192(sp)
540061c4:	0d0016e6 	jal	54005b98 <MemCopy>
540061c8:	02348821 	addu	s1,s1,s4
540061cc:	02148021 	addu	s0,s0,s4
540061d0:	1640fff7 	bnez	s2,540061b0 <ImpDisp_Check+0x5e8>
540061d4:	8fae00c0 	lw	t6,192(sp)
540061d8:	3ab00001 	xori	s0,s5,0x1
540061dc:	00005821 	move	t3,zero
540061e0:	26d60002 	addiu	s6,s6,2
540061e4:	02b0580b 	movn	t3,s5,s0
540061e8:	8fb50088 	lw	s5,136(sp)
540061ec:	2acf0009 	slti	t7,s6,9
540061f0:	15e0ffd1 	bnez	t7,54006138 <ImpDisp_Check+0x570>
540061f4:	02f5b821 	addu	s7,s7,s5
540061f8:	1000003c 	b	540062ec <ImpDisp_Check+0x724>
540061fc:	8fac00b0 	lw	t4,176(sp)
54006200:	8fb10050 	lw	s1,80(sp)
54006204:	8fad0068 	lw	t5,104(sp)
54006208:	8fb7006c 	lw	s7,108(sp)
5400620c:	722dc802 	mul	t9,s1,t5
54006210:	0337c021 	addu	t8,t9,s7
54006214:	0018b02a 	slt	s6,zero,t8
54006218:	afb60074 	sw	s6,116(sp)
5400621c:	8fb6003c 	lw	s6,60(sp)
54006220:	afb800b8 	sw	t8,184(sp)
54006224:	24170001 	li	s7,1
54006228:	3ae60009 	xori	a2,s7,0x9
5400622c:	2cc70001 	sltiu	a3,a2,1
54006230:	8fbf0074 	lw	ra,116(sp)
54006234:	00fe9824 	and	s3,a3,s8
54006238:	24150001 	li	s5,1
5400623c:	13e00022 	beqz	ra,540062c8 <ImpDisp_Check+0x700>
54006240:	0173a80a 	movz	s5,t3,s3
54006244:	8fb3008c 	lw	s3,140(sp)
54006248:	8fbf0048 	lw	ra,72(sp)
5400624c:	3c196666 	lui	t9,0x6666
54006250:	727f7802 	mul	t7,s3,ra
54006254:	37386667 	ori	t8,t9,0x6667
54006258:	8fa30044 	lw	v1,68(sp)
5400625c:	8fb10094 	lw	s1,148(sp)
54006260:	8fad0078 	lw	t5,120(sp)
54006264:	01f80018 	mult	t7,t8
54006268:	00008010 	mfhi	s0
5400626c:	72a35002 	mul	t2,s5,v1
54006270:	8fa40054 	lw	a0,84(sp)
54006274:	02d19021 	addu	s2,s6,s1
54006278:	000f4fc3 	sra	t1,t7,0x1f
5400627c:	00105883 	sra	t3,s0,0x2
54006280:	8fac004c 	lw	t4,76(sp)
54006284:	024d2821 	addu	a1,s2,t5
54006288:	02444021 	addu	t0,s2,a0
5400628c:	01691023 	subu	v0,t3,t1
54006290:	8fb200b8 	lw	s2,184(sp)
54006294:	014c9821 	addu	s3,t2,t4
54006298:	00a28821 	addu	s1,a1,v0
5400629c:	01028021 	addu	s0,t0,v0
540062a0:	02202021 	move	a0,s1
540062a4:	02002821 	move	a1,s0
540062a8:	02603021 	move	a2,s3
540062ac:	2652ffff 	addiu	s2,s2,-1
540062b0:	afae00c0 	sw	t6,192(sp)
540062b4:	0d0016e6 	jal	54005b98 <MemCopy>
540062b8:	02348821 	addu	s1,s1,s4
540062bc:	02148021 	addu	s0,s0,s4
540062c0:	1640fff7 	bnez	s2,540062a0 <ImpDisp_Check+0x6d8>
540062c4:	8fae00c0 	lw	t6,192(sp)
540062c8:	3aa60001 	xori	a2,s5,0x1
540062cc:	00005821 	move	t3,zero
540062d0:	26f70002 	addiu	s7,s7,2
540062d4:	02a6580b 	movn	t3,s5,a2
540062d8:	8fb50090 	lw	s5,144(sp)
540062dc:	2ae7000a 	slti	a3,s7,10
540062e0:	14e0ffd1 	bnez	a3,54006228 <ImpDisp_Check+0x660>
540062e4:	02d5b021 	addu	s6,s6,s5
540062e8:	8fac00b0 	lw	t4,176(sp)
540062ec:	8fa20094 	lw	v0,148(sp)
540062f0:	8fa80040 	lw	t0,64(sp)
540062f4:	25850001 	addiu	a1,t4,1
540062f8:	0048b821 	addu	s7,v0,t0
540062fc:	28b6000a 	slti	s6,a1,10
54006300:	afa500b0 	sw	a1,176(sp)
54006304:	16c0ff7b 	bnez	s6,540060f4 <ImpDisp_Check+0x52c>
54006308:	afb70094 	sw	s7,148(sp)
5400630c:	8dcf000c 	lw	t7,12(t6)
54006310:	8dc90010 	lw	t1,16(t6)
54006314:	8dd00008 	lw	s0,8(t6)
54006318:	8dcb0024 	lw	t3,36(t6)
5400631c:	8fbe005c 	lw	s8,92(sp)
54006320:	8fb40060 	lw	s4,96(sp)
54006324:	8faa0058 	lw	t2,88(sp)
54006328:	8fae0064 	lw	t6,100(sp)
5400632c:	27a40010 	addiu	a0,sp,16
54006330:	24030002 	li	v1,2
54006334:	afb00010 	sw	s0,16(sp)
54006338:	afbe0034 	sw	s8,52(sp)
5400633c:	afb40028 	sw	s4,40(sp)
54006340:	afaf0014 	sw	t7,20(sp)
54006344:	afa90018 	sw	t1,24(sp)
54006348:	afab0020 	sw	t3,32(sp)
5400634c:	afa3001c 	sw	v1,28(sp)
54006350:	afaa0030 	sw	t2,48(sp)
54006354:	0d00237c 	jal	54008df0 <fillimagefun>
54006358:	afae002c 	sw	t6,44(sp)
5400635c:	8fbf00ec 	lw	ra,236(sp)
54006360:	8fbe00e8 	lw	s8,232(sp)
54006364:	8fb700e4 	lw	s7,228(sp)
54006368:	8fb600e0 	lw	s6,224(sp)
5400636c:	8fb500dc 	lw	s5,220(sp)
54006370:	8fb400d8 	lw	s4,216(sp)
54006374:	8fb300d4 	lw	s3,212(sp)
54006378:	8fb200d0 	lw	s2,208(sp)
5400637c:	8fb100cc 	lw	s1,204(sp)
54006380:	8fb000c8 	lw	s0,200(sp)
54006384:	00001021 	move	v0,zero
54006388:	03e00008 	jr	ra
5400638c:	27bd00f0 	addiu	sp,sp,240

54006390 <ImpDisp_Cut>:
54006390:	27bdff78 	addiu	sp,sp,-136
54006394:	3c096666 	lui	t1,0x6666
54006398:	afbe0080 	sw	s8,128(sp)
5400639c:	afb60078 	sw	s6,120(sp)
540063a0:	afb40070 	sw	s4,112(sp)
540063a4:	afb3006c 	sw	s3,108(sp)
540063a8:	afb20068 	sw	s2,104(sp)
540063ac:	afb10064 	sw	s1,100(sp)
540063b0:	afb00060 	sw	s0,96(sp)
540063b4:	afbf0084 	sw	ra,132(sp)
540063b8:	afb7007c 	sw	s7,124(sp)
540063bc:	afb50074 	sw	s5,116(sp)
540063c0:	8c860018 	lw	a2,24(a0)
540063c4:	0080b021 	move	s6,a0
540063c8:	8c870014 	lw	a3,20(a0)
540063cc:	00062040 	sll	a0,a2,0x1
540063d0:	00865021 	addu	t2,a0,a2
540063d4:	000a18c0 	sll	v1,t2,0x3
540063d8:	0066f021 	addu	s8,v1,a2
540063dc:	001e4080 	sll	t0,s8,0x2
540063e0:	0107001a 	div	zero,t0,a3
540063e4:	00e001f4 	teq	a3,zero,0x7
540063e8:	8ede0010 	lw	s8,16(s6)
540063ec:	35286667 	ori	t0,t1,0x6667
540063f0:	001e9fc3 	sra	s3,s8,0x1f
540063f4:	8ec50004 	lw	a1,4(s6)
540063f8:	3c02cccc 	lui	v0,0xcccc
540063fc:	3449cccd 	ori	t1,v0,0xcccd
54006400:	afa50038 	sw	a1,56(sp)
54006404:	8ed70008 	lw	s7,8(s6)
54006408:	8edf0030 	lw	ra,48(s6)
5400640c:	8ed90034 	lw	t9,52(s6)
54006410:	8ed80028 	lw	t8,40(s6)
54006414:	8ed5002c 	lw	s5,44(s6)
54006418:	afb70050 	sw	s7,80(sp)
5400641c:	afbf003c 	sw	ra,60(sp)
54006420:	8ed7000c 	lw	s7,12(s6)
54006424:	afb90040 	sw	t9,64(sp)
54006428:	afb80044 	sw	t8,68(sp)
5400642c:	afb50048 	sw	s5,72(sp)
54006430:	00008012 	mflo	s0
54006434:	03c80018 	mult	s8,t0
54006438:	0000a010 	mfhi	s4
5400643c:	02080018 	mult	s0,t0
54006440:	00008810 	mfhi	s1
54006444:	00149083 	sra	s2,s4,0x2
54006448:	02536823 	subu	t5,s2,s3
5400644c:	000d6080 	sll	t4,t5,0x2
54006450:	018d5821 	addu	t3,t4,t5
54006454:	000b2840 	sll	a1,t3,0x1
54006458:	00a90019 	multu	a1,t1
5400645c:	00001810 	mfhi	v1
54006460:	00117083 	sra	t6,s1,0x2
54006464:	00107fc3 	sra	t7,s0,0x1f
54006468:	01cf2023 	subu	a0,t6,t7
5400646c:	00045080 	sll	t2,a0,0x2
54006470:	01441021 	addu	v0,t2,a0
54006474:	000388c2 	srl	s1,v1,0x3
54006478:	00022040 	sll	a0,v0,0x1
5400647c:	10e60080 	beq	a3,a2,54006680 <ImpDisp_Cut+0x2f0>
54006480:	03c52823 	subu	a1,s8,a1
54006484:	3c155401 	lui	s5,0x5401
54006488:	2c94000a 	sltiu	s4,a0,10
5400648c:	2413000a 	li	s3,10
54006490:	92a3424a 	lbu	v1,16970(s5)
54006494:	0094980a 	movz	s3,a0,s4
54006498:	afb50054 	sw	s5,84(sp)
5400649c:	10600026 	beqz	v1,54006538 <ImpDisp_Cut+0x1a8>
540064a0:	afb3005c 	sw	s3,92(sp)
540064a4:	24180001 	li	t8,1
540064a8:	1078009a 	beq	v1,t8,54006714 <ImpDisp_Cut+0x384>
540064ac:	72f17002 	mul	t6,s7,s1
540064b0:	8ed50024 	lw	s5,36(s6)
540064b4:	8fb30050 	lw	s3,80(sp)
540064b8:	8fb20040 	lw	s2,64(sp)
540064bc:	8fb10044 	lw	s1,68(sp)
540064c0:	afb70014 	sw	s7,20(sp)
540064c4:	afbe0018 	sw	s8,24(sp)
540064c8:	8fb7003c 	lw	s7,60(sp)
540064cc:	8fbe0048 	lw	s8,72(sp)
540064d0:	27a40010 	addiu	a0,sp,16
540064d4:	24140002 	li	s4,2
540064d8:	afb30010 	sw	s3,16(sp)
540064dc:	afb50020 	sw	s5,32(sp)
540064e0:	afb4001c 	sw	s4,28(sp)
540064e4:	afb70030 	sw	s7,48(sp)
540064e8:	afb20034 	sw	s2,52(sp)
540064ec:	afb10028 	sw	s1,40(sp)
540064f0:	0d00237c 	jal	54008df0 <fillimagefun>
540064f4:	afbe002c 	sw	s8,44(sp)
540064f8:	8fb60054 	lw	s6,84(sp)
540064fc:	8fbf0084 	lw	ra,132(sp)
54006500:	8fbe0080 	lw	s8,128(sp)
54006504:	92c4424a 	lbu	a0,16970(s6)
54006508:	8fb7007c 	lw	s7,124(sp)
5400650c:	8fb60078 	lw	s6,120(sp)
54006510:	8fb50074 	lw	s5,116(sp)
54006514:	8fb40070 	lw	s4,112(sp)
54006518:	8fb3006c 	lw	s3,108(sp)
5400651c:	8fb20068 	lw	s2,104(sp)
54006520:	8fb10064 	lw	s1,100(sp)
54006524:	8fb00060 	lw	s0,96(sp)
54006528:	00801021 	move	v0,a0
5400652c:	03e00008 	jr	ra
54006530:	27bd0088 	addiu	sp,sp,136
54006534:	00000000 	nop
54006538:	001ec82b 	sltu	t9,zero,s8
5400653c:	1320004a 	beqz	t9,54006668 <ImpDisp_Cut+0x2d8>
54006540:	afb90058 	sw	t9,88(sp)
54006544:	02e80018 	mult	s7,t0
54006548:	00006810 	mfhi	t5
5400654c:	001767c3 	sra	t4,s7,0x1f
54006550:	8fa4005c 	lw	a0,92(sp)
54006554:	00179840 	sll	s3,s7,0x1
54006558:	2483fff6 	addiu	v1,a0,-10
5400655c:	000d5883 	sra	t3,t5,0x2
54006560:	016c3823 	subu	a3,t3,t4
54006564:	00073040 	sll	a2,a3,0x1
54006568:	70c35002 	mul	t2,a2,v1
5400656c:	02680018 	mult	s3,t0
54006570:	00004010 	mfhi	t0
54006574:	8fa50038 	lw	a1,56(sp)
54006578:	0013a7c3 	sra	s4,s3,0x1f
5400657c:	01490019 	multu	t2,t1
54006580:	00001010 	mfhi	v0
54006584:	8fa90050 	lw	t1,80(sp)
54006588:	0008a883 	sra	s5,t0,0x2
5400658c:	03c08021 	move	s0,s8
54006590:	0002f8c2 	srl	ra,v0,0x3
54006594:	013f9021 	addu	s2,t1,ra
54006598:	00bf8821 	addu	s1,a1,ra
5400659c:	00000000 	nop
540065a0:	02402021 	move	a0,s2
540065a4:	02202821 	move	a1,s1
540065a8:	02b43023 	subu	a2,s5,s4
540065ac:	0d0016e6 	jal	54005b98 <MemCopy>
540065b0:	2610ffff 	addiu	s0,s0,-1
540065b4:	02539021 	addu	s2,s2,s3
540065b8:	1600fff9 	bnez	s0,540065a0 <ImpDisp_Cut+0x210>
540065bc:	02338821 	addu	s1,s1,s3
540065c0:	8fae0058 	lw	t6,88(sp)
540065c4:	11c00028 	beqz	t6,54006668 <ImpDisp_Cut+0x2d8>
540065c8:	3c056666 	lui	a1,0x6666
540065cc:	34b86667 	ori	t8,a1,0x6667
540065d0:	02f80018 	mult	s7,t8
540065d4:	00001810 	mfhi	v1
540065d8:	001737c3 	sra	a2,s7,0x1f
540065dc:	8fa2005c 	lw	v0,92(sp)
540065e0:	3c09cccc 	lui	t1,0xcccc
540065e4:	3539cccd 	ori	t9,t1,0xcccd
540065e8:	00034083 	sra	t0,v1,0x2
540065ec:	01065023 	subu	t2,t0,a2
540065f0:	000a9840 	sll	s3,t2,0x1
540065f4:	7262f802 	mul	ra,s3,v0
540065f8:	72fea802 	mul	s5,s7,s8
540065fc:	00179840 	sll	s3,s7,0x1
54006600:	8fb40038 	lw	s4,56(sp)
54006604:	8fb10050 	lw	s1,80(sp)
54006608:	03f90019 	multu	ra,t9
5400660c:	00008010 	mfhi	s0
54006610:	02780018 	mult	s3,t8
54006614:	00007810 	mfhi	t7
54006618:	00159040 	sll	s2,s5,0x1
5400661c:	0254b821 	addu	s7,s2,s4
54006620:	afb7004c 	sw	s7,76(sp)
54006624:	0013a7c3 	sra	s4,s3,0x1f
54006628:	0251b821 	addu	s7,s2,s1
5400662c:	000fa883 	sra	s5,t7,0x2
54006630:	001090c2 	srl	s2,s0,0x3
54006634:	00008821 	move	s1,zero
54006638:	03c08021 	move	s0,s8
5400663c:	00000000 	nop
54006640:	8fa7004c 	lw	a3,76(sp)
54006644:	02f12023 	subu	a0,s7,s1
54006648:	00f1f023 	subu	s8,a3,s1
5400664c:	00922023 	subu	a0,a0,s2
54006650:	03d22823 	subu	a1,s8,s2
54006654:	02b43023 	subu	a2,s5,s4
54006658:	0d0016e6 	jal	54005b98 <MemCopy>
5400665c:	2610ffff 	addiu	s0,s0,-1
54006660:	1600fff7 	bnez	s0,54006640 <ImpDisp_Cut+0x2b0>
54006664:	02338821 	addu	s1,s1,s3
54006668:	8ecb0008 	lw	t3,8(s6)
5400666c:	8ed7000c 	lw	s7,12(s6)
54006670:	8ede0010 	lw	s8,16(s6)
54006674:	1000ff8e 	b	540064b0 <ImpDisp_Cut+0x120>
54006678:	afab0050 	sw	t3,80(sp)
5400667c:	00000000 	nop
54006680:	8ed10024 	lw	s1,36(s6)
54006684:	8fb20038 	lw	s2,56(sp)
54006688:	8faf003c 	lw	t7,60(sp)
5400668c:	8fae0040 	lw	t6,64(sp)
54006690:	8fad0044 	lw	t5,68(sp)
54006694:	8fac0048 	lw	t4,72(sp)
54006698:	3c165401 	lui	s6,0x5401
5400669c:	27a40010 	addiu	a0,sp,16
540066a0:	24100002 	li	s0,2
540066a4:	afb20010 	sw	s2,16(sp)
540066a8:	afb70014 	sw	s7,20(sp)
540066ac:	afbe0018 	sw	s8,24(sp)
540066b0:	afb10020 	sw	s1,32(sp)
540066b4:	afb0001c 	sw	s0,28(sp)
540066b8:	afaf0030 	sw	t7,48(sp)
540066bc:	afae0034 	sw	t6,52(sp)
540066c0:	afad0028 	sw	t5,40(sp)
540066c4:	0d00237c 	jal	54008df0 <fillimagefun>
540066c8:	afac002c 	sw	t4,44(sp)
540066cc:	92cb424a 	lbu	t3,16970(s6)
540066d0:	00002021 	move	a0,zero
540066d4:	25670001 	addiu	a3,t3,1
540066d8:	30e60001 	andi	a2,a3,0x1
540066dc:	a2c6424a 	sb	a2,16970(s6)
540066e0:	8fbf0084 	lw	ra,132(sp)
540066e4:	8fbe0080 	lw	s8,128(sp)
540066e8:	8fb7007c 	lw	s7,124(sp)
540066ec:	8fb60078 	lw	s6,120(sp)
540066f0:	8fb50074 	lw	s5,116(sp)
540066f4:	8fb40070 	lw	s4,112(sp)
540066f8:	8fb3006c 	lw	s3,108(sp)
540066fc:	8fb20068 	lw	s2,104(sp)
54006700:	8fb10064 	lw	s1,100(sp)
54006704:	8fb00060 	lw	s0,96(sp)
54006708:	00801021 	move	v0,a0
5400670c:	03e00008 	jr	ra
54006710:	27bd0088 	addiu	sp,sp,136
54006714:	8fad005c 	lw	t5,92(sp)
54006718:	240c0064 	li	t4,100
5400671c:	11ac0027 	beq	t5,t4,540067bc <ImpDisp_Cut+0x42c>
54006720:	000e9040 	sll	s2,t6,0x1
54006724:	8fb0005c 	lw	s0,92(sp)
54006728:	3c0dcccc 	lui	t5,0xcccc
5400672c:	00107840 	sll	t7,s0,0x1
54006730:	25eeffec 	addiu	t6,t7,-20
54006734:	71d16002 	mul	t4,t6,s1
54006738:	35b3cccd 	ori	s3,t5,0xcccd
5400673c:	8fa70038 	lw	a3,56(sp)
54006740:	8fa30050 	lw	v1,80(sp)
54006744:	02403021 	move	a2,s2
54006748:	71975802 	mul	t3,t4,s7
5400674c:	01730019 	multu	t3,s3
54006750:	00002810 	mfhi	a1
54006754:	000520c2 	srl	a0,a1,0x3
54006758:	00872821 	addu	a1,a0,a3
5400675c:	0d0016e6 	jal	54005b98 <MemCopy>
54006760:	00832021 	addu	a0,a0,v1
54006764:	8fa6005c 	lw	a2,92(sp)
54006768:	72fe4002 	mul	t0,s7,s8
5400676c:	72261002 	mul	v0,s1,a2
54006770:	8faa0038 	lw	t2,56(sp)
54006774:	8fa90050 	lw	t1,80(sp)
54006778:	02403021 	move	a2,s2
5400677c:	0008f840 	sll	ra,t0,0x1
54006780:	7057c802 	mul	t9,v0,s7
54006784:	03eaa021 	addu	s4,ra,t2
54006788:	03e99021 	addu	s2,ra,t1
5400678c:	0019c040 	sll	t8,t9,0x1
54006790:	03130019 	multu	t8,s3
54006794:	0000a810 	mfhi	s5
54006798:	0015b8c2 	srl	s7,s5,0x3
5400679c:	02972823 	subu	a1,s4,s7
540067a0:	0d0016e6 	jal	54005b98 <MemCopy>
540067a4:	02572023 	subu	a0,s2,s7
540067a8:	8ed10008 	lw	s1,8(s6)
540067ac:	8ed7000c 	lw	s7,12(s6)
540067b0:	8ede0010 	lw	s8,16(s6)
540067b4:	1000ff3e 	b	540064b0 <ImpDisp_Cut+0x120>
540067b8:	afb10050 	sw	s1,80(sp)
540067bc:	02258021 	addu	s0,s1,a1
540067c0:	72177802 	mul	t7,s0,s7
540067c4:	1000ffd7 	b	54006724 <ImpDisp_Cut+0x394>
540067c8:	000f9040 	sll	s2,t7,0x1
540067cc:	00000000 	nop

540067d0 <ImpDisp_Erase>:
540067d0:	27bdff88 	addiu	sp,sp,-120
540067d4:	3c0e6666 	lui	t6,0x6666
540067d8:	afbf0074 	sw	ra,116(sp)
540067dc:	afbe0070 	sw	s8,112(sp)
540067e0:	afb7006c 	sw	s7,108(sp)
540067e4:	afb3005c 	sw	s3,92(sp)
540067e8:	afb20058 	sw	s2,88(sp)
540067ec:	afb10054 	sw	s1,84(sp)
540067f0:	afb60068 	sw	s6,104(sp)
540067f4:	afb50064 	sw	s5,100(sp)
540067f8:	afb40060 	sw	s4,96(sp)
540067fc:	afb00050 	sw	s0,80(sp)
54006800:	8c880018 	lw	t0,24(a0)
54006804:	8c890014 	lw	t1,20(a0)
54006808:	0008b840 	sll	s7,t0,0x1
5400680c:	02e82821 	addu	a1,s7,t0
54006810:	000578c0 	sll	t7,a1,0x3
54006814:	01e86021 	addu	t4,t7,t0
54006818:	000c5880 	sll	t3,t4,0x2
5400681c:	0169001a 	div	zero,t3,t1
54006820:	012001f4 	teq	t1,zero,0x7
54006824:	8c8c000c 	lw	t4,12(a0)
54006828:	35c36667 	ori	v1,t6,0x6667
5400682c:	8c8b0010 	lw	t3,16(a0)
54006830:	3c0dcccc 	lui	t5,0xcccc
54006834:	8c960030 	lw	s6,48(a0)
54006838:	8c950034 	lw	s5,52(a0)
5400683c:	8c940028 	lw	s4,40(a0)
54006840:	8c90002c 	lw	s0,44(a0)
54006844:	000b57c3 	sra	t2,t3,0x1f
54006848:	35aecccd 	ori	t6,t5,0xcccd
5400684c:	00809821 	move	s3,a0
54006850:	8c8f0004 	lw	t7,4(a0)
54006854:	8c8d0008 	lw	t5,8(a0)
54006858:	afb5003c 	sw	s5,60(sp)
5400685c:	000c8fc3 	sra	s1,t4,0x1f
54006860:	afb60038 	sw	s6,56(sp)
54006864:	afb40040 	sw	s4,64(sp)
54006868:	afb00044 	sw	s0,68(sp)
5400686c:	000ca040 	sll	s4,t4,0x1
54006870:	24100002 	li	s0,2
54006874:	0000f812 	mflo	ra
54006878:	01830018 	mult	t4,v1
5400687c:	00009010 	mfhi	s2
54006880:	01630018 	mult	t3,v1
54006884:	00001010 	mfhi	v0
54006888:	03e30018 	mult	ra,v1
5400688c:	00003810 	mfhi	a3
54006890:	00123083 	sra	a2,s2,0x2
54006894:	00d13023 	subu	a2,a2,s1
54006898:	00022083 	sra	a0,v0,0x2
5400689c:	008ac023 	subu	t8,a0,t2
540068a0:	0018b880 	sll	s7,t8,0x2
540068a4:	02f8a821 	addu	s5,s7,t8
540068a8:	0007c883 	sra	t9,a3,0x2
540068ac:	00153840 	sll	a3,s5,0x1
540068b0:	00ee0019 	multu	a3,t6
540068b4:	00002010 	mfhi	a0
540068b8:	001ff7c3 	sra	s8,ra,0x1f
540068bc:	0006b080 	sll	s6,a2,0x2
540068c0:	033e2823 	subu	a1,t9,s8
540068c4:	02c69021 	addu	s2,s6,a2
540068c8:	00125040 	sll	t2,s2,0x1
540068cc:	00058880 	sll	s1,a1,0x2
540068d0:	018a1023 	subu	v0,t4,t2
540068d4:	02251821 	addu	v1,s1,a1
540068d8:	0002f040 	sll	s8,v0,0x1
540068dc:	0006b840 	sll	s7,a2,0x1
540068e0:	000420c2 	srl	a0,a0,0x3
540068e4:	00031040 	sll	v0,v1,0x1
540068e8:	11280069 	beq	t1,t0,54006a90 <ImpDisp_Erase+0x2c0>
540068ec:	01673823 	subu	a3,t3,a3
540068f0:	3c125401 	lui	s2,0x5401
540068f4:	afb20048 	sw	s2,72(sp)
540068f8:	8fa60048 	lw	a2,72(sp)
540068fc:	2c51000a 	sltiu	s1,v0,10
54006900:	2408000a 	li	t0,10
54006904:	90c54249 	lbu	a1,16969(a2)
54006908:	240a0001 	li	t2,1
5400690c:	10aa0028 	beq	a1,t2,540069b0 <ImpDisp_Erase+0x1e0>
54006910:	0051400a 	movz	t0,v0,s1
54006914:	28a20002 	slti	v0,a1,2
54006918:	14400039 	bnez	v0,54006a00 <ImpDisp_Erase+0x230>
5400691c:	00000000 	nop
54006920:	10b0007f 	beq	a1,s0,54006b20 <ImpDisp_Erase+0x350>
54006924:	24100003 	li	s0,3
54006928:	10b000a0 	beq	a1,s0,54006bac <ImpDisp_Erase+0x3dc>
5400692c:	24170064 	li	s7,100
54006930:	8e6e0024 	lw	t6,36(s3)
54006934:	8fb6003c 	lw	s6,60(sp)
54006938:	8fb50040 	lw	s5,64(sp)
5400693c:	8fa50038 	lw	a1,56(sp)
54006940:	8fa60044 	lw	a2,68(sp)
54006944:	27a40010 	addiu	a0,sp,16
54006948:	24090002 	li	t1,2
5400694c:	afb60034 	sw	s6,52(sp)
54006950:	afb50028 	sw	s5,40(sp)
54006954:	afad0010 	sw	t5,16(sp)
54006958:	afac0014 	sw	t4,20(sp)
5400695c:	afab0018 	sw	t3,24(sp)
54006960:	afae0020 	sw	t6,32(sp)
54006964:	afa9001c 	sw	t1,28(sp)
54006968:	afa50030 	sw	a1,48(sp)
5400696c:	0d00237c 	jal	54008df0 <fillimagefun>
54006970:	afa6002c 	sw	a2,44(sp)
54006974:	8fb30048 	lw	s3,72(sp)
54006978:	8fbf0074 	lw	ra,116(sp)
5400697c:	8fbe0070 	lw	s8,112(sp)
54006980:	92644249 	lbu	a0,16969(s3)
54006984:	8fb7006c 	lw	s7,108(sp)
54006988:	8fb60068 	lw	s6,104(sp)
5400698c:	8fb50064 	lw	s5,100(sp)
54006990:	8fb40060 	lw	s4,96(sp)
54006994:	8fb3005c 	lw	s3,92(sp)
54006998:	8fb20058 	lw	s2,88(sp)
5400699c:	8fb10054 	lw	s1,84(sp)
540069a0:	8fb00050 	lw	s0,80(sp)
540069a4:	00801021 	move	v0,a0
540069a8:	03e00008 	jr	ra
540069ac:	27bd0078 	addiu	sp,sp,120
540069b0:	7184c802 	mul	t9,t4,a0
540069b4:	24170064 	li	s7,100
540069b8:	11170031 	beq	t0,s7,54006a80 <ImpDisp_Erase+0x2b0>
540069bc:	00193040 	sll	a2,t9,0x1
540069c0:	72848802 	mul	s1,s4,a0
540069c4:	2512fff6 	addiu	s2,t0,-10
540069c8:	3c03cccc 	lui	v1,0xcccc
540069cc:	3467cccd 	ori	a3,v1,0xcccd
540069d0:	72325002 	mul	t2,s1,s2
540069d4:	01470019 	multu	t2,a3
540069d8:	00004010 	mfhi	t0
540069dc:	0008a0c2 	srl	s4,t0,0x3
540069e0:	028f2821 	addu	a1,s4,t7
540069e4:	0d000867 	jal	5400219c <memcpy>
540069e8:	028d2021 	addu	a0,s4,t5
540069ec:	8e6d0008 	lw	t5,8(s3)
540069f0:	8e6c000c 	lw	t4,12(s3)
540069f4:	1000ffce 	b	54006930 <ImpDisp_Erase+0x160>
540069f8:	8e6b0010 	lw	t3,16(s3)
540069fc:	00000000 	nop
54006a00:	14a0ffcb 	bnez	a1,54006930 <ImpDisp_Erase+0x160>
54006a04:	24040064 	li	a0,100
54006a08:	1104007f 	beq	t0,a0,54006c08 <ImpDisp_Erase+0x438>
54006a0c:	3c155401 	lui	s5,0x5401
54006a10:	1160ffc7 	beqz	t3,54006930 <ImpDisp_Erase+0x160>
54006a14:	028e0019 	multu	s4,t6
54006a18:	0000c010 	mfhi	t8
54006a1c:	2509fff6 	addiu	t1,t0,-10
54006a20:	01609021 	move	s2,t3
54006a24:	3c155401 	lui	s5,0x5401
54006a28:	001828c2 	srl	a1,t8,0x3
54006a2c:	70a96002 	mul	t4,a1,t1
54006a30:	018e0019 	multu	t4,t6
54006a34:	00005810 	mfhi	t3
54006a38:	000b70c2 	srl	t6,t3,0x3
54006a3c:	01ae8821 	addu	s1,t5,t6
54006a40:	01ee8021 	addu	s0,t7,t6
54006a44:	8eaf424c 	lw	t7,16972(s5)
54006a48:	02202021 	move	a0,s1
54006a4c:	71fe6802 	mul	t5,t7,s8
54006a50:	02002821 	move	a1,s0
54006a54:	2652ffff 	addiu	s2,s2,-1
54006a58:	02348821 	addu	s1,s1,s4
54006a5c:	02148021 	addu	s0,s0,s4
54006a60:	0d000867 	jal	5400219c <memcpy>
54006a64:	01b73021 	addu	a2,t5,s7
54006a68:	1640fff7 	bnez	s2,54006a48 <ImpDisp_Erase+0x278>
54006a6c:	8eaf424c 	lw	t7,16972(s5)
54006a70:	8e6d0008 	lw	t5,8(s3)
54006a74:	8e6c000c 	lw	t4,12(s3)
54006a78:	1000ffad 	b	54006930 <ImpDisp_Erase+0x160>
54006a7c:	8e6b0010 	lw	t3,16(s3)
54006a80:	0087f821 	addu	ra,a0,a3
54006a84:	73ecf002 	mul	s8,ra,t4
54006a88:	1000ffcd 	b	540069c0 <ImpDisp_Erase+0x1f0>
54006a8c:	001e3040 	sll	a2,s8,0x1
54006a90:	8e630024 	lw	v1,36(s3)
54006a94:	8fbf003c 	lw	ra,60(sp)
54006a98:	8fbe0040 	lw	s8,64(sp)
54006a9c:	8fa70038 	lw	a3,56(sp)
54006aa0:	8fb90044 	lw	t9,68(sp)
54006aa4:	3c135401 	lui	s3,0x5401
54006aa8:	27a40010 	addiu	a0,sp,16
54006aac:	afb0001c 	sw	s0,28(sp)
54006ab0:	afbf0034 	sw	ra,52(sp)
54006ab4:	afbe0028 	sw	s8,40(sp)
54006ab8:	afaf0010 	sw	t7,16(sp)
54006abc:	afac0014 	sw	t4,20(sp)
54006ac0:	afab0018 	sw	t3,24(sp)
54006ac4:	afa30020 	sw	v1,32(sp)
54006ac8:	afa70030 	sw	a3,48(sp)
54006acc:	0d00237c 	jal	54008df0 <fillimagefun>
54006ad0:	afb9002c 	sw	t9,44(sp)
54006ad4:	92784249 	lbu	t8,16969(s3)
54006ad8:	00002021 	move	a0,zero
54006adc:	27090001 	addiu	t1,t8,1
54006ae0:	31280003 	andi	t0,t1,0x3
54006ae4:	a2684249 	sb	t0,16969(s3)
54006ae8:	8fbf0074 	lw	ra,116(sp)
54006aec:	8fbe0070 	lw	s8,112(sp)
54006af0:	8fb7006c 	lw	s7,108(sp)
54006af4:	8fb60068 	lw	s6,104(sp)
54006af8:	8fb50064 	lw	s5,100(sp)
54006afc:	8fb40060 	lw	s4,96(sp)
54006b00:	8fb3005c 	lw	s3,92(sp)
54006b04:	8fb20058 	lw	s2,88(sp)
54006b08:	8fb10054 	lw	s1,84(sp)
54006b0c:	8fb00050 	lw	s0,80(sp)
54006b10:	00801021 	move	v0,a0
54006b14:	03e00008 	jr	ra
54006b18:	27bd0078 	addiu	sp,sp,120
54006b1c:	00000000 	nop
54006b20:	24060064 	li	a2,100
54006b24:	1106003b 	beq	t0,a2,54006c14 <ImpDisp_Erase+0x444>
54006b28:	3c025401 	lui	v0,0x5401
54006b2c:	1160ff80 	beqz	t3,54006930 <ImpDisp_Erase+0x160>
54006b30:	028e0019 	multu	s4,t6
54006b34:	00004810 	mfhi	t1
54006b38:	728b6002 	mul	t4,s4,t3
54006b3c:	3c165401 	lui	s6,0x5401
54006b40:	afb6004c 	sw	s6,76(sp)
54006b44:	01608021 	move	s0,t3
54006b48:	000928c2 	srl	a1,t1,0x3
54006b4c:	70a8a802 	mul	s5,a1,t0
54006b50:	00008821 	move	s1,zero
54006b54:	018fb021 	addu	s6,t4,t7
54006b58:	02ae0019 	multu	s5,t6
54006b5c:	00002010 	mfhi	a0
54006b60:	018da821 	addu	s5,t4,t5
54006b64:	000490c2 	srl	s2,a0,0x3
54006b68:	8faf004c 	lw	t7,76(sp)
54006b6c:	02b15823 	subu	t3,s5,s1
54006b70:	02d17023 	subu	t6,s6,s1
54006b74:	8ded424c 	lw	t5,16972(t7)
54006b78:	01722023 	subu	a0,t3,s2
54006b7c:	71bec002 	mul	t8,t5,s8
54006b80:	01d22823 	subu	a1,t6,s2
54006b84:	2610ffff 	addiu	s0,s0,-1
54006b88:	02348821 	addu	s1,s1,s4
54006b8c:	0d000867 	jal	5400219c <memcpy>
54006b90:	03173021 	addu	a2,t8,s7
54006b94:	1600fff5 	bnez	s0,54006b6c <ImpDisp_Erase+0x39c>
54006b98:	8faf004c 	lw	t7,76(sp)
54006b9c:	8e6d0008 	lw	t5,8(s3)
54006ba0:	8e6c000c 	lw	t4,12(s3)
54006ba4:	1000ff62 	b	54006930 <ImpDisp_Erase+0x160>
54006ba8:	8e6b0010 	lw	t3,16(s3)
54006bac:	1117001c 	beq	t0,s7,54006c20 <ImpDisp_Erase+0x450>
54006bb0:	3c195401 	lui	t9,0x5401
54006bb4:	72843002 	mul	a2,s4,a0
54006bb8:	8f23424c 	lw	v1,16972(t9)
54006bbc:	70c82002 	mul	a0,a2,t0
54006bc0:	70673802 	mul	a3,v1,a3
54006bc4:	3c0ccccc 	lui	t4,0xcccc
54006bc8:	3582cccd 	ori	v0,t4,0xcccd
54006bcc:	728b8002 	mul	s0,s4,t3
54006bd0:	70f44002 	mul	t0,a3,s4
54006bd4:	00820019 	multu	a0,v0
54006bd8:	00009010 	mfhi	s2
54006bdc:	020f8821 	addu	s1,s0,t7
54006be0:	020d5021 	addu	t2,s0,t5
54006be4:	01063021 	addu	a2,t0,a2
54006be8:	001218c2 	srl	v1,s2,0x3
54006bec:	0223f823 	subu	ra,s1,v1
54006bf0:	0143a023 	subu	s4,t2,v1
54006bf4:	03e82823 	subu	a1,ra,t0
54006bf8:	0d000867 	jal	5400219c <memcpy>
54006bfc:	02882023 	subu	a0,s4,t0
54006c00:	1000ff7b 	b	540069f0 <ImpDisp_Erase+0x220>
54006c04:	8e6d0008 	lw	t5,8(s3)
54006c08:	24160001 	li	s6,1
54006c0c:	1000ff80 	b	54006a10 <ImpDisp_Erase+0x240>
54006c10:	aeb6424c 	sw	s6,16972(s5)
54006c14:	24100001 	li	s0,1
54006c18:	1000ffc4 	b	54006b2c <ImpDisp_Erase+0x35c>
54006c1c:	ac50424c 	sw	s0,16972(v0)
54006c20:	72843002 	mul	a2,s4,a0
54006c24:	3c1e5401 	lui	s8,0x5401
54006c28:	24030001 	li	v1,1
54006c2c:	1000ffe3 	b	54006bbc <ImpDisp_Erase+0x3ec>
54006c30:	afc3424c 	sw	v1,16972(s8)
54006c34:	00000000 	nop

54006c38 <ImpDisp_Louver>:
54006c38:	27bdff40 	addiu	sp,sp,-192
54006c3c:	3c025401 	lui	v0,0x5401
54006c40:	afbe00b8 	sw	s8,184(sp)
54006c44:	0080f021 	move	s8,a0
54006c48:	90444248 	lbu	a0,16968(v0)
54006c4c:	afbf00bc 	sw	ra,188(sp)
54006c50:	308300ff 	andi	v1,a0,0xff
54006c54:	afb700b4 	sw	s7,180(sp)
54006c58:	afb600b0 	sw	s6,176(sp)
54006c5c:	afb500ac 	sw	s5,172(sp)
54006c60:	afb400a8 	sw	s4,168(sp)
54006c64:	afb300a4 	sw	s3,164(sp)
54006c68:	afb200a0 	sw	s2,160(sp)
54006c6c:	afb1009c 	sw	s1,156(sp)
54006c70:	afb00098 	sw	s0,152(sp)
54006c74:	10600011 	beqz	v1,54006cbc <ImpDisp_Louver+0x84>
54006c78:	afa20088 	sw	v0,136(sp)
54006c7c:	24050001 	li	a1,1
54006c80:	1065008d 	beq	v1,a1,54006eb8 <ImpDisp_Louver+0x280>
54006c84:	3c0d6666 	lui	t5,0x6666
54006c88:	8fbf00bc 	lw	ra,188(sp)
54006c8c:	8fbe00b8 	lw	s8,184(sp)
54006c90:	8fb700b4 	lw	s7,180(sp)
54006c94:	8fb600b0 	lw	s6,176(sp)
54006c98:	8fb500ac 	lw	s5,172(sp)
54006c9c:	8fb400a8 	lw	s4,168(sp)
54006ca0:	8fb300a4 	lw	s3,164(sp)
54006ca4:	8fb200a0 	lw	s2,160(sp)
54006ca8:	8fb1009c 	lw	s1,156(sp)
54006cac:	8fb00098 	lw	s0,152(sp)
54006cb0:	308200ff 	andi	v0,a0,0xff
54006cb4:	03e00008 	jr	ra
54006cb8:	27bd00c0 	addiu	sp,sp,192
54006cbc:	8fc90018 	lw	t1,24(s8)
54006cc0:	8fc60014 	lw	a2,20(s8)
54006cc4:	00096840 	sll	t5,t1,0x1
54006cc8:	01a96021 	addu	t4,t5,t1
54006ccc:	000c50c0 	sll	t2,t4,0x3
54006cd0:	01494021 	addu	t0,t2,t1
54006cd4:	00083880 	sll	a3,t0,0x2
54006cd8:	00e6001a 	div	zero,a3,a2
54006cdc:	00c001f4 	teq	a2,zero,0x7
54006ce0:	3c136666 	lui	s3,0x6666
54006ce4:	36726667 	ori	s2,s3,0x6667
54006ce8:	8fd80030 	lw	t8,48(s8)
54006cec:	8fd70034 	lw	s7,52(s8)
54006cf0:	8fd60028 	lw	s6,40(s8)
54006cf4:	8fd4002c 	lw	s4,44(s8)
54006cf8:	240a000a 	li	t2,10
54006cfc:	0000a821 	move	s5,zero
54006d00:	8fcd0004 	lw	t5,4(s8)
54006d04:	8fcc0008 	lw	t4,8(s8)
54006d08:	8fc7000c 	lw	a3,12(s8)
54006d0c:	8fc80010 	lw	t0,16(s8)
54006d10:	afb80060 	sw	t8,96(sp)
54006d14:	afb70064 	sw	s7,100(sp)
54006d18:	afb60068 	sw	s6,104(sp)
54006d1c:	afb4006c 	sw	s4,108(sp)
54006d20:	00008012 	mflo	s0
54006d24:	02120018 	mult	s0,s2
54006d28:	00008810 	mfhi	s1
54006d2c:	00107fc3 	sra	t7,s0,0x1f
54006d30:	00117083 	sra	t6,s1,0x2
54006d34:	01cf5823 	subu	t3,t6,t7
54006d38:	000b2080 	sll	a0,t3,0x2
54006d3c:	008b1821 	addu	v1,a0,t3
54006d40:	10c900db 	beq	a2,t1,540070b0 <ImpDisp_Louver+0x478>
54006d44:	00031840 	sll	v1,v1,0x1
54006d48:	010a001a 	div	zero,t0,t2
54006d4c:	014001f4 	teq	t2,zero,0x7
54006d50:	3c09cccc 	lui	t1,0xcccc
54006d54:	3524cccd 	ori	a0,t1,0xcccd
54006d58:	2874000a 	slti	s4,v1,10
54006d5c:	01404821 	move	t1,t2
54006d60:	0074480a 	movz	t1,v1,s4
54006d64:	00073840 	sll	a3,a3,0x1
54006d68:	240e0064 	li	t6,100
54006d6c:	00005810 	mfhi	t3
54006d70:	010b9823 	subu	s3,t0,t3
54006d74:	026a001b 	divu	zero,s3,t2
54006d78:	014001f4 	teq	t2,zero,0x7
54006d7c:	00002812 	mflo	a1
54006d80:	00a40019 	multu	a1,a0
54006d84:	00009010 	mfhi	s2
54006d88:	001288c2 	srl	s1,s2,0x3
54006d8c:	00118080 	sll	s0,s1,0x2
54006d90:	02117821 	addu	t7,s0,s1
54006d94:	000f1840 	sll	v1,t7,0x1
54006d98:	00640019 	multu	v1,a0
54006d9c:	00003010 	mfhi	a2
54006da0:	00a31823 	subu	v1,a1,v1
54006da4:	000620c2 	srl	a0,a2,0x3
54006da8:	70873002 	mul	a2,a0,a3
54006dac:	112e00d9 	beq	t1,t6,54007114 <ImpDisp_Louver+0x4dc>
54006db0:	00c0b821 	move	s7,a2
54006db4:	253ffff6 	addiu	ra,t1,-10
54006db8:	73e65002 	mul	t2,ra,a2
54006dbc:	3c19cccc 	lui	t9,0xcccc
54006dc0:	3728cccd 	ori	t0,t9,0xcccd
54006dc4:	70ebb002 	mul	s6,a3,t3
54006dc8:	70e59802 	mul	s3,a3,a1
54006dcc:	01480019 	multu	t2,t0
54006dd0:	00003810 	mfhi	a3
54006dd4:	39380064 	xori	t8,t1,0x64
54006dd8:	2f140001 	sltiu	s4,t8,1
54006ddc:	00009021 	move	s2,zero
54006de0:	000758c2 	srl	t3,a3,0x3
54006de4:	018b8821 	addu	s1,t4,t3
54006de8:	01ab8021 	addu	s0,t5,t3
54006dec:	00000000 	nop
54006df0:	3a430009 	xori	v1,s2,0x9
54006df4:	2c6e0001 	sltiu	t6,v1,1
54006df8:	01d41024 	and	v0,t6,s4
54006dfc:	24050001 	li	a1,1
54006e00:	00a2a80b 	movn	s5,a1,v0
54006e04:	72b66802 	mul	t5,s5,s6
54006e08:	02202021 	move	a0,s1
54006e0c:	02002821 	move	a1,s0
54006e10:	26520001 	addiu	s2,s2,1
54006e14:	02338821 	addu	s1,s1,s3
54006e18:	0d0016e6 	jal	54005b98 <MemCopy>
54006e1c:	01b73021 	addu	a2,t5,s7
54006e20:	2a4c000a 	slti	t4,s2,10
54006e24:	1580fff2 	bnez	t4,54006df0 <ImpDisp_Louver+0x1b8>
54006e28:	02138021 	addu	s0,s0,s3
54006e2c:	8fd2000c 	lw	s2,12(s8)
54006e30:	8fd10010 	lw	s1,16(s8)
54006e34:	8fd00024 	lw	s0,36(s8)
54006e38:	8fd30008 	lw	s3,8(s8)
54006e3c:	8fa60060 	lw	a2,96(sp)
54006e40:	8fbe0064 	lw	s8,100(sp)
54006e44:	8fb50068 	lw	s5,104(sp)
54006e48:	8fb7006c 	lw	s7,108(sp)
54006e4c:	27a40010 	addiu	a0,sp,16
54006e50:	240f0002 	li	t7,2
54006e54:	afb30010 	sw	s3,16(sp)
54006e58:	afb20014 	sw	s2,20(sp)
54006e5c:	afb10018 	sw	s1,24(sp)
54006e60:	afb00020 	sw	s0,32(sp)
54006e64:	afaf001c 	sw	t7,28(sp)
54006e68:	afa60030 	sw	a2,48(sp)
54006e6c:	afbe0034 	sw	s8,52(sp)
54006e70:	afb50028 	sw	s5,40(sp)
54006e74:	0d00237c 	jal	54008df0 <fillimagefun>
54006e78:	afb7002c 	sw	s7,44(sp)
54006e7c:	8fa80088 	lw	t0,136(sp)
54006e80:	91044248 	lbu	a0,16968(t0)
54006e84:	8fbf00bc 	lw	ra,188(sp)
54006e88:	8fbe00b8 	lw	s8,184(sp)
54006e8c:	8fb700b4 	lw	s7,180(sp)
54006e90:	8fb600b0 	lw	s6,176(sp)
54006e94:	8fb500ac 	lw	s5,172(sp)
54006e98:	8fb400a8 	lw	s4,168(sp)
54006e9c:	8fb300a4 	lw	s3,164(sp)
54006ea0:	8fb200a0 	lw	s2,160(sp)
54006ea4:	8fb1009c 	lw	s1,156(sp)
54006ea8:	8fb00098 	lw	s0,152(sp)
54006eac:	308200ff 	andi	v0,a0,0xff
54006eb0:	03e00008 	jr	ra
54006eb4:	27bd00c0 	addiu	sp,sp,192
54006eb8:	8fd40018 	lw	s4,24(s8)
54006ebc:	8fc90014 	lw	t1,20(s8)
54006ec0:	00148840 	sll	s1,s4,0x1
54006ec4:	02348021 	addu	s0,s1,s4
54006ec8:	001078c0 	sll	t7,s0,0x3
54006ecc:	01f43021 	addu	a2,t7,s4
54006ed0:	00065080 	sll	t2,a2,0x2
54006ed4:	0149001a 	div	zero,t2,t1
54006ed8:	012001f4 	teq	t1,zero,0x7
54006edc:	35ac6667 	ori	t4,t5,0x6667
54006ee0:	8fc70008 	lw	a3,8(s8)
54006ee4:	8fd50004 	lw	s5,4(s8)
54006ee8:	8fd70010 	lw	s7,16(s8)
54006eec:	8fc30030 	lw	v1,48(s8)
54006ef0:	8fce0034 	lw	t6,52(s8)
54006ef4:	8fc20028 	lw	v0,40(s8)
54006ef8:	8fc5002c 	lw	a1,44(s8)
54006efc:	afa70090 	sw	a3,144(sp)
54006f00:	240a000a 	li	t2,10
54006f04:	afb50070 	sw	s5,112(sp)
54006f08:	8fc7000c 	lw	a3,12(s8)
54006f0c:	afb7008c 	sw	s7,140(sp)
54006f10:	afa30074 	sw	v1,116(sp)
54006f14:	afae0078 	sw	t6,120(sp)
54006f18:	afa2007c 	sw	v0,124(sp)
54006f1c:	afa50080 	sw	a1,128(sp)
54006f20:	0000c812 	mflo	t9
54006f24:	032c0018 	mult	t9,t4
54006f28:	0000f810 	mfhi	ra
54006f2c:	001947c3 	sra	t0,t9,0x1f
54006f30:	001fc083 	sra	t8,ra,0x2
54006f34:	03085823 	subu	t3,t8,t0
54006f38:	000b2080 	sll	a0,t3,0x2
54006f3c:	008bb021 	addu	s6,a0,t3
54006f40:	11340077 	beq	t1,s4,54007120 <ImpDisp_Louver+0x4e8>
54006f44:	00162040 	sll	a0,s6,0x1
54006f48:	00079840 	sll	s3,a3,0x1
54006f4c:	026a001b 	divu	zero,s3,t2
54006f50:	014001f4 	teq	t2,zero,0x7
54006f54:	3c07cccc 	lui	a3,0xcccc
54006f58:	34e7cccd 	ori	a3,a3,0xcccd
54006f5c:	2c95000a 	sltiu	s5,a0,10
54006f60:	01404821 	move	t1,t2
54006f64:	0095480a 	movz	t1,a0,s5
54006f68:	2538fff6 	addiu	t8,t1,-10
54006f6c:	8fa2008c 	lw	v0,140(sp)
54006f70:	392f0064 	xori	t7,t1,0x64
54006f74:	0002b02b 	sltu	s6,zero,v0
54006f78:	afb60084 	sw	s6,132(sp)
54006f7c:	24160009 	li	s6,9
54006f80:	00007010 	mfhi	t6
54006f84:	026eb823 	subu	s7,s3,t6
54006f88:	02ea001b 	divu	zero,s7,t2
54006f8c:	014001f4 	teq	t2,zero,0x7
54006f90:	00008012 	mflo	s0
54006f94:	020eb821 	addu	s7,s0,t6
54006f98:	02e70019 	multu	s7,a3
54006f9c:	00006810 	mfhi	t5
54006fa0:	02070019 	multu	s0,a3
54006fa4:	00002010 	mfhi	a0
54006fa8:	000d60c2 	srl	t4,t5,0x3
54006fac:	000cf880 	sll	ra,t4,0x2
54006fb0:	03ec3021 	addu	a2,ra,t4
54006fb4:	00067040 	sll	t6,a2,0x1
54006fb8:	01c70019 	multu	t6,a3
54006fbc:	0000c810 	mfhi	t9
54006fc0:	000458c2 	srl	t3,a0,0x3
54006fc4:	000ba080 	sll	s4,t3,0x2
54006fc8:	028b9021 	addu	s2,s4,t3
54006fcc:	00121840 	sll	v1,s2,0x1
54006fd0:	001940c2 	srl	t0,t9,0x3
54006fd4:	7308a802 	mul	s5,t8,t0
54006fd8:	00670019 	multu	v1,a3
54006fdc:	00008810 	mfhi	s1
54006fe0:	02035023 	subu	t2,s0,v1
54006fe4:	02ee6823 	subu	t5,s7,t6
54006fe8:	02a70019 	multu	s5,a3
54006fec:	00006010 	mfhi	t4
54006ff0:	001110c2 	srl	v0,s1,0x3
54006ff4:	01422821 	addu	a1,t2,v0
54006ff8:	00af100a 	movz	v0,a1,t7
54006ffc:	004da821 	addu	s5,v0,t5
54007000:	000ca0c2 	srl	s4,t4,0x3
54007004:	00000000 	nop
54007008:	8fa50084 	lw	a1,132(sp)
5400700c:	10a0000e 	beqz	a1,54007048 <ImpDisp_Louver+0x410>
54007010:	8faa0070 	lw	t2,112(sp)
54007014:	8faf0090 	lw	t7,144(sp)
54007018:	8fb0008c 	lw	s0,140(sp)
5400701c:	01549021 	addu	s2,t2,s4
54007020:	01f48821 	addu	s1,t7,s4
54007024:	00000000 	nop
54007028:	02202021 	move	a0,s1
5400702c:	02402821 	move	a1,s2
54007030:	02a03021 	move	a2,s5
54007034:	0d000867 	jal	5400219c <memcpy>
54007038:	2610ffff 	addiu	s0,s0,-1
5400703c:	02338821 	addu	s1,s1,s3
54007040:	1600fff9 	bnez	s0,54007028 <ImpDisp_Louver+0x3f0>
54007044:	02539021 	addu	s2,s2,s3
54007048:	26d6ffff 	addiu	s6,s6,-1
5400704c:	06c1ffee 	bgez	s6,54007008 <ImpDisp_Louver+0x3d0>
54007050:	0297a021 	addu	s4,s4,s7
54007054:	8fcb000c 	lw	t3,12(s8)
54007058:	8fd40010 	lw	s4,16(s8)
5400705c:	8fd20024 	lw	s2,36(s8)
54007060:	8fd80008 	lw	t8,8(s8)
54007064:	8fa30074 	lw	v1,116(sp)
54007068:	8fb00078 	lw	s0,120(sp)
5400706c:	8fb3007c 	lw	s3,124(sp)
54007070:	8fbe0080 	lw	s8,128(sp)
54007074:	27a40038 	addiu	a0,sp,56
54007078:	24110002 	li	s1,2
5400707c:	afb80038 	sw	t8,56(sp)
54007080:	afab003c 	sw	t3,60(sp)
54007084:	afb40040 	sw	s4,64(sp)
54007088:	afb20048 	sw	s2,72(sp)
5400708c:	afb10044 	sw	s1,68(sp)
54007090:	afa30058 	sw	v1,88(sp)
54007094:	afb0005c 	sw	s0,92(sp)
54007098:	afb30050 	sw	s3,80(sp)
5400709c:	0d00237c 	jal	54008df0 <fillimagefun>
540070a0:	afbe0054 	sw	s8,84(sp)
540070a4:	8fa80088 	lw	t0,136(sp)
540070a8:	1000ff76 	b	54006e84 <ImpDisp_Louver+0x24c>
540070ac:	91044248 	lbu	a0,16968(t0)
540070b0:	8fc50024 	lw	a1,36(s8)
540070b4:	8fbf0060 	lw	ra,96(sp)
540070b8:	8fbe0064 	lw	s8,100(sp)
540070bc:	8fb90068 	lw	t9,104(sp)
540070c0:	8fb5006c 	lw	s5,108(sp)
540070c4:	24020002 	li	v0,2
540070c8:	27a40010 	addiu	a0,sp,16
540070cc:	afad0010 	sw	t5,16(sp)
540070d0:	afa70014 	sw	a3,20(sp)
540070d4:	afa80018 	sw	t0,24(sp)
540070d8:	afa50020 	sw	a1,32(sp)
540070dc:	afa2001c 	sw	v0,28(sp)
540070e0:	afbf0030 	sw	ra,48(sp)
540070e4:	afbe0034 	sw	s8,52(sp)
540070e8:	afb90028 	sw	t9,40(sp)
540070ec:	afb5002c 	sw	s5,44(sp)
540070f0:	0d00237c 	jal	54008df0 <fillimagefun>
540070f4:	00000000 	nop
540070f8:	8fa80088 	lw	t0,136(sp)
540070fc:	911f4248 	lbu	ra,16968(t0)
54007100:	27e40001 	addiu	a0,ra,1
54007104:	30990001 	andi	t9,a0,0x1
54007108:	03202021 	move	a0,t9
5400710c:	1000fede 	b	54006c88 <ImpDisp_Louver+0x50>
54007110:	a1194248 	sb	t9,16968(t0)
54007114:	0083b021 	addu	s6,a0,v1
54007118:	1000ff26 	b	54006db4 <ImpDisp_Louver+0x17c>
5400711c:	72c7b802 	mul	s7,s6,a3
54007120:	8fd60024 	lw	s6,36(s8)
54007124:	8fb80070 	lw	t8,112(sp)
54007128:	8fab008c 	lw	t3,140(sp)
5400712c:	8fb40074 	lw	s4,116(sp)
54007130:	8fb30078 	lw	s3,120(sp)
54007134:	8fb2007c 	lw	s2,124(sp)
54007138:	8fbe0080 	lw	s8,128(sp)
5400713c:	24090002 	li	t1,2
54007140:	27a40038 	addiu	a0,sp,56
54007144:	afb80038 	sw	t8,56(sp)
54007148:	afa7003c 	sw	a3,60(sp)
5400714c:	afab0040 	sw	t3,64(sp)
54007150:	afb60048 	sw	s6,72(sp)
54007154:	afa90044 	sw	t1,68(sp)
54007158:	afb40058 	sw	s4,88(sp)
5400715c:	afb3005c 	sw	s3,92(sp)
54007160:	afb20050 	sw	s2,80(sp)
54007164:	1000ffe2 	b	540070f0 <ImpDisp_Louver+0x4b8>
54007168:	afbe0054 	sw	s8,84(sp)
5400716c:	00000000 	nop

54007170 <ImpDisp_RandomLine>:
54007170:	27bdff98 	addiu	sp,sp,-104
54007174:	3c076666 	lui	a3,0x6666
54007178:	afb3004c 	sw	s3,76(sp)
5400717c:	afb20048 	sw	s2,72(sp)
54007180:	afb10044 	sw	s1,68(sp)
54007184:	afb00040 	sw	s0,64(sp)
54007188:	afbf0064 	sw	ra,100(sp)
5400718c:	afbe0060 	sw	s8,96(sp)
54007190:	afb7005c 	sw	s7,92(sp)
54007194:	afb60058 	sw	s6,88(sp)
54007198:	afb50054 	sw	s5,84(sp)
5400719c:	afb40050 	sw	s4,80(sp)
540071a0:	8c850018 	lw	a1,24(a0)
540071a4:	8c860014 	lw	a2,20(a0)
540071a8:	00059840 	sll	s3,a1,0x1
540071ac:	02658821 	addu	s1,s3,a1
540071b0:	001180c0 	sll	s0,s1,0x3
540071b4:	02055821 	addu	t3,s0,a1
540071b8:	000b4880 	sll	t1,t3,0x2
540071bc:	0126001a 	div	zero,t1,a2
540071c0:	00c001f4 	teq	a2,zero,0x7
540071c4:	34e96667 	ori	t1,a3,0x6667
540071c8:	8c8f0028 	lw	t7,40(a0)
540071cc:	8c8e002c 	lw	t6,44(a0)
540071d0:	00809021 	move	s2,a0
540071d4:	8c960004 	lw	s6,4(a0)
540071d8:	8c950008 	lw	s5,8(a0)
540071dc:	8c8b000c 	lw	t3,12(a0)
540071e0:	8c870010 	lw	a3,16(a0)
540071e4:	8c970030 	lw	s7,48(a0)
540071e8:	8c9e0034 	lw	s8,52(a0)
540071ec:	afaf0038 	sw	t7,56(sp)
540071f0:	afae003c 	sw	t6,60(sp)
540071f4:	00006012 	mflo	t4
540071f8:	01890018 	mult	t4,t1
540071fc:	00006810 	mfhi	t5
54007200:	000c57c3 	sra	t2,t4,0x1f
54007204:	000d4083 	sra	t0,t5,0x2
54007208:	010a2023 	subu	a0,t0,t2
5400720c:	00041880 	sll	v1,a0,0x2
54007210:	00641021 	addu	v0,v1,a0
54007214:	10c50094 	beq	a2,a1,54007468 <ImpDisp_RandomLine+0x2f8>
54007218:	00024040 	sll	t0,v0,0x1
5400721c:	00e90018 	mult	a3,t1
54007220:	00004810 	mfhi	t1
54007224:	00077fc3 	sra	t7,a3,0x1f
54007228:	3c0acccc 	lui	t2,0xcccc
5400722c:	3542cccd 	ori	v0,t2,0xcccd
54007230:	241f000a 	li	ra,10
54007234:	00097083 	sra	t6,t1,0x2
54007238:	01cf6823 	subu	t5,t6,t7
5400723c:	000d6080 	sll	t4,t5,0x2
54007240:	018d2021 	addu	a0,t4,t5
54007244:	00042840 	sll	a1,a0,0x1
54007248:	00a20019 	multu	a1,v0
5400724c:	00003010 	mfhi	a2
54007250:	2903000a 	slti	v1,t0,10
54007254:	03e07021 	move	t6,ra
54007258:	0103700a 	movz	t6,t0,v1
5400725c:	000ba040 	sll	s4,t3,0x1
54007260:	000668c2 	srl	t5,a2,0x3
54007264:	11df0037 	beq	t6,ra,54007344 <ImpDisp_RandomLine+0x1d4>
54007268:	00e57823 	subu	t7,a3,a1
5400726c:	01afc021 	addu	t8,t5,t7
54007270:	39ca0064 	xori	t2,t6,0x64
54007274:	01a02021 	move	a0,t5
54007278:	030a200a 	movz	a0,t8,t2
5400727c:	10800015 	beqz	a0,540072d4 <ImpDisp_RandomLine+0x164>
54007280:	00808021 	move	s0,a0
54007284:	3c075401 	lui	a3,0x5401
54007288:	24f34c50 	addiu	s3,a3,19536
5400728c:	3c115401 	lui	s1,0x5401
54007290:	8e2c4244 	lw	t4,16964(s1)
54007294:	02803021 	move	a2,s4
54007298:	000c4040 	sll	t0,t4,0x1
5400729c:	01134821 	addu	t1,t0,s3
540072a0:	2610ffff 	addiu	s0,s0,-1
540072a4:	952f0000 	lhu	t7,0(t1)
540072a8:	71f47002 	mul	t6,t7,s4
540072ac:	01d62821 	addu	a1,t6,s6
540072b0:	0d0016e6 	jal	54005b98 <MemCopy>
540072b4:	01d52021 	addu	a0,t6,s5
540072b8:	8e2d4244 	lw	t5,16964(s1)
540072bc:	25ab0001 	addiu	t3,t5,1
540072c0:	1600fff3 	bnez	s0,54007290 <ImpDisp_RandomLine+0x120>
540072c4:	ae2b4244 	sw	t3,16964(s1)
540072c8:	8e550008 	lw	s5,8(s2)
540072cc:	8e4b000c 	lw	t3,12(s2)
540072d0:	8e470010 	lw	a3,16(s2)
540072d4:	8e560024 	lw	s6,36(s2)
540072d8:	afbe0034 	sw	s8,52(sp)
540072dc:	8fb20038 	lw	s2,56(sp)
540072e0:	8fbe003c 	lw	s8,60(sp)
540072e4:	27a40010 	addiu	a0,sp,16
540072e8:	24140002 	li	s4,2
540072ec:	afb50010 	sw	s5,16(sp)
540072f0:	afb60020 	sw	s6,32(sp)
540072f4:	afb4001c 	sw	s4,28(sp)
540072f8:	afb70030 	sw	s7,48(sp)
540072fc:	afb20028 	sw	s2,40(sp)
54007300:	afbe002c 	sw	s8,44(sp)
54007304:	afab0014 	sw	t3,20(sp)
54007308:	0d00237c 	jal	54008df0 <fillimagefun>
5400730c:	afa70018 	sw	a3,24(sp)
54007310:	8fbf0064 	lw	ra,100(sp)
54007314:	8fbe0060 	lw	s8,96(sp)
54007318:	8fb7005c 	lw	s7,92(sp)
5400731c:	8fb60058 	lw	s6,88(sp)
54007320:	8fb50054 	lw	s5,84(sp)
54007324:	8fb40050 	lw	s4,80(sp)
54007328:	8fb3004c 	lw	s3,76(sp)
5400732c:	8fb20048 	lw	s2,72(sp)
54007330:	8fb10044 	lw	s1,68(sp)
54007334:	8fb00040 	lw	s0,64(sp)
54007338:	00001021 	move	v0,zero
5400733c:	03e00008 	jr	ra
54007340:	27bd0068 	addiu	sp,sp,104
54007344:	3c185401 	lui	t8,0x5401
54007348:	3c085401 	lui	t0,0x5401
5400734c:	240c0083 	li	t4,131
54007350:	0007282b 	sltu	a1,zero,a3
54007354:	ad004244 	sw	zero,16964(t0)
54007358:	10a0ffc4 	beqz	a1,5400726c <ImpDisp_RandomLine+0xfc>
5400735c:	af0c0164 	sw	t4,356(t8)
54007360:	3c115401 	lui	s1,0x5401
54007364:	3c105401 	lui	s0,0x5401
54007368:	26224c50 	addiu	v0,s1,19536
5400736c:	26034250 	addiu	v1,s0,16976
54007370:	00e02021 	move	a0,a3
54007374:	00000000 	nop
54007378:	2484ffff 	addiu	a0,a0,-1
5400737c:	a4600000 	sh	zero,0(v1)
54007380:	a4400000 	sh	zero,0(v0)
54007384:	24630002 	addiu	v1,v1,2
54007388:	1480fffb 	bnez	a0,54007378 <ImpDisp_RandomLine+0x208>
5400738c:	24420002 	addiu	v0,v0,2
54007390:	10a0ffb6 	beqz	a1,5400726c <ImpDisp_RandomLine+0xfc>
54007394:	3c135401 	lui	s3,0x5401
54007398:	3c0541c6 	lui	a1,0x41c6
5400739c:	3c1f0002 	lui	ra,0x2
540073a0:	3c195401 	lui	t9,0x5401
540073a4:	266a4250 	addiu	t2,s3,16976
540073a8:	37f10005 	ori	s1,ra,0x5
540073ac:	34b34e6d 	ori	s3,a1,0x4e6d
540073b0:	27294c50 	addiu	t1,t9,19536
540073b4:	24100001 	li	s0,1
540073b8:	10000006 	b	540073d4 <ImpDisp_RandomLine+0x264>
540073bc:	00e04021 	move	t0,a3
540073c0:	2508ffff 	addiu	t0,t0,-1
540073c4:	a5240000 	sh	a0,0(t1)
540073c8:	a4b00000 	sh	s0,0(a1)
540073cc:	11000024 	beqz	t0,54007460 <ImpDisp_RandomLine+0x2f0>
540073d0:	25290002 	addiu	t1,t1,2
540073d4:	71932002 	mul	a0,t4,s3
540073d8:	24843039 	addiu	a0,a0,12345
540073dc:	00910019 	multu	a0,s1
540073e0:	00002810 	mfhi	a1
540073e4:	00851823 	subu	v1,a0,a1
540073e8:	00031042 	srl	v0,v1,0x1
540073ec:	00a2f821 	addu	ra,a1,v0
540073f0:	001fcb82 	srl	t9,ra,0xe
540073f4:	001933c0 	sll	a2,t9,0xf
540073f8:	00d96023 	subu	t4,a2,t9
540073fc:	008c3023 	subu	a2,a0,t4
54007400:	00c7001a 	div	zero,a2,a3
54007404:	00e001f4 	teq	a3,zero,0x7
54007408:	00c06021 	move	t4,a2
5400740c:	00002010 	mfhi	a0
54007410:	00041840 	sll	v1,a0,0x1
54007414:	006a2821 	addu	a1,v1,t2
54007418:	94a20000 	lhu	v0,0(a1)
5400741c:	1040ffe8 	beqz	v0,540073c0 <ImpDisp_RandomLine+0x250>
54007420:	3083ffff 	andi	v1,a0,0xffff
54007424:	00000000 	nop
54007428:	24620001 	addiu	v0,v1,1
5400742c:	3045ffff 	andi	a1,v0,0xffff
54007430:	00a7182a 	slt	v1,a1,a3
54007434:	0003280a 	movz	a1,zero,v1
54007438:	0005f840 	sll	ra,a1,0x1
5400743c:	03ea2021 	addu	a0,ra,t2
54007440:	94990000 	lhu	t9,0(a0)
54007444:	1720fff8 	bnez	t9,54007428 <ImpDisp_RandomLine+0x2b8>
54007448:	00a01821 	move	v1,a1
5400744c:	2508ffff 	addiu	t0,t0,-1
54007450:	a5250000 	sh	a1,0(t1)
54007454:	a4900000 	sh	s0,0(a0)
54007458:	1500ffde 	bnez	t0,540073d4 <ImpDisp_RandomLine+0x264>
5400745c:	25290002 	addiu	t1,t1,2
54007460:	1000ff82 	b	5400726c <ImpDisp_RandomLine+0xfc>
54007464:	af060164 	sw	a2,356(t8)
54007468:	8e590024 	lw	t9,36(s2)
5400746c:	afb70030 	sw	s7,48(sp)
54007470:	afb60010 	sw	s6,16(sp)
54007474:	8fb70038 	lw	s7,56(sp)
54007478:	8fb6003c 	lw	s6,60(sp)
5400747c:	3c145401 	lui	s4,0x5401
54007480:	3c125401 	lui	s2,0x5401
54007484:	27a40010 	addiu	a0,sp,16
54007488:	24180002 	li	t8,2
5400748c:	24150083 	li	s5,131
54007490:	afbe0034 	sw	s8,52(sp)
54007494:	afb70028 	sw	s7,40(sp)
54007498:	afb6002c 	sw	s6,44(sp)
5400749c:	afab0014 	sw	t3,20(sp)
540074a0:	afa70018 	sw	a3,24(sp)
540074a4:	afb90020 	sw	t9,32(sp)
540074a8:	0d00237c 	jal	54008df0 <fillimagefun>
540074ac:	afb8001c 	sw	t8,28(sp)
540074b0:	ae950164 	sw	s5,356(s4)
540074b4:	ae404244 	sw	zero,16964(s2)
540074b8:	8fbf0064 	lw	ra,100(sp)
540074bc:	8fbe0060 	lw	s8,96(sp)
540074c0:	8fb7005c 	lw	s7,92(sp)
540074c4:	8fb60058 	lw	s6,88(sp)
540074c8:	8fb50054 	lw	s5,84(sp)
540074cc:	8fb40050 	lw	s4,80(sp)
540074d0:	8fb3004c 	lw	s3,76(sp)
540074d4:	8fb20048 	lw	s2,72(sp)
540074d8:	8fb10044 	lw	s1,68(sp)
540074dc:	8fb00040 	lw	s0,64(sp)
540074e0:	00001021 	move	v0,zero
540074e4:	03e00008 	jr	ra
540074e8:	27bd0068 	addiu	sp,sp,104
540074ec:	00000000 	nop

540074f0 <ImpDisp_Fade>:
540074f0:	27bdff90 	addiu	sp,sp,-112
540074f4:	3c0f6666 	lui	t7,0x6666
540074f8:	afb40058 	sw	s4,88(sp)
540074fc:	afb30054 	sw	s3,84(sp)
54007500:	afb20050 	sw	s2,80(sp)
54007504:	afb1004c 	sw	s1,76(sp)
54007508:	afb00048 	sw	s0,72(sp)
5400750c:	afbf006c 	sw	ra,108(sp)
54007510:	afbe0068 	sw	s8,104(sp)
54007514:	afb70064 	sw	s7,100(sp)
54007518:	afb60060 	sw	s6,96(sp)
5400751c:	afb5005c 	sw	s5,92(sp)
54007520:	8c850018 	lw	a1,24(a0)
54007524:	8c860014 	lw	a2,20(a0)
54007528:	0005a040 	sll	s4,a1,0x1
5400752c:	02859021 	addu	s2,s4,a1
54007530:	001288c0 	sll	s1,s2,0x3
54007534:	02258021 	addu	s0,s1,a1
54007538:	00103880 	sll	a3,s0,0x2
5400753c:	00e6001a 	div	zero,a3,a2
54007540:	00c001f4 	teq	a2,zero,0x7
54007544:	35e76667 	ori	a3,t7,0x6667
54007548:	8c8c002c 	lw	t4,44(a0)
5400754c:	8c8e0028 	lw	t6,40(a0)
54007550:	00809821 	move	s3,a0
54007554:	8c960004 	lw	s6,4(a0)
54007558:	8c950008 	lw	s5,8(a0)
5400755c:	8c91000c 	lw	s1,12(a0)
54007560:	8c920010 	lw	s2,16(a0)
54007564:	8c970030 	lw	s7,48(a0)
54007568:	8c9e0034 	lw	s8,52(a0)
5400756c:	afac003c 	sw	t4,60(sp)
54007570:	afae0038 	sw	t6,56(sp)
54007574:	240c0002 	li	t4,2
54007578:	00005812 	mflo	t3
5400757c:	01670018 	mult	t3,a3
54007580:	00006810 	mfhi	t5
54007584:	000b57c3 	sra	t2,t3,0x1f
54007588:	000d4883 	sra	t1,t5,0x2
5400758c:	012a2023 	subu	a0,t1,t2
54007590:	00044080 	sll	t0,a0,0x2
54007594:	01041821 	addu	v1,t0,a0
54007598:	00031040 	sll	v0,v1,0x1
5400759c:	10c50072 	beq	a2,a1,54007768 <ImpDisp_Fade+0x278>
540075a0:	3048ffff 	andi	t0,v0,0xffff
540075a4:	02270018 	mult	s1,a3
540075a8:	00006810 	mfhi	t5
540075ac:	02470018 	mult	s2,a3
540075b0:	00002010 	mfhi	a0
540075b4:	00122fc3 	sra	a1,s2,0x1f
540075b8:	0011cfc3 	sra	t9,s1,0x1f
540075bc:	000dc083 	sra	t8,t5,0x2
540075c0:	03193823 	subu	a3,t8,t9
540075c4:	0004f883 	sra	ra,a0,0x2
540075c8:	03e5a023 	subu	s4,ra,a1
540075cc:	00148080 	sll	s0,s4,0x2
540075d0:	00077880 	sll	t7,a3,0x2
540075d4:	02145021 	addu	t2,s0,s4
540075d8:	3c0ecccc 	lui	t6,0xcccc
540075dc:	000a2040 	sll	a0,t2,0x1
540075e0:	01e75821 	addu	t3,t7,a3
540075e4:	35cacccd 	ori	t2,t6,0xcccd
540075e8:	000b6840 	sll	t5,t3,0x1
540075ec:	008a0019 	multu	a0,t2
540075f0:	00001810 	mfhi	v1
540075f4:	01aa0019 	multu	t5,t2
540075f8:	00003010 	mfhi	a2
540075fc:	3c095401 	lui	t1,0x5401
54007600:	afa90040 	sw	t1,64(sp)
54007604:	91274240 	lbu	a3,16960(t1)
54007608:	2d02000a 	sltiu	v0,t0,10
5400760c:	2409000a 	li	t1,10
54007610:	24050001 	li	a1,1
54007614:	02445823 	subu	t3,s2,a0
54007618:	0122400b 	movn	t0,t1,v0
5400761c:	000318c2 	srl	v1,v1,0x3
54007620:	000630c2 	srl	a2,a2,0x3
54007624:	10e50026 	beq	a3,a1,540076c0 <ImpDisp_Fade+0x1d0>
54007628:	022d2023 	subu	a0,s1,t5
5400762c:	28e20002 	slti	v0,a3,2
54007630:	14400035 	bnez	v0,54007708 <ImpDisp_Fade+0x218>
54007634:	00000000 	nop
54007638:	10ec006d 	beq	a3,t4,540077f0 <ImpDisp_Fade+0x300>
5400763c:	240c0003 	li	t4,3
54007640:	10ec0088 	beq	a3,t4,54007864 <ImpDisp_Fade+0x374>
54007644:	70c9a002 	mul	s4,a2,t1
54007648:	8e760024 	lw	s6,36(s3)
5400764c:	afb70030 	sw	s7,48(sp)
54007650:	8fb3003c 	lw	s3,60(sp)
54007654:	8fb70038 	lw	s7,56(sp)
54007658:	27a40010 	addiu	a0,sp,16
5400765c:	afb10014 	sw	s1,20(sp)
54007660:	24110002 	li	s1,2
54007664:	afb50010 	sw	s5,16(sp)
54007668:	afb20018 	sw	s2,24(sp)
5400766c:	afb60020 	sw	s6,32(sp)
54007670:	afb1001c 	sw	s1,28(sp)
54007674:	afbe0034 	sw	s8,52(sp)
54007678:	afb70028 	sw	s7,40(sp)
5400767c:	0d00237c 	jal	54008df0 <fillimagefun>
54007680:	afb3002c 	sw	s3,44(sp)
54007684:	8fbe0040 	lw	s8,64(sp)
54007688:	8fbf006c 	lw	ra,108(sp)
5400768c:	8fb70064 	lw	s7,100(sp)
54007690:	93c44240 	lbu	a0,16960(s8)
54007694:	8fb60060 	lw	s6,96(sp)
54007698:	8fbe0068 	lw	s8,104(sp)
5400769c:	8fb5005c 	lw	s5,92(sp)
540076a0:	8fb40058 	lw	s4,88(sp)
540076a4:	8fb30054 	lw	s3,84(sp)
540076a8:	8fb20050 	lw	s2,80(sp)
540076ac:	8fb1004c 	lw	s1,76(sp)
540076b0:	8fb00048 	lw	s0,72(sp)
540076b4:	00801021 	move	v0,a0
540076b8:	03e00008 	jr	ra
540076bc:	27bd0070 	addiu	sp,sp,112
540076c0:	24070064 	li	a3,100
540076c4:	11070021 	beq	t0,a3,5400774c <ImpDisp_Fade+0x25c>
540076c8:	71038002 	mul	s0,t0,v1
540076cc:	020a0019 	multu	s0,t2
540076d0:	00005010 	mfhi	t2
540076d4:	000a10c2 	srl	v0,t2,0x3
540076d8:	72326802 	mul	t5,s1,s2
540076dc:	7051f802 	mul	ra,v0,s1
540076e0:	02a02021 	move	a0,s5
540076e4:	000d2840 	sll	a1,t5,0x1
540076e8:	00b6a821 	addu	s5,a1,s6
540076ec:	001f3040 	sll	a2,ra,0x1
540076f0:	0d0016e6 	jal	54005b98 <MemCopy>
540076f4:	02a62823 	subu	a1,s5,a2
540076f8:	8e750008 	lw	s5,8(s3)
540076fc:	8e71000c 	lw	s1,12(s3)
54007700:	1000ffd1 	b	54007648 <ImpDisp_Fade+0x158>
54007704:	8e720010 	lw	s2,16(s3)
54007708:	14e0ffcf 	bnez	a3,54007648 <ImpDisp_Fade+0x158>
5400770c:	24060064 	li	a2,100
54007710:	1106007b 	beq	t0,a2,54007900 <ImpDisp_Fade+0x410>
54007714:	71034802 	mul	t1,t0,v1
54007718:	012a0019 	multu	t1,t2
5400771c:	00004010 	mfhi	t0
54007720:	000810c2 	srl	v0,t0,0x3
54007724:	72325802 	mul	t3,s1,s2
54007728:	70519002 	mul	s2,v0,s1
5400772c:	02c02821 	move	a1,s6
54007730:	000bb040 	sll	s6,t3,0x1
54007734:	02d58821 	addu	s1,s6,s5
54007738:	00123040 	sll	a2,s2,0x1
5400773c:	0d0016e6 	jal	54005b98 <MemCopy>
54007740:	02262023 	subu	a0,s1,a2
54007744:	1000ffed 	b	540076fc <ImpDisp_Fade+0x20c>
54007748:	8e750008 	lw	s5,8(s3)
5400774c:	7068c802 	mul	t9,v1,t0
54007750:	032a0019 	multu	t9,t2
54007754:	0000c010 	mfhi	t8
54007758:	0018a0c2 	srl	s4,t8,0x3
5400775c:	1000ffde 	b	540076d8 <ImpDisp_Fade+0x1e8>
54007760:	028b1021 	addu	v0,s4,t3
54007764:	00000000 	nop
54007768:	8e7f0024 	lw	ra,36(s3)
5400776c:	8fb90038 	lw	t9,56(sp)
54007770:	8fb8003c 	lw	t8,60(sp)
54007774:	3c135401 	lui	s3,0x5401
54007778:	27a40010 	addiu	a0,sp,16
5400777c:	afb60010 	sw	s6,16(sp)
54007780:	afb10014 	sw	s1,20(sp)
54007784:	afb20018 	sw	s2,24(sp)
54007788:	afbf0020 	sw	ra,32(sp)
5400778c:	afb70030 	sw	s7,48(sp)
54007790:	afbe0034 	sw	s8,52(sp)
54007794:	afac001c 	sw	t4,28(sp)
54007798:	afb90028 	sw	t9,40(sp)
5400779c:	0d00237c 	jal	54008df0 <fillimagefun>
540077a0:	afb8002c 	sw	t8,44(sp)
540077a4:	92774240 	lbu	s7,16960(s3)
540077a8:	00002021 	move	a0,zero
540077ac:	26f60001 	addiu	s6,s7,1
540077b0:	32d50003 	andi	s5,s6,0x3
540077b4:	a2754240 	sb	s5,16960(s3)
540077b8:	8fbf006c 	lw	ra,108(sp)
540077bc:	8fbe0068 	lw	s8,104(sp)
540077c0:	8fb70064 	lw	s7,100(sp)
540077c4:	8fb60060 	lw	s6,96(sp)
540077c8:	8fb5005c 	lw	s5,92(sp)
540077cc:	8fb40058 	lw	s4,88(sp)
540077d0:	8fb30054 	lw	s3,84(sp)
540077d4:	8fb20050 	lw	s2,80(sp)
540077d8:	8fb1004c 	lw	s1,76(sp)
540077dc:	8fb00048 	lw	s0,72(sp)
540077e0:	00801021 	move	v0,a0
540077e4:	03e00008 	jr	ra
540077e8:	27bd0070 	addiu	sp,sp,112
540077ec:	00000000 	nop
540077f0:	70c91002 	mul	v0,a2,t1
540077f4:	00441821 	addu	v1,v0,a0
540077f8:	24040064 	li	a0,100
540077fc:	11040004 	beq	t0,a0,54007810 <ImpDisp_Fade+0x320>
54007800:	010a0019 	multu	t0,t2
54007804:	00004010 	mfhi	t0
54007808:	000860c2 	srl	t4,t0,0x3
5400780c:	71861802 	mul	v1,t4,a2
54007810:	0003a040 	sll	s4,v1,0x1
54007814:	1240ff8c 	beqz	s2,54007648 <ImpDisp_Fade+0x158>
54007818:	00002821 	move	a1,zero
5400781c:	00000000 	nop
54007820:	24b00001 	addiu	s0,a1,1
54007824:	72115802 	mul	t3,s0,s1
54007828:	70b17002 	mul	t6,a1,s1
5400782c:	02803021 	move	a2,s4
54007830:	000b7840 	sll	t7,t3,0x1
54007834:	01f51821 	addu	v1,t7,s5
54007838:	000e4840 	sll	t1,t6,0x1
5400783c:	01362821 	addu	a1,t1,s6
54007840:	0d0016e6 	jal	54005b98 <MemCopy>
54007844:	00742023 	subu	a0,v1,s4
54007848:	0212302b 	sltu	a2,s0,s2
5400784c:	14c0fff4 	bnez	a2,54007820 <ImpDisp_Fade+0x330>
54007850:	02002821 	move	a1,s0
54007854:	8e750008 	lw	s5,8(s3)
54007858:	8e71000c 	lw	s1,12(s3)
5400785c:	1000ff7a 	b	54007648 <ImpDisp_Fade+0x158>
54007860:	8e720010 	lw	s2,16(s3)
54007864:	24070064 	li	a3,100
54007868:	11070005 	beq	t0,a3,54007880 <ImpDisp_Fade+0x390>
5400786c:	02841821 	addu	v1,s4,a0
54007870:	010a0019 	multu	t0,t2
54007874:	0000c010 	mfhi	t8
54007878:	001850c2 	srl	t2,t8,0x3
5400787c:	71461802 	mul	v1,t2,a2
54007880:	0003a040 	sll	s4,v1,0x1
54007884:	1240ff70 	beqz	s2,54007648 <ImpDisp_Fade+0x158>
54007888:	00002021 	move	a0,zero
5400788c:	00000000 	nop
54007890:	24900001 	addiu	s0,a0,1
54007894:	72111002 	mul	v0,s0,s1
54007898:	70912002 	mul	a0,a0,s1
5400789c:	02803021 	move	a2,s4
540078a0:	00022840 	sll	a1,v0,0x1
540078a4:	00046840 	sll	t5,a0,0x1
540078a8:	00b6f821 	addu	ra,a1,s6
540078ac:	03f42823 	subu	a1,ra,s4
540078b0:	0d0016e6 	jal	54005b98 <MemCopy>
540078b4:	01b52021 	addu	a0,t5,s5
540078b8:	0212c82b 	sltu	t9,s0,s2
540078bc:	1320ff8e 	beqz	t9,540076f8 <ImpDisp_Fade+0x208>
540078c0:	02002021 	move	a0,s0
540078c4:	24900001 	addiu	s0,a0,1
540078c8:	72111002 	mul	v0,s0,s1
540078cc:	70912002 	mul	a0,a0,s1
540078d0:	02803021 	move	a2,s4
540078d4:	00022840 	sll	a1,v0,0x1
540078d8:	00046840 	sll	t5,a0,0x1
540078dc:	00b6f821 	addu	ra,a1,s6
540078e0:	03f42823 	subu	a1,ra,s4
540078e4:	0d0016e6 	jal	54005b98 <MemCopy>
540078e8:	01b52021 	addu	a0,t5,s5
540078ec:	0212c82b 	sltu	t9,s0,s2
540078f0:	1720ffe7 	bnez	t9,54007890 <ImpDisp_Fade+0x3a0>
540078f4:	02002021 	move	a0,s0
540078f8:	1000ff80 	b	540076fc <ImpDisp_Fade+0x20c>
540078fc:	8e750008 	lw	s5,8(s3)
54007900:	70687802 	mul	t7,v1,t0
54007904:	01ea0019 	multu	t7,t2
54007908:	00007010 	mfhi	t6
5400790c:	000e18c2 	srl	v1,t6,0x3
54007910:	1000ff84 	b	54007724 <ImpDisp_Fade+0x234>
54007914:	006b1021 	addu	v0,v1,t3

54007918 <fsin>:
54007918:	04800007 	bltz	a0,54007938 <fsin+0x20>
5400791c:	308603ff 	andi	a2,a0,0x3ff
54007920:	3c055401 	lui	a1,0x5401
54007924:	24a20168 	addiu	v0,a1,360
54007928:	00062080 	sll	a0,a2,0x2
5400792c:	00821821 	addu	v1,a0,v0
54007930:	03e00008 	jr	ra
54007934:	8c620000 	lw	v0,0(v1)
54007938:	24840400 	addiu	a0,a0,1024
5400793c:	0481fff8 	bgez	a0,54007920 <fsin+0x8>
54007940:	308603ff 	andi	a2,a0,0x3ff
54007944:	24840400 	addiu	a0,a0,1024
54007948:	0480fffb 	bltz	a0,54007938 <fsin+0x20>
5400794c:	308603ff 	andi	a2,a0,0x3ff
54007950:	1000fff4 	b	54007924 <fsin+0xc>
54007954:	3c055401 	lui	a1,0x5401

54007958 <fcos>:
54007958:	09001e46 	j	54007918 <fsin>
5400795c:	24840100 	addiu	a0,a0,256

54007960 <reverseimage>:
54007960:	27bdff48 	addiu	sp,sp,-184
54007964:	24060002 	li	a2,2
54007968:	afb3009c 	sw	s3,156(sp)
5400796c:	afb10094 	sw	s1,148(sp)
54007970:	afbf00b4 	sw	ra,180(sp)
54007974:	afbe00b0 	sw	s8,176(sp)
54007978:	afb700ac 	sw	s7,172(sp)
5400797c:	afb600a8 	sw	s6,168(sp)
54007980:	afb500a4 	sw	s5,164(sp)
54007984:	afb400a0 	sw	s4,160(sp)
54007988:	afb20098 	sw	s2,152(sp)
5400798c:	afb00090 	sw	s0,144(sp)
54007990:	afa400b8 	sw	a0,184(sp)
54007994:	8c870024 	lw	a3,36(a0)
54007998:	8c830014 	lw	v1,20(a0)
5400799c:	8c820018 	lw	v0,24(a0)
540079a0:	8faa00b8 	lw	t2,184(sp)
540079a4:	8fa400b8 	lw	a0,184(sp)
540079a8:	8fad00b8 	lw	t5,184(sp)
540079ac:	8fb100b8 	lw	s1,184(sp)
540079b0:	8fb300b8 	lw	s3,184(sp)
540079b4:	8c85000c 	lw	a1,12(a0)
540079b8:	8d4a0010 	lw	t2,16(t2)
540079bc:	8dad0030 	lw	t5,48(t5)
540079c0:	8e310034 	lw	s1,52(s1)
540079c4:	afa50040 	sw	a1,64(sp)
540079c8:	afa70038 	sw	a3,56(sp)
540079cc:	afaa0044 	sw	t2,68(sp)
540079d0:	afad004c 	sw	t5,76(sp)
540079d4:	afb10050 	sw	s1,80(sp)
540079d8:	8e7e0028 	lw	s8,40(s3)
540079dc:	104301d8 	beq	v0,v1,54008140 <reverseimage+0x7e0>
540079e0:	8e65002c 	lw	a1,44(s3)
540079e4:	8faf0040 	lw	t7,64(sp)
540079e8:	8fae0044 	lw	t6,68(sp)
540079ec:	8fb00038 	lw	s0,56(sp)
540079f0:	8fb4004c 	lw	s4,76(sp)
540079f4:	8fb20050 	lw	s2,80(sp)
540079f8:	27a40010 	addiu	a0,sp,16
540079fc:	afa6001c 	sw	a2,28(sp)
54007a00:	afa5002c 	sw	a1,44(sp)
54007a04:	afaf0014 	sw	t7,20(sp)
54007a08:	afae0018 	sw	t6,24(sp)
54007a0c:	afb00020 	sw	s0,32(sp)
54007a10:	afb40030 	sw	s4,48(sp)
54007a14:	afb20034 	sw	s2,52(sp)
54007a18:	0d0023ae 	jal	54008eb8 <fillzerofun>
54007a1c:	afbe0028 	sw	s8,40(sp)
54007a20:	8faf00b8 	lw	t7,184(sp)
54007a24:	3c0bb60b 	lui	t3,0xb60b
54007a28:	357660b7 	ori	s6,t3,0x60b7
54007a2c:	8dec0020 	lw	t4,32(t7)
54007a30:	8fa40040 	lw	a0,64(sp)
54007a34:	000c4a80 	sll	t1,t4,0xa
54007a38:	01360018 	mult	t1,s6
54007a3c:	00009810 	mfhi	s3
54007a40:	00043823 	negu	a3,a0
54007a44:	8faa0044 	lw	t2,68(sp)
54007a48:	00072fc3 	sra	a1,a3,0x1f
54007a4c:	000947c3 	sra	t0,t1,0x1f
54007a50:	02693021 	addu	a2,s3,t1
54007a54:	00061203 	sra	v0,a2,0x8
54007a58:	8fb10044 	lw	s1,68(sp)
54007a5c:	00486823 	subu	t5,v0,t0
54007a60:	000a1fc2 	srl	v1,t2,0x1f
54007a64:	8dee0008 	lw	t6,8(t7)
54007a68:	3c195401 	lui	t9,0x5401
54007a6c:	0005bfc2 	srl	s7,a1,0x1f
54007a70:	0223c021 	addu	t8,s1,v1
54007a74:	01a02021 	move	a0,t5
54007a78:	241f0320 	li	ra,800
54007a7c:	00f7a821 	addu	s5,a3,s7
54007a80:	af3f5664 	sw	ra,22116(t9)
54007a84:	afad0048 	sw	t5,72(sp)
54007a88:	afa3006c 	sw	v1,108(sp)
54007a8c:	afae003c 	sw	t6,60(sp)
54007a90:	afa70060 	sw	a3,96(sp)
54007a94:	afa50064 	sw	a1,100(sp)
54007a98:	00158043 	sra	s0,s5,0x1
54007a9c:	0d001e56 	jal	54007958 <fcos>
54007aa0:	0018a843 	sra	s5,t8,0x1
54007aa4:	8fa40048 	lw	a0,72(sp)
54007aa8:	0d001e46 	jal	54007918 <fsin>
54007aac:	7050a002 	mul	s4,v0,s0
54007ab0:	0d001e56 	jal	54007958 <fcos>
54007ab4:	8fa40048 	lw	a0,72(sp)
54007ab8:	8fa40048 	lw	a0,72(sp)
54007abc:	0d001e46 	jal	54007918 <fsin>
54007ac0:	00149283 	sra	s2,s4,0xa
54007ac4:	70505802 	mul	t3,v0,s0
54007ac8:	240c0320 	li	t4,800
54007acc:	724c3802 	mul	a3,s2,t4
54007ad0:	24060320 	li	a2,800
54007ad4:	72aca002 	mul	s4,s5,t4
54007ad8:	000bb023 	negu	s6,t3
54007adc:	00162283 	sra	a0,s6,0xa
54007ae0:	00c45023 	subu	t2,a2,a0
54007ae4:	8fb30040 	lw	s3,64(sp)
54007ae8:	00ea001a 	div	zero,a3,t2
54007aec:	014001f4 	teq	t2,zero,0x7
54007af0:	8fa50040 	lw	a1,64(sp)
54007af4:	00134fc2 	srl	t1,s3,0x1f
54007af8:	8fa40048 	lw	a0,72(sp)
54007afc:	8fa20044 	lw	v0,68(sp)
54007b00:	24b7ffff 	addiu	s7,a1,-1
54007b04:	00a94021 	addu	t0,a1,t1
54007b08:	00089843 	sra	s3,t0,0x1
54007b0c:	afa90068 	sw	t1,104(sp)
54007b10:	afb7005c 	sw	s7,92(sp)
54007b14:	2457ffff 	addiu	s7,v0,-1
54007b18:	00009012 	mflo	s2
54007b1c:	028a001a 	div	zero,s4,t2
54007b20:	014001f4 	teq	t2,zero,0x7
54007b24:	0d001e56 	jal	54007958 <fcos>
54007b28:	0000b012 	mflo	s6
54007b2c:	8fa40048 	lw	a0,72(sp)
54007b30:	0d001e46 	jal	54007918 <fsin>
54007b34:	70538002 	mul	s0,v0,s3
54007b38:	0d001e56 	jal	54007958 <fcos>
54007b3c:	8fa40048 	lw	a0,72(sp)
54007b40:	8fa40048 	lw	a0,72(sp)
54007b44:	0d001e46 	jal	54007918 <fsin>
54007b48:	00108a83 	sra	s1,s0,0xa
54007b4c:	7053f802 	mul	ra,v0,s3
54007b50:	24180320 	li	t8,800
54007b54:	240d0320 	li	t5,800
54007b58:	722d6002 	mul	t4,s1,t5
54007b5c:	8fae005c 	lw	t6,92(sp)
54007b60:	001fc823 	negu	t9,ra
54007b64:	00197a83 	sra	t7,t9,0xa
54007b68:	030f5823 	subu	t3,t8,t7
54007b6c:	028b001a 	div	zero,s4,t3
54007b70:	016001f4 	teq	t3,zero,0x7
54007b74:	24030001 	li	v1,1
54007b78:	006e302a 	slt	a2,v1,t6
54007b7c:	01c07821 	move	t7,t6
54007b80:	24180001 	li	t8,1
54007b84:	0000a012 	mflo	s4
54007b88:	018b001a 	div	zero,t4,t3
54007b8c:	016001f4 	teq	t3,zero,0x7
54007b90:	02d48823 	subu	s1,s6,s4
54007b94:	00008012 	mflo	s0
54007b98:	02709821 	addu	s3,s3,s0
54007b9c:	10c00049 	beqz	a2,54007cc4 <reverseimage+0x364>
54007ba0:	02509023 	subu	s2,s2,s0
54007ba4:	8fa70050 	lw	a3,80(sp)
54007ba8:	001ef840 	sll	ra,s8,0x1
54007bac:	73e76802 	mul	t5,ra,a3
54007bb0:	8fa30040 	lw	v1,64(sp)
54007bb4:	afb50088 	sw	s5,136(sp)
54007bb8:	8fb5004c 	lw	s5,76(sp)
54007bbc:	0003c840 	sll	t9,v1,0x1
54007bc0:	afbf0074 	sw	ra,116(sp)
54007bc4:	afad0054 	sw	t5,84(sp)
54007bc8:	27300002 	addiu	s0,t9,2
54007bcc:	0220b021 	move	s6,s1
54007bd0:	0275f821 	addu	ra,s3,s5
54007bd4:	00000000 	nop
54007bd8:	8faa005c 	lw	t2,92(sp)
54007bdc:	01f27821 	addu	t7,t7,s2
54007be0:	014f282a 	slt	a1,t2,t7
54007be4:	10a00033 	beqz	a1,54007cb4 <reverseimage+0x354>
54007be8:	8fa8005c 	lw	t0,92(sp)
54007bec:	02d2001a 	div	zero,s6,s2
54007bf0:	024001f4 	teq	s2,zero,0x7
54007bf4:	01ea7823 	subu	t7,t7,t2
54007bf8:	00004012 	mflo	t0
54007bfc:	01141821 	addu	v1,t0,s4
54007c00:	00035840 	sll	t3,v1,0x1
54007c04:	02eb102a 	slt	v0,s7,t3
54007c08:	14400115 	bnez	v0,54008060 <reverseimage+0x700>
54007c0c:	02d1b021 	addu	s6,s6,s1
54007c10:	8fa60088 	lw	a2,136(sp)
54007c14:	24040001 	li	a0,1
54007c18:	0097482a 	slt	t1,a0,s7
54007c1c:	00c34023 	subu	t0,a2,v1
54007c20:	11200021 	beqz	t1,54007ca8 <reverseimage+0x348>
54007c24:	02e03021 	move	a2,s7
54007c28:	711e1802 	mul	v1,t0,s8
54007c2c:	8fac0054 	lw	t4,84(sp)
54007c30:	8fb50040 	lw	s5,64(sp)
54007c34:	02003821 	move	a3,s0
54007c38:	26e4ffff 	addiu	a0,s7,-1
54007c3c:	007fc821 	addu	t9,v1,ra
54007c40:	00197040 	sll	t6,t9,0x1
54007c44:	01cc4821 	addu	t1,t6,t4
54007c48:	0153702a 	slt	t6,t2,s3
54007c4c:	00156040 	sll	t4,s5,0x1
54007c50:	001e5040 	sll	t2,s8,0x1
54007c54:	00000000 	nop
54007c58:	00cb3021 	addu	a2,a2,t3
54007c5c:	02e6682a 	slt	t5,s7,a2
54007c60:	11a0000e 	beqz	t5,54007c9c <reverseimage+0x33c>
54007c64:	00000000 	nop
54007c68:	0660000a 	bltz	s3,54007c94 <reverseimage+0x334>
54007c6c:	00d73023 	subu	a2,a2,s7
54007c70:	15c00008 	bnez	t6,54007c94 <reverseimage+0x334>
54007c74:	00000000 	nop
54007c78:	05000006 	bltz	t0,54007c94 <reverseimage+0x334>
54007c7c:	02e8102a 	slt	v0,s7,t0
54007c80:	8fb5003c 	lw	s5,60(sp)
54007c84:	8fa50038 	lw	a1,56(sp)
54007c88:	00f51821 	addu	v1,a3,s5
54007c8c:	104000ae 	beqz	v0,54007f48 <reverseimage+0x5e8>
54007c90:	01256821 	addu	t5,t1,a1
54007c94:	25080001 	addiu	t0,t0,1
54007c98:	012a4821 	addu	t1,t1,t2
54007c9c:	2484ffff 	addiu	a0,a0,-1
54007ca0:	1480ffed 	bnez	a0,54007c58 <reverseimage+0x2f8>
54007ca4:	00ec3821 	addu	a3,a3,t4
54007ca8:	26730001 	addiu	s3,s3,1
54007cac:	27ff0001 	addiu	ra,ra,1
54007cb0:	8fa8005c 	lw	t0,92(sp)
54007cb4:	27180001 	addiu	t8,t8,1
54007cb8:	0308582a 	slt	t3,t8,t0
54007cbc:	1560ffc6 	bnez	t3,54007bd8 <reverseimage+0x278>
54007cc0:	26100002 	addiu	s0,s0,2
54007cc4:	8fa600b8 	lw	a2,184(sp)
54007cc8:	8fae0044 	lw	t6,68(sp)
54007ccc:	8faf006c 	lw	t7,108(sp)
54007cd0:	8fb00064 	lw	s0,100(sp)
54007cd4:	01cfa021 	addu	s4,t6,t7
54007cd8:	8cdf0004 	lw	ra,4(a2)
54007cdc:	8fb80060 	lw	t8,96(sp)
54007ce0:	8fa40048 	lw	a0,72(sp)
54007ce4:	0010cfc2 	srl	t9,s0,0x1f
54007ce8:	0014a843 	sra	s5,s4,0x1
54007cec:	03199021 	addu	s2,t8,t9
54007cf0:	afbf0080 	sw	ra,128(sp)
54007cf4:	0d001e56 	jal	54007958 <fcos>
54007cf8:	afb50078 	sw	s5,120(sp)
54007cfc:	8fa40048 	lw	a0,72(sp)
54007d00:	00128843 	sra	s1,s2,0x1
54007d04:	0d001e46 	jal	54007918 <fsin>
54007d08:	70519802 	mul	s3,v0,s1
54007d0c:	8fa40048 	lw	a0,72(sp)
54007d10:	0d001e56 	jal	54007958 <fcos>
54007d14:	24120320 	li	s2,800
54007d18:	0d001e46 	jal	54007918 <fsin>
54007d1c:	8fa40048 	lw	a0,72(sp)
54007d20:	70514802 	mul	t1,v0,s1
54007d24:	24050320 	li	a1,800
54007d28:	00134283 	sra	t0,s3,0xa
54007d2c:	71056002 	mul	t4,t0,a1
54007d30:	8fab0078 	lw	t3,120(sp)
54007d34:	00095023 	negu	t2,t1
54007d38:	000a2283 	sra	a0,t2,0xa
54007d3c:	02443823 	subu	a3,s2,a0
54007d40:	7165a002 	mul	s4,t3,a1
54007d44:	8fa30068 	lw	v1,104(sp)
54007d48:	8fa20040 	lw	v0,64(sp)
54007d4c:	8fa40048 	lw	a0,72(sp)
54007d50:	00436821 	addu	t5,v0,v1
54007d54:	0187001a 	div	zero,t4,a3
54007d58:	00e001f4 	teq	a3,zero,0x7
54007d5c:	000da843 	sra	s5,t5,0x1
54007d60:	26b6ffff 	addiu	s6,s5,-1
54007d64:	00009812 	mflo	s3
54007d68:	0287001a 	div	zero,s4,a3
54007d6c:	00e001f4 	teq	a3,zero,0x7
54007d70:	02b3a821 	addu	s5,s5,s3
54007d74:	0d001e56 	jal	54007958 <fcos>
54007d78:	00008812 	mflo	s1
54007d7c:	8fa40048 	lw	a0,72(sp)
54007d80:	0d001e46 	jal	54007918 <fsin>
54007d84:	70568002 	mul	s0,v0,s6
54007d88:	0d001e56 	jal	54007958 <fcos>
54007d8c:	8fa40048 	lw	a0,72(sp)
54007d90:	0d001e46 	jal	54007918 <fsin>
54007d94:	8fa40048 	lw	a0,72(sp)
54007d98:	7056c802 	mul	t9,v0,s6
54007d9c:	0010c283 	sra	t8,s0,0xa
54007da0:	73128002 	mul	s0,t8,s2
54007da4:	8fa6005c 	lw	a2,92(sp)
54007da8:	24180001 	li	t8,1
54007dac:	00197023 	negu	t6,t9
54007db0:	000e7a83 	sra	t7,t6,0xa
54007db4:	024ff823 	subu	ra,s2,t7
54007db8:	029f001a 	div	zero,s4,ra
54007dbc:	03e001f4 	teq	ra,zero,0x7
54007dc0:	0306b02a 	slt	s6,t8,a2
54007dc4:	00c07821 	move	t7,a2
54007dc8:	24050001 	li	a1,1
54007dcc:	0000a012 	mflo	s4
54007dd0:	021f001a 	div	zero,s0,ra
54007dd4:	03e001f4 	teq	ra,zero,0x7
54007dd8:	02348823 	subu	s1,s1,s4
54007ddc:	afb1007c 	sw	s1,124(sp)
54007de0:	00009012 	mflo	s2
54007de4:	12c0004b 	beqz	s6,54007f14 <reverseimage+0x5b4>
54007de8:	02538023 	subu	s0,s2,s3
54007dec:	8fa90050 	lw	t1,80(sp)
54007df0:	001e6040 	sll	t4,s8,0x1
54007df4:	71895002 	mul	t2,t4,t1
54007df8:	8fa40040 	lw	a0,64(sp)
54007dfc:	8fad0078 	lw	t5,120(sp)
54007e00:	8fb6004c 	lw	s6,76(sp)
54007e04:	00043840 	sll	a3,a0,0x1
54007e08:	afaa0058 	sw	t2,88(sp)
54007e0c:	afad008c 	sw	t5,140(sp)
54007e10:	afac0070 	sw	t4,112(sp)
54007e14:	24f20002 	addiu	s2,a3,2
54007e18:	02b6c821 	addu	t9,s5,s6
54007e1c:	00000000 	nop
54007e20:	8fb1005c 	lw	s1,92(sp)
54007e24:	01f07821 	addu	t7,t7,s0
54007e28:	022f182a 	slt	v1,s1,t7
54007e2c:	10600035 	beqz	v1,54007f04 <reverseimage+0x5a4>
54007e30:	8fa8005c 	lw	t0,92(sp)
54007e34:	8fbf007c 	lw	ra,124(sp)
54007e38:	02059823 	subu	s3,s0,a1
54007e3c:	727f4002 	mul	t0,s3,ra
54007e40:	01f17823 	subu	t7,t7,s1
54007e44:	0110001a 	div	zero,t0,s0
54007e48:	020001f4 	teq	s0,zero,0x7
54007e4c:	00005812 	mflo	t3
54007e50:	01741821 	addu	v1,t3,s4
54007e54:	00035840 	sll	t3,v1,0x1
54007e58:	02eb102a 	slt	v0,s7,t3
54007e5c:	14400048 	bnez	v0,54007f80 <reverseimage+0x620>
54007e60:	24a50001 	addiu	a1,a1,1
54007e64:	8fa6008c 	lw	a2,140(sp)
54007e68:	24160001 	li	s6,1
54007e6c:	02d7702a 	slt	t6,s6,s7
54007e70:	00c34023 	subu	t0,a2,v1
54007e74:	11c00020 	beqz	t6,54007ef8 <reverseimage+0x598>
54007e78:	02e03021 	move	a2,s7
54007e7c:	711e2002 	mul	a0,t0,s8
54007e80:	8fa70058 	lw	a3,88(sp)
54007e84:	0235702a 	slt	t6,s1,s5
54007e88:	8fb10040 	lw	s1,64(sp)
54007e8c:	001e5040 	sll	t2,s8,0x1
54007e90:	00996821 	addu	t5,a0,t9
54007e94:	000d6040 	sll	t4,t5,0x1
54007e98:	01874821 	addu	t1,t4,a3
54007e9c:	26e4ffff 	addiu	a0,s7,-1
54007ea0:	02403821 	move	a3,s2
54007ea4:	00116040 	sll	t4,s1,0x1
54007ea8:	00cb3021 	addu	a2,a2,t3
54007eac:	02e6182a 	slt	v1,s7,a2
54007eb0:	1060000e 	beqz	v1,54007eec <reverseimage+0x58c>
54007eb4:	00000000 	nop
54007eb8:	06a0000a 	bltz	s5,54007ee4 <reverseimage+0x584>
54007ebc:	00d73023 	subu	a2,a2,s7
54007ec0:	15c00008 	bnez	t6,54007ee4 <reverseimage+0x584>
54007ec4:	00000000 	nop
54007ec8:	05000006 	bltz	t0,54007ee4 <reverseimage+0x584>
54007ecc:	02e8102a 	slt	v0,s7,t0
54007ed0:	8fbf0080 	lw	ra,128(sp)
54007ed4:	8fb30038 	lw	s3,56(sp)
54007ed8:	00ff1821 	addu	v1,a3,ra
54007edc:	10400021 	beqz	v0,54007f64 <reverseimage+0x604>
54007ee0:	01336821 	addu	t5,t1,s3
54007ee4:	25080001 	addiu	t0,t0,1
54007ee8:	012a4821 	addu	t1,t1,t2
54007eec:	2484ffff 	addiu	a0,a0,-1
54007ef0:	1480ffed 	bnez	a0,54007ea8 <reverseimage+0x548>
54007ef4:	00ec3821 	addu	a3,a3,t4
54007ef8:	26b50001 	addiu	s5,s5,1
54007efc:	27390001 	addiu	t9,t9,1
54007f00:	8fa8005c 	lw	t0,92(sp)
54007f04:	27180001 	addiu	t8,t8,1
54007f08:	0308582a 	slt	t3,t8,t0
54007f0c:	1560ffc4 	bnez	t3,54007e20 <reverseimage+0x4c0>
54007f10:	26520002 	addiu	s2,s2,2
54007f14:	8fbf00b4 	lw	ra,180(sp)
54007f18:	8fbe00b0 	lw	s8,176(sp)
54007f1c:	8fb700ac 	lw	s7,172(sp)
54007f20:	8fb600a8 	lw	s6,168(sp)
54007f24:	8fb500a4 	lw	s5,164(sp)
54007f28:	8fb400a0 	lw	s4,160(sp)
54007f2c:	8fb3009c 	lw	s3,156(sp)
54007f30:	8fb20098 	lw	s2,152(sp)
54007f34:	8fb10094 	lw	s1,148(sp)
54007f38:	8fb00090 	lw	s0,144(sp)
54007f3c:	00001021 	move	v0,zero
54007f40:	03e00008 	jr	ra
54007f44:	27bd00b8 	addiu	sp,sp,184
54007f48:	90790000 	lbu	t9,0(v1)
54007f4c:	25080001 	addiu	t0,t0,1
54007f50:	a1b90000 	sb	t9,0(t5)
54007f54:	90620001 	lbu	v0,1(v1)
54007f58:	012a4821 	addu	t1,t1,t2
54007f5c:	1000ff4f 	b	54007c9c <reverseimage+0x33c>
54007f60:	a1a20001 	sb	v0,1(t5)
54007f64:	90760000 	lbu	s6,0(v1)
54007f68:	25080001 	addiu	t0,t0,1
54007f6c:	a1b60000 	sb	s6,0(t5)
54007f70:	90620001 	lbu	v0,1(v1)
54007f74:	012a4821 	addu	t1,t1,t2
54007f78:	1000ffdc 	b	54007eec <reverseimage+0x58c>
54007f7c:	a1a20001 	sb	v0,1(t5)
54007f80:	240e0001 	li	t6,1
54007f84:	8fa9008c 	lw	t1,140(sp)
54007f88:	01d7502a 	slt	t2,t6,s7
54007f8c:	01233023 	subu	a2,t1,v1
54007f90:	1140ffd9 	beqz	t2,54007ef8 <reverseimage+0x598>
54007f94:	02e04021 	move	t0,s7
54007f98:	8fa30070 	lw	v1,112(sp)
54007f9c:	8fa40050 	lw	a0,80(sp)
54007fa0:	70de8802 	mul	s1,a2,s8
54007fa4:	7064b002 	mul	s6,v1,a0
54007fa8:	8fad004c 	lw	t5,76(sp)
54007fac:	8fac005c 	lw	t4,92(sp)
54007fb0:	8fa70040 	lw	a3,64(sp)
54007fb4:	02adf821 	addu	ra,s5,t5
54007fb8:	00079840 	sll	s3,a3,0x1
54007fbc:	0195682a 	slt	t5,t4,s5
54007fc0:	023f3821 	addu	a3,s1,ra
54007fc4:	02406021 	move	t4,s2
54007fc8:	010b4023 	subu	t0,t0,t3
54007fcc:	010b102a 	slt	v0,t0,t3
54007fd0:	10400015 	beqz	v0,54008028 <reverseimage+0x6c8>
54007fd4:	00075040 	sll	t2,a3,0x1
54007fd8:	01562021 	addu	a0,t2,s6
54007fdc:	001e4840 	sll	t1,s8,0x1
54007fe0:	06a0000b 	bltz	s5,54008010 <reverseimage+0x6b0>
54007fe4:	01174021 	addu	t0,t0,s7
54007fe8:	15a00009 	bnez	t5,54008010 <reverseimage+0x6b0>
54007fec:	00000000 	nop
54007ff0:	04c00007 	bltz	a2,54008010 <reverseimage+0x6b0>
54007ff4:	02e6102a 	slt	v0,s7,a2
54007ff8:	8fb10080 	lw	s1,128(sp)
54007ffc:	8fbf0038 	lw	ra,56(sp)
54008000:	01911821 	addu	v1,t4,s1
54008004:	1040000e 	beqz	v0,54008040 <reverseimage+0x6e0>
54008008:	009f5021 	addu	t2,a0,ra
5400800c:	00000000 	nop
54008010:	24c60001 	addiu	a2,a2,1
54008014:	00fe3821 	addu	a3,a3,s8
54008018:	00892021 	addu	a0,a0,t1
5400801c:	010b502a 	slt	t2,t0,t3
54008020:	1540ffef 	bnez	t2,54007fe0 <reverseimage+0x680>
54008024:	00000000 	nop
54008028:	25ce0001 	addiu	t6,t6,1
5400802c:	01d7482a 	slt	t1,t6,s7
54008030:	1520ffe5 	bnez	t1,54007fc8 <reverseimage+0x668>
54008034:	01936021 	addu	t4,t4,s3
54008038:	1000ffb0 	b	54007efc <reverseimage+0x59c>
5400803c:	26b50001 	addiu	s5,s5,1
54008040:	90620000 	lbu	v0,0(v1)
54008044:	24c60001 	addiu	a2,a2,1
54008048:	a1420000 	sb	v0,0(t2)
5400804c:	90630001 	lbu	v1,1(v1)
54008050:	00fe3821 	addu	a3,a3,s8
54008054:	00892021 	addu	a0,a0,t1
54008058:	1000fff0 	b	5400801c <reverseimage+0x6bc>
5400805c:	a1430001 	sb	v1,1(t2)
54008060:	240e0001 	li	t6,1
54008064:	8fa70088 	lw	a3,136(sp)
54008068:	01d7502a 	slt	t2,t6,s7
5400806c:	00e33023 	subu	a2,a3,v1
54008070:	1140ff0d 	beqz	t2,54007ca8 <reverseimage+0x348>
54008074:	02e04021 	move	t0,s7
54008078:	70de2002 	mul	a0,a2,s8
5400807c:	8fad004c 	lw	t5,76(sp)
54008080:	8fb50074 	lw	s5,116(sp)
54008084:	8fac005c 	lw	t4,92(sp)
54008088:	8fa50050 	lw	a1,80(sp)
5400808c:	8fa30040 	lw	v1,64(sp)
54008090:	026d4821 	addu	t1,s3,t5
54008094:	72a5c802 	mul	t9,s5,a1
54008098:	0193682a 	slt	t5,t4,s3
5400809c:	0003a840 	sll	s5,v1,0x1
540080a0:	02006021 	move	t4,s0
540080a4:	00893821 	addu	a3,a0,t1
540080a8:	010b4023 	subu	t0,t0,t3
540080ac:	010b102a 	slt	v0,t0,t3
540080b0:	10400015 	beqz	v0,54008108 <reverseimage+0x7a8>
540080b4:	001e4840 	sll	t1,s8,0x1
540080b8:	00075040 	sll	t2,a3,0x1
540080bc:	01592021 	addu	a0,t2,t9
540080c0:	0660000b 	bltz	s3,540080f0 <reverseimage+0x790>
540080c4:	01174021 	addu	t0,t0,s7
540080c8:	15a00009 	bnez	t5,540080f0 <reverseimage+0x790>
540080cc:	00000000 	nop
540080d0:	04c00007 	bltz	a2,540080f0 <reverseimage+0x790>
540080d4:	02e6102a 	slt	v0,s7,a2
540080d8:	8faa003c 	lw	t2,60(sp)
540080dc:	8fa50038 	lw	a1,56(sp)
540080e0:	018a1821 	addu	v1,t4,t2
540080e4:	1040000e 	beqz	v0,54008120 <reverseimage+0x7c0>
540080e8:	00855021 	addu	t2,a0,a1
540080ec:	00000000 	nop
540080f0:	24c60001 	addiu	a2,a2,1
540080f4:	00fe3821 	addu	a3,a3,s8
540080f8:	00892021 	addu	a0,a0,t1
540080fc:	010b282a 	slt	a1,t0,t3
54008100:	14a0ffef 	bnez	a1,540080c0 <reverseimage+0x760>
54008104:	00000000 	nop
54008108:	25ce0001 	addiu	t6,t6,1
5400810c:	01d7482a 	slt	t1,t6,s7
54008110:	1520ffe5 	bnez	t1,540080a8 <reverseimage+0x748>
54008114:	01956021 	addu	t4,t4,s5
54008118:	1000fee4 	b	54007cac <reverseimage+0x34c>
5400811c:	26730001 	addiu	s3,s3,1
54008120:	90620000 	lbu	v0,0(v1)
54008124:	24c60001 	addiu	a2,a2,1
54008128:	a1420000 	sb	v0,0(t2)
5400812c:	90630001 	lbu	v1,1(v1)
54008130:	00fe3821 	addu	a3,a3,s8
54008134:	00892021 	addu	a0,a0,t1
54008138:	1000fff0 	b	540080fc <reverseimage+0x79c>
5400813c:	a1430001 	sb	v1,1(t2)
54008140:	8e690008 	lw	t1,8(s3)
54008144:	8fb50040 	lw	s5,64(sp)
54008148:	8fa80038 	lw	t0,56(sp)
5400814c:	27a40010 	addiu	a0,sp,16
54008150:	afb50014 	sw	s5,20(sp)
54008154:	afb10034 	sw	s1,52(sp)
54008158:	afbe0028 	sw	s8,40(sp)
5400815c:	afa90010 	sw	t1,16(sp)
54008160:	afaa0018 	sw	t2,24(sp)
54008164:	afa80020 	sw	t0,32(sp)
54008168:	afa6001c 	sw	a2,28(sp)
5400816c:	afad0030 	sw	t5,48(sp)
54008170:	0d00237c 	jal	54008df0 <fillimagefun>
54008174:	afa5002c 	sw	a1,44(sp)
54008178:	8fbf00b4 	lw	ra,180(sp)
5400817c:	8fbe00b0 	lw	s8,176(sp)
54008180:	8fb700ac 	lw	s7,172(sp)
54008184:	8fb600a8 	lw	s6,168(sp)
54008188:	8fb500a4 	lw	s5,164(sp)
5400818c:	8fb400a0 	lw	s4,160(sp)
54008190:	8fb3009c 	lw	s3,156(sp)
54008194:	8fb20098 	lw	s2,152(sp)
54008198:	8fb10094 	lw	s1,148(sp)
5400819c:	8fb00090 	lw	s0,144(sp)
540081a0:	00001021 	move	v0,zero
540081a4:	03e00008 	jr	ra
540081a8:	27bd00b8 	addiu	sp,sp,184
540081ac:	00000000 	nop

540081b0 <fsin>:
540081b0:	04800007 	bltz	a0,540081d0 <fsin+0x20>
540081b4:	308603ff 	andi	a2,a0,0x3ff
540081b8:	3c055401 	lui	a1,0x5401
540081bc:	24a21168 	addiu	v0,a1,4456
540081c0:	00062080 	sll	a0,a2,0x2
540081c4:	00821821 	addu	v1,a0,v0
540081c8:	03e00008 	jr	ra
540081cc:	8c620000 	lw	v0,0(v1)
540081d0:	24840400 	addiu	a0,a0,1024
540081d4:	0481fff8 	bgez	a0,540081b8 <fsin+0x8>
540081d8:	308603ff 	andi	a2,a0,0x3ff
540081dc:	24840400 	addiu	a0,a0,1024
540081e0:	0480fffb 	bltz	a0,540081d0 <fsin+0x20>
540081e4:	308603ff 	andi	a2,a0,0x3ff
540081e8:	1000fff4 	b	540081bc <fsin+0xc>
540081ec:	3c055401 	lui	a1,0x5401

540081f0 <rotaionimage2d>:
540081f0:	27bdff90 	addiu	sp,sp,-112
540081f4:	afbf006c 	sw	ra,108(sp)
540081f8:	afbe0068 	sw	s8,104(sp)
540081fc:	afb70064 	sw	s7,100(sp)
54008200:	afb60060 	sw	s6,96(sp)
54008204:	afb5005c 	sw	s5,92(sp)
54008208:	afb40058 	sw	s4,88(sp)
5400820c:	afb30054 	sw	s3,84(sp)
54008210:	afb20050 	sw	s2,80(sp)
54008214:	afb1004c 	sw	s1,76(sp)
54008218:	afb00048 	sw	s0,72(sp)
5400821c:	8c900020 	lw	s0,32(a0)
54008220:	8c830004 	lw	v1,4(a0)
54008224:	2e020169 	sltiu	v0,s0,361
54008228:	afa30038 	sw	v1,56(sp)
5400822c:	8c85002c 	lw	a1,44(a0)
54008230:	8c970014 	lw	s7,20(a0)
54008234:	8c910018 	lw	s1,24(a0)
54008238:	8c830008 	lw	v1,8(a0)
5400823c:	8c940024 	lw	s4,36(a0)
54008240:	8c96000c 	lw	s6,12(a0)
54008244:	8c920010 	lw	s2,16(a0)
54008248:	8c950030 	lw	s5,48(a0)
5400824c:	8c9e0034 	lw	s8,52(a0)
54008250:	1440000e 	bnez	v0,5400828c <rotaionimage2d+0x9c>
54008254:	8c930028 	lw	s3,40(a0)
54008258:	8fbf006c 	lw	ra,108(sp)
5400825c:	8fbe0068 	lw	s8,104(sp)
54008260:	8fb70064 	lw	s7,100(sp)
54008264:	8fb60060 	lw	s6,96(sp)
54008268:	8fb5005c 	lw	s5,92(sp)
5400826c:	8fb40058 	lw	s4,88(sp)
54008270:	8fb30054 	lw	s3,84(sp)
54008274:	8fb20050 	lw	s2,80(sp)
54008278:	8fb1004c 	lw	s1,76(sp)
5400827c:	8fb00048 	lw	s0,72(sp)
54008280:	00001021 	move	v0,zero
54008284:	03e00008 	jr	ra
54008288:	27bd0070 	addiu	sp,sp,112
5400828c:	24060002 	li	a2,2
54008290:	27a40010 	addiu	a0,sp,16
54008294:	afa30010 	sw	v1,16(sp)
54008298:	afa6001c 	sw	a2,28(sp)
5400829c:	afa5002c 	sw	a1,44(sp)
540082a0:	afb60014 	sw	s6,20(sp)
540082a4:	afb20018 	sw	s2,24(sp)
540082a8:	afb40020 	sw	s4,32(sp)
540082ac:	afb50030 	sw	s5,48(sp)
540082b0:	afbe0034 	sw	s8,52(sp)
540082b4:	0d0023ae 	jal	54008eb8 <fillzerofun>
540082b8:	afb30028 	sw	s3,40(sp)
540082bc:	1237007a 	beq	s1,s7,540084a8 <rotaionimage2d+0x2b8>
540082c0:	8fa40038 	lw	a0,56(sp)
540082c4:	3c19b60b 	lui	t9,0xb60b
540082c8:	00107a80 	sll	t7,s0,0xa
540082cc:	373860b7 	ori	t8,t9,0x60b7
540082d0:	01f80018 	mult	t7,t8
540082d4:	0000b810 	mfhi	s7
540082d8:	000f77c3 	sra	t6,t7,0x1f
540082dc:	02ef8821 	addu	s1,s7,t7
540082e0:	00116a03 	sra	t5,s1,0x8
540082e4:	01ae8023 	subu	s0,t5,t6
540082e8:	0d00206c 	jal	540081b0 <fsin>
540082ec:	02002021 	move	a0,s0
540082f0:	240c0100 	li	t4,256
540082f4:	01902023 	subu	a0,t4,s0
540082f8:	0d00206c 	jal	540081b0 <fsin>
540082fc:	00408821 	move	s1,v0
54008300:	00125fc2 	srl	t3,s2,0x1f
54008304:	024b5021 	addu	t2,s2,t3
54008308:	000a7043 	sra	t6,t2,0x1
5400830c:	00164fc2 	srl	t1,s6,0x1f
54008310:	000e8023 	negu	s0,t6
54008314:	02c94021 	addu	t0,s6,t1
54008318:	020e382a 	slt	a3,s0,t6
5400831c:	00407821 	move	t7,v0
54008320:	10e0ffcd 	beqz	a3,54008258 <rotaionimage2d+0x68>
54008324:	00086843 	sra	t5,t0,0x1
54008328:	72026002 	mul	t4,s0,v0
5400832c:	72115802 	mul	t3,s0,s1
54008330:	000df823 	negu	ra,t5
54008334:	727eb802 	mul	s7,s3,s8
54008338:	03edf02a 	slt	s8,ra,t5
5400833c:	afbe0040 	sw	s8,64(sp)
54008340:	afbf003c 	sw	ra,60(sp)
54008344:	26d8ffff 	addiu	t8,s6,-1
54008348:	0015f040 	sll	s8,s5,0x1
5400834c:	00000000 	nop
54008350:	8fa20040 	lw	v0,64(sp)
54008354:	10400042 	beqz	v0,54008460 <rotaionimage2d+0x270>
54008358:	8fa6003c 	lw	a2,60(sp)
5400835c:	020e4821 	addu	t1,s0,t6
54008360:	71364002 	mul	t0,t1,s6
54008364:	70d14802 	mul	t1,a2,s1
54008368:	8fa30038 	lw	v1,56(sp)
5400836c:	0017c840 	sll	t9,s7,0x1
54008370:	010d3821 	addu	a3,t0,t5
54008374:	70cf4002 	mul	t0,a2,t7
54008378:	00e62821 	addu	a1,a3,a2
5400837c:	00052040 	sll	a0,a1,0x1
54008380:	00835021 	addu	t2,a0,v1
54008384:	10000024 	b	54008418 <rotaionimage2d+0x228>
54008388:	01a63023 	subu	a2,t5,a2
5400838c:	00000000 	nop
54008390:	00ad2821 	addu	a1,a1,t5
54008394:	00041283 	sra	v0,a0,0xa
54008398:	0480002f 	bltz	a0,54008458 <rotaionimage2d+0x268>
5400839c:	00b8382a 	slt	a3,a1,t8
540083a0:	04a0001b 	bltz	a1,54008410 <rotaionimage2d+0x220>
540083a4:	004e2021 	addu	a0,v0,t6
540083a8:	00041027 	nor	v0,zero,a0
540083ac:	0002ffc2 	srl	ra,v0,0x1f
540083b0:	0092182a 	slt	v1,a0,s2
540083b4:	10e00016 	beqz	a3,54008410 <rotaionimage2d+0x220>
540083b8:	03e31024 	and	v0,ra,v1
540083bc:	10400014 	beqz	v0,54008410 <rotaionimage2d+0x220>
540083c0:	70931802 	mul	v1,a0,s3
540083c4:	00771021 	addu	v0,v1,s7
540083c8:	00453821 	addu	a3,v0,a1
540083cc:	0065f821 	addu	ra,v1,a1
540083d0:	00f52821 	addu	a1,a3,s5
540083d4:	00051040 	sll	v0,a1,0x1
540083d8:	91440000 	lbu	a0,0(t2)
540083dc:	001f3840 	sll	a3,ra,0x1
540083e0:	00541021 	addu	v0,v0,s4
540083e4:	00fe2821 	addu	a1,a3,s8
540083e8:	a0440000 	sb	a0,0(v0)
540083ec:	00b91821 	addu	v1,a1,t9
540083f0:	00742821 	addu	a1,v1,s4
540083f4:	915f0001 	lbu	ra,1(t2)
540083f8:	a0bf0001 	sb	ra,1(a1)
540083fc:	91470000 	lbu	a3,0(t2)
54008400:	a0a70002 	sb	a3,2(a1)
54008404:	91440001 	lbu	a0,1(t2)
54008408:	a0a40003 	sb	a0,3(a1)
5400840c:	00000000 	nop
54008410:	10c00013 	beqz	a2,54008460 <rotaionimage2d+0x270>
54008414:	254a0002 	addiu	t2,t2,2
54008418:	010bf823 	subu	ra,t0,t3
5400841c:	012c2021 	addu	a0,t1,t4
54008420:	001f1823 	negu	v1,ra
54008424:	00041023 	negu	v0,a0
54008428:	00033a83 	sra	a3,v1,0xa
5400842c:	24c6ffff 	addiu	a2,a2,-1
54008430:	010f4021 	addu	t0,t0,t7
54008434:	01314821 	addu	t1,t1,s1
54008438:	00021a83 	sra	v1,v0,0xa
5400843c:	07e1ffd4 	bgez	ra,54008390 <rotaionimage2d+0x1a0>
54008440:	001f2a83 	sra	a1,ra,0xa
54008444:	00072823 	negu	a1,a3
54008448:	00ad2821 	addu	a1,a1,t5
5400844c:	00041283 	sra	v0,a0,0xa
54008450:	0481ffd3 	bgez	a0,540083a0 <rotaionimage2d+0x1b0>
54008454:	00b8382a 	slt	a3,a1,t8
54008458:	1000ffd1 	b	540083a0 <rotaionimage2d+0x1b0>
5400845c:	00031023 	negu	v0,v1
54008460:	26100001 	addiu	s0,s0,1
54008464:	020e302a 	slt	a2,s0,t6
54008468:	01715821 	addu	t3,t3,s1
5400846c:	14c0ffb8 	bnez	a2,54008350 <rotaionimage2d+0x160>
54008470:	018f6021 	addu	t4,t4,t7
54008474:	8fbf006c 	lw	ra,108(sp)
54008478:	8fbe0068 	lw	s8,104(sp)
5400847c:	8fb70064 	lw	s7,100(sp)
54008480:	8fb60060 	lw	s6,96(sp)
54008484:	8fb5005c 	lw	s5,92(sp)
54008488:	8fb40058 	lw	s4,88(sp)
5400848c:	8fb30054 	lw	s3,84(sp)
54008490:	8fb20050 	lw	s2,80(sp)
54008494:	8fb1004c 	lw	s1,76(sp)
54008498:	8fb00048 	lw	s0,72(sp)
5400849c:	00001021 	move	v0,zero
540084a0:	03e00008 	jr	ra
540084a4:	27bd0070 	addiu	sp,sp,112
540084a8:	2a05005a 	slti	a1,s0,90
540084ac:	1000ff85 	b	540082c4 <rotaionimage2d+0xd4>
540084b0:	0085a00b 	movn	s4,a0,a1
540084b4:	00000000 	nop

540084b8 <fillfadeimagealphafun>:
540084b8:	27bdffe8 	addiu	sp,sp,-24
540084bc:	3c0a6666 	lui	t2,0x6666
540084c0:	afb40010 	sw	s4,16(sp)
540084c4:	afb00000 	sw	s0,0(sp)
540084c8:	afb3000c 	sw	s3,12(sp)
540084cc:	afb20008 	sw	s2,8(sp)
540084d0:	afb10004 	sw	s1,4(sp)
540084d4:	8c880014 	lw	t0,20(a0)
540084d8:	35496667 	ori	t1,t2,0x6667
540084dc:	00086a80 	sll	t5,t0,0xa
540084e0:	8c910024 	lw	s1,36(a0)
540084e4:	8c8b0018 	lw	t3,24(a0)
540084e8:	01a90018 	mult	t5,t1
540084ec:	00007010 	mfhi	t6
540084f0:	722b8002 	mul	s0,s1,t3
540084f4:	8c8f0020 	lw	t7,32(a0)
540084f8:	8c8a000c 	lw	t2,12(a0)
540084fc:	8c880004 	lw	t0,4(a0)
54008500:	8c870010 	lw	a3,16(a0)
54008504:	020f2821 	addu	a1,s0,t7
54008508:	70aa6002 	mul	t4,a1,t2
5400850c:	8c890008 	lw	t1,8(a0)
54008510:	000e1083 	sra	v0,t6,0x2
54008514:	000d1fc3 	sra	v1,t5,0x1f
54008518:	00083040 	sll	a2,t0,0x1
5400851c:	0187c821 	addu	t9,t4,a3
54008520:	00438023 	subu	s0,v0,v1
54008524:	00c8a021 	addu	s4,a2,t0
54008528:	19200059 	blez	t1,54008690 <fillfadeimagealphafun+0x1d8>
5400852c:	8c980000 	lw	t8,0(a0)
54008530:	01682023 	subu	a0,t3,t0
54008534:	708a9802 	mul	s3,a0,t2
54008538:	01209021 	move	s2,t1
5400853c:	00000000 	nop
54008540:	1000004e 	b	5400867c <fillfadeimagealphafun+0x1c4>
54008544:	02808821 	move	s1,s4
54008548:	930b0004 	lbu	t3,4(t8)
5400854c:	93040001 	lbu	a0,1(t8)
54008550:	93050003 	lbu	a1,3(t8)
54008554:	872a0002 	lh	t2,2(t9)
54008558:	930f0000 	lbu	t7,0(t8)
5400855c:	000b1200 	sll	v0,t3,0x8
54008560:	00a23025 	or	a2,a1,v0
54008564:	872b0000 	lh	t3,0(t9)
54008568:	00047200 	sll	t6,a0,0x8
5400856c:	93080005 	lbu	t0,5(t8)
54008570:	01ee2825 	or	a1,t7,t6
54008574:	93090002 	lbu	t1,2(t8)
54008578:	314ef800 	andi	t6,t2,0xf800
5400857c:	314f07e0 	andi	t7,t2,0x7e0
54008580:	30ccf800 	andi	t4,a2,0xf800
54008584:	30cd07e0 	andi	t5,a2,0x7e0
54008588:	25080001 	addiu	t0,t0,1
5400858c:	314a001f 	andi	t2,t2,0x1f
54008590:	018e1823 	subu	v1,t4,t6
54008594:	01af3823 	subu	a3,t5,t7
54008598:	316cf800 	andi	t4,t3,0xf800
5400859c:	316d07e0 	andi	t5,t3,0x7e0
540085a0:	30a2f800 	andi	v0,a1,0xf800
540085a4:	30a407e0 	andi	a0,a1,0x7e0
540085a8:	30c6001f 	andi	a2,a2,0x1f
540085ac:	25290001 	addiu	t1,t1,1
540085b0:	316b001f 	andi	t3,t3,0x1f
540085b4:	004c1023 	subu	v0,v0,t4
540085b8:	70681802 	mul	v1,v1,t0
540085bc:	70e83802 	mul	a3,a3,t0
540085c0:	008d2023 	subu	a0,a0,t5
540085c4:	00ca3023 	subu	a2,a2,t2
540085c8:	30a5001f 	andi	a1,a1,0x1f
540085cc:	70892002 	mul	a0,a0,t1
540085d0:	70c83002 	mul	a2,a2,t0
540085d4:	00ab2823 	subu	a1,a1,t3
540085d8:	70494002 	mul	t0,v0,t1
540085dc:	00073a03 	sra	a3,a3,0x8
540085e0:	70a92802 	mul	a1,a1,t1
540085e4:	00031a03 	sra	v1,v1,0x8
540085e8:	70f04802 	mul	t1,a3,s0
540085ec:	00081203 	sra	v0,t0,0x8
540085f0:	00063203 	sra	a2,a2,0x8
540085f4:	00044203 	sra	t0,a0,0x8
540085f8:	70701802 	mul	v1,v1,s0
540085fc:	71102002 	mul	a0,t0,s0
54008600:	70501002 	mul	v0,v0,s0
54008604:	00052a03 	sra	a1,a1,0x8
54008608:	00093a83 	sra	a3,t1,0xa
5400860c:	70d04002 	mul	t0,a2,s0
54008610:	70b02802 	mul	a1,a1,s0
54008614:	00031a83 	sra	v1,v1,0xa
54008618:	006e1821 	addu	v1,v1,t6
5400861c:	00024a83 	sra	t1,v0,0xa
54008620:	00ef7021 	addu	t6,a3,t7
54008624:	00083283 	sra	a2,t0,0xa
54008628:	00047a83 	sra	t7,a0,0xa
5400862c:	012c1021 	addu	v0,t1,t4
54008630:	01ed2021 	addu	a0,t7,t5
54008634:	00ca4021 	addu	t0,a2,t2
54008638:	31c707e0 	andi	a3,t6,0x7e0
5400863c:	00056283 	sra	t4,a1,0xa
54008640:	306af800 	andi	t2,v1,0xf800
54008644:	018b2821 	addu	a1,t4,t3
54008648:	01476825 	or	t5,t2,a3
5400864c:	304ff800 	andi	t7,v0,0xf800
54008650:	308907e0 	andi	t1,a0,0x7e0
54008654:	310e001f 	andi	t6,t0,0x1f
54008658:	01e93825 	or	a3,t7,t1
5400865c:	01ae1825 	or	v1,t5,t6
54008660:	30ac001f 	andi	t4,a1,0x1f
54008664:	00ec1025 	or	v0,a3,t4
54008668:	00033400 	sll	a2,v1,0x10
5400866c:	00c25825 	or	t3,a2,v0
54008670:	af2b0000 	sw	t3,0(t9)
54008674:	27180006 	addiu	t8,t8,6
54008678:	27390004 	addiu	t9,t9,4
5400867c:	1e20ffb2 	bgtz	s1,54008548 <fillfadeimagealphafun+0x90>
54008680:	2631fffa 	addiu	s1,s1,-6
54008684:	2652ffff 	addiu	s2,s2,-1
54008688:	1640ffad 	bnez	s2,54008540 <fillfadeimagealphafun+0x88>
5400868c:	0333c821 	addu	t9,t9,s3
54008690:	8fb40010 	lw	s4,16(sp)
54008694:	8fb3000c 	lw	s3,12(sp)
54008698:	8fb20008 	lw	s2,8(sp)
5400869c:	8fb10004 	lw	s1,4(sp)
540086a0:	8fb00000 	lw	s0,0(sp)
540086a4:	00001021 	move	v0,zero
540086a8:	03e00008 	jr	ra
540086ac:	27bd0018 	addiu	sp,sp,24

540086b0 <fillfadeimagefun>:
540086b0:	27bdff38 	addiu	sp,sp,-200
540086b4:	3c096666 	lui	t1,0x6666
540086b8:	afbe00c0 	sw	s8,192(sp)
540086bc:	afb000a0 	sw	s0,160(sp)
540086c0:	afb700bc 	sw	s7,188(sp)
540086c4:	afb600b8 	sw	s6,184(sp)
540086c8:	afb500b4 	sw	s5,180(sp)
540086cc:	afb400b0 	sw	s4,176(sp)
540086d0:	afb300ac 	sw	s3,172(sp)
540086d4:	afb200a8 	sw	s2,168(sp)
540086d8:	afb100a4 	sw	s1,164(sp)
540086dc:	8c8a0014 	lw	t2,20(a0)
540086e0:	35286667 	ori	t0,t1,0x6667
540086e4:	000a6a80 	sll	t5,t2,0xa
540086e8:	8c910024 	lw	s1,36(a0)
540086ec:	8c8b0018 	lw	t3,24(a0)
540086f0:	01a80018 	mult	t5,t0
540086f4:	00007010 	mfhi	t6
540086f8:	722b8002 	mul	s0,s1,t3
540086fc:	8c8f0020 	lw	t7,32(a0)
54008700:	8c88000c 	lw	t0,12(a0)
54008704:	8c890004 	lw	t1,4(a0)
54008708:	8c860010 	lw	a2,16(a0)
5400870c:	020f2821 	addu	a1,s0,t7
54008710:	70a86002 	mul	t4,a1,t0
54008714:	71282802 	mul	a1,t1,t0
54008718:	8c8a0008 	lw	t2,8(a0)
5400871c:	8c840000 	lw	a0,0(a0)
54008720:	000e1083 	sra	v0,t6,0x2
54008724:	000d1fc3 	sra	v1,t5,0x1f
54008728:	01863821 	addu	a3,t4,a2
5400872c:	afa70004 	sw	a3,4(sp)
54008730:	afa50010 	sw	a1,16(sp)
54008734:	0043f023 	subu	s8,v0,v1
54008738:	194001a0 	blez	t2,54008dbc <fillfadeimagefun+0x70c>
5400873c:	afa40000 	sw	a0,0(sp)
54008740:	01699823 	subu	s3,t3,t1
54008744:	72689002 	mul	s2,s3,t0
54008748:	30ab000f 	andi	t3,a1,0xf
5400874c:	afaa0008 	sw	t2,8(sp)
54008750:	afab0028 	sw	t3,40(sp)
54008754:	afb2002c 	sw	s2,44(sp)
54008758:	8fb50010 	lw	s5,16(sp)
5400875c:	2414fff0 	li	s4,-16
54008760:	02b41024 	and	v0,s5,s4
54008764:	10000149 	b	54008c8c <fillfadeimagefun+0x5dc>
54008768:	afa2000c 	sw	v0,12(sp)
5400876c:	00000000 	nop
54008770:	8fb30004 	lw	s3,4(sp)
54008774:	8fa20000 	lw	v0,0(sp)
54008778:	8fb00000 	lw	s0,0(sp)
5400877c:	8fb10000 	lw	s1,0(sp)
54008780:	87350002 	lh	s5,2(t9)
54008784:	87290006 	lh	t1,6(t9)
54008788:	8732000a 	lh	s2,10(t9)
5400878c:	8724000e 	lh	a0,14(t9)
54008790:	872e0000 	lh	t6,0(t9)
54008794:	872f0004 	lh	t7,4(t9)
54008798:	87260008 	lh	a2,8(t9)
5400879c:	8674000c 	lh	s4,12(s3)
540087a0:	860a0002 	lh	t2,2(s0)
540087a4:	860c0006 	lh	t4,6(s0)
540087a8:	862b000a 	lh	t3,10(s1)
540087ac:	862d000e 	lh	t5,14(s1)
540087b0:	84500000 	lh	s0,0(v0)
540087b4:	84510004 	lh	s1,4(v0)
540087b8:	32a8f800 	andi	t0,s5,0xf800
540087bc:	32b607e0 	andi	s6,s5,0x7e0
540087c0:	3127f800 	andi	a3,t1,0xf800
540087c4:	313707e0 	andi	s7,t1,0x7e0
540087c8:	3245f800 	andi	a1,s2,0xf800
540087cc:	325807e0 	andi	t8,s2,0x7e0
540087d0:	3083f800 	andi	v1,a0,0xf800
540087d4:	309907e0 	andi	t9,a0,0x7e0
540087d8:	afae0020 	sw	t6,32(sp)
540087dc:	afaf0024 	sw	t7,36(sp)
540087e0:	844e0008 	lh	t6,8(v0)
540087e4:	844f000c 	lh	t7,12(v0)
540087e8:	32a2001f 	andi	v0,s5,0x1f
540087ec:	afa60054 	sw	a2,84(sp)
540087f0:	afb40070 	sw	s4,112(sp)
540087f4:	afa80030 	sw	t0,48(sp)
540087f8:	afb60034 	sw	s6,52(sp)
540087fc:	afa70048 	sw	a3,72(sp)
54008800:	afb7004c 	sw	s7,76(sp)
54008804:	afa50064 	sw	a1,100(sp)
54008808:	afb80068 	sw	t8,104(sp)
5400880c:	afa30080 	sw	v1,128(sp)
54008810:	afb90084 	sw	t9,132(sp)
54008814:	afa20038 	sw	v0,56(sp)
54008818:	8fb50030 	lw	s5,48(sp)
5400881c:	3148f800 	andi	t0,t2,0xf800
54008820:	8fa20034 	lw	v0,52(sp)
54008824:	01154023 	subu	t0,t0,s5
54008828:	8fb50020 	lw	s5,32(sp)
5400882c:	315607e0 	andi	s6,t2,0x7e0
54008830:	02c2b023 	subu	s6,s6,v0
54008834:	32a2f800 	andi	v0,s5,0xf800
54008838:	8fb50054 	lw	s5,84(sp)
5400883c:	afa20014 	sw	v0,20(sp)
54008840:	32a2f800 	andi	v0,s5,0xf800
54008844:	afa20058 	sw	v0,88(sp)
54008848:	8fa20020 	lw	v0,32(sp)
5400884c:	3126001f 	andi	a2,t1,0x1f
54008850:	3094001f 	andi	s4,a0,0x1f
54008854:	8fa90048 	lw	t1,72(sp)
54008858:	8fa40080 	lw	a0,128(sp)
5400885c:	afa60050 	sw	a2,80(sp)
54008860:	3042001f 	andi	v0,v0,0x1f
54008864:	8fa60064 	lw	a2,100(sp)
54008868:	3253001f 	andi	s3,s2,0x1f
5400886c:	3187f800 	andi	a3,t4,0xf800
54008870:	3165f800 	andi	a1,t3,0xf800
54008874:	31a3f800 	andi	v1,t5,0xf800
54008878:	afa2001c 	sw	v0,28(sp)
5400887c:	8fa20024 	lw	v0,36(sp)
54008880:	8fb2004c 	lw	s2,76(sp)
54008884:	00641823 	subu	v1,v1,a0
54008888:	afb3006c 	sw	s3,108(sp)
5400888c:	8fa40024 	lw	a0,36(sp)
54008890:	8fb30068 	lw	s3,104(sp)
54008894:	afb40088 	sw	s4,136(sp)
54008898:	00e93823 	subu	a3,a3,t1
5400889c:	8fb40084 	lw	s4,132(sp)
540088a0:	8fa90020 	lw	t1,32(sp)
540088a4:	00a62823 	subu	a1,a1,a2
540088a8:	8fa60024 	lw	a2,36(sp)
540088ac:	319707e0 	andi	s7,t4,0x7e0
540088b0:	317807e0 	andi	t8,t3,0x7e0
540088b4:	31b907e0 	andi	t9,t5,0x7e0
540088b8:	3042001f 	andi	v0,v0,0x1f
540088bc:	02f2b823 	subu	s7,s7,s2
540088c0:	0313c023 	subu	t8,t8,s3
540088c4:	313207e0 	andi	s2,t1,0x7e0
540088c8:	30d3f800 	andi	s3,a2,0xf800
540088cc:	8fa90054 	lw	t1,84(sp)
540088d0:	8fa60070 	lw	a2,112(sp)
540088d4:	0334c823 	subu	t9,t9,s4
540088d8:	afa20044 	sw	v0,68(sp)
540088dc:	309407e0 	andi	s4,a0,0x7e0
540088e0:	8fa20054 	lw	v0,84(sp)
540088e4:	8fa40070 	lw	a0,112(sp)
540088e8:	31f5f800 	andi	s5,t7,0xf800
540088ec:	afb20018 	sw	s2,24(sp)
540088f0:	afb3003c 	sw	s3,60(sp)
540088f4:	313207e0 	andi	s2,t1,0x7e0
540088f8:	30d3f800 	andi	s3,a2,0xf800
540088fc:	afb40040 	sw	s4,64(sp)
54008900:	3042001f 	andi	v0,v0,0x1f
54008904:	309407e0 	andi	s4,a0,0x7e0
54008908:	afb2005c 	sw	s2,92(sp)
5400890c:	afb30074 	sw	s3,116(sp)
54008910:	afb40078 	sw	s4,120(sp)
54008914:	afb50090 	sw	s5,144(sp)
54008918:	afa20060 	sw	v0,96(sp)
5400891c:	8fa20070 	lw	v0,112(sp)
54008920:	3209f800 	andi	t1,s0,0xf800
54008924:	3042001f 	andi	v0,v0,0x1f
54008928:	afa2007c 	sw	v0,124(sp)
5400892c:	707e1002 	mul	v0,v1,s8
54008930:	8fa30014 	lw	v1,20(sp)
54008934:	321207e0 	andi	s2,s0,0x7e0
54008938:	01234823 	subu	t1,t1,v1
5400893c:	8fa30038 	lw	v1,56(sp)
54008940:	afa20098 	sw	v0,152(sp)
54008944:	8fa20018 	lw	v0,24(sp)
54008948:	314a001f 	andi	t2,t2,0x1f
5400894c:	02429023 	subu	s2,s2,v0
54008950:	01435023 	subu	t2,t2,v1
54008954:	8fa2003c 	lw	v0,60(sp)
54008958:	8fa30040 	lw	v1,64(sp)
5400895c:	3226f800 	andi	a2,s1,0xf800
54008960:	323307e0 	andi	s3,s1,0x7e0
54008964:	00c23023 	subu	a2,a2,v0
54008968:	02639823 	subu	s3,s3,v1
5400896c:	8fa20050 	lw	v0,80(sp)
54008970:	8fa30058 	lw	v1,88(sp)
54008974:	31c4f800 	andi	a0,t6,0xf800
54008978:	318c001f 	andi	t4,t4,0x1f
5400897c:	01826023 	subu	t4,t4,v0
54008980:	00832023 	subu	a0,a0,v1
54008984:	8fa2005c 	lw	v0,92(sp)
54008988:	8fa3006c 	lw	v1,108(sp)
5400898c:	31d407e0 	andi	s4,t6,0x7e0
54008990:	316b001f 	andi	t3,t3,0x1f
54008994:	0282a023 	subu	s4,s4,v0
54008998:	01635823 	subu	t3,t3,v1
5400899c:	8fa20074 	lw	v0,116(sp)
540089a0:	8fa30090 	lw	v1,144(sp)
540089a4:	31f507e0 	andi	s5,t7,0x7e0
540089a8:	00621823 	subu	v1,v1,v0
540089ac:	8fa20078 	lw	v0,120(sp)
540089b0:	afa30090 	sw	v1,144(sp)
540089b4:	02a2a823 	subu	s5,s5,v0
540089b8:	8fa30088 	lw	v1,136(sp)
540089bc:	8fa2001c 	lw	v0,28(sp)
540089c0:	31ad001f 	andi	t5,t5,0x1f
540089c4:	3210001f 	andi	s0,s0,0x1f
540089c8:	01a36823 	subu	t5,t5,v1
540089cc:	02028023 	subu	s0,s0,v0
540089d0:	8fa30044 	lw	v1,68(sp)
540089d4:	8fa20060 	lw	v0,96(sp)
540089d8:	3231001f 	andi	s1,s1,0x1f
540089dc:	31ce001f 	andi	t6,t6,0x1f
540089e0:	02238823 	subu	s1,s1,v1
540089e4:	01c27023 	subu	t6,t6,v0
540089e8:	8fa3007c 	lw	v1,124(sp)
540089ec:	8fa20090 	lw	v0,144(sp)
540089f0:	31ef001f 	andi	t7,t7,0x1f
540089f4:	01e37823 	subu	t7,t7,v1
540089f8:	705e1802 	mul	v1,v0,s8
540089fc:	711e4002 	mul	t0,t0,s8
54008a00:	8fa20098 	lw	v0,152(sp)
54008a04:	72deb002 	mul	s6,s6,s8
54008a08:	afa30090 	sw	v1,144(sp)
54008a0c:	70fe3802 	mul	a3,a3,s8
54008a10:	00021a83 	sra	v1,v0,0xa
54008a14:	8fa20030 	lw	v0,48(sp)
54008a18:	00084283 	sra	t0,t0,0xa
54008a1c:	01024021 	addu	t0,t0,v0
54008a20:	72feb802 	mul	s7,s7,s8
54008a24:	8fa20034 	lw	v0,52(sp)
54008a28:	0016b283 	sra	s6,s6,0xa
54008a2c:	02c2b021 	addu	s6,s6,v0
54008a30:	70be2802 	mul	a1,a1,s8
54008a34:	8fa20048 	lw	v0,72(sp)
54008a38:	00073a83 	sra	a3,a3,0xa
54008a3c:	00e23821 	addu	a3,a3,v0
54008a40:	731ec002 	mul	t8,t8,s8
54008a44:	8fa2004c 	lw	v0,76(sp)
54008a48:	0017ba83 	sra	s7,s7,0xa
54008a4c:	02e2b821 	addu	s7,s7,v0
54008a50:	8fa20064 	lw	v0,100(sp)
54008a54:	00052a83 	sra	a1,a1,0xa
54008a58:	00a22821 	addu	a1,a1,v0
54008a5c:	8fa20068 	lw	v0,104(sp)
54008a60:	733ec802 	mul	t9,t9,s8
54008a64:	0018c283 	sra	t8,t8,0xa
54008a68:	0302c021 	addu	t8,t8,v0
54008a6c:	8fa20080 	lw	v0,128(sp)
54008a70:	713e4802 	mul	t1,t1,s8
54008a74:	00621821 	addu	v1,v1,v0
54008a78:	afa30098 	sw	v1,152(sp)
54008a7c:	8fa20090 	lw	v0,144(sp)
54008a80:	8fa30084 	lw	v1,132(sp)
54008a84:	725e9002 	mul	s2,s2,s8
54008a88:	715e5002 	mul	t2,t2,s8
54008a8c:	0019ca83 	sra	t9,t9,0xa
54008a90:	0323c821 	addu	t9,t9,v1
54008a94:	00021a83 	sra	v1,v0,0xa
54008a98:	afa30090 	sw	v1,144(sp)
54008a9c:	70de3002 	mul	a2,a2,s8
54008aa0:	8fa20014 	lw	v0,20(sp)
54008aa4:	727e9802 	mul	s3,s3,s8
54008aa8:	00094a83 	sra	t1,t1,0xa
54008aac:	01224821 	addu	t1,t1,v0
54008ab0:	8fa30018 	lw	v1,24(sp)
54008ab4:	8fa20038 	lw	v0,56(sp)
54008ab8:	719e6002 	mul	t4,t4,s8
54008abc:	709e2002 	mul	a0,a0,s8
54008ac0:	00129283 	sra	s2,s2,0xa
54008ac4:	000a5283 	sra	t2,t2,0xa
54008ac8:	02439021 	addu	s2,s2,v1
54008acc:	01425021 	addu	t2,t2,v0
54008ad0:	8fa3003c 	lw	v1,60(sp)
54008ad4:	8fa20040 	lw	v0,64(sp)
54008ad8:	729ea002 	mul	s4,s4,s8
54008adc:	717e5802 	mul	t3,t3,s8
54008ae0:	00063283 	sra	a2,a2,0xa
54008ae4:	00139a83 	sra	s3,s3,0xa
54008ae8:	00c33021 	addu	a2,a2,v1
54008aec:	02629821 	addu	s3,s3,v0
54008af0:	8fa30050 	lw	v1,80(sp)
54008af4:	8fa20058 	lw	v0,88(sp)
54008af8:	000c6283 	sra	t4,t4,0xa
54008afc:	00042283 	sra	a0,a0,0xa
54008b00:	01836021 	addu	t4,t4,v1
54008b04:	00822021 	addu	a0,a0,v0
54008b08:	8fa3005c 	lw	v1,92(sp)
54008b0c:	8fa2006c 	lw	v0,108(sp)
54008b10:	72bea802 	mul	s5,s5,s8
54008b14:	0014a283 	sra	s4,s4,0xa
54008b18:	000b5a83 	sra	t3,t3,0xa
54008b1c:	0283a021 	addu	s4,s4,v1
54008b20:	01625821 	addu	t3,t3,v0
54008b24:	8fa30074 	lw	v1,116(sp)
54008b28:	8fa20090 	lw	v0,144(sp)
54008b2c:	71be6802 	mul	t5,t5,s8
54008b30:	00431021 	addu	v0,v0,v1
54008b34:	afa20090 	sw	v0,144(sp)
54008b38:	721e8002 	mul	s0,s0,s8
54008b3c:	8fa20078 	lw	v0,120(sp)
54008b40:	723e8802 	mul	s1,s1,s8
54008b44:	0015aa83 	sra	s5,s5,0xa
54008b48:	02a2a821 	addu	s5,s5,v0
54008b4c:	8fa30088 	lw	v1,136(sp)
54008b50:	8fa20098 	lw	v0,152(sp)
54008b54:	71de7002 	mul	t6,t6,s8
54008b58:	71fe7802 	mul	t7,t7,s8
54008b5c:	000d6a83 	sra	t5,t5,0xa
54008b60:	01a36821 	addu	t5,t5,v1
54008b64:	32d607e0 	andi	s6,s6,0x7e0
54008b68:	3043f800 	andi	v1,v0,0xf800
54008b6c:	3108f800 	andi	t0,t0,0xf800
54008b70:	8fa2001c 	lw	v0,28(sp)
54008b74:	01164025 	or	t0,t0,s6
54008b78:	00108283 	sra	s0,s0,0xa
54008b7c:	8fb60044 	lw	s6,68(sp)
54008b80:	02028021 	addu	s0,s0,v0
54008b84:	331807e0 	andi	t8,t8,0x7e0
54008b88:	8fa20060 	lw	v0,96(sp)
54008b8c:	00118a83 	sra	s1,s1,0xa
54008b90:	30a5f800 	andi	a1,a1,0xf800
54008b94:	00b82825 	or	a1,a1,t8
54008b98:	32f707e0 	andi	s7,s7,0x7e0
54008b9c:	02368821 	addu	s1,s1,s6
54008ba0:	8fb8007c 	lw	t8,124(sp)
54008ba4:	8fb60090 	lw	s6,144(sp)
54008ba8:	30e7f800 	andi	a3,a3,0xf800
54008bac:	000e7283 	sra	t6,t6,0xa
54008bb0:	00f73825 	or	a3,a3,s7
54008bb4:	01c27021 	addu	t6,t6,v0
54008bb8:	3197001f 	andi	s7,t4,0x1f
54008bbc:	333907e0 	andi	t9,t9,0x7e0
54008bc0:	3129f800 	andi	t1,t1,0xf800
54008bc4:	325207e0 	andi	s2,s2,0x7e0
54008bc8:	30c6f800 	andi	a2,a2,0xf800
54008bcc:	327307e0 	andi	s3,s3,0x7e0
54008bd0:	3084f800 	andi	a0,a0,0xf800
54008bd4:	329407e0 	andi	s4,s4,0x7e0
54008bd8:	000f7a83 	sra	t7,t7,0xa
54008bdc:	01f87821 	addu	t7,t7,t8
54008be0:	00791825 	or	v1,v1,t9
54008be4:	00d3c025 	or	t8,a2,s3
54008be8:	32c2f800 	andi	v0,s6,0xf800
54008bec:	0132c825 	or	t9,t1,s2
54008bf0:	0094b025 	or	s6,a0,s4
54008bf4:	00f79825 	or	s3,a3,s7
54008bf8:	320c001f 	andi	t4,s0,0x1f
54008bfc:	31d7001f 	andi	s7,t6,0x1f
54008c00:	314a001f 	andi	t2,t2,0x1f
54008c04:	316b001f 	andi	t3,t3,0x1f
54008c08:	32b507e0 	andi	s5,s5,0x7e0
54008c0c:	31ad001f 	andi	t5,t5,0x1f
54008c10:	0055a025 	or	s4,v0,s5
54008c14:	02d78025 	or	s0,s6,s7
54008c18:	010a4025 	or	t0,t0,t2
54008c1c:	8fb70004 	lw	s7,4(sp)
54008c20:	00ab9025 	or	s2,a1,t3
54008c24:	31f5001f 	andi	s5,t7,0x1f
54008c28:	006d5825 	or	t3,v1,t5
54008c2c:	032c4825 	or	t1,t9,t4
54008c30:	8fa2000c 	lw	v0,12(sp)
54008c34:	8fb90000 	lw	t9,0(sp)
54008c38:	3231001f 	andi	s1,s1,0x1f
54008c3c:	03115025 	or	t2,t8,s1
54008c40:	02956825 	or	t5,s4,s5
54008c44:	00087c00 	sll	t7,t0,0x10
54008c48:	00137400 	sll	t6,s3,0x10
54008c4c:	00122c00 	sll	a1,s2,0x10
54008c50:	000b1c00 	sll	v1,t3,0x10
54008c54:	01e96025 	or	t4,t7,t1
54008c58:	01ca3825 	or	a3,t6,t2
54008c5c:	00b03025 	or	a2,a1,s0
54008c60:	006d2025 	or	a0,v1,t5
54008c64:	2442fff0 	addiu	v0,v0,-16
54008c68:	27380010 	addiu	t8,t9,16
54008c6c:	26f60010 	addiu	s6,s7,16
54008c70:	afa2000c 	sw	v0,12(sp)
54008c74:	aeec0000 	sw	t4,0(s7)
54008c78:	aee70004 	sw	a3,4(s7)
54008c7c:	aee60008 	sw	a2,8(s7)
54008c80:	aee4000c 	sw	a0,12(s7)
54008c84:	afb80000 	sw	t8,0(sp)
54008c88:	afb60004 	sw	s6,4(sp)
54008c8c:	1c40feb8 	bgtz	v0,54008770 <fillfadeimagefun+0xc0>
54008c90:	8fb90004 	lw	t9,4(sp)
54008c94:	1000003f 	b	54008d94 <fillfadeimagefun+0x6e4>
54008c98:	8fae0028 	lw	t6,40(sp)
54008c9c:	00000000 	nop
54008ca0:	8fb70004 	lw	s7,4(sp)
54008ca4:	25cefffc 	addiu	t6,t6,-4
54008ca8:	84e40002 	lh	a0,2(a3)
54008cac:	86e80002 	lh	t0,2(s7)
54008cb0:	84f60000 	lh	s6,0(a3)
54008cb4:	86e90000 	lh	t1,0(s7)
54008cb8:	3119f800 	andi	t9,t0,0xf800
54008cbc:	311307e0 	andi	s3,t0,0x7e0
54008cc0:	308af800 	andi	t2,a0,0xf800
54008cc4:	308b07e0 	andi	t3,a0,0x7e0
54008cc8:	3117001f 	andi	s7,t0,0x1f
54008ccc:	0159a023 	subu	s4,t2,t9
54008cd0:	01739023 	subu	s2,t3,s3
54008cd4:	312af800 	andi	t2,t1,0xf800
54008cd8:	312b07e0 	andi	t3,t1,0x7e0
54008cdc:	308d001f 	andi	t5,a0,0x1f
54008ce0:	32c2f800 	andi	v0,s6,0xf800
54008ce4:	32c607e0 	andi	a2,s6,0x7e0
54008ce8:	004ac023 	subu	t8,v0,t2
54008cec:	00cba823 	subu	s5,a2,t3
54008cf0:	01b76023 	subu	t4,t5,s7
54008cf4:	729e8802 	mul	s1,s4,s8
54008cf8:	725e7802 	mul	t7,s2,s8
54008cfc:	32d0001f 	andi	s0,s6,0x1f
54008d00:	3132001f 	andi	s2,t1,0x1f
54008d04:	02122823 	subu	a1,s0,s2
54008d08:	731ea002 	mul	s4,t8,s8
54008d0c:	72beb002 	mul	s6,s5,s8
54008d10:	719e2002 	mul	a0,t4,s8
54008d14:	00111a83 	sra	v1,s1,0xa
54008d18:	000f3a83 	sra	a3,t7,0xa
54008d1c:	70bec002 	mul	t8,a1,s8
54008d20:	0079a821 	addu	s5,v1,t9
54008d24:	00f36021 	addu	t4,a3,s3
54008d28:	00046a83 	sra	t5,a0,0xa
54008d2c:	00141283 	sra	v0,s4,0xa
54008d30:	00163283 	sra	a2,s6,0xa
54008d34:	01b7a021 	addu	s4,t5,s7
54008d38:	004ac821 	addu	t9,v0,t2
54008d3c:	00cb9821 	addu	s3,a2,t3
54008d40:	00188283 	sra	s0,t8,0xa
54008d44:	32aff800 	andi	t7,s5,0xf800
54008d48:	319107e0 	andi	s1,t4,0x7e0
54008d4c:	0212b821 	addu	s7,s0,s2
54008d50:	01f11825 	or	v1,t7,s1
54008d54:	3336f800 	andi	s6,t9,0xf800
54008d58:	326807e0 	andi	t0,s3,0x7e0
54008d5c:	3287001f 	andi	a3,s4,0x1f
54008d60:	8fab0004 	lw	t3,4(sp)
54008d64:	8faa0000 	lw	t2,0(sp)
54008d68:	02c8c025 	or	t8,s6,t0
54008d6c:	0067a825 	or	s5,v1,a3
54008d70:	32e5001f 	andi	a1,s7,0x1f
54008d74:	03054825 	or	t1,t8,a1
54008d78:	00159400 	sll	s2,s5,0x10
54008d7c:	02492025 	or	a0,s2,t1
54008d80:	254c0004 	addiu	t4,t2,4
54008d84:	256d0004 	addiu	t5,t3,4
54008d88:	ad640000 	sw	a0,0(t3)
54008d8c:	afac0000 	sw	t4,0(sp)
54008d90:	afad0004 	sw	t5,4(sp)
54008d94:	1dc0ffc2 	bgtz	t6,54008ca0 <fillfadeimagefun+0x5f0>
54008d98:	8fa70000 	lw	a3,0(sp)
54008d9c:	8faf0008 	lw	t7,8(sp)
54008da0:	8fa30004 	lw	v1,4(sp)
54008da4:	8fb9002c 	lw	t9,44(sp)
54008da8:	25eeffff 	addiu	t6,t7,-1
54008dac:	00799821 	addu	s3,v1,t9
54008db0:	afae0008 	sw	t6,8(sp)
54008db4:	15c0fe68 	bnez	t6,54008758 <fillfadeimagefun+0xa8>
54008db8:	afb30004 	sw	s3,4(sp)
54008dbc:	8fbe00c0 	lw	s8,192(sp)
54008dc0:	8fb700bc 	lw	s7,188(sp)
54008dc4:	8fb600b8 	lw	s6,184(sp)
54008dc8:	8fb500b4 	lw	s5,180(sp)
54008dcc:	8fb400b0 	lw	s4,176(sp)
54008dd0:	8fb300ac 	lw	s3,172(sp)
54008dd4:	8fb200a8 	lw	s2,168(sp)
54008dd8:	8fb100a4 	lw	s1,164(sp)
54008ddc:	8fb000a0 	lw	s0,160(sp)
54008de0:	00001021 	move	v0,zero
54008de4:	03e00008 	jr	ra
54008de8:	27bd00c8 	addiu	sp,sp,200
54008dec:	00000000 	nop

54008df0 <fillimagefun>:
54008df0:	8c8c0024 	lw	t4,36(a0)
54008df4:	8c8b0018 	lw	t3,24(a0)
54008df8:	8c870020 	lw	a3,32(a0)
54008dfc:	718b3002 	mul	a2,t4,t3
54008e00:	8c88000c 	lw	t0,12(a0)
54008e04:	8c830010 	lw	v1,16(a0)
54008e08:	8c890004 	lw	t1,4(a0)
54008e0c:	8c8a0008 	lw	t2,8(a0)
54008e10:	00c71021 	addu	v0,a2,a3
54008e14:	70482802 	mul	a1,v0,t0
54008e18:	71286002 	mul	t4,t1,t0
54008e1c:	8c860000 	lw	a2,0(a0)
54008e20:	19400023 	blez	t2,54008eb0 <fillimagefun+0xc0>
54008e24:	00a33821 	addu	a3,a1,v1
54008e28:	01692023 	subu	a0,t3,t1
54008e2c:	70885802 	mul	t3,a0,t0
54008e30:	01404821 	move	t1,t2
54008e34:	240dfff0 	li	t5,-16
54008e38:	318a000f 	andi	t2,t4,0xf
54008e3c:	00000000 	nop
54008e40:	1000000c 	b	54008e74 <fillimagefun+0x84>
54008e44:	018d4024 	and	t0,t4,t5
54008e48:	8cd90000 	lw	t9,0(a2)
54008e4c:	8cd80004 	lw	t8,4(a2)
54008e50:	8ccf0008 	lw	t7,8(a2)
54008e54:	8cce000c 	lw	t6,12(a2)
54008e58:	2508fff0 	addiu	t0,t0,-16
54008e5c:	acf90000 	sw	t9,0(a3)
54008e60:	acf80004 	sw	t8,4(a3)
54008e64:	acef0008 	sw	t7,8(a3)
54008e68:	acee000c 	sw	t6,12(a3)
54008e6c:	24c60010 	addiu	a2,a2,16
54008e70:	24e70010 	addiu	a3,a3,16
54008e74:	1d00fff4 	bgtz	t0,54008e48 <fillimagefun+0x58>
54008e78:	01401821 	move	v1,t2
54008e7c:	10000007 	b	54008e9c <fillimagefun+0xac>
54008e80:	00000000 	nop
54008e84:	00000000 	nop
54008e88:	8cc80000 	lw	t0,0(a2)
54008e8c:	2463fffc 	addiu	v1,v1,-4
54008e90:	ace80000 	sw	t0,0(a3)
54008e94:	24c60004 	addiu	a2,a2,4
54008e98:	24e70004 	addiu	a3,a3,4
54008e9c:	1c60fffa 	bgtz	v1,54008e88 <fillimagefun+0x98>
54008ea0:	00000000 	nop
54008ea4:	2529ffff 	addiu	t1,t1,-1
54008ea8:	1520ffe5 	bnez	t1,54008e40 <fillimagefun+0x50>
54008eac:	00eb3821 	addu	a3,a3,t3
54008eb0:	03e00008 	jr	ra
54008eb4:	00001021 	move	v0,zero

54008eb8 <fillzerofun>:
54008eb8:	8c8b0024 	lw	t3,36(a0)
54008ebc:	8c890018 	lw	t1,24(a0)
54008ec0:	8c8a0020 	lw	t2,32(a0)
54008ec4:	71694002 	mul	t0,t3,t1
54008ec8:	8c86000c 	lw	a2,12(a0)
54008ecc:	8c830010 	lw	v1,16(a0)
54008ed0:	8c870004 	lw	a3,4(a0)
54008ed4:	8c840008 	lw	a0,8(a0)
54008ed8:	010a1021 	addu	v0,t0,t2
54008edc:	70462802 	mul	a1,v0,a2
54008ee0:	70e64002 	mul	t0,a3,a2
54008ee4:	1880001a 	blez	a0,54008f50 <fillzerofun+0x98>
54008ee8:	00a31821 	addu	v1,a1,v1
54008eec:	01276023 	subu	t4,t1,a3
54008ef0:	71861002 	mul	v0,t4,a2
54008ef4:	00802821 	move	a1,a0
54008ef8:	3106000f 	andi	a2,t0,0xf
54008efc:	2407fff0 	li	a3,-16
54008f00:	10000007 	b	54008f20 <fillzerofun+0x68>
54008f04:	01072024 	and	a0,t0,a3
54008f08:	ac600000 	sw	zero,0(v1)
54008f0c:	ac600004 	sw	zero,4(v1)
54008f10:	ac600008 	sw	zero,8(v1)
54008f14:	ac60000c 	sw	zero,12(v1)
54008f18:	2484fff0 	addiu	a0,a0,-16
54008f1c:	24630010 	addiu	v1,v1,16
54008f20:	1c80fff9 	bgtz	a0,54008f08 <fillzerofun+0x50>
54008f24:	00000000 	nop
54008f28:	10000004 	b	54008f3c <fillzerofun+0x84>
54008f2c:	00c02021 	move	a0,a2
54008f30:	ac600000 	sw	zero,0(v1)
54008f34:	2484fffc 	addiu	a0,a0,-4
54008f38:	24630004 	addiu	v1,v1,4
54008f3c:	1c80fffc 	bgtz	a0,54008f30 <fillzerofun+0x78>
54008f40:	00000000 	nop
54008f44:	24a5ffff 	addiu	a1,a1,-1
54008f48:	14a0ffed 	bnez	a1,54008f00 <fillzerofun+0x48>
54008f4c:	00621821 	addu	v1,v1,v0
54008f50:	03e00008 	jr	ra
54008f54:	00001021 	move	v0,zero

54008f58 <set_config>:
54008f58:	3c030011 	lui	v1,0x11
54008f5c:	34630001 	ori	v1,v1,0x1
54008f60:	0000000c 	syscall
54008f64:	00000000 	nop

54008f68 <get_config>:
54008f68:	3c030011 	lui	v1,0x11
54008f6c:	0000000c 	syscall
54008f70:	00000000 	nop

54008f74 <api_install>:
54008f74:	3c030001 	lui	v1,0x1
54008f78:	34630028 	ori	v1,v1,0x28
54008f7c:	0000000c 	syscall

54008f80 <api_uninstall>:
54008f80:	3c030001 	lui	v1,0x1
54008f84:	34630029 	ori	v1,v1,0x29
54008f88:	0000000c 	syscall

54008f8c <printf>:
54008f8c:	3c030001 	lui	v1,0x1
54008f90:	34630032 	ori	v1,v1,0x32
54008f94:	0000000c 	syscall

54008f98 <mdelay>:
54008f98:	3c030001 	lui	v1,0x1
54008f9c:	34630035 	ori	v1,v1,0x35
54008fa0:	0000000c 	syscall

54008fa4 <malloc>:
54008fa4:	3c030001 	lui	v1,0x1
54008fa8:	3463003a 	ori	v1,v1,0x3a
54008fac:	0000000c 	syscall

54008fb0 <free>:
54008fb0:	3c030001 	lui	v1,0x1
54008fb4:	3463003b 	ori	v1,v1,0x3b
54008fb8:	0000000c 	syscall

54008fbc <fusion_apitbl>:
54008fbc:	5400079c 	bnezl	zero,5400ae30 <arctanTable2+0x4cc>
54008fc0:	54000848 	bnezl	zero,5400b0e4 <arctanTable2+0x780>
54008fc4:	54000938 	bnezl	zero,5400b4a8 <arctanTable2+0xb44>
54008fc8:	54000bfc 	bnezl	zero,5400bfbc <arctanTable1+0x658>
54008fcc:	54001cd4 	bnezl	zero,54010320 <sinTable+0x1b8>
54008fd0:	54001e10 	bnezl	zero,54010814 <sinTable+0x6ac>
54008fd4:	54002074 	bnezl	zero,540111a8 <sinTable+0x40>

54008fd8 <s_clk_domain>:
54008fd8:	00000000 	nop
54008fdc:	00000003 	sra	zero,zero,0x0

54008fe0 <__func__.2>:
54008fe0:	6470755f 	0x6470755f
54008fe4:	5f657461 	0x5f657461
54008fe8:	6d617266 	0x6d617266
54008fec:	66756265 	0x66756265
54008ff0:	00726566 	0x726566

54008ff4 <__func__.6>:
54008ff4:	7369645f 	udi15	k1,t1,t4,0x11
54008ff8:	79616c70 	0x79616c70
54008ffc:	68746f5f 	0x68746f5f
54009000:	00007265 	0x7265

54009004 <__func__.9>:
54009004:	7465675f 	jalx	51959d7c <_init-0x26a6284>
54009008:	7275635f 	udi15	s3,s5,t4,0xd
5400900c:	6172665f 	0x6172665f
54009010:	7562656d 	jalx	558995b4 <dlook+0x1883f50>
54009014:	72656666 	0x72656666
54009018:	7461645f 	jalx	5185917c <_init-0x27a6e84>
5400901c:	00000061 	0x61

54009020 <__func__.8>:
54009020:	7465675f 	jalx	51959d7c <_init-0x26a6284>
54009024:	64636c5f 	0x64636c5f
54009028:	666e695f 	0x666e695f
5400902c:	0000006f 	0x6f

54009030 <__func__.7>:
54009030:	7465675f 	jalx	51959d7c <_init-0x26a6284>
54009034:	6374725f 	0x6374725f
54009038:	6474735f 	0x6474735f
5400903c:	00636573 	tltu	v1,v1,0x195

54009040 <__func__.0>:
54009040:	746f725f 	jalx	51bdc97c <_init-0x2423684>
54009044:	5f657461 	0x5f657461
54009048:	5f637273 	0x5f637273
5400904c:	00667562 	0x667562

54009050 <__func__.1>:
54009050:	7369645f 	udi15	k1,t1,t4,0x11
54009054:	79616c70 	0x79616c70
54009058:	6275635f 	0x6275635f
5400905c:	00000065 	0x65

54009060 <__func__.3>:
54009060:	7369645f 	udi15	k1,t1,t4,0x11
54009064:	79616c70 	0x79616c70
54009068:	7665725f 	jalx	5995c97c <dlook+0x5947318>
5400906c:	65737265 	0x65737265
54009070:	00000000 	nop

54009074 <__func__.4>:
54009074:	7369645f 	udi15	k1,t1,t4,0x11
54009078:	79616c70 	0x79616c70
5400907c:	746f725f 	jalx	51bdc97c <_init-0x2423684>
54009080:	00657461 	0x657461

54009084 <__func__.5>:
54009084:	7369645f 	udi15	k1,t1,t4,0x11
54009088:	79616c70 	0x79616c70
5400908c:	6761705f 	0x6761705f
54009090:	00000065 	0x65
54009094:	54000f2c 	bnezl	zero,5400cd48 <arcsinTable+0x3e4>
54009098:	54001364 	bnezl	zero,5400de2c <sinTable+0x4c8>
5400909c:	54001298 	bnezl	zero,5400db00 <sinTable+0x19c>
540090a0:	540011dc 	bnezl	zero,5400d814 <arcsinTable+0xeb0>
540090a4:	54001168 	bnezl	zero,5400d648 <arcsinTable+0xce4>
540090a8:	54001154 	bnezl	zero,5400d5fc <arcsinTable+0xc98>
540090ac:	54001024 	bnezl	zero,5400d140 <arcsinTable+0x7dc>
540090b0:	54001010 	bnezl	zero,5400d0f4 <arcsinTable+0x790>
540090b4:	54000fe8 	bnezl	zero,5400d058 <arcsinTable+0x6f4>
540090b8:	540013b4 	bnezl	zero,5400df8c <sinTable+0x628>
540090bc:	540013a0 	bnezl	zero,5400df40 <sinTable+0x5dc>
540090c0:	5400138c 	bnezl	zero,5400def4 <sinTable+0x590>
540090c4:	54001378 	bnezl	zero,5400dea8 <sinTable+0x544>
540090c8:	54000f2c 	bnezl	zero,5400cd7c <arcsinTable+0x418>
540090cc:	540013dc 	bnezl	zero,5400e040 <sinTable+0x6dc>
540090d0:	54000f2c 	bnezl	zero,5400cd84 <arcsinTable+0x420>
540090d4:	540013c8 	bnezl	zero,5400dff8 <sinTable+0x694>
540090d8:	540014bc 	bnezl	zero,5400e3cc <sinTable+0xa68>

540090dc <__func__.2>:
540090dc:	69737566 	0x69737566
540090e0:	735f6e6f 	0x735f6e6f
540090e4:	635f7465 	0x635f7465
540090e8:	69666e6f 	0x69666e6f
540090ec:	00000067 	0x67

540090f0 <__func__.0>:
540090f0:	69737566 	0x69737566
540090f4:	675f6e6f 	0x675f6e6f
540090f8:	635f7465 	0x635f7465
540090fc:	69666e6f 	0x69666e6f
54009100:	00000067 	0x67

54009104 <__func__.1>:
54009104:	7465675f 	jalx	51959d7c <_init-0x26a6284>
54009108:	6e6f635f 	0x6e6f635f
5400910c:	73676966 	0x73676966
54009110:	00000000 	nop
54009114:	54002588 	bnezl	zero,54012738 <linebuf+0x4f8>
54009118:	54002568 	bnezl	zero,540126bc <linebuf+0x47c>
5400911c:	54002548 	bnezl	zero,54012640 <linebuf+0x400>
54009120:	54002528 	bnezl	zero,540125c4 <linebuf+0x384>
54009124:	54002508 	bnezl	zero,54012548 <linebuf+0x308>
54009128:	540024e8 	bnezl	zero,540124cc <linebuf+0x28c>
5400912c:	540024c8 	bnezl	zero,54012450 <linebuf+0x210>
54009130:	54002498 	bnezl	zero,54012394 <linebuf+0x154>
54009134:	54002488 	bnezl	zero,54012358 <linebuf+0x118>
54009138:	540023e4 	bnezl	zero,540120cc <sinTable+0xf64>
5400913c:	54002478 	bnezl	zero,54012320 <linebuf+0xe0>
54009140:	540023e4 	bnezl	zero,540120d4 <sinTable+0xf6c>
54009144:	54002468 	bnezl	zero,540122e8 <linebuf+0xa8>
54009148:	54002428 	bnezl	zero,540121ec <s_fusion+0x80>
5400914c:	54002458 	bnezl	zero,540122b0 <linebuf+0x70>
54009150:	54002438 	bnezl	zero,54012234 <s_fusion+0xc8>
54009154:	54002448 	bnezl	zero,54012278 <linebuf+0x38>
54009158:	540025e4 	bnezl	zero,540128ec <linebuf+0x6ac>
5400915c:	540025c4 	bnezl	zero,54012870 <linebuf+0x630>
54009160:	54002598 	bnezl	zero,540127c4 <linebuf+0x584>
54009164:	4f525245 	c3	0x1525245
54009168:	72652852 	udi2	s3,a1,a1,0x1
5400916c:	3d6f6e72 	0x3d6f6e72
54009170:	2d296425 	sltiu	t1,t1,25637
54009174:	3a646970 	xori	a0,s3,0x6970
54009178:	252d6425 	addiu	t5,t1,25637
5400917c:	64252c73 	0x64252c73
54009180:	2d73252c 	sltiu	s3,t3,9516
54009184:	69202d2d 	0x69202d2d
54009188:	6c74636f 	0x6c74636f
5400918c:	76656420 	jalx	59959080 <dlook+0x5943a1c>
54009190:	20656369 	addi	a1,v1,25449
54009194:	66206266 	0x66206266
54009198:	656c6961 	0x656c6961
5400919c:	000a2164 	0xa2164
540091a0:	69737566 	0x69737566
540091a4:	632e6e6f 	0x632e6e6f
540091a8:	00000000 	nop
540091ac:	7665642f 	jalx	599590bc <dlook+0x5943a58>
540091b0:	0062662f 	0x62662f
540091b4:	4f525245 	c3	0x1525245
540091b8:	72652852 	udi2	s3,a1,a1,0x1
540091bc:	3d6f6e72 	0x3d6f6e72
540091c0:	2d296425 	sltiu	t1,t1,25637
540091c4:	3a646970 	xori	a0,s3,0x6970
540091c8:	252d6425 	addiu	t5,t1,25637
540091cc:	64252c73 	0x64252c73
540091d0:	2d73252c 	sltiu	s3,t3,9516
540091d4:	74202d2d 	jalx	5080b4b4 <_init-0x37f4b4c>
540091d8:	736e6172 	0x736e6172
540091dc:	67616d69 	0x67616d69
540091e0:	72652065 	0x72652065
540091e4:	000a2172 	tlt	zero,t2,0x85
540091e8:	4f525245 	c3	0x1525245
540091ec:	72652852 	udi2	s3,a1,a1,0x1
540091f0:	3d6f6e72 	0x3d6f6e72
540091f4:	2d296425 	sltiu	t1,t1,25637
540091f8:	3a646970 	xori	a0,s3,0x6970
540091fc:	252d6425 	addiu	t5,t1,25637
54009200:	64252c73 	0x64252c73
54009204:	2d73252c 	sltiu	s3,t3,9516
54009208:	6f202d2d 	0x6f202d2d
5400920c:	206e6570 	addi	t6,v1,25968
54009210:	69766564 	0x69766564
54009214:	66206563 	0x66206563
54009218:	61662062 	0x61662062
5400921c:	64656c69 	0x64656c69
54009220:	000a0a21 	0xa0a21
54009224:	4f525245 	c3	0x1525245
54009228:	72652852 	udi2	s3,a1,a1,0x1
5400922c:	3d6f6e72 	0x3d6f6e72
54009230:	2d296425 	sltiu	t1,t1,25637
54009234:	3a646970 	xori	a0,s3,0x6970
54009238:	252d6425 	addiu	t5,t1,25637
5400923c:	64252c73 	0x64252c73
54009240:	2d73252c 	sltiu	s3,t3,9516
54009244:	6d202d2d 	0x6d202d2d
54009248:	6f6c6c61 	0x6f6c6c61
5400924c:	72726520 	0x72726520
54009250:	0a21726f 	j	5885c9bc <dlook+0x4847358>
54009254:	00000000 	nop
54009258:	4f525245 	c3	0x1525245
5400925c:	72652852 	udi2	s3,a1,a1,0x1
54009260:	3d6f6e72 	0x3d6f6e72
54009264:	2d296425 	sltiu	t1,t1,25637
54009268:	3a646970 	xori	a0,s3,0x6970
5400926c:	252d6425 	addiu	t5,t1,25637
54009270:	64252c73 	0x64252c73
54009274:	2d73252c 	sltiu	s3,t3,9516
54009278:	69202d2d 	0x69202d2d
5400927c:	6c74636f 	0x6c74636f
54009280:	76656420 	jalx	59959080 <dlook+0x5943a1c>
54009284:	20656369 	addi	a1,v1,25449
54009288:	66206266 	0x66206266
5400928c:	656c6961 	0x656c6961
54009290:	72202164 	0x72202164
54009294:	253d7465 	addiu	sp,t1,29797
54009298:	000a0a64 	0xa0a64
5400929c:	65737361 	0x65737361
540092a0:	66207472 	0x66207472
540092a4:	656c6961 	0x656c6961
540092a8:	6e692064 	0x6e692064
540092ac:	6c696620 	0x6c696620
540092b0:	73252065 	0x73252065
540092b4:	20746120 	addi	s4,v1,24864
540092b8:	656e696c 	0x656e696c
540092bc:	0a642520 	j	59909480 <dlook+0x58f3e1c>
540092c0:	00000000 	nop
540092c4:	7665642f 	jalx	599590bc <dlook+0x5943a58>
540092c8:	6374722f 	0x6374722f
540092cc:	00000000 	nop
540092d0:	4f525245 	c3	0x1525245
540092d4:	72652852 	udi2	s3,a1,a1,0x1
540092d8:	3d6f6e72 	0x3d6f6e72
540092dc:	2d296425 	sltiu	t1,t1,25637
540092e0:	3a646970 	xori	a0,s3,0x6970
540092e4:	252d6425 	addiu	t5,t1,25637
540092e8:	64252c73 	0x64252c73
540092ec:	2d73252c 	sltiu	s3,t3,9516
540092f0:	67202d2d 	0x67202d2d
540092f4:	72207465 	0x72207465
540092f8:	64206374 	0x64206374
540092fc:	20657461 	addi	a1,v1,29793
54009300:	20646e61 	addi	a0,v1,28257
54009304:	656d6974 	0x656d6974
54009308:	69616620 	0x69616620
5400930c:	2164656c 	addi	a0,t3,25964
54009310:	0000000a 	movz	zero,zero,zero
54009314:	4f525245 	c3	0x1525245
54009318:	72652852 	udi2	s3,a1,a1,0x1
5400931c:	3d6f6e72 	0x3d6f6e72
54009320:	2d296425 	sltiu	t1,t1,25637
54009324:	3a646970 	xori	a0,s3,0x6970
54009328:	252d6425 	addiu	t5,t1,25637
5400932c:	64252c73 	0x64252c73
54009330:	2d73252c 	sltiu	s3,t3,9516
54009334:	63202d2d 	0x63202d2d
54009338:	676e6168 	0x676e6168
5400933c:	6f742065 	0x6f742065
54009340:	61747320 	0x61747320
54009344:	7261646e 	0x7261646e
54009348:	65732064 	0x65732064
5400934c:	646e6f63 	0x646e6f63
54009350:	69616620 	0x69616620
54009354:	2164656c 	addi	a0,t3,25964
54009358:	0000000a 	movz	zero,zero,zero
5400935c:	4f525245 	c3	0x1525245
54009360:	72652852 	udi2	s3,a1,a1,0x1
54009364:	3d6f6e72 	0x3d6f6e72
54009368:	2d296425 	sltiu	t1,t1,25637
5400936c:	3a646970 	xori	a0,s3,0x6970
54009370:	252d6425 	addiu	t5,t1,25637
54009374:	64252c73 	0x64252c73
54009378:	2d73252c 	sltiu	s3,t3,9516
5400937c:	6f202d2d 	0x6f202d2d
54009380:	206e6570 	addi	t6,v1,25968
54009384:	69766564 	0x69766564
54009388:	72206563 	0x72206563
5400938c:	66206374 	0x66206374
54009390:	0a6c6961 	j	59b1a584 <dlook+0x5b04f20>
54009394:	00000000 	nop
54009398:	4f525245 	c3	0x1525245
5400939c:	72652852 	udi2	s3,a1,a1,0x1
540093a0:	3d6f6e72 	0x3d6f6e72
540093a4:	2d296425 	sltiu	t1,t1,25637
540093a8:	3a646970 	xori	a0,s3,0x6970
540093ac:	252d6425 	addiu	t5,t1,25637
540093b0:	64252c73 	0x64252c73
540093b4:	2d73252c 	sltiu	s3,t3,9516
540093b8:	6d202d2d 	0x6d202d2d
540093bc:	6f6c6c61 	0x6f6c6c61
540093c0:	61662063 	0x61662063
540093c4:	000a6c69 	0xa6c69
540093c8:	4f525245 	c3	0x1525245
540093cc:	72652852 	udi2	s3,a1,a1,0x1
540093d0:	3d6f6e72 	0x3d6f6e72
540093d4:	2d296425 	sltiu	t1,t1,25637
540093d8:	3a646970 	xori	a0,s3,0x6970
540093dc:	252d6425 	addiu	t5,t1,25637
540093e0:	64252c73 	0x64252c73
540093e4:	2d73252c 	sltiu	s3,t3,9516
540093e8:	74202d2d 	jalx	5080b4b4 <_init-0x37f4b4c>
540093ec:	625f706d 	0x625f706d
540093f0:	6d206675 	0x6d206675
540093f4:	6f6c6c61 	0x6f6c6c61
540093f8:	72652063 	0x72652063
540093fc:	0a0a2172 	j	582885c8 <dlook+0x4272f64>
54009400:	00000000 	nop
54009404:	4f525245 	c3	0x1525245
54009408:	72652852 	udi2	s3,a1,a1,0x1
5400940c:	3d6f6e72 	0x3d6f6e72
54009410:	2d296425 	sltiu	t1,t1,25637
54009414:	3a646970 	xori	a0,s3,0x6970
54009418:	252d6425 	addiu	t5,t1,25637
5400941c:	64252c73 	0x64252c73
54009420:	2d73252c 	sltiu	s3,t3,9516
54009424:	69202d2d 	0x69202d2d
54009428:	6c74636f 	0x6c74636f
5400942c:	76656420 	jalx	59959080 <dlook+0x5943a1c>
54009430:	20656369 	addi	a1,v1,25449
54009434:	66206266 	0x66206266
54009438:	656c6961 	0x656c6961
5400943c:	0a0a2164 	j	58288590 <dlook+0x4272f2c>
54009440:	00000000 	nop
54009444:	54008fd8 	bnezl	zero,53fed3a8 <_init-0x12c58>
54009448:	65646f6d 	0x65646f6d
5400944c:	6d6f635f 	0x6d6f635f
54009450:	006e6f6d 	0x6e6f6d
54009454:	77726f66 	jalx	5dc9bd98 <dlook+0x9c86734>
54009458:	5f647261 	0x5f647261
5400945c:	6d6d6f63 	0x6d6d6f63
54009460:	00006e6f 	0x6e6f
54009464:	6b636162 	0x6b636162
54009468:	64726177 	0x64726177
5400946c:	6d6f635f 	0x6d6f635f
54009470:	006e6f6d 	0x6e6f6d
54009474:	65646f6d 	0x65646f6d
54009478:	7070615f 	udi15	v1,s0,t4,0x5
5400947c:	6168635f 	0x6168635f
54009480:	0065676e 	0x65676e
54009484:	77726f66 	jalx	5dc9bd98 <dlook+0x9c86734>
54009488:	5f647261 	0x5f647261
5400948c:	5f707061 	0x5f707061
54009490:	6e616863 	0x6e616863
54009494:	00006567 	0x6567
54009498:	6b636162 	0x6b636162
5400949c:	64726177 	0x64726177
540094a0:	7070615f 	udi15	v1,s0,t4,0x5
540094a4:	6168635f 	0x6168635f
540094a8:	0065676e 	0x65676e
540094ac:	65646f6d 	0x65646f6d
540094b0:	74706f5f 	jalx	51c1bd7c <_init-0x23e4284>
540094b4:	5f6e6f69 	0x5f6e6f69
540094b8:	00626772 	tlt	v1,v0,0x19d
540094bc:	77726f66 	jalx	5dc9bd98 <dlook+0x9c86734>
540094c0:	5f647261 	0x5f647261
540094c4:	6974706f 	0x6974706f
540094c8:	00006e6f 	0x6e6f
540094cc:	6b636162 	0x6b636162
540094d0:	64726177 	0x64726177
540094d4:	74706f5f 	jalx	51c1bd7c <_init-0x23e4284>
540094d8:	006e6f69 	0x6e6f69
540094dc:	65646f6d 	0x65646f6d
540094e0:	74706f5f 	jalx	51c1bd7c <_init-0x23e4284>
540094e4:	5f6e6f69 	0x5f6e6f69
540094e8:	00767579 	0x767579
540094ec:	65646f6d 	0x65646f6d
540094f0:	746f725f 	jalx	51bdc97c <_init-0x2423684>
540094f4:	00657461 	0x657461
540094f8:	77726f66 	jalx	5dc9bd98 <dlook+0x9c86734>
540094fc:	5f647261 	0x5f647261
54009500:	61746f72 	0x61746f72
54009504:	00006574 	teq	zero,zero,0x195
54009508:	6b636162 	0x6b636162
5400950c:	64726177 	0x64726177
54009510:	746f725f 	jalx	51bdc97c <_init-0x2423684>
54009514:	00657461 	0x657461
54009518:	65646f6d 	0x65646f6d
5400951c:	6169645f 	0x6169645f
54009520:	00676f6c 	0x676f6c
54009524:	77726f66 	jalx	5dc9bd98 <dlook+0x9c86734>
54009528:	5f647261 	0x5f647261
5400952c:	6c616964 	0x6c616964
54009530:	0000676f 	0x676f
54009534:	6b636162 	0x6b636162
54009538:	64726177 	0x64726177
5400953c:	6169645f 	0x6169645f
54009540:	00676f6c 	0x676f6c
54009544:	4f525245 	c3	0x1525245
54009548:	72652852 	udi2	s3,a1,a1,0x1
5400954c:	3d6f6e72 	0x3d6f6e72
54009550:	2d296425 	sltiu	t1,t1,25637
54009554:	3a646970 	xori	a0,s3,0x6970
54009558:	252d6425 	addiu	t5,t1,25637
5400955c:	64252c73 	0x64252c73
54009560:	2d73252c 	sltiu	s3,t3,9516
54009564:	6e202d2d 	0x6e202d2d
54009568:	206c6c75 	addi	t4,v1,27765
5400956c:	61726170 	0x61726170
54009570:	6574656d 	0x6574656d
54009574:	74203a72 	jalx	5080e9c8 <_init-0x37f1638>
54009578:	3d657079 	0x3d657079
5400957c:	202c6425 	addi	t4,at,25637
54009580:	65746e65 	0x65746e65
54009584:	64253d72 	0x64253d72
54009588:	6666652c 	0x6666652c
5400958c:	3d746365 	0x3d746365
54009590:	000a6425 	0xa6425
54009594:	69737566 	0x69737566
54009598:	635f6e6f 	0x635f6e6f
5400959c:	69666e6f 	0x69666e6f
540095a0:	00632e67 	0x632e67
540095a4:	69737566 	0x69737566
540095a8:	665f6e6f 	0x665f6e6f
540095ac:	6177726f 	0x6177726f
540095b0:	735f6472 	0x735f6472
540095b4:	00007465 	0x7465
540095b8:	4f525245 	c3	0x1525245
540095bc:	72652852 	udi2	s3,a1,a1,0x1
540095c0:	3d6f6e72 	0x3d6f6e72
540095c4:	2d296425 	sltiu	t1,t1,25637
540095c8:	3a646970 	xori	a0,s3,0x6970
540095cc:	252d6425 	addiu	t5,t1,25637
540095d0:	64252c73 	0x64252c73
540095d4:	2d73252c 	sltiu	s3,t3,9516
540095d8:	6e202d2d 	0x6e202d2d
540095dc:	206c6c75 	addi	t4,v1,27765
540095e0:	61726170 	0x61726170
540095e4:	6574656d 	0x6574656d
540095e8:	74203a72 	jalx	5080e9c8 <_init-0x37f1638>
540095ec:	3d657079 	0x3d657079
540095f0:	202c6425 	addi	t4,at,25637
540095f4:	65746e65 	0x65746e65
540095f8:	64253d72 	0x64253d72
540095fc:	0000000a 	movz	zero,zero,zero
54009600:	54012240 	bnel	zero,at,54011f04 <sinTable+0xd9c>
Disassembly of section .fini:

54009604 <_fini>:
54009604:	27bdffe0 	addiu	sp,sp,-32
54009608:	afbf0014 	sw	ra,20(sp)
5400960c:	0d000825 	jal	54002094 <__do_global_dtors_aux>
54009610:	00000000 	nop
54009614:	8fbf0014 	lw	ra,20(sp)
54009618:	27bd0020 	addiu	sp,sp,32
5400961c:	03e00008 	jr	ra
54009620:	00000000 	nop
Disassembly of section .ctors:

5400a000 <__CTOR_LIST__>:
5400a000:	ffffffff 	sdc3	$31,-1(ra)
5400a004:	54001ca4 	bnezl	zero,54011298 <sinTable+0x130>

5400a008 <__CTOR_END__>:
5400a008:	00000000 	nop
Disassembly of section .dtors:

5400a00c <__DTOR_LIST__>:
5400a00c:	ffffffff 	sdc3	$31,-1(ra)
5400a010:	54001ccc 	bnezl	zero,54011344 <sinTable+0x1dc>

5400a014 <__DTOR_END__>:
5400a014:	00000000 	nop
Disassembly of section .data:

5400a018 <s_random_effect>:
5400a018:	00000001 	movf	zero,zero,$fcc0
5400a01c:	00000009 	jalr	zero,zero
5400a020:	00000010 	mfhi	zero
5400a024:	00000011 	mthi	zero
5400a028:	0000000a 	movz	zero,zero,zero
5400a02c:	0000000b 	movn	zero,zero,zero
5400a030:	0000000c 	syscall
5400a034:	00000003 	sra	zero,zero,0x0
5400a038:	00000006 	srlv	zero,zero,zero
5400a03c:	00000000 	nop
5400a040:	00000001 	movf	zero,zero,$fcc0

5400a044 <s_fusion_cfg>:
5400a044:	54009448 	bnezl	zero,53fef168 <_init-0x10e98>
5400a048:	ffffffff 	sdc3	$31,-1(ra)
5400a04c:	54009454 	bnezl	zero,53fef1a0 <_init-0x10e60>
5400a050:	ffffffff 	sdc3	$31,-1(ra)
5400a054:	54009464 	bnezl	zero,53fef1e8 <_init-0x10e18>
5400a058:	ffffffff 	sdc3	$31,-1(ra)
5400a05c:	54009474 	bnezl	zero,53fef230 <_init-0x10dd0>
5400a060:	ffffffff 	sdc3	$31,-1(ra)
5400a064:	54009484 	bnezl	zero,53fef278 <_init-0x10d88>
5400a068:	ffffffff 	sdc3	$31,-1(ra)
5400a06c:	54009498 	bnezl	zero,53fef2d0 <_init-0x10d30>
5400a070:	ffffffff 	sdc3	$31,-1(ra)
5400a074:	540094ac 	bnezl	zero,53fef328 <_init-0x10cd8>
5400a078:	ffffffff 	sdc3	$31,-1(ra)
5400a07c:	540094bc 	bnezl	zero,53fef370 <_init-0x10c90>
5400a080:	ffffffff 	sdc3	$31,-1(ra)
5400a084:	540094cc 	bnezl	zero,53fef3b8 <_init-0x10c48>
5400a088:	ffffffff 	sdc3	$31,-1(ra)
5400a08c:	540094dc 	bnezl	zero,53fef400 <_init-0x10c00>
5400a090:	ffffffff 	sdc3	$31,-1(ra)
5400a094:	540094bc 	bnezl	zero,53fef388 <_init-0x10c78>
5400a098:	ffffffff 	sdc3	$31,-1(ra)
5400a09c:	540094cc 	bnezl	zero,53fef3d0 <_init-0x10c30>
5400a0a0:	ffffffff 	sdc3	$31,-1(ra)
5400a0a4:	540094ec 	bnezl	zero,53fef458 <_init-0x10ba8>
5400a0a8:	ffffffff 	sdc3	$31,-1(ra)
5400a0ac:	540094f8 	bnezl	zero,53fef490 <_init-0x10b70>
5400a0b0:	ffffffff 	sdc3	$31,-1(ra)
5400a0b4:	54009508 	bnezl	zero,53fef4d8 <_init-0x10b28>
5400a0b8:	ffffffff 	sdc3	$31,-1(ra)
5400a0bc:	54009518 	bnezl	zero,53fef520 <_init-0x10ae0>
5400a0c0:	ffffffff 	sdc3	$31,-1(ra)
5400a0c4:	54009524 	bnezl	zero,53fef558 <_init-0x10aa8>
5400a0c8:	ffffffff 	sdc3	$31,-1(ra)
5400a0cc:	54009534 	bnezl	zero,53fef5a0 <_init-0x10a60>
5400a0d0:	ffffffff 	sdc3	$31,-1(ra)

5400a0d4 <rptr>:
5400a0d4:	5400a0dc 	bnezl	zero,53ff2448 <_init-0xdbb8>

5400a0d8 <randtbl>:
5400a0d8:	00000003 	sra	zero,zero,0x0
5400a0dc:	991539b1 	lwr	s5,14769(t0)
5400a0e0:	16a5bce3 	bne	s5,a1,53ff9470 <_init-0x6b90>
5400a0e4:	6774a4cd 	0x6774a4cd
5400a0e8:	3e01511e 	0x3e01511e
5400a0ec:	4e508aaa 	c3	0x508aaa
5400a0f0:	61048c05 	0x61048c05
5400a0f4:	f5500617 	sdc1	$f16,1559(t2)
5400a0f8:	846b7115 	lh	t3,28949(v1)
5400a0fc:	6a19892c 	0x6a19892c
5400a100:	896a97af 	lwl	t2,-26705(t3)
5400a104:	db48f936 	ldc2	$8,-1738(k0)
5400a108:	14898454 	bne	a0,t1,53feb25c <_init-0x14da4>
5400a10c:	37ffd106 	ori	ra,ra,0xd106
5400a110:	b58bff9c 	0xb58bff9c
5400a114:	59e17104 	0x59e17104
5400a118:	cf918a49 	pref	0x11,-30135(gp)
5400a11c:	09378c83 	j	54de320c <dlook+0xdcdba8>
5400a120:	52c7a471 	beql	s6,a3,53ff32e8 <_init-0xcd18>
5400a124:	8d293ea9 	lw	t1,16041(t1)
5400a128:	1f4fc301 	0x1f4fc301
5400a12c:	c3db71be 	ll	k1,29118(s8)
5400a130:	39b44e1c 	xori	s4,t5,0x4e1c
5400a134:	f8a44ef9 	sdc2	$4,20217(a1)
5400a138:	4c8b80b1 	nmadd.d	$f2,$f4,$f16,$f11
5400a13c:	19edc328 	0x19edc328
5400a140:	87bf4bdd 	lh	ra,19421(sp)
5400a144:	c9b240e5 	lwc2	$18,16613(t5)
5400a148:	e9ee4b1b 	swc2	$14,19227(t7)
5400a14c:	4382aee7 	c0	0x182aee7
5400a150:	535b6b41 	beql	k0,k1,54024e58 <dlook+0xf7f4>
5400a154:	f3bec5da 	0xf3bec5da

5400a158 <fptr>:
5400a158:	5400a0e8 	bnezl	zero,53ff24fc <_init-0xdb04>

5400a15c <state>:
5400a15c:	5400a0dc 	bnezl	zero,53ff24d0 <_init-0xdb30>

5400a160 <end_ptr>:
5400a160:	5400a154 	bnezl	zero,53ff26b4 <_init-0xd94c>

5400a164 <divrTable>:
5400a164:	00010000 	sll	zero,at,0x0
5400a168:	00008000 	sll	s0,zero,0x0
5400a16c:	00005555 	0x5555
5400a170:	00004000 	sll	t0,zero,0x0
5400a174:	00003333 	tltu	zero,zero,0xcc
5400a178:	00002aaa 	0x2aaa
5400a17c:	00002492 	0x2492
5400a180:	00002000 	sll	a0,zero,0x0
5400a184:	00001c71 	tgeu	zero,zero,0x71
5400a188:	00001999 	0x1999
5400a18c:	00001745 	0x1745
5400a190:	00001555 	0x1555
5400a194:	000013b1 	tgeu	zero,zero,0x4e
5400a198:	00001249 	0x1249
5400a19c:	00001111 	0x1111
5400a1a0:	00001000 	sll	v0,zero,0x0
5400a1a4:	00000f0f 	0xf0f
5400a1a8:	00000e38 	0xe38
5400a1ac:	00000d79 	0xd79
5400a1b0:	00000ccc 	syscall	0x33
5400a1b4:	00000c30 	tge	zero,zero,0x30
5400a1b8:	00000ba2 	0xba2
5400a1bc:	00000b21 	0xb21
5400a1c0:	00000aaa 	0xaaa
5400a1c4:	00000a3d 	0xa3d
5400a1c8:	000009d8 	0x9d8
5400a1cc:	0000097b 	0x97b
5400a1d0:	00000924 	0x924
5400a1d4:	000008d3 	0x8d3
5400a1d8:	00000888 	0x888
5400a1dc:	00000842 	srl	at,zero,0x1
5400a1e0:	00000800 	sll	at,zero,0x0
5400a1e4:	000007c1 	0x7c1
5400a1e8:	00000787 	0x787
5400a1ec:	00000750 	0x750
5400a1f0:	0000071c 	0x71c
5400a1f4:	000006eb 	0x6eb
5400a1f8:	000006bc 	0x6bc
5400a1fc:	00000690 	0x690
5400a200:	00000666 	0x666
5400a204:	0000063e 	0x63e
5400a208:	00000618 	0x618
5400a20c:	000005f4 	teq	zero,zero,0x17
5400a210:	000005d1 	0x5d1
5400a214:	000005b0 	tge	zero,zero,0x16
5400a218:	00000590 	0x590
5400a21c:	00000572 	tlt	zero,zero,0x15
5400a220:	00000555 	0x555
5400a224:	00000539 	0x539
5400a228:	0000051e 	0x51e
5400a22c:	00000505 	0x505
5400a230:	000004ec 	0x4ec
5400a234:	000004d4 	0x4d4
5400a238:	000004bd 	0x4bd
5400a23c:	000004a7 	0x4a7
5400a240:	00000492 	0x492
5400a244:	0000047d 	0x47d
5400a248:	00000469 	0x469
5400a24c:	00000456 	0x456
5400a250:	00000444 	0x444
5400a254:	00000432 	tlt	zero,zero,0x10
5400a258:	00000421 	0x421
5400a25c:	00000410 	0x410
5400a260:	00000400 	sll	zero,zero,0x10
5400a264:	000003f0 	tge	zero,zero,0xf
5400a268:	000003e0 	0x3e0
5400a26c:	000003d2 	0x3d2
5400a270:	000003c3 	sra	zero,zero,0xf
5400a274:	000003b5 	0x3b5
5400a278:	000003a8 	0x3a8
5400a27c:	0000039b 	0x39b
5400a280:	0000038e 	0x38e
5400a284:	00000381 	0x381
5400a288:	00000375 	0x375
5400a28c:	00000369 	0x369
5400a290:	0000035e 	0x35e
5400a294:	00000353 	0x353
5400a298:	00000348 	0x348
5400a29c:	0000033d 	0x33d
5400a2a0:	00000333 	tltu	zero,zero,0xc
5400a2a4:	00000329 	0x329
5400a2a8:	0000031f 	0x31f
5400a2ac:	00000315 	0x315
5400a2b0:	0000030c 	syscall	0xc
5400a2b4:	00000303 	sra	zero,zero,0xc
5400a2b8:	000002fa 	0x2fa
5400a2bc:	000002f1 	tgeu	zero,zero,0xb
5400a2c0:	000002e8 	0x2e8
5400a2c4:	000002e0 	0x2e0
5400a2c8:	000002d8 	0x2d8
5400a2cc:	000002d0 	0x2d0
5400a2d0:	000002c8 	0x2c8
5400a2d4:	000002c0 	sll	zero,zero,0xb
5400a2d8:	000002b9 	0x2b9
5400a2dc:	000002b1 	tgeu	zero,zero,0xa
5400a2e0:	000002aa 	0x2aa
5400a2e4:	000002a3 	0x2a3
5400a2e8:	0000029c 	0x29c
5400a2ec:	00000295 	0x295
5400a2f0:	0000028f 	0x28f
5400a2f4:	00000288 	0x288
5400a2f8:	00000282 	srl	zero,zero,0xa
5400a2fc:	0000027c 	0x27c
5400a300:	00000276 	tne	zero,zero,0x9
5400a304:	00000270 	tge	zero,zero,0x9
5400a308:	0000026a 	0x26a
5400a30c:	00000264 	0x264
5400a310:	0000025e 	0x25e
5400a314:	00000259 	0x259
5400a318:	00000253 	0x253
5400a31c:	0000024e 	0x24e
5400a320:	00000249 	0x249
5400a324:	00000243 	sra	zero,zero,0x9
5400a328:	0000023e 	0x23e
5400a32c:	00000239 	0x239
5400a330:	00000234 	teq	zero,zero,0x8
5400a334:	00000230 	tge	zero,zero,0x8
5400a338:	0000022b 	0x22b
5400a33c:	00000226 	0x226
5400a340:	00000222 	0x222
5400a344:	0000021d 	0x21d
5400a348:	00000219 	0x219
5400a34c:	00000214 	0x214
5400a350:	00000210 	0x210
5400a354:	0000020c 	syscall	0x8
5400a358:	00000208 	0x208
5400a35c:	00000204 	0x204
5400a360:	00000200 	sll	zero,zero,0x8
5400a364:	000001fc 	0x1fc
5400a368:	000001f8 	0x1f8
5400a36c:	000001f4 	teq	zero,zero,0x7
5400a370:	000001f0 	tge	zero,zero,0x7
5400a374:	000001ec 	0x1ec
5400a378:	000001e9 	0x1e9
5400a37c:	000001e5 	0x1e5
5400a380:	000001e1 	0x1e1
5400a384:	000001de 	0x1de
5400a388:	000001da 	0x1da
5400a38c:	000001d7 	0x1d7
5400a390:	000001d4 	0x1d4
5400a394:	000001d0 	0x1d0
5400a398:	000001cd 	break	0x0,0x7
5400a39c:	000001ca 	0x1ca
5400a3a0:	000001c7 	0x1c7
5400a3a4:	000001c3 	sra	zero,zero,0x7
5400a3a8:	000001c0 	sll	zero,zero,0x7
5400a3ac:	000001bd 	0x1bd
5400a3b0:	000001ba 	0x1ba
5400a3b4:	000001b7 	0x1b7
5400a3b8:	000001b4 	teq	zero,zero,0x6
5400a3bc:	000001b2 	tlt	zero,zero,0x6
5400a3c0:	000001af 	0x1af
5400a3c4:	000001ac 	0x1ac
5400a3c8:	000001a9 	0x1a9
5400a3cc:	000001a6 	0x1a6
5400a3d0:	000001a4 	0x1a4
5400a3d4:	000001a1 	0x1a1
5400a3d8:	0000019e 	0x19e
5400a3dc:	0000019c 	0x19c
5400a3e0:	00000199 	0x199
5400a3e4:	00000197 	0x197
5400a3e8:	00000194 	0x194
5400a3ec:	00000192 	0x192
5400a3f0:	0000018f 	0x18f
5400a3f4:	0000018d 	break	0x0,0x6
5400a3f8:	0000018a 	0x18a
5400a3fc:	00000188 	0x188
5400a400:	00000186 	0x186
5400a404:	00000183 	sra	zero,zero,0x6
5400a408:	00000181 	0x181
5400a40c:	0000017f 	0x17f
5400a410:	0000017d 	0x17d
5400a414:	0000017a 	0x17a
5400a418:	00000178 	0x178
5400a41c:	00000176 	tne	zero,zero,0x5
5400a420:	00000174 	teq	zero,zero,0x5
5400a424:	00000172 	tlt	zero,zero,0x5
5400a428:	00000170 	tge	zero,zero,0x5
5400a42c:	0000016e 	0x16e
5400a430:	0000016c 	0x16c
5400a434:	0000016a 	0x16a
5400a438:	00000168 	0x168
5400a43c:	00000166 	0x166
5400a440:	00000164 	0x164
5400a444:	00000162 	0x162
5400a448:	00000160 	0x160
5400a44c:	0000015e 	0x15e
5400a450:	0000015c 	0x15c
5400a454:	0000015a 	0x15a
5400a458:	00000158 	0x158
5400a45c:	00000157 	0x157
5400a460:	00000155 	0x155
5400a464:	00000153 	0x153
5400a468:	00000151 	0x151
5400a46c:	00000150 	0x150
5400a470:	0000014e 	0x14e
5400a474:	0000014c 	syscall	0x5
5400a478:	0000014a 	0x14a
5400a47c:	00000149 	0x149
5400a480:	00000147 	0x147
5400a484:	00000146 	0x146
5400a488:	00000144 	0x144
5400a48c:	00000142 	srl	zero,zero,0x5
5400a490:	00000141 	0x141
5400a494:	0000013f 	0x13f
5400a498:	0000013e 	0x13e
5400a49c:	0000013c 	0x13c
5400a4a0:	0000013b 	0x13b
5400a4a4:	00000139 	0x139
5400a4a8:	00000138 	0x138
5400a4ac:	00000136 	tne	zero,zero,0x4
5400a4b0:	00000135 	0x135
5400a4b4:	00000133 	tltu	zero,zero,0x4
5400a4b8:	00000132 	tlt	zero,zero,0x4
5400a4bc:	00000130 	tge	zero,zero,0x4
5400a4c0:	0000012f 	0x12f
5400a4c4:	0000012e 	0x12e
5400a4c8:	0000012c 	0x12c
5400a4cc:	0000012b 	0x12b
5400a4d0:	00000129 	0x129
5400a4d4:	00000128 	0x128
5400a4d8:	00000127 	0x127
5400a4dc:	00000125 	0x125
5400a4e0:	00000124 	0x124
5400a4e4:	00000123 	0x123
5400a4e8:	00000121 	0x121
5400a4ec:	00000120 	0x120
5400a4f0:	0000011f 	0x11f
5400a4f4:	0000011e 	0x11e
5400a4f8:	0000011c 	0x11c
5400a4fc:	0000011b 	0x11b
5400a500:	0000011a 	0x11a
5400a504:	00000119 	0x119
5400a508:	00000118 	0x118
5400a50c:	00000116 	0x116
5400a510:	00000115 	0x115
5400a514:	00000114 	0x114
5400a518:	00000113 	0x113
5400a51c:	00000112 	0x112
5400a520:	00000111 	0x111
5400a524:	0000010f 	0x10f
5400a528:	0000010e 	0x10e
5400a52c:	0000010d 	break	0x0,0x4
5400a530:	0000010c 	syscall	0x4
5400a534:	0000010b 	0x10b
5400a538:	0000010a 	0x10a
5400a53c:	00000109 	0x109
5400a540:	00000108 	0x108
5400a544:	00000107 	0x107
5400a548:	00000106 	0x106
5400a54c:	00000105 	0x105
5400a550:	00000104 	0x104
5400a554:	00000103 	sra	zero,zero,0x4
5400a558:	00000102 	srl	zero,zero,0x4
5400a55c:	00000101 	0x101
5400a560:	00000100 	sll	zero,zero,0x4
5400a564:	000000ff 	0xff
5400a568:	000000fe 	0xfe
5400a56c:	000000fd 	0xfd
5400a570:	000000fc 	0xfc
5400a574:	000000fb 	0xfb
5400a578:	000000fa 	0xfa
5400a57c:	000000f9 	0xf9
5400a580:	000000f8 	0xf8
5400a584:	000000f7 	0xf7
5400a588:	000000f6 	tne	zero,zero,0x3
5400a58c:	000000f5 	0xf5
5400a590:	000000f4 	teq	zero,zero,0x3
5400a594:	000000f3 	tltu	zero,zero,0x3
5400a598:	000000f2 	tlt	zero,zero,0x3
5400a59c:	000000f1 	tgeu	zero,zero,0x3
5400a5a0:	000000f0 	tge	zero,zero,0x3
5400a5a4:	000000f0 	tge	zero,zero,0x3
5400a5a8:	000000ef 	0xef
5400a5ac:	000000ee 	0xee
5400a5b0:	000000ed 	0xed
5400a5b4:	000000ec 	0xec
5400a5b8:	000000eb 	0xeb
5400a5bc:	000000ea 	0xea
5400a5c0:	000000ea 	0xea
5400a5c4:	000000e9 	0xe9
5400a5c8:	000000e8 	0xe8
5400a5cc:	000000e7 	0xe7
5400a5d0:	000000e6 	0xe6
5400a5d4:	000000e5 	0xe5
5400a5d8:	000000e5 	0xe5
5400a5dc:	000000e4 	0xe4
5400a5e0:	000000e3 	0xe3
5400a5e4:	000000e2 	0xe2
5400a5e8:	000000e1 	0xe1
5400a5ec:	000000e1 	0xe1
5400a5f0:	000000e0 	0xe0
5400a5f4:	000000df 	0xdf
5400a5f8:	000000de 	0xde
5400a5fc:	000000de 	0xde
5400a600:	000000dd 	0xdd
5400a604:	000000dc 	0xdc
5400a608:	000000db 	0xdb
5400a60c:	000000db 	0xdb
5400a610:	000000da 	0xda
5400a614:	000000d9 	0xd9
5400a618:	000000d9 	0xd9
5400a61c:	000000d8 	0xd8
5400a620:	000000d7 	0xd7
5400a624:	000000d6 	0xd6
5400a628:	000000d6 	0xd6
5400a62c:	000000d5 	0xd5
5400a630:	000000d4 	0xd4
5400a634:	000000d4 	0xd4
5400a638:	000000d3 	0xd3
5400a63c:	000000d2 	0xd2
5400a640:	000000d2 	0xd2
5400a644:	000000d1 	0xd1
5400a648:	000000d0 	0xd0
5400a64c:	000000d0 	0xd0
5400a650:	000000cf 	0xcf
5400a654:	000000ce 	0xce
5400a658:	000000ce 	0xce
5400a65c:	000000cd 	break	0x0,0x3
5400a660:	000000cc 	syscall	0x3
5400a664:	000000cc 	syscall	0x3
5400a668:	000000cb 	0xcb
5400a66c:	000000ca 	0xca
5400a670:	000000ca 	0xca
5400a674:	000000c9 	0xc9
5400a678:	000000c9 	0xc9
5400a67c:	000000c8 	0xc8
5400a680:	000000c7 	0xc7
5400a684:	000000c7 	0xc7
5400a688:	000000c6 	0xc6
5400a68c:	000000c5 	0xc5
5400a690:	000000c5 	0xc5
5400a694:	000000c4 	0xc4
5400a698:	000000c4 	0xc4
5400a69c:	000000c3 	sra	zero,zero,0x3
5400a6a0:	000000c3 	sra	zero,zero,0x3
5400a6a4:	000000c2 	srl	zero,zero,0x3
5400a6a8:	000000c1 	0xc1
5400a6ac:	000000c1 	0xc1
5400a6b0:	000000c0 	ehb
5400a6b4:	000000c0 	ehb
5400a6b8:	000000bf 	0xbf
5400a6bc:	000000bf 	0xbf
5400a6c0:	000000be 	0xbe
5400a6c4:	000000bd 	0xbd
5400a6c8:	000000bd 	0xbd
5400a6cc:	000000bc 	0xbc
5400a6d0:	000000bc 	0xbc
5400a6d4:	000000bb 	0xbb
5400a6d8:	000000bb 	0xbb
5400a6dc:	000000ba 	0xba
5400a6e0:	000000ba 	0xba
5400a6e4:	000000b9 	0xb9
5400a6e8:	000000b9 	0xb9
5400a6ec:	000000b8 	0xb8
5400a6f0:	000000b8 	0xb8
5400a6f4:	000000b7 	0xb7
5400a6f8:	000000b7 	0xb7
5400a6fc:	000000b6 	tne	zero,zero,0x2
5400a700:	000000b6 	tne	zero,zero,0x2
5400a704:	000000b5 	0xb5
5400a708:	000000b5 	0xb5
5400a70c:	000000b4 	teq	zero,zero,0x2
5400a710:	000000b4 	teq	zero,zero,0x2
5400a714:	000000b3 	tltu	zero,zero,0x2
5400a718:	000000b3 	tltu	zero,zero,0x2
5400a71c:	000000b2 	tlt	zero,zero,0x2
5400a720:	000000b2 	tlt	zero,zero,0x2
5400a724:	000000b1 	tgeu	zero,zero,0x2
5400a728:	000000b1 	tgeu	zero,zero,0x2
5400a72c:	000000b0 	tge	zero,zero,0x2
5400a730:	000000b0 	tge	zero,zero,0x2
5400a734:	000000af 	0xaf
5400a738:	000000af 	0xaf
5400a73c:	000000ae 	0xae
5400a740:	000000ae 	0xae
5400a744:	000000ad 	0xad
5400a748:	000000ad 	0xad
5400a74c:	000000ac 	0xac
5400a750:	000000ac 	0xac
5400a754:	000000ac 	0xac
5400a758:	000000ab 	0xab
5400a75c:	000000ab 	0xab
5400a760:	000000aa 	0xaa
5400a764:	000000aa 	0xaa
5400a768:	000000a9 	0xa9
5400a76c:	000000a9 	0xa9
5400a770:	000000a8 	0xa8
5400a774:	000000a8 	0xa8
5400a778:	000000a8 	0xa8
5400a77c:	000000a7 	0xa7
5400a780:	000000a7 	0xa7
5400a784:	000000a6 	0xa6
5400a788:	000000a6 	0xa6
5400a78c:	000000a5 	0xa5
5400a790:	000000a5 	0xa5
5400a794:	000000a5 	0xa5
5400a798:	000000a4 	0xa4
5400a79c:	000000a4 	0xa4
5400a7a0:	000000a3 	0xa3
5400a7a4:	000000a3 	0xa3
5400a7a8:	000000a3 	0xa3
5400a7ac:	000000a2 	0xa2
5400a7b0:	000000a2 	0xa2
5400a7b4:	000000a1 	0xa1
5400a7b8:	000000a1 	0xa1
5400a7bc:	000000a1 	0xa1
5400a7c0:	000000a0 	0xa0
5400a7c4:	000000a0 	0xa0
5400a7c8:	0000009f 	0x9f
5400a7cc:	0000009f 	0x9f
5400a7d0:	0000009f 	0x9f
5400a7d4:	0000009e 	0x9e
5400a7d8:	0000009e 	0x9e
5400a7dc:	0000009d 	0x9d
5400a7e0:	0000009d 	0x9d
5400a7e4:	0000009d 	0x9d
5400a7e8:	0000009c 	0x9c
5400a7ec:	0000009c 	0x9c
5400a7f0:	0000009c 	0x9c
5400a7f4:	0000009b 	0x9b
5400a7f8:	0000009b 	0x9b
5400a7fc:	0000009a 	0x9a
5400a800:	0000009a 	0x9a
5400a804:	0000009a 	0x9a
5400a808:	00000099 	0x99
5400a80c:	00000099 	0x99
5400a810:	00000099 	0x99
5400a814:	00000098 	0x98
5400a818:	00000098 	0x98
5400a81c:	00000098 	0x98
5400a820:	00000097 	0x97
5400a824:	00000097 	0x97
5400a828:	00000097 	0x97
5400a82c:	00000096 	0x96
5400a830:	00000096 	0x96
5400a834:	00000095 	0x95
5400a838:	00000095 	0x95
5400a83c:	00000095 	0x95
5400a840:	00000094 	0x94
5400a844:	00000094 	0x94
5400a848:	00000094 	0x94
5400a84c:	00000093 	0x93
5400a850:	00000093 	0x93
5400a854:	00000093 	0x93
5400a858:	00000092 	0x92
5400a85c:	00000092 	0x92
5400a860:	00000092 	0x92
5400a864:	00000091 	0x91
5400a868:	00000091 	0x91
5400a86c:	00000091 	0x91
5400a870:	00000090 	0x90
5400a874:	00000090 	0x90
5400a878:	00000090 	0x90
5400a87c:	00000090 	0x90
5400a880:	0000008f 	0x8f
5400a884:	0000008f 	0x8f
5400a888:	0000008f 	0x8f
5400a88c:	0000008e 	0x8e
5400a890:	0000008e 	0x8e
5400a894:	0000008e 	0x8e
5400a898:	0000008d 	break	0x0,0x2
5400a89c:	0000008d 	break	0x0,0x2
5400a8a0:	0000008d 	break	0x0,0x2
5400a8a4:	0000008c 	syscall	0x2
5400a8a8:	0000008c 	syscall	0x2
5400a8ac:	0000008c 	syscall	0x2
5400a8b0:	0000008c 	syscall	0x2
5400a8b4:	0000008b 	0x8b
5400a8b8:	0000008b 	0x8b
5400a8bc:	0000008b 	0x8b
5400a8c0:	0000008a 	0x8a
5400a8c4:	0000008a 	0x8a
5400a8c8:	0000008a 	0x8a
5400a8cc:	00000089 	0x89
5400a8d0:	00000089 	0x89
5400a8d4:	00000089 	0x89
5400a8d8:	00000089 	0x89
5400a8dc:	00000088 	0x88
5400a8e0:	00000088 	0x88
5400a8e4:	00000088 	0x88
5400a8e8:	00000087 	0x87
5400a8ec:	00000087 	0x87
5400a8f0:	00000087 	0x87
5400a8f4:	00000087 	0x87
5400a8f8:	00000086 	0x86
5400a8fc:	00000086 	0x86
5400a900:	00000086 	0x86
5400a904:	00000086 	0x86
5400a908:	00000085 	0x85
5400a90c:	00000085 	0x85
5400a910:	00000085 	0x85
5400a914:	00000084 	0x84
5400a918:	00000084 	0x84
5400a91c:	00000084 	0x84
5400a920:	00000084 	0x84
5400a924:	00000083 	sra	zero,zero,0x2
5400a928:	00000083 	sra	zero,zero,0x2
5400a92c:	00000083 	sra	zero,zero,0x2
5400a930:	00000083 	sra	zero,zero,0x2
5400a934:	00000082 	srl	zero,zero,0x2
5400a938:	00000082 	srl	zero,zero,0x2
5400a93c:	00000082 	srl	zero,zero,0x2
5400a940:	00000082 	srl	zero,zero,0x2
5400a944:	00000081 	0x81
5400a948:	00000081 	0x81
5400a94c:	00000081 	0x81
5400a950:	00000081 	0x81
5400a954:	00000080 	sll	zero,zero,0x2
5400a958:	00000080 	sll	zero,zero,0x2
5400a95c:	00000080 	sll	zero,zero,0x2
5400a960:	00000080 	sll	zero,zero,0x2

5400a964 <arctanTable2>:
	...
5400a97c:	00000001 	movf	zero,zero,$fcc0
5400a980:	00000001 	movf	zero,zero,$fcc0
5400a984:	00000001 	movf	zero,zero,$fcc0
5400a988:	00000001 	movf	zero,zero,$fcc0
5400a98c:	00000001 	movf	zero,zero,$fcc0
5400a990:	00000001 	movf	zero,zero,$fcc0
5400a994:	00000001 	movf	zero,zero,$fcc0
5400a998:	00000002 	srl	zero,zero,0x0
5400a99c:	00000002 	srl	zero,zero,0x0
5400a9a0:	00000002 	srl	zero,zero,0x0
5400a9a4:	00000002 	srl	zero,zero,0x0
5400a9a8:	00000002 	srl	zero,zero,0x0
5400a9ac:	00000002 	srl	zero,zero,0x0
5400a9b0:	00000003 	sra	zero,zero,0x0
5400a9b4:	00000003 	sra	zero,zero,0x0
5400a9b8:	00000003 	sra	zero,zero,0x0
5400a9bc:	00000003 	sra	zero,zero,0x0
5400a9c0:	00000003 	sra	zero,zero,0x0
5400a9c4:	00000003 	sra	zero,zero,0x0
5400a9c8:	00000004 	sllv	zero,zero,zero
5400a9cc:	00000004 	sllv	zero,zero,zero
5400a9d0:	00000004 	sllv	zero,zero,zero
5400a9d4:	00000004 	sllv	zero,zero,zero
5400a9d8:	00000004 	sllv	zero,zero,zero
5400a9dc:	00000004 	sllv	zero,zero,zero
5400a9e0:	00000005 	0x5
5400a9e4:	00000005 	0x5
5400a9e8:	00000005 	0x5
5400a9ec:	00000005 	0x5
5400a9f0:	00000005 	0x5
5400a9f4:	00000005 	0x5
5400a9f8:	00000005 	0x5
5400a9fc:	00000006 	srlv	zero,zero,zero
5400aa00:	00000006 	srlv	zero,zero,zero
5400aa04:	00000006 	srlv	zero,zero,zero
5400aa08:	00000006 	srlv	zero,zero,zero
5400aa0c:	00000006 	srlv	zero,zero,zero
5400aa10:	00000006 	srlv	zero,zero,zero
5400aa14:	00000007 	srav	zero,zero,zero
5400aa18:	00000007 	srav	zero,zero,zero
5400aa1c:	00000007 	srav	zero,zero,zero
5400aa20:	00000007 	srav	zero,zero,zero
5400aa24:	00000007 	srav	zero,zero,zero
5400aa28:	00000007 	srav	zero,zero,zero
5400aa2c:	00000008 	jr	zero
5400aa30:	00000008 	jr	zero
5400aa34:	00000008 	jr	zero
5400aa38:	00000008 	jr	zero
5400aa3c:	00000008 	jr	zero
5400aa40:	00000008 	jr	zero
5400aa44:	00000008 	jr	zero
5400aa48:	00000009 	jalr	zero,zero
5400aa4c:	00000009 	jalr	zero,zero
5400aa50:	00000009 	jalr	zero,zero
5400aa54:	00000009 	jalr	zero,zero
5400aa58:	00000009 	jalr	zero,zero
5400aa5c:	00000009 	jalr	zero,zero
5400aa60:	0000000a 	movz	zero,zero,zero
5400aa64:	0000000a 	movz	zero,zero,zero
5400aa68:	0000000a 	movz	zero,zero,zero
5400aa6c:	0000000a 	movz	zero,zero,zero
5400aa70:	0000000a 	movz	zero,zero,zero
5400aa74:	0000000a 	movz	zero,zero,zero
5400aa78:	0000000b 	movn	zero,zero,zero
5400aa7c:	0000000b 	movn	zero,zero,zero
5400aa80:	0000000b 	movn	zero,zero,zero
5400aa84:	0000000b 	movn	zero,zero,zero
5400aa88:	0000000b 	movn	zero,zero,zero
5400aa8c:	0000000b 	movn	zero,zero,zero
5400aa90:	0000000b 	movn	zero,zero,zero
5400aa94:	0000000c 	syscall
5400aa98:	0000000c 	syscall
5400aa9c:	0000000c 	syscall
5400aaa0:	0000000c 	syscall
5400aaa4:	0000000c 	syscall
5400aaa8:	0000000c 	syscall
5400aaac:	0000000d 	break
5400aab0:	0000000d 	break
5400aab4:	0000000d 	break
5400aab8:	0000000d 	break
5400aabc:	0000000d 	break
5400aac0:	0000000d 	break
5400aac4:	0000000e 	0xe
5400aac8:	0000000e 	0xe
5400aacc:	0000000e 	0xe
5400aad0:	0000000e 	0xe
5400aad4:	0000000e 	0xe
5400aad8:	0000000e 	0xe
5400aadc:	0000000e 	0xe
5400aae0:	0000000f 	sync
5400aae4:	0000000f 	sync
5400aae8:	0000000f 	sync
5400aaec:	0000000f 	sync
5400aaf0:	0000000f 	sync
5400aaf4:	0000000f 	sync
5400aaf8:	00000010 	mfhi	zero
5400aafc:	00000010 	mfhi	zero
5400ab00:	00000010 	mfhi	zero
5400ab04:	00000010 	mfhi	zero
5400ab08:	00000010 	mfhi	zero
5400ab0c:	00000010 	mfhi	zero
5400ab10:	00000011 	mthi	zero
5400ab14:	00000011 	mthi	zero
5400ab18:	00000011 	mthi	zero
5400ab1c:	00000011 	mthi	zero
5400ab20:	00000011 	mthi	zero
5400ab24:	00000011 	mthi	zero
5400ab28:	00000011 	mthi	zero
5400ab2c:	00000012 	mflo	zero
5400ab30:	00000012 	mflo	zero
5400ab34:	00000012 	mflo	zero
5400ab38:	00000012 	mflo	zero
5400ab3c:	00000012 	mflo	zero
5400ab40:	00000012 	mflo	zero
5400ab44:	00000013 	mtlo	zero
5400ab48:	00000013 	mtlo	zero
5400ab4c:	00000013 	mtlo	zero
5400ab50:	00000013 	mtlo	zero
5400ab54:	00000013 	mtlo	zero
5400ab58:	00000013 	mtlo	zero
5400ab5c:	00000014 	0x14
5400ab60:	00000014 	0x14
5400ab64:	00000014 	0x14
5400ab68:	00000014 	0x14
5400ab6c:	00000014 	0x14
5400ab70:	00000014 	0x14
5400ab74:	00000014 	0x14
5400ab78:	00000015 	0x15
5400ab7c:	00000015 	0x15
5400ab80:	00000015 	0x15
5400ab84:	00000015 	0x15
5400ab88:	00000015 	0x15
5400ab8c:	00000015 	0x15
5400ab90:	00000016 	0x16
5400ab94:	00000016 	0x16
5400ab98:	00000016 	0x16
5400ab9c:	00000016 	0x16
5400aba0:	00000016 	0x16
5400aba4:	00000016 	0x16
5400aba8:	00000017 	0x17
5400abac:	00000017 	0x17
5400abb0:	00000017 	0x17
5400abb4:	00000017 	0x17
5400abb8:	00000017 	0x17
5400abbc:	00000017 	0x17
5400abc0:	00000017 	0x17
5400abc4:	00000018 	mult	zero,zero
5400abc8:	00000018 	mult	zero,zero
5400abcc:	00000018 	mult	zero,zero
5400abd0:	00000018 	mult	zero,zero
5400abd4:	00000018 	mult	zero,zero
5400abd8:	00000018 	mult	zero,zero
5400abdc:	00000019 	multu	zero,zero
5400abe0:	00000019 	multu	zero,zero
5400abe4:	00000019 	multu	zero,zero
5400abe8:	00000019 	multu	zero,zero
5400abec:	00000019 	multu	zero,zero
5400abf0:	00000019 	multu	zero,zero
5400abf4:	00000019 	multu	zero,zero
5400abf8:	0000001a 	div	zero,zero,zero
5400abfc:	0000001a 	div	zero,zero,zero
5400ac00:	0000001a 	div	zero,zero,zero
5400ac04:	0000001a 	div	zero,zero,zero
5400ac08:	0000001a 	div	zero,zero,zero
5400ac0c:	0000001a 	div	zero,zero,zero
5400ac10:	0000001b 	divu	zero,zero,zero
5400ac14:	0000001b 	divu	zero,zero,zero
5400ac18:	0000001b 	divu	zero,zero,zero
5400ac1c:	0000001b 	divu	zero,zero,zero
5400ac20:	0000001b 	divu	zero,zero,zero
5400ac24:	0000001b 	divu	zero,zero,zero
5400ac28:	0000001b 	divu	zero,zero,zero
5400ac2c:	0000001c 	0x1c
5400ac30:	0000001c 	0x1c
5400ac34:	0000001c 	0x1c
5400ac38:	0000001c 	0x1c
5400ac3c:	0000001c 	0x1c
5400ac40:	0000001c 	0x1c
5400ac44:	0000001d 	0x1d
5400ac48:	0000001d 	0x1d
5400ac4c:	0000001d 	0x1d
5400ac50:	0000001d 	0x1d
5400ac54:	0000001d 	0x1d
5400ac58:	0000001d 	0x1d
5400ac5c:	0000001d 	0x1d
5400ac60:	0000001e 	0x1e
5400ac64:	0000001e 	0x1e
5400ac68:	0000001e 	0x1e
5400ac6c:	0000001e 	0x1e
5400ac70:	0000001e 	0x1e
5400ac74:	0000001e 	0x1e
5400ac78:	0000001f 	0x1f
5400ac7c:	0000001f 	0x1f
5400ac80:	0000001f 	0x1f
5400ac84:	0000001f 	0x1f
5400ac88:	0000001f 	0x1f
5400ac8c:	0000001f 	0x1f
5400ac90:	0000001f 	0x1f
5400ac94:	00000020 	add	zero,zero,zero
5400ac98:	00000020 	add	zero,zero,zero
5400ac9c:	00000020 	add	zero,zero,zero
5400aca0:	00000020 	add	zero,zero,zero
5400aca4:	00000020 	add	zero,zero,zero
5400aca8:	00000020 	add	zero,zero,zero
5400acac:	00000021 	move	zero,zero
5400acb0:	00000021 	move	zero,zero
5400acb4:	00000021 	move	zero,zero
5400acb8:	00000021 	move	zero,zero
5400acbc:	00000021 	move	zero,zero
5400acc0:	00000021 	move	zero,zero
5400acc4:	00000021 	move	zero,zero
5400acc8:	00000022 	neg	zero,zero
5400accc:	00000022 	neg	zero,zero
5400acd0:	00000022 	neg	zero,zero
5400acd4:	00000022 	neg	zero,zero
5400acd8:	00000022 	neg	zero,zero
5400acdc:	00000022 	neg	zero,zero
5400ace0:	00000023 	negu	zero,zero
5400ace4:	00000023 	negu	zero,zero
5400ace8:	00000023 	negu	zero,zero
5400acec:	00000023 	negu	zero,zero
5400acf0:	00000023 	negu	zero,zero
5400acf4:	00000023 	negu	zero,zero
5400acf8:	00000023 	negu	zero,zero
5400acfc:	00000024 	and	zero,zero,zero
5400ad00:	00000024 	and	zero,zero,zero
5400ad04:	00000024 	and	zero,zero,zero
5400ad08:	00000024 	and	zero,zero,zero
5400ad0c:	00000024 	and	zero,zero,zero
5400ad10:	00000024 	and	zero,zero,zero
5400ad14:	00000024 	and	zero,zero,zero
5400ad18:	00000025 	move	zero,zero
5400ad1c:	00000025 	move	zero,zero
5400ad20:	00000025 	move	zero,zero
5400ad24:	00000025 	move	zero,zero
5400ad28:	00000025 	move	zero,zero
5400ad2c:	00000025 	move	zero,zero
5400ad30:	00000026 	xor	zero,zero,zero
5400ad34:	00000026 	xor	zero,zero,zero
5400ad38:	00000026 	xor	zero,zero,zero
5400ad3c:	00000026 	xor	zero,zero,zero
5400ad40:	00000026 	xor	zero,zero,zero
5400ad44:	00000026 	xor	zero,zero,zero
5400ad48:	00000026 	xor	zero,zero,zero
5400ad4c:	00000027 	nor	zero,zero,zero
5400ad50:	00000027 	nor	zero,zero,zero
5400ad54:	00000027 	nor	zero,zero,zero
5400ad58:	00000027 	nor	zero,zero,zero
5400ad5c:	00000027 	nor	zero,zero,zero
5400ad60:	00000027 	nor	zero,zero,zero
5400ad64:	00000028 	0x28
5400ad68:	00000028 	0x28
5400ad6c:	00000028 	0x28
5400ad70:	00000028 	0x28
5400ad74:	00000028 	0x28
5400ad78:	00000028 	0x28
5400ad7c:	00000028 	0x28
5400ad80:	00000029 	0x29
5400ad84:	00000029 	0x29
5400ad88:	00000029 	0x29
5400ad8c:	00000029 	0x29
5400ad90:	00000029 	0x29
5400ad94:	00000029 	0x29
5400ad98:	00000029 	0x29
5400ad9c:	0000002a 	slt	zero,zero,zero
5400ada0:	0000002a 	slt	zero,zero,zero
5400ada4:	0000002a 	slt	zero,zero,zero
5400ada8:	0000002a 	slt	zero,zero,zero
5400adac:	0000002a 	slt	zero,zero,zero
5400adb0:	0000002a 	slt	zero,zero,zero
5400adb4:	0000002a 	slt	zero,zero,zero
5400adb8:	0000002b 	sltu	zero,zero,zero
5400adbc:	0000002b 	sltu	zero,zero,zero
5400adc0:	0000002b 	sltu	zero,zero,zero
5400adc4:	0000002b 	sltu	zero,zero,zero
5400adc8:	0000002b 	sltu	zero,zero,zero
5400adcc:	0000002b 	sltu	zero,zero,zero
5400add0:	0000002c 	0x2c
5400add4:	0000002c 	0x2c
5400add8:	0000002c 	0x2c
5400addc:	0000002c 	0x2c
5400ade0:	0000002c 	0x2c
5400ade4:	0000002c 	0x2c
5400ade8:	0000002c 	0x2c
5400adec:	0000002d 	0x2d
5400adf0:	0000002d 	0x2d
5400adf4:	0000002d 	0x2d
5400adf8:	0000002d 	0x2d
5400adfc:	0000002d 	0x2d
5400ae00:	0000002d 	0x2d
5400ae04:	0000002d 	0x2d
5400ae08:	0000002e 	0x2e
5400ae0c:	0000002e 	0x2e
5400ae10:	0000002e 	0x2e
5400ae14:	0000002e 	0x2e
5400ae18:	0000002e 	0x2e
5400ae1c:	0000002e 	0x2e
5400ae20:	0000002e 	0x2e
5400ae24:	0000002f 	0x2f
5400ae28:	0000002f 	0x2f
5400ae2c:	0000002f 	0x2f
5400ae30:	0000002f 	0x2f
5400ae34:	0000002f 	0x2f
5400ae38:	0000002f 	0x2f
5400ae3c:	0000002f 	0x2f
5400ae40:	00000030 	tge	zero,zero
5400ae44:	00000030 	tge	zero,zero
5400ae48:	00000030 	tge	zero,zero
5400ae4c:	00000030 	tge	zero,zero
5400ae50:	00000030 	tge	zero,zero
5400ae54:	00000030 	tge	zero,zero
5400ae58:	00000030 	tge	zero,zero
5400ae5c:	00000031 	tgeu	zero,zero
5400ae60:	00000031 	tgeu	zero,zero
5400ae64:	00000031 	tgeu	zero,zero
5400ae68:	00000031 	tgeu	zero,zero
5400ae6c:	00000031 	tgeu	zero,zero
5400ae70:	00000031 	tgeu	zero,zero
5400ae74:	00000032 	tlt	zero,zero
5400ae78:	00000032 	tlt	zero,zero
5400ae7c:	00000032 	tlt	zero,zero
5400ae80:	00000032 	tlt	zero,zero
5400ae84:	00000032 	tlt	zero,zero
5400ae88:	00000032 	tlt	zero,zero
5400ae8c:	00000032 	tlt	zero,zero
5400ae90:	00000033 	tltu	zero,zero
5400ae94:	00000033 	tltu	zero,zero
5400ae98:	00000033 	tltu	zero,zero
5400ae9c:	00000033 	tltu	zero,zero
5400aea0:	00000033 	tltu	zero,zero
5400aea4:	00000033 	tltu	zero,zero
5400aea8:	00000033 	tltu	zero,zero
5400aeac:	00000034 	teq	zero,zero
5400aeb0:	00000034 	teq	zero,zero
5400aeb4:	00000034 	teq	zero,zero
5400aeb8:	00000034 	teq	zero,zero
5400aebc:	00000034 	teq	zero,zero
5400aec0:	00000034 	teq	zero,zero
5400aec4:	00000034 	teq	zero,zero
5400aec8:	00000035 	0x35
5400aecc:	00000035 	0x35
5400aed0:	00000035 	0x35
5400aed4:	00000035 	0x35
5400aed8:	00000035 	0x35
5400aedc:	00000035 	0x35
5400aee0:	00000035 	0x35
5400aee4:	00000036 	tne	zero,zero
5400aee8:	00000036 	tne	zero,zero
5400aeec:	00000036 	tne	zero,zero
5400aef0:	00000036 	tne	zero,zero
5400aef4:	00000036 	tne	zero,zero
5400aef8:	00000036 	tne	zero,zero
5400aefc:	00000036 	tne	zero,zero
5400af00:	00000037 	0x37
5400af04:	00000037 	0x37
5400af08:	00000037 	0x37
5400af0c:	00000037 	0x37
5400af10:	00000037 	0x37
5400af14:	00000037 	0x37
5400af18:	00000037 	0x37
5400af1c:	00000038 	0x38
5400af20:	00000038 	0x38
5400af24:	00000038 	0x38
5400af28:	00000038 	0x38
5400af2c:	00000038 	0x38
5400af30:	00000038 	0x38
5400af34:	00000038 	0x38
5400af38:	00000039 	0x39
5400af3c:	00000039 	0x39
5400af40:	00000039 	0x39
5400af44:	00000039 	0x39
5400af48:	00000039 	0x39
5400af4c:	00000039 	0x39
5400af50:	00000039 	0x39
5400af54:	00000039 	0x39
5400af58:	0000003a 	0x3a
5400af5c:	0000003a 	0x3a
5400af60:	0000003a 	0x3a
5400af64:	0000003a 	0x3a
5400af68:	0000003a 	0x3a
5400af6c:	0000003a 	0x3a
5400af70:	0000003a 	0x3a
5400af74:	0000003b 	0x3b
5400af78:	0000003b 	0x3b
5400af7c:	0000003b 	0x3b
5400af80:	0000003b 	0x3b
5400af84:	0000003b 	0x3b
5400af88:	0000003b 	0x3b
5400af8c:	0000003b 	0x3b
5400af90:	0000003c 	0x3c
5400af94:	0000003c 	0x3c
5400af98:	0000003c 	0x3c
5400af9c:	0000003c 	0x3c
5400afa0:	0000003c 	0x3c
5400afa4:	0000003c 	0x3c
5400afa8:	0000003c 	0x3c
5400afac:	0000003d 	0x3d
5400afb0:	0000003d 	0x3d
5400afb4:	0000003d 	0x3d
5400afb8:	0000003d 	0x3d
5400afbc:	0000003d 	0x3d
5400afc0:	0000003d 	0x3d
5400afc4:	0000003d 	0x3d
5400afc8:	0000003d 	0x3d
5400afcc:	0000003e 	0x3e
5400afd0:	0000003e 	0x3e
5400afd4:	0000003e 	0x3e
5400afd8:	0000003e 	0x3e
5400afdc:	0000003e 	0x3e
5400afe0:	0000003e 	0x3e
5400afe4:	0000003e 	0x3e
5400afe8:	0000003f 	0x3f
5400afec:	0000003f 	0x3f
5400aff0:	0000003f 	0x3f
5400aff4:	0000003f 	0x3f
5400aff8:	0000003f 	0x3f
5400affc:	0000003f 	0x3f
5400b000:	0000003f 	0x3f
5400b004:	00000040 	ssnop
5400b008:	00000040 	ssnop
5400b00c:	00000040 	ssnop
5400b010:	00000040 	ssnop
5400b014:	00000040 	ssnop
5400b018:	00000040 	ssnop
5400b01c:	00000040 	ssnop
5400b020:	00000040 	ssnop
5400b024:	00000041 	0x41
5400b028:	00000041 	0x41
5400b02c:	00000041 	0x41
5400b030:	00000041 	0x41
5400b034:	00000041 	0x41
5400b038:	00000041 	0x41
5400b03c:	00000041 	0x41
5400b040:	00000042 	srl	zero,zero,0x1
5400b044:	00000042 	srl	zero,zero,0x1
5400b048:	00000042 	srl	zero,zero,0x1
5400b04c:	00000042 	srl	zero,zero,0x1
5400b050:	00000042 	srl	zero,zero,0x1
5400b054:	00000042 	srl	zero,zero,0x1
5400b058:	00000042 	srl	zero,zero,0x1
5400b05c:	00000043 	sra	zero,zero,0x1
5400b060:	00000043 	sra	zero,zero,0x1
5400b064:	00000043 	sra	zero,zero,0x1
5400b068:	00000043 	sra	zero,zero,0x1
5400b06c:	00000043 	sra	zero,zero,0x1
5400b070:	00000043 	sra	zero,zero,0x1
5400b074:	00000043 	sra	zero,zero,0x1
5400b078:	00000043 	sra	zero,zero,0x1
5400b07c:	00000044 	0x44
5400b080:	00000044 	0x44
5400b084:	00000044 	0x44
5400b088:	00000044 	0x44
5400b08c:	00000044 	0x44
5400b090:	00000044 	0x44
5400b094:	00000044 	0x44
5400b098:	00000045 	0x45
5400b09c:	00000045 	0x45
5400b0a0:	00000045 	0x45
5400b0a4:	00000045 	0x45
5400b0a8:	00000045 	0x45
5400b0ac:	00000045 	0x45
5400b0b0:	00000045 	0x45
5400b0b4:	00000045 	0x45
5400b0b8:	00000046 	rorv	zero,zero,zero
5400b0bc:	00000046 	rorv	zero,zero,zero
5400b0c0:	00000046 	rorv	zero,zero,zero
5400b0c4:	00000046 	rorv	zero,zero,zero
5400b0c8:	00000046 	rorv	zero,zero,zero
5400b0cc:	00000046 	rorv	zero,zero,zero
5400b0d0:	00000046 	rorv	zero,zero,zero
5400b0d4:	00000046 	rorv	zero,zero,zero
5400b0d8:	00000047 	0x47
5400b0dc:	00000047 	0x47
5400b0e0:	00000047 	0x47
5400b0e4:	00000047 	0x47
5400b0e8:	00000047 	0x47
5400b0ec:	00000047 	0x47
5400b0f0:	00000047 	0x47
5400b0f4:	00000048 	0x48
5400b0f8:	00000048 	0x48
5400b0fc:	00000048 	0x48
5400b100:	00000048 	0x48
5400b104:	00000048 	0x48
5400b108:	00000048 	0x48
5400b10c:	00000048 	0x48
5400b110:	00000048 	0x48
5400b114:	00000049 	0x49
5400b118:	00000049 	0x49
5400b11c:	00000049 	0x49
5400b120:	00000049 	0x49
5400b124:	00000049 	0x49
5400b128:	00000049 	0x49
5400b12c:	00000049 	0x49
5400b130:	00000049 	0x49
5400b134:	0000004a 	0x4a
5400b138:	0000004a 	0x4a
5400b13c:	0000004a 	0x4a
5400b140:	0000004a 	0x4a
5400b144:	0000004a 	0x4a
5400b148:	0000004a 	0x4a
5400b14c:	0000004a 	0x4a
5400b150:	0000004a 	0x4a
5400b154:	0000004b 	0x4b
5400b158:	0000004b 	0x4b
5400b15c:	0000004b 	0x4b
5400b160:	0000004b 	0x4b
5400b164:	0000004b 	0x4b
5400b168:	0000004b 	0x4b
5400b16c:	0000004b 	0x4b
5400b170:	0000004c 	syscall	0x1
5400b174:	0000004c 	syscall	0x1
5400b178:	0000004c 	syscall	0x1
5400b17c:	0000004c 	syscall	0x1
5400b180:	0000004c 	syscall	0x1
5400b184:	0000004c 	syscall	0x1
5400b188:	0000004c 	syscall	0x1
5400b18c:	0000004c 	syscall	0x1
5400b190:	0000004d 	break	0x0,0x1
5400b194:	0000004d 	break	0x0,0x1
5400b198:	0000004d 	break	0x0,0x1
5400b19c:	0000004d 	break	0x0,0x1
5400b1a0:	0000004d 	break	0x0,0x1
5400b1a4:	0000004d 	break	0x0,0x1
5400b1a8:	0000004d 	break	0x0,0x1
5400b1ac:	0000004d 	break	0x0,0x1
5400b1b0:	0000004e 	0x4e
5400b1b4:	0000004e 	0x4e
5400b1b8:	0000004e 	0x4e
5400b1bc:	0000004e 	0x4e
5400b1c0:	0000004e 	0x4e
5400b1c4:	0000004e 	0x4e
5400b1c8:	0000004e 	0x4e
5400b1cc:	0000004e 	0x4e
5400b1d0:	0000004f 	0x4f
5400b1d4:	0000004f 	0x4f
5400b1d8:	0000004f 	0x4f
5400b1dc:	0000004f 	0x4f
5400b1e0:	0000004f 	0x4f
5400b1e4:	0000004f 	0x4f
5400b1e8:	0000004f 	0x4f
5400b1ec:	0000004f 	0x4f
5400b1f0:	00000050 	0x50
5400b1f4:	00000050 	0x50
5400b1f8:	00000050 	0x50
5400b1fc:	00000050 	0x50
5400b200:	00000050 	0x50
5400b204:	00000050 	0x50
5400b208:	00000050 	0x50
5400b20c:	00000050 	0x50
5400b210:	00000051 	0x51
5400b214:	00000051 	0x51
5400b218:	00000051 	0x51
5400b21c:	00000051 	0x51
5400b220:	00000051 	0x51
5400b224:	00000051 	0x51
5400b228:	00000051 	0x51
5400b22c:	00000051 	0x51
5400b230:	00000051 	0x51
5400b234:	00000052 	mflhxu	zero
5400b238:	00000052 	mflhxu	zero
5400b23c:	00000052 	mflhxu	zero
5400b240:	00000052 	mflhxu	zero
5400b244:	00000052 	mflhxu	zero
5400b248:	00000052 	mflhxu	zero
5400b24c:	00000052 	mflhxu	zero
5400b250:	00000052 	mflhxu	zero
5400b254:	00000053 	mtlhx	zero
5400b258:	00000053 	mtlhx	zero
5400b25c:	00000053 	mtlhx	zero
5400b260:	00000053 	mtlhx	zero
5400b264:	00000053 	mtlhx	zero
5400b268:	00000053 	mtlhx	zero
5400b26c:	00000053 	mtlhx	zero
5400b270:	00000053 	mtlhx	zero
5400b274:	00000054 	0x54
5400b278:	00000054 	0x54
5400b27c:	00000054 	0x54
5400b280:	00000054 	0x54
5400b284:	00000054 	0x54
5400b288:	00000054 	0x54
5400b28c:	00000054 	0x54
5400b290:	00000054 	0x54
5400b294:	00000055 	0x55
5400b298:	00000055 	0x55
5400b29c:	00000055 	0x55
5400b2a0:	00000055 	0x55
5400b2a4:	00000055 	0x55
5400b2a8:	00000055 	0x55
5400b2ac:	00000055 	0x55
5400b2b0:	00000055 	0x55
5400b2b4:	00000055 	0x55
5400b2b8:	00000056 	0x56
5400b2bc:	00000056 	0x56
5400b2c0:	00000056 	0x56
5400b2c4:	00000056 	0x56
5400b2c8:	00000056 	0x56
5400b2cc:	00000056 	0x56
5400b2d0:	00000056 	0x56
5400b2d4:	00000056 	0x56
5400b2d8:	00000057 	0x57
5400b2dc:	00000057 	0x57
5400b2e0:	00000057 	0x57
5400b2e4:	00000057 	0x57
5400b2e8:	00000057 	0x57
5400b2ec:	00000057 	0x57
5400b2f0:	00000057 	0x57
5400b2f4:	00000057 	0x57
5400b2f8:	00000057 	0x57
5400b2fc:	00000058 	0x58
5400b300:	00000058 	0x58
5400b304:	00000058 	0x58
5400b308:	00000058 	0x58
5400b30c:	00000058 	0x58
5400b310:	00000058 	0x58
5400b314:	00000058 	0x58
5400b318:	00000058 	0x58
5400b31c:	00000059 	0x59
5400b320:	00000059 	0x59
5400b324:	00000059 	0x59
5400b328:	00000059 	0x59
5400b32c:	00000059 	0x59
5400b330:	00000059 	0x59
5400b334:	00000059 	0x59
5400b338:	00000059 	0x59
5400b33c:	00000059 	0x59
5400b340:	0000005a 	0x5a
5400b344:	0000005a 	0x5a
5400b348:	0000005a 	0x5a
5400b34c:	0000005a 	0x5a
5400b350:	0000005a 	0x5a
5400b354:	0000005a 	0x5a
5400b358:	0000005a 	0x5a
5400b35c:	0000005a 	0x5a
5400b360:	0000005a 	0x5a
5400b364:	0000005b 	0x5b
5400b368:	0000005b 	0x5b
5400b36c:	0000005b 	0x5b
5400b370:	0000005b 	0x5b
5400b374:	0000005b 	0x5b
5400b378:	0000005b 	0x5b
5400b37c:	0000005b 	0x5b
5400b380:	0000005b 	0x5b
5400b384:	0000005c 	0x5c
5400b388:	0000005c 	0x5c
5400b38c:	0000005c 	0x5c
5400b390:	0000005c 	0x5c
5400b394:	0000005c 	0x5c
5400b398:	0000005c 	0x5c
5400b39c:	0000005c 	0x5c
5400b3a0:	0000005c 	0x5c
5400b3a4:	0000005c 	0x5c
5400b3a8:	0000005d 	0x5d
5400b3ac:	0000005d 	0x5d
5400b3b0:	0000005d 	0x5d
5400b3b4:	0000005d 	0x5d
5400b3b8:	0000005d 	0x5d
5400b3bc:	0000005d 	0x5d
5400b3c0:	0000005d 	0x5d
5400b3c4:	0000005d 	0x5d
5400b3c8:	0000005d 	0x5d
5400b3cc:	0000005e 	0x5e
5400b3d0:	0000005e 	0x5e
5400b3d4:	0000005e 	0x5e
5400b3d8:	0000005e 	0x5e
5400b3dc:	0000005e 	0x5e
5400b3e0:	0000005e 	0x5e
5400b3e4:	0000005e 	0x5e
5400b3e8:	0000005e 	0x5e
5400b3ec:	0000005e 	0x5e
5400b3f0:	0000005f 	0x5f
5400b3f4:	0000005f 	0x5f
5400b3f8:	0000005f 	0x5f
5400b3fc:	0000005f 	0x5f
5400b400:	0000005f 	0x5f
5400b404:	0000005f 	0x5f
5400b408:	0000005f 	0x5f
5400b40c:	0000005f 	0x5f
5400b410:	0000005f 	0x5f
5400b414:	00000060 	0x60
5400b418:	00000060 	0x60
5400b41c:	00000060 	0x60
5400b420:	00000060 	0x60
5400b424:	00000060 	0x60
5400b428:	00000060 	0x60
5400b42c:	00000060 	0x60
5400b430:	00000060 	0x60
5400b434:	00000060 	0x60
5400b438:	00000061 	0x61
5400b43c:	00000061 	0x61
5400b440:	00000061 	0x61
5400b444:	00000061 	0x61
5400b448:	00000061 	0x61
5400b44c:	00000061 	0x61
5400b450:	00000061 	0x61
5400b454:	00000061 	0x61
5400b458:	00000061 	0x61
5400b45c:	00000061 	0x61
5400b460:	00000062 	0x62
5400b464:	00000062 	0x62
5400b468:	00000062 	0x62
5400b46c:	00000062 	0x62
5400b470:	00000062 	0x62
5400b474:	00000062 	0x62
5400b478:	00000062 	0x62
5400b47c:	00000062 	0x62
5400b480:	00000062 	0x62
5400b484:	00000063 	0x63
5400b488:	00000063 	0x63
5400b48c:	00000063 	0x63
5400b490:	00000063 	0x63
5400b494:	00000063 	0x63
5400b498:	00000063 	0x63
5400b49c:	00000063 	0x63
5400b4a0:	00000063 	0x63
5400b4a4:	00000063 	0x63
5400b4a8:	00000064 	0x64
5400b4ac:	00000064 	0x64
5400b4b0:	00000064 	0x64
5400b4b4:	00000064 	0x64
5400b4b8:	00000064 	0x64
5400b4bc:	00000064 	0x64
5400b4c0:	00000064 	0x64
5400b4c4:	00000064 	0x64
5400b4c8:	00000064 	0x64
5400b4cc:	00000064 	0x64
5400b4d0:	00000065 	0x65
5400b4d4:	00000065 	0x65
5400b4d8:	00000065 	0x65
5400b4dc:	00000065 	0x65
5400b4e0:	00000065 	0x65
5400b4e4:	00000065 	0x65
5400b4e8:	00000065 	0x65
5400b4ec:	00000065 	0x65
5400b4f0:	00000065 	0x65
5400b4f4:	00000066 	0x66
5400b4f8:	00000066 	0x66
5400b4fc:	00000066 	0x66
5400b500:	00000066 	0x66
5400b504:	00000066 	0x66
5400b508:	00000066 	0x66
5400b50c:	00000066 	0x66
5400b510:	00000066 	0x66
5400b514:	00000066 	0x66
5400b518:	00000066 	0x66
5400b51c:	00000067 	0x67
5400b520:	00000067 	0x67
5400b524:	00000067 	0x67
5400b528:	00000067 	0x67
5400b52c:	00000067 	0x67
5400b530:	00000067 	0x67
5400b534:	00000067 	0x67
5400b538:	00000067 	0x67
5400b53c:	00000067 	0x67
5400b540:	00000068 	0x68
5400b544:	00000068 	0x68
5400b548:	00000068 	0x68
5400b54c:	00000068 	0x68
5400b550:	00000068 	0x68
5400b554:	00000068 	0x68
5400b558:	00000068 	0x68
5400b55c:	00000068 	0x68
5400b560:	00000068 	0x68
5400b564:	00000068 	0x68
5400b568:	00000069 	0x69
5400b56c:	00000069 	0x69
5400b570:	00000069 	0x69
5400b574:	00000069 	0x69
5400b578:	00000069 	0x69
5400b57c:	00000069 	0x69
5400b580:	00000069 	0x69
5400b584:	00000069 	0x69
5400b588:	00000069 	0x69
5400b58c:	00000069 	0x69
5400b590:	0000006a 	0x6a
5400b594:	0000006a 	0x6a
5400b598:	0000006a 	0x6a
5400b59c:	0000006a 	0x6a
5400b5a0:	0000006a 	0x6a
5400b5a4:	0000006a 	0x6a
5400b5a8:	0000006a 	0x6a
5400b5ac:	0000006a 	0x6a
5400b5b0:	0000006a 	0x6a
5400b5b4:	0000006a 	0x6a
5400b5b8:	0000006b 	0x6b
5400b5bc:	0000006b 	0x6b
5400b5c0:	0000006b 	0x6b
5400b5c4:	0000006b 	0x6b
5400b5c8:	0000006b 	0x6b
5400b5cc:	0000006b 	0x6b
5400b5d0:	0000006b 	0x6b
5400b5d4:	0000006b 	0x6b
5400b5d8:	0000006b 	0x6b
5400b5dc:	0000006b 	0x6b
5400b5e0:	0000006c 	0x6c
5400b5e4:	0000006c 	0x6c
5400b5e8:	0000006c 	0x6c
5400b5ec:	0000006c 	0x6c
5400b5f0:	0000006c 	0x6c
5400b5f4:	0000006c 	0x6c
5400b5f8:	0000006c 	0x6c
5400b5fc:	0000006c 	0x6c
5400b600:	0000006c 	0x6c
5400b604:	0000006c 	0x6c
5400b608:	0000006d 	0x6d
5400b60c:	0000006d 	0x6d
5400b610:	0000006d 	0x6d
5400b614:	0000006d 	0x6d
5400b618:	0000006d 	0x6d
5400b61c:	0000006d 	0x6d
5400b620:	0000006d 	0x6d
5400b624:	0000006d 	0x6d
5400b628:	0000006d 	0x6d
5400b62c:	0000006d 	0x6d
5400b630:	0000006d 	0x6d
5400b634:	0000006e 	0x6e
5400b638:	0000006e 	0x6e
5400b63c:	0000006e 	0x6e
5400b640:	0000006e 	0x6e
5400b644:	0000006e 	0x6e
5400b648:	0000006e 	0x6e
5400b64c:	0000006e 	0x6e
5400b650:	0000006e 	0x6e
5400b654:	0000006e 	0x6e
5400b658:	0000006e 	0x6e
5400b65c:	0000006f 	0x6f
5400b660:	0000006f 	0x6f
5400b664:	0000006f 	0x6f
5400b668:	0000006f 	0x6f
5400b66c:	0000006f 	0x6f
5400b670:	0000006f 	0x6f
5400b674:	0000006f 	0x6f
5400b678:	0000006f 	0x6f
5400b67c:	0000006f 	0x6f
5400b680:	0000006f 	0x6f
5400b684:	00000070 	tge	zero,zero,0x1
5400b688:	00000070 	tge	zero,zero,0x1
5400b68c:	00000070 	tge	zero,zero,0x1
5400b690:	00000070 	tge	zero,zero,0x1
5400b694:	00000070 	tge	zero,zero,0x1
5400b698:	00000070 	tge	zero,zero,0x1
5400b69c:	00000070 	tge	zero,zero,0x1
5400b6a0:	00000070 	tge	zero,zero,0x1
5400b6a4:	00000070 	tge	zero,zero,0x1
5400b6a8:	00000070 	tge	zero,zero,0x1
5400b6ac:	00000070 	tge	zero,zero,0x1
5400b6b0:	00000071 	tgeu	zero,zero,0x1
5400b6b4:	00000071 	tgeu	zero,zero,0x1
5400b6b8:	00000071 	tgeu	zero,zero,0x1
5400b6bc:	00000071 	tgeu	zero,zero,0x1
5400b6c0:	00000071 	tgeu	zero,zero,0x1
5400b6c4:	00000071 	tgeu	zero,zero,0x1
5400b6c8:	00000071 	tgeu	zero,zero,0x1
5400b6cc:	00000071 	tgeu	zero,zero,0x1
5400b6d0:	00000071 	tgeu	zero,zero,0x1
5400b6d4:	00000071 	tgeu	zero,zero,0x1
5400b6d8:	00000071 	tgeu	zero,zero,0x1
5400b6dc:	00000072 	tlt	zero,zero,0x1
5400b6e0:	00000072 	tlt	zero,zero,0x1
5400b6e4:	00000072 	tlt	zero,zero,0x1
5400b6e8:	00000072 	tlt	zero,zero,0x1
5400b6ec:	00000072 	tlt	zero,zero,0x1
5400b6f0:	00000072 	tlt	zero,zero,0x1
5400b6f4:	00000072 	tlt	zero,zero,0x1
5400b6f8:	00000072 	tlt	zero,zero,0x1
5400b6fc:	00000072 	tlt	zero,zero,0x1
5400b700:	00000072 	tlt	zero,zero,0x1
5400b704:	00000073 	tltu	zero,zero,0x1
5400b708:	00000073 	tltu	zero,zero,0x1
5400b70c:	00000073 	tltu	zero,zero,0x1
5400b710:	00000073 	tltu	zero,zero,0x1
5400b714:	00000073 	tltu	zero,zero,0x1
5400b718:	00000073 	tltu	zero,zero,0x1
5400b71c:	00000073 	tltu	zero,zero,0x1
5400b720:	00000073 	tltu	zero,zero,0x1
5400b724:	00000073 	tltu	zero,zero,0x1
5400b728:	00000073 	tltu	zero,zero,0x1
5400b72c:	00000073 	tltu	zero,zero,0x1
5400b730:	00000074 	teq	zero,zero,0x1
5400b734:	00000074 	teq	zero,zero,0x1
5400b738:	00000074 	teq	zero,zero,0x1
5400b73c:	00000074 	teq	zero,zero,0x1
5400b740:	00000074 	teq	zero,zero,0x1
5400b744:	00000074 	teq	zero,zero,0x1
5400b748:	00000074 	teq	zero,zero,0x1
5400b74c:	00000074 	teq	zero,zero,0x1
5400b750:	00000074 	teq	zero,zero,0x1
5400b754:	00000074 	teq	zero,zero,0x1
5400b758:	00000074 	teq	zero,zero,0x1
5400b75c:	00000075 	0x75
5400b760:	00000075 	0x75
5400b764:	00000075 	0x75
5400b768:	00000075 	0x75
5400b76c:	00000075 	0x75
5400b770:	00000075 	0x75
5400b774:	00000075 	0x75
5400b778:	00000075 	0x75
5400b77c:	00000075 	0x75
5400b780:	00000075 	0x75
5400b784:	00000075 	0x75
5400b788:	00000076 	tne	zero,zero,0x1
5400b78c:	00000076 	tne	zero,zero,0x1
5400b790:	00000076 	tne	zero,zero,0x1
5400b794:	00000076 	tne	zero,zero,0x1
5400b798:	00000076 	tne	zero,zero,0x1
5400b79c:	00000076 	tne	zero,zero,0x1
5400b7a0:	00000076 	tne	zero,zero,0x1
5400b7a4:	00000076 	tne	zero,zero,0x1
5400b7a8:	00000076 	tne	zero,zero,0x1
5400b7ac:	00000076 	tne	zero,zero,0x1
5400b7b0:	00000076 	tne	zero,zero,0x1
5400b7b4:	00000076 	tne	zero,zero,0x1
5400b7b8:	00000077 	0x77
5400b7bc:	00000077 	0x77
5400b7c0:	00000077 	0x77
5400b7c4:	00000077 	0x77
5400b7c8:	00000077 	0x77
5400b7cc:	00000077 	0x77
5400b7d0:	00000077 	0x77
5400b7d4:	00000077 	0x77
5400b7d8:	00000077 	0x77
5400b7dc:	00000077 	0x77
5400b7e0:	00000077 	0x77
5400b7e4:	00000078 	0x78
5400b7e8:	00000078 	0x78
5400b7ec:	00000078 	0x78
5400b7f0:	00000078 	0x78
5400b7f4:	00000078 	0x78
5400b7f8:	00000078 	0x78
5400b7fc:	00000078 	0x78
5400b800:	00000078 	0x78
5400b804:	00000078 	0x78
5400b808:	00000078 	0x78
5400b80c:	00000078 	0x78
5400b810:	00000078 	0x78
5400b814:	00000079 	0x79
5400b818:	00000079 	0x79
5400b81c:	00000079 	0x79
5400b820:	00000079 	0x79
5400b824:	00000079 	0x79
5400b828:	00000079 	0x79
5400b82c:	00000079 	0x79
5400b830:	00000079 	0x79
5400b834:	00000079 	0x79
5400b838:	00000079 	0x79
5400b83c:	00000079 	0x79
5400b840:	0000007a 	0x7a
5400b844:	0000007a 	0x7a
5400b848:	0000007a 	0x7a
5400b84c:	0000007a 	0x7a
5400b850:	0000007a 	0x7a
5400b854:	0000007a 	0x7a
5400b858:	0000007a 	0x7a
5400b85c:	0000007a 	0x7a
5400b860:	0000007a 	0x7a
5400b864:	0000007a 	0x7a
5400b868:	0000007a 	0x7a
5400b86c:	0000007a 	0x7a
5400b870:	0000007b 	0x7b
5400b874:	0000007b 	0x7b
5400b878:	0000007b 	0x7b
5400b87c:	0000007b 	0x7b
5400b880:	0000007b 	0x7b
5400b884:	0000007b 	0x7b
5400b888:	0000007b 	0x7b
5400b88c:	0000007b 	0x7b
5400b890:	0000007b 	0x7b
5400b894:	0000007b 	0x7b
5400b898:	0000007b 	0x7b
5400b89c:	0000007b 	0x7b
5400b8a0:	0000007c 	0x7c
5400b8a4:	0000007c 	0x7c
5400b8a8:	0000007c 	0x7c
5400b8ac:	0000007c 	0x7c
5400b8b0:	0000007c 	0x7c
5400b8b4:	0000007c 	0x7c
5400b8b8:	0000007c 	0x7c
5400b8bc:	0000007c 	0x7c
5400b8c0:	0000007c 	0x7c
5400b8c4:	0000007c 	0x7c
5400b8c8:	0000007c 	0x7c
5400b8cc:	0000007c 	0x7c
5400b8d0:	0000007d 	0x7d
5400b8d4:	0000007d 	0x7d
5400b8d8:	0000007d 	0x7d
5400b8dc:	0000007d 	0x7d
5400b8e0:	0000007d 	0x7d
5400b8e4:	0000007d 	0x7d
5400b8e8:	0000007d 	0x7d
5400b8ec:	0000007d 	0x7d
5400b8f0:	0000007d 	0x7d
5400b8f4:	0000007d 	0x7d
5400b8f8:	0000007d 	0x7d
5400b8fc:	0000007d 	0x7d
5400b900:	0000007e 	0x7e
5400b904:	0000007e 	0x7e
5400b908:	0000007e 	0x7e
5400b90c:	0000007e 	0x7e
5400b910:	0000007e 	0x7e
5400b914:	0000007e 	0x7e
5400b918:	0000007e 	0x7e
5400b91c:	0000007e 	0x7e
5400b920:	0000007e 	0x7e
5400b924:	0000007e 	0x7e
5400b928:	0000007e 	0x7e
5400b92c:	0000007e 	0x7e
5400b930:	0000007e 	0x7e
5400b934:	0000007f 	0x7f
5400b938:	0000007f 	0x7f
5400b93c:	0000007f 	0x7f
5400b940:	0000007f 	0x7f
5400b944:	0000007f 	0x7f
5400b948:	0000007f 	0x7f
5400b94c:	0000007f 	0x7f
5400b950:	0000007f 	0x7f
5400b954:	0000007f 	0x7f
5400b958:	0000007f 	0x7f
5400b95c:	0000007f 	0x7f
5400b960:	0000007f 	0x7f

5400b964 <arctanTable1>:
5400b964:	ffffffff 	sdc3	$31,-1(ra)
5400b968:	ffffffff 	sdc3	$31,-1(ra)
5400b96c:	ffffffff 	sdc3	$31,-1(ra)
5400b970:	ffffffff 	sdc3	$31,-1(ra)
5400b974:	ffffffff 	sdc3	$31,-1(ra)
5400b978:	ffffffff 	sdc3	$31,-1(ra)
5400b97c:	fffffffe 	sdc3	$31,-2(ra)
5400b980:	fffffffe 	sdc3	$31,-2(ra)
5400b984:	fffffffe 	sdc3	$31,-2(ra)
5400b988:	fffffffe 	sdc3	$31,-2(ra)
5400b98c:	fffffffe 	sdc3	$31,-2(ra)
5400b990:	fffffffe 	sdc3	$31,-2(ra)
5400b994:	fffffffe 	sdc3	$31,-2(ra)
5400b998:	fffffffd 	sdc3	$31,-3(ra)
5400b99c:	fffffffd 	sdc3	$31,-3(ra)
5400b9a0:	fffffffd 	sdc3	$31,-3(ra)
5400b9a4:	fffffffd 	sdc3	$31,-3(ra)
5400b9a8:	fffffffd 	sdc3	$31,-3(ra)
5400b9ac:	fffffffd 	sdc3	$31,-3(ra)
5400b9b0:	fffffffc 	sdc3	$31,-4(ra)
5400b9b4:	fffffffc 	sdc3	$31,-4(ra)
5400b9b8:	fffffffc 	sdc3	$31,-4(ra)
5400b9bc:	fffffffc 	sdc3	$31,-4(ra)
5400b9c0:	fffffffc 	sdc3	$31,-4(ra)
5400b9c4:	fffffffc 	sdc3	$31,-4(ra)
5400b9c8:	fffffffb 	sdc3	$31,-5(ra)
5400b9cc:	fffffffb 	sdc3	$31,-5(ra)
5400b9d0:	fffffffb 	sdc3	$31,-5(ra)
5400b9d4:	fffffffb 	sdc3	$31,-5(ra)
5400b9d8:	fffffffb 	sdc3	$31,-5(ra)
5400b9dc:	fffffffb 	sdc3	$31,-5(ra)
5400b9e0:	fffffffa 	sdc3	$31,-6(ra)
5400b9e4:	fffffffa 	sdc3	$31,-6(ra)
5400b9e8:	fffffffa 	sdc3	$31,-6(ra)
5400b9ec:	fffffffa 	sdc3	$31,-6(ra)
5400b9f0:	fffffffa 	sdc3	$31,-6(ra)
5400b9f4:	fffffffa 	sdc3	$31,-6(ra)
5400b9f8:	fffffffa 	sdc3	$31,-6(ra)
5400b9fc:	fffffff9 	sdc3	$31,-7(ra)
5400ba00:	fffffff9 	sdc3	$31,-7(ra)
5400ba04:	fffffff9 	sdc3	$31,-7(ra)
5400ba08:	fffffff9 	sdc3	$31,-7(ra)
5400ba0c:	fffffff9 	sdc3	$31,-7(ra)
5400ba10:	fffffff9 	sdc3	$31,-7(ra)
5400ba14:	fffffff8 	sdc3	$31,-8(ra)
5400ba18:	fffffff8 	sdc3	$31,-8(ra)
5400ba1c:	fffffff8 	sdc3	$31,-8(ra)
5400ba20:	fffffff8 	sdc3	$31,-8(ra)
5400ba24:	fffffff8 	sdc3	$31,-8(ra)
5400ba28:	fffffff8 	sdc3	$31,-8(ra)
5400ba2c:	fffffff7 	sdc3	$31,-9(ra)
5400ba30:	fffffff7 	sdc3	$31,-9(ra)
5400ba34:	fffffff7 	sdc3	$31,-9(ra)
5400ba38:	fffffff7 	sdc3	$31,-9(ra)
5400ba3c:	fffffff7 	sdc3	$31,-9(ra)
5400ba40:	fffffff7 	sdc3	$31,-9(ra)
5400ba44:	fffffff7 	sdc3	$31,-9(ra)
5400ba48:	fffffff6 	sdc3	$31,-10(ra)
5400ba4c:	fffffff6 	sdc3	$31,-10(ra)
5400ba50:	fffffff6 	sdc3	$31,-10(ra)
5400ba54:	fffffff6 	sdc3	$31,-10(ra)
5400ba58:	fffffff6 	sdc3	$31,-10(ra)
5400ba5c:	fffffff6 	sdc3	$31,-10(ra)
5400ba60:	fffffff5 	sdc3	$31,-11(ra)
5400ba64:	fffffff5 	sdc3	$31,-11(ra)
5400ba68:	fffffff5 	sdc3	$31,-11(ra)
5400ba6c:	fffffff5 	sdc3	$31,-11(ra)
5400ba70:	fffffff5 	sdc3	$31,-11(ra)
5400ba74:	fffffff5 	sdc3	$31,-11(ra)
5400ba78:	fffffff4 	sdc3	$31,-12(ra)
5400ba7c:	fffffff4 	sdc3	$31,-12(ra)
5400ba80:	fffffff4 	sdc3	$31,-12(ra)
5400ba84:	fffffff4 	sdc3	$31,-12(ra)
5400ba88:	fffffff4 	sdc3	$31,-12(ra)
5400ba8c:	fffffff4 	sdc3	$31,-12(ra)
5400ba90:	fffffff4 	sdc3	$31,-12(ra)
5400ba94:	fffffff3 	sdc3	$31,-13(ra)
5400ba98:	fffffff3 	sdc3	$31,-13(ra)
5400ba9c:	fffffff3 	sdc3	$31,-13(ra)
5400baa0:	fffffff3 	sdc3	$31,-13(ra)
5400baa4:	fffffff3 	sdc3	$31,-13(ra)
5400baa8:	fffffff3 	sdc3	$31,-13(ra)
5400baac:	fffffff2 	sdc3	$31,-14(ra)
5400bab0:	fffffff2 	sdc3	$31,-14(ra)
5400bab4:	fffffff2 	sdc3	$31,-14(ra)
5400bab8:	fffffff2 	sdc3	$31,-14(ra)
5400babc:	fffffff2 	sdc3	$31,-14(ra)
5400bac0:	fffffff2 	sdc3	$31,-14(ra)
5400bac4:	fffffff1 	sdc3	$31,-15(ra)
5400bac8:	fffffff1 	sdc3	$31,-15(ra)
5400bacc:	fffffff1 	sdc3	$31,-15(ra)
5400bad0:	fffffff1 	sdc3	$31,-15(ra)
5400bad4:	fffffff1 	sdc3	$31,-15(ra)
5400bad8:	fffffff1 	sdc3	$31,-15(ra)
5400badc:	fffffff1 	sdc3	$31,-15(ra)
5400bae0:	fffffff0 	sdc3	$31,-16(ra)
5400bae4:	fffffff0 	sdc3	$31,-16(ra)
5400bae8:	fffffff0 	sdc3	$31,-16(ra)
5400baec:	fffffff0 	sdc3	$31,-16(ra)
5400baf0:	fffffff0 	sdc3	$31,-16(ra)
5400baf4:	fffffff0 	sdc3	$31,-16(ra)
5400baf8:	ffffffef 	sdc3	$31,-17(ra)
5400bafc:	ffffffef 	sdc3	$31,-17(ra)
5400bb00:	ffffffef 	sdc3	$31,-17(ra)
5400bb04:	ffffffef 	sdc3	$31,-17(ra)
5400bb08:	ffffffef 	sdc3	$31,-17(ra)
5400bb0c:	ffffffef 	sdc3	$31,-17(ra)
5400bb10:	ffffffee 	sdc3	$31,-18(ra)
5400bb14:	ffffffee 	sdc3	$31,-18(ra)
5400bb18:	ffffffee 	sdc3	$31,-18(ra)
5400bb1c:	ffffffee 	sdc3	$31,-18(ra)
5400bb20:	ffffffee 	sdc3	$31,-18(ra)
5400bb24:	ffffffee 	sdc3	$31,-18(ra)
5400bb28:	ffffffee 	sdc3	$31,-18(ra)
5400bb2c:	ffffffed 	sdc3	$31,-19(ra)
5400bb30:	ffffffed 	sdc3	$31,-19(ra)
5400bb34:	ffffffed 	sdc3	$31,-19(ra)
5400bb38:	ffffffed 	sdc3	$31,-19(ra)
5400bb3c:	ffffffed 	sdc3	$31,-19(ra)
5400bb40:	ffffffed 	sdc3	$31,-19(ra)
5400bb44:	ffffffec 	sdc3	$31,-20(ra)
5400bb48:	ffffffec 	sdc3	$31,-20(ra)
5400bb4c:	ffffffec 	sdc3	$31,-20(ra)
5400bb50:	ffffffec 	sdc3	$31,-20(ra)
5400bb54:	ffffffec 	sdc3	$31,-20(ra)
5400bb58:	ffffffec 	sdc3	$31,-20(ra)
5400bb5c:	ffffffeb 	sdc3	$31,-21(ra)
5400bb60:	ffffffeb 	sdc3	$31,-21(ra)
5400bb64:	ffffffeb 	sdc3	$31,-21(ra)
5400bb68:	ffffffeb 	sdc3	$31,-21(ra)
5400bb6c:	ffffffeb 	sdc3	$31,-21(ra)
5400bb70:	ffffffeb 	sdc3	$31,-21(ra)
5400bb74:	ffffffeb 	sdc3	$31,-21(ra)
5400bb78:	ffffffea 	sdc3	$31,-22(ra)
5400bb7c:	ffffffea 	sdc3	$31,-22(ra)
5400bb80:	ffffffea 	sdc3	$31,-22(ra)
5400bb84:	ffffffea 	sdc3	$31,-22(ra)
5400bb88:	ffffffea 	sdc3	$31,-22(ra)
5400bb8c:	ffffffea 	sdc3	$31,-22(ra)
5400bb90:	ffffffe9 	sdc3	$31,-23(ra)
5400bb94:	ffffffe9 	sdc3	$31,-23(ra)
5400bb98:	ffffffe9 	sdc3	$31,-23(ra)
5400bb9c:	ffffffe9 	sdc3	$31,-23(ra)
5400bba0:	ffffffe9 	sdc3	$31,-23(ra)
5400bba4:	ffffffe9 	sdc3	$31,-23(ra)
5400bba8:	ffffffe8 	sdc3	$31,-24(ra)
5400bbac:	ffffffe8 	sdc3	$31,-24(ra)
5400bbb0:	ffffffe8 	sdc3	$31,-24(ra)
5400bbb4:	ffffffe8 	sdc3	$31,-24(ra)
5400bbb8:	ffffffe8 	sdc3	$31,-24(ra)
5400bbbc:	ffffffe8 	sdc3	$31,-24(ra)
5400bbc0:	ffffffe8 	sdc3	$31,-24(ra)
5400bbc4:	ffffffe7 	sdc3	$31,-25(ra)
5400bbc8:	ffffffe7 	sdc3	$31,-25(ra)
5400bbcc:	ffffffe7 	sdc3	$31,-25(ra)
5400bbd0:	ffffffe7 	sdc3	$31,-25(ra)
5400bbd4:	ffffffe7 	sdc3	$31,-25(ra)
5400bbd8:	ffffffe7 	sdc3	$31,-25(ra)
5400bbdc:	ffffffe6 	sdc3	$31,-26(ra)
5400bbe0:	ffffffe6 	sdc3	$31,-26(ra)
5400bbe4:	ffffffe6 	sdc3	$31,-26(ra)
5400bbe8:	ffffffe6 	sdc3	$31,-26(ra)
5400bbec:	ffffffe6 	sdc3	$31,-26(ra)
5400bbf0:	ffffffe6 	sdc3	$31,-26(ra)
5400bbf4:	ffffffe6 	sdc3	$31,-26(ra)
5400bbf8:	ffffffe5 	sdc3	$31,-27(ra)
5400bbfc:	ffffffe5 	sdc3	$31,-27(ra)
5400bc00:	ffffffe5 	sdc3	$31,-27(ra)
5400bc04:	ffffffe5 	sdc3	$31,-27(ra)
5400bc08:	ffffffe5 	sdc3	$31,-27(ra)
5400bc0c:	ffffffe5 	sdc3	$31,-27(ra)
5400bc10:	ffffffe4 	sdc3	$31,-28(ra)
5400bc14:	ffffffe4 	sdc3	$31,-28(ra)
5400bc18:	ffffffe4 	sdc3	$31,-28(ra)
5400bc1c:	ffffffe4 	sdc3	$31,-28(ra)
5400bc20:	ffffffe4 	sdc3	$31,-28(ra)
5400bc24:	ffffffe4 	sdc3	$31,-28(ra)
5400bc28:	ffffffe4 	sdc3	$31,-28(ra)
5400bc2c:	ffffffe3 	sdc3	$31,-29(ra)
5400bc30:	ffffffe3 	sdc3	$31,-29(ra)
5400bc34:	ffffffe3 	sdc3	$31,-29(ra)
5400bc38:	ffffffe3 	sdc3	$31,-29(ra)
5400bc3c:	ffffffe3 	sdc3	$31,-29(ra)
5400bc40:	ffffffe3 	sdc3	$31,-29(ra)
5400bc44:	ffffffe2 	sdc3	$31,-30(ra)
5400bc48:	ffffffe2 	sdc3	$31,-30(ra)
5400bc4c:	ffffffe2 	sdc3	$31,-30(ra)
5400bc50:	ffffffe2 	sdc3	$31,-30(ra)
5400bc54:	ffffffe2 	sdc3	$31,-30(ra)
5400bc58:	ffffffe2 	sdc3	$31,-30(ra)
5400bc5c:	ffffffe2 	sdc3	$31,-30(ra)
5400bc60:	ffffffe1 	sdc3	$31,-31(ra)
5400bc64:	ffffffe1 	sdc3	$31,-31(ra)
5400bc68:	ffffffe1 	sdc3	$31,-31(ra)
5400bc6c:	ffffffe1 	sdc3	$31,-31(ra)
5400bc70:	ffffffe1 	sdc3	$31,-31(ra)
5400bc74:	ffffffe1 	sdc3	$31,-31(ra)
5400bc78:	ffffffe0 	sdc3	$31,-32(ra)
5400bc7c:	ffffffe0 	sdc3	$31,-32(ra)
5400bc80:	ffffffe0 	sdc3	$31,-32(ra)
5400bc84:	ffffffe0 	sdc3	$31,-32(ra)
5400bc88:	ffffffe0 	sdc3	$31,-32(ra)
5400bc8c:	ffffffe0 	sdc3	$31,-32(ra)
5400bc90:	ffffffe0 	sdc3	$31,-32(ra)
5400bc94:	ffffffdf 	sdc3	$31,-33(ra)
5400bc98:	ffffffdf 	sdc3	$31,-33(ra)
5400bc9c:	ffffffdf 	sdc3	$31,-33(ra)
5400bca0:	ffffffdf 	sdc3	$31,-33(ra)
5400bca4:	ffffffdf 	sdc3	$31,-33(ra)
5400bca8:	ffffffdf 	sdc3	$31,-33(ra)
5400bcac:	ffffffde 	sdc3	$31,-34(ra)
5400bcb0:	ffffffde 	sdc3	$31,-34(ra)
5400bcb4:	ffffffde 	sdc3	$31,-34(ra)
5400bcb8:	ffffffde 	sdc3	$31,-34(ra)
5400bcbc:	ffffffde 	sdc3	$31,-34(ra)
5400bcc0:	ffffffde 	sdc3	$31,-34(ra)
5400bcc4:	ffffffde 	sdc3	$31,-34(ra)
5400bcc8:	ffffffdd 	sdc3	$31,-35(ra)
5400bccc:	ffffffdd 	sdc3	$31,-35(ra)
5400bcd0:	ffffffdd 	sdc3	$31,-35(ra)
5400bcd4:	ffffffdd 	sdc3	$31,-35(ra)
5400bcd8:	ffffffdd 	sdc3	$31,-35(ra)
5400bcdc:	ffffffdd 	sdc3	$31,-35(ra)
5400bce0:	ffffffdc 	sdc3	$31,-36(ra)
5400bce4:	ffffffdc 	sdc3	$31,-36(ra)
5400bce8:	ffffffdc 	sdc3	$31,-36(ra)
5400bcec:	ffffffdc 	sdc3	$31,-36(ra)
5400bcf0:	ffffffdc 	sdc3	$31,-36(ra)
5400bcf4:	ffffffdc 	sdc3	$31,-36(ra)
5400bcf8:	ffffffdc 	sdc3	$31,-36(ra)
5400bcfc:	ffffffdb 	sdc3	$31,-37(ra)
5400bd00:	ffffffdb 	sdc3	$31,-37(ra)
5400bd04:	ffffffdb 	sdc3	$31,-37(ra)
5400bd08:	ffffffdb 	sdc3	$31,-37(ra)
5400bd0c:	ffffffdb 	sdc3	$31,-37(ra)
5400bd10:	ffffffdb 	sdc3	$31,-37(ra)
5400bd14:	ffffffdb 	sdc3	$31,-37(ra)
5400bd18:	ffffffda 	sdc3	$31,-38(ra)
5400bd1c:	ffffffda 	sdc3	$31,-38(ra)
5400bd20:	ffffffda 	sdc3	$31,-38(ra)
5400bd24:	ffffffda 	sdc3	$31,-38(ra)
5400bd28:	ffffffda 	sdc3	$31,-38(ra)
5400bd2c:	ffffffda 	sdc3	$31,-38(ra)
5400bd30:	ffffffd9 	sdc3	$31,-39(ra)
5400bd34:	ffffffd9 	sdc3	$31,-39(ra)
5400bd38:	ffffffd9 	sdc3	$31,-39(ra)
5400bd3c:	ffffffd9 	sdc3	$31,-39(ra)
5400bd40:	ffffffd9 	sdc3	$31,-39(ra)
5400bd44:	ffffffd9 	sdc3	$31,-39(ra)
5400bd48:	ffffffd9 	sdc3	$31,-39(ra)
5400bd4c:	ffffffd8 	sdc3	$31,-40(ra)
5400bd50:	ffffffd8 	sdc3	$31,-40(ra)
5400bd54:	ffffffd8 	sdc3	$31,-40(ra)
5400bd58:	ffffffd8 	sdc3	$31,-40(ra)
5400bd5c:	ffffffd8 	sdc3	$31,-40(ra)
5400bd60:	ffffffd8 	sdc3	$31,-40(ra)
5400bd64:	ffffffd7 	sdc3	$31,-41(ra)
5400bd68:	ffffffd7 	sdc3	$31,-41(ra)
5400bd6c:	ffffffd7 	sdc3	$31,-41(ra)
5400bd70:	ffffffd7 	sdc3	$31,-41(ra)
5400bd74:	ffffffd7 	sdc3	$31,-41(ra)
5400bd78:	ffffffd7 	sdc3	$31,-41(ra)
5400bd7c:	ffffffd7 	sdc3	$31,-41(ra)
5400bd80:	ffffffd6 	sdc3	$31,-42(ra)
5400bd84:	ffffffd6 	sdc3	$31,-42(ra)
5400bd88:	ffffffd6 	sdc3	$31,-42(ra)
5400bd8c:	ffffffd6 	sdc3	$31,-42(ra)
5400bd90:	ffffffd6 	sdc3	$31,-42(ra)
5400bd94:	ffffffd6 	sdc3	$31,-42(ra)
5400bd98:	ffffffd6 	sdc3	$31,-42(ra)
5400bd9c:	ffffffd5 	sdc3	$31,-43(ra)
5400bda0:	ffffffd5 	sdc3	$31,-43(ra)
5400bda4:	ffffffd5 	sdc3	$31,-43(ra)
5400bda8:	ffffffd5 	sdc3	$31,-43(ra)
5400bdac:	ffffffd5 	sdc3	$31,-43(ra)
5400bdb0:	ffffffd5 	sdc3	$31,-43(ra)
5400bdb4:	ffffffd5 	sdc3	$31,-43(ra)
5400bdb8:	ffffffd4 	sdc3	$31,-44(ra)
5400bdbc:	ffffffd4 	sdc3	$31,-44(ra)
5400bdc0:	ffffffd4 	sdc3	$31,-44(ra)
5400bdc4:	ffffffd4 	sdc3	$31,-44(ra)
5400bdc8:	ffffffd4 	sdc3	$31,-44(ra)
5400bdcc:	ffffffd4 	sdc3	$31,-44(ra)
5400bdd0:	ffffffd3 	sdc3	$31,-45(ra)
5400bdd4:	ffffffd3 	sdc3	$31,-45(ra)
5400bdd8:	ffffffd3 	sdc3	$31,-45(ra)
5400bddc:	ffffffd3 	sdc3	$31,-45(ra)
5400bde0:	ffffffd3 	sdc3	$31,-45(ra)
5400bde4:	ffffffd3 	sdc3	$31,-45(ra)
5400bde8:	ffffffd3 	sdc3	$31,-45(ra)
5400bdec:	ffffffd2 	sdc3	$31,-46(ra)
5400bdf0:	ffffffd2 	sdc3	$31,-46(ra)
5400bdf4:	ffffffd2 	sdc3	$31,-46(ra)
5400bdf8:	ffffffd2 	sdc3	$31,-46(ra)
5400bdfc:	ffffffd2 	sdc3	$31,-46(ra)
5400be00:	ffffffd2 	sdc3	$31,-46(ra)
5400be04:	ffffffd2 	sdc3	$31,-46(ra)
5400be08:	ffffffd1 	sdc3	$31,-47(ra)
5400be0c:	ffffffd1 	sdc3	$31,-47(ra)
5400be10:	ffffffd1 	sdc3	$31,-47(ra)
5400be14:	ffffffd1 	sdc3	$31,-47(ra)
5400be18:	ffffffd1 	sdc3	$31,-47(ra)
5400be1c:	ffffffd1 	sdc3	$31,-47(ra)
5400be20:	ffffffd1 	sdc3	$31,-47(ra)
5400be24:	ffffffd0 	sdc3	$31,-48(ra)
5400be28:	ffffffd0 	sdc3	$31,-48(ra)
5400be2c:	ffffffd0 	sdc3	$31,-48(ra)
5400be30:	ffffffd0 	sdc3	$31,-48(ra)
5400be34:	ffffffd0 	sdc3	$31,-48(ra)
5400be38:	ffffffd0 	sdc3	$31,-48(ra)
5400be3c:	ffffffd0 	sdc3	$31,-48(ra)
5400be40:	ffffffcf 	sdc3	$31,-49(ra)
5400be44:	ffffffcf 	sdc3	$31,-49(ra)
5400be48:	ffffffcf 	sdc3	$31,-49(ra)
5400be4c:	ffffffcf 	sdc3	$31,-49(ra)
5400be50:	ffffffcf 	sdc3	$31,-49(ra)
5400be54:	ffffffcf 	sdc3	$31,-49(ra)
5400be58:	ffffffcf 	sdc3	$31,-49(ra)
5400be5c:	ffffffce 	sdc3	$31,-50(ra)
5400be60:	ffffffce 	sdc3	$31,-50(ra)
5400be64:	ffffffce 	sdc3	$31,-50(ra)
5400be68:	ffffffce 	sdc3	$31,-50(ra)
5400be6c:	ffffffce 	sdc3	$31,-50(ra)
5400be70:	ffffffce 	sdc3	$31,-50(ra)
5400be74:	ffffffcd 	sdc3	$31,-51(ra)
5400be78:	ffffffcd 	sdc3	$31,-51(ra)
5400be7c:	ffffffcd 	sdc3	$31,-51(ra)
5400be80:	ffffffcd 	sdc3	$31,-51(ra)
5400be84:	ffffffcd 	sdc3	$31,-51(ra)
5400be88:	ffffffcd 	sdc3	$31,-51(ra)
5400be8c:	ffffffcd 	sdc3	$31,-51(ra)
5400be90:	ffffffcc 	sdc3	$31,-52(ra)
5400be94:	ffffffcc 	sdc3	$31,-52(ra)
5400be98:	ffffffcc 	sdc3	$31,-52(ra)
5400be9c:	ffffffcc 	sdc3	$31,-52(ra)
5400bea0:	ffffffcc 	sdc3	$31,-52(ra)
5400bea4:	ffffffcc 	sdc3	$31,-52(ra)
5400bea8:	ffffffcc 	sdc3	$31,-52(ra)
5400beac:	ffffffcb 	sdc3	$31,-53(ra)
5400beb0:	ffffffcb 	sdc3	$31,-53(ra)
5400beb4:	ffffffcb 	sdc3	$31,-53(ra)
5400beb8:	ffffffcb 	sdc3	$31,-53(ra)
5400bebc:	ffffffcb 	sdc3	$31,-53(ra)
5400bec0:	ffffffcb 	sdc3	$31,-53(ra)
5400bec4:	ffffffcb 	sdc3	$31,-53(ra)
5400bec8:	ffffffca 	sdc3	$31,-54(ra)
5400becc:	ffffffca 	sdc3	$31,-54(ra)
5400bed0:	ffffffca 	sdc3	$31,-54(ra)
5400bed4:	ffffffca 	sdc3	$31,-54(ra)
5400bed8:	ffffffca 	sdc3	$31,-54(ra)
5400bedc:	ffffffca 	sdc3	$31,-54(ra)
5400bee0:	ffffffca 	sdc3	$31,-54(ra)
5400bee4:	ffffffc9 	sdc3	$31,-55(ra)
5400bee8:	ffffffc9 	sdc3	$31,-55(ra)
5400beec:	ffffffc9 	sdc3	$31,-55(ra)
5400bef0:	ffffffc9 	sdc3	$31,-55(ra)
5400bef4:	ffffffc9 	sdc3	$31,-55(ra)
5400bef8:	ffffffc9 	sdc3	$31,-55(ra)
5400befc:	ffffffc9 	sdc3	$31,-55(ra)
5400bf00:	ffffffc8 	sdc3	$31,-56(ra)
5400bf04:	ffffffc8 	sdc3	$31,-56(ra)
5400bf08:	ffffffc8 	sdc3	$31,-56(ra)
5400bf0c:	ffffffc8 	sdc3	$31,-56(ra)
5400bf10:	ffffffc8 	sdc3	$31,-56(ra)
5400bf14:	ffffffc8 	sdc3	$31,-56(ra)
5400bf18:	ffffffc8 	sdc3	$31,-56(ra)
5400bf1c:	ffffffc7 	sdc3	$31,-57(ra)
5400bf20:	ffffffc7 	sdc3	$31,-57(ra)
5400bf24:	ffffffc7 	sdc3	$31,-57(ra)
5400bf28:	ffffffc7 	sdc3	$31,-57(ra)
5400bf2c:	ffffffc7 	sdc3	$31,-57(ra)
5400bf30:	ffffffc7 	sdc3	$31,-57(ra)
5400bf34:	ffffffc7 	sdc3	$31,-57(ra)
5400bf38:	ffffffc6 	sdc3	$31,-58(ra)
5400bf3c:	ffffffc6 	sdc3	$31,-58(ra)
5400bf40:	ffffffc6 	sdc3	$31,-58(ra)
5400bf44:	ffffffc6 	sdc3	$31,-58(ra)
5400bf48:	ffffffc6 	sdc3	$31,-58(ra)
5400bf4c:	ffffffc6 	sdc3	$31,-58(ra)
5400bf50:	ffffffc6 	sdc3	$31,-58(ra)
5400bf54:	ffffffc6 	sdc3	$31,-58(ra)
5400bf58:	ffffffc5 	sdc3	$31,-59(ra)
5400bf5c:	ffffffc5 	sdc3	$31,-59(ra)
5400bf60:	ffffffc5 	sdc3	$31,-59(ra)
5400bf64:	ffffffc5 	sdc3	$31,-59(ra)
5400bf68:	ffffffc5 	sdc3	$31,-59(ra)
5400bf6c:	ffffffc5 	sdc3	$31,-59(ra)
5400bf70:	ffffffc5 	sdc3	$31,-59(ra)
5400bf74:	ffffffc4 	sdc3	$31,-60(ra)
5400bf78:	ffffffc4 	sdc3	$31,-60(ra)
5400bf7c:	ffffffc4 	sdc3	$31,-60(ra)
5400bf80:	ffffffc4 	sdc3	$31,-60(ra)
5400bf84:	ffffffc4 	sdc3	$31,-60(ra)
5400bf88:	ffffffc4 	sdc3	$31,-60(ra)
5400bf8c:	ffffffc4 	sdc3	$31,-60(ra)
5400bf90:	ffffffc3 	sdc3	$31,-61(ra)
5400bf94:	ffffffc3 	sdc3	$31,-61(ra)
5400bf98:	ffffffc3 	sdc3	$31,-61(ra)
5400bf9c:	ffffffc3 	sdc3	$31,-61(ra)
5400bfa0:	ffffffc3 	sdc3	$31,-61(ra)
5400bfa4:	ffffffc3 	sdc3	$31,-61(ra)
5400bfa8:	ffffffc3 	sdc3	$31,-61(ra)
5400bfac:	ffffffc2 	sdc3	$31,-62(ra)
5400bfb0:	ffffffc2 	sdc3	$31,-62(ra)
5400bfb4:	ffffffc2 	sdc3	$31,-62(ra)
5400bfb8:	ffffffc2 	sdc3	$31,-62(ra)
5400bfbc:	ffffffc2 	sdc3	$31,-62(ra)
5400bfc0:	ffffffc2 	sdc3	$31,-62(ra)
5400bfc4:	ffffffc2 	sdc3	$31,-62(ra)
5400bfc8:	ffffffc2 	sdc3	$31,-62(ra)
5400bfcc:	ffffffc1 	sdc3	$31,-63(ra)
5400bfd0:	ffffffc1 	sdc3	$31,-63(ra)
5400bfd4:	ffffffc1 	sdc3	$31,-63(ra)
5400bfd8:	ffffffc1 	sdc3	$31,-63(ra)
5400bfdc:	ffffffc1 	sdc3	$31,-63(ra)
5400bfe0:	ffffffc1 	sdc3	$31,-63(ra)
5400bfe4:	ffffffc1 	sdc3	$31,-63(ra)
5400bfe8:	ffffffc0 	sdc3	$31,-64(ra)
5400bfec:	ffffffc0 	sdc3	$31,-64(ra)
5400bff0:	ffffffc0 	sdc3	$31,-64(ra)
5400bff4:	ffffffc0 	sdc3	$31,-64(ra)
5400bff8:	ffffffc0 	sdc3	$31,-64(ra)
5400bffc:	ffffffc0 	sdc3	$31,-64(ra)
5400c000:	ffffffc0 	sdc3	$31,-64(ra)
5400c004:	ffffffbf 	sdc3	$31,-65(ra)
5400c008:	ffffffbf 	sdc3	$31,-65(ra)
5400c00c:	ffffffbf 	sdc3	$31,-65(ra)
5400c010:	ffffffbf 	sdc3	$31,-65(ra)
5400c014:	ffffffbf 	sdc3	$31,-65(ra)
5400c018:	ffffffbf 	sdc3	$31,-65(ra)
5400c01c:	ffffffbf 	sdc3	$31,-65(ra)
5400c020:	ffffffbf 	sdc3	$31,-65(ra)
5400c024:	ffffffbe 	sdc3	$31,-66(ra)
5400c028:	ffffffbe 	sdc3	$31,-66(ra)
5400c02c:	ffffffbe 	sdc3	$31,-66(ra)
5400c030:	ffffffbe 	sdc3	$31,-66(ra)
5400c034:	ffffffbe 	sdc3	$31,-66(ra)
5400c038:	ffffffbe 	sdc3	$31,-66(ra)
5400c03c:	ffffffbe 	sdc3	$31,-66(ra)
5400c040:	ffffffbd 	sdc3	$31,-67(ra)
5400c044:	ffffffbd 	sdc3	$31,-67(ra)
5400c048:	ffffffbd 	sdc3	$31,-67(ra)
5400c04c:	ffffffbd 	sdc3	$31,-67(ra)
5400c050:	ffffffbd 	sdc3	$31,-67(ra)
5400c054:	ffffffbd 	sdc3	$31,-67(ra)
5400c058:	ffffffbd 	sdc3	$31,-67(ra)
5400c05c:	ffffffbc 	sdc3	$31,-68(ra)
5400c060:	ffffffbc 	sdc3	$31,-68(ra)
5400c064:	ffffffbc 	sdc3	$31,-68(ra)
5400c068:	ffffffbc 	sdc3	$31,-68(ra)
5400c06c:	ffffffbc 	sdc3	$31,-68(ra)
5400c070:	ffffffbc 	sdc3	$31,-68(ra)
5400c074:	ffffffbc 	sdc3	$31,-68(ra)
5400c078:	ffffffbc 	sdc3	$31,-68(ra)
5400c07c:	ffffffbb 	sdc3	$31,-69(ra)
5400c080:	ffffffbb 	sdc3	$31,-69(ra)
5400c084:	ffffffbb 	sdc3	$31,-69(ra)
5400c088:	ffffffbb 	sdc3	$31,-69(ra)
5400c08c:	ffffffbb 	sdc3	$31,-69(ra)
5400c090:	ffffffbb 	sdc3	$31,-69(ra)
5400c094:	ffffffbb 	sdc3	$31,-69(ra)
5400c098:	ffffffba 	sdc3	$31,-70(ra)
5400c09c:	ffffffba 	sdc3	$31,-70(ra)
5400c0a0:	ffffffba 	sdc3	$31,-70(ra)
5400c0a4:	ffffffba 	sdc3	$31,-70(ra)
5400c0a8:	ffffffba 	sdc3	$31,-70(ra)
5400c0ac:	ffffffba 	sdc3	$31,-70(ra)
5400c0b0:	ffffffba 	sdc3	$31,-70(ra)
5400c0b4:	ffffffba 	sdc3	$31,-70(ra)
5400c0b8:	ffffffb9 	sdc3	$31,-71(ra)
5400c0bc:	ffffffb9 	sdc3	$31,-71(ra)
5400c0c0:	ffffffb9 	sdc3	$31,-71(ra)
5400c0c4:	ffffffb9 	sdc3	$31,-71(ra)
5400c0c8:	ffffffb9 	sdc3	$31,-71(ra)
5400c0cc:	ffffffb9 	sdc3	$31,-71(ra)
5400c0d0:	ffffffb9 	sdc3	$31,-71(ra)
5400c0d4:	ffffffb9 	sdc3	$31,-71(ra)
5400c0d8:	ffffffb8 	sdc3	$31,-72(ra)
5400c0dc:	ffffffb8 	sdc3	$31,-72(ra)
5400c0e0:	ffffffb8 	sdc3	$31,-72(ra)
5400c0e4:	ffffffb8 	sdc3	$31,-72(ra)
5400c0e8:	ffffffb8 	sdc3	$31,-72(ra)
5400c0ec:	ffffffb8 	sdc3	$31,-72(ra)
5400c0f0:	ffffffb8 	sdc3	$31,-72(ra)
5400c0f4:	ffffffb7 	sdc3	$31,-73(ra)
5400c0f8:	ffffffb7 	sdc3	$31,-73(ra)
5400c0fc:	ffffffb7 	sdc3	$31,-73(ra)
5400c100:	ffffffb7 	sdc3	$31,-73(ra)
5400c104:	ffffffb7 	sdc3	$31,-73(ra)
5400c108:	ffffffb7 	sdc3	$31,-73(ra)
5400c10c:	ffffffb7 	sdc3	$31,-73(ra)
5400c110:	ffffffb7 	sdc3	$31,-73(ra)
5400c114:	ffffffb6 	sdc3	$31,-74(ra)
5400c118:	ffffffb6 	sdc3	$31,-74(ra)
5400c11c:	ffffffb6 	sdc3	$31,-74(ra)
5400c120:	ffffffb6 	sdc3	$31,-74(ra)
5400c124:	ffffffb6 	sdc3	$31,-74(ra)
5400c128:	ffffffb6 	sdc3	$31,-74(ra)
5400c12c:	ffffffb6 	sdc3	$31,-74(ra)
5400c130:	ffffffb6 	sdc3	$31,-74(ra)
5400c134:	ffffffb5 	sdc3	$31,-75(ra)
5400c138:	ffffffb5 	sdc3	$31,-75(ra)
5400c13c:	ffffffb5 	sdc3	$31,-75(ra)
5400c140:	ffffffb5 	sdc3	$31,-75(ra)
5400c144:	ffffffb5 	sdc3	$31,-75(ra)
5400c148:	ffffffb5 	sdc3	$31,-75(ra)
5400c14c:	ffffffb5 	sdc3	$31,-75(ra)
5400c150:	ffffffb5 	sdc3	$31,-75(ra)
5400c154:	ffffffb4 	sdc3	$31,-76(ra)
5400c158:	ffffffb4 	sdc3	$31,-76(ra)
5400c15c:	ffffffb4 	sdc3	$31,-76(ra)
5400c160:	ffffffb4 	sdc3	$31,-76(ra)
5400c164:	ffffffb4 	sdc3	$31,-76(ra)
5400c168:	ffffffb4 	sdc3	$31,-76(ra)
5400c16c:	ffffffb4 	sdc3	$31,-76(ra)
5400c170:	ffffffb3 	sdc3	$31,-77(ra)
5400c174:	ffffffb3 	sdc3	$31,-77(ra)
5400c178:	ffffffb3 	sdc3	$31,-77(ra)
5400c17c:	ffffffb3 	sdc3	$31,-77(ra)
5400c180:	ffffffb3 	sdc3	$31,-77(ra)
5400c184:	ffffffb3 	sdc3	$31,-77(ra)
5400c188:	ffffffb3 	sdc3	$31,-77(ra)
5400c18c:	ffffffb3 	sdc3	$31,-77(ra)
5400c190:	ffffffb2 	sdc3	$31,-78(ra)
5400c194:	ffffffb2 	sdc3	$31,-78(ra)
5400c198:	ffffffb2 	sdc3	$31,-78(ra)
5400c19c:	ffffffb2 	sdc3	$31,-78(ra)
5400c1a0:	ffffffb2 	sdc3	$31,-78(ra)
5400c1a4:	ffffffb2 	sdc3	$31,-78(ra)
5400c1a8:	ffffffb2 	sdc3	$31,-78(ra)
5400c1ac:	ffffffb2 	sdc3	$31,-78(ra)
5400c1b0:	ffffffb1 	sdc3	$31,-79(ra)
5400c1b4:	ffffffb1 	sdc3	$31,-79(ra)
5400c1b8:	ffffffb1 	sdc3	$31,-79(ra)
5400c1bc:	ffffffb1 	sdc3	$31,-79(ra)
5400c1c0:	ffffffb1 	sdc3	$31,-79(ra)
5400c1c4:	ffffffb1 	sdc3	$31,-79(ra)
5400c1c8:	ffffffb1 	sdc3	$31,-79(ra)
5400c1cc:	ffffffb1 	sdc3	$31,-79(ra)
5400c1d0:	ffffffb0 	sdc3	$31,-80(ra)
5400c1d4:	ffffffb0 	sdc3	$31,-80(ra)
5400c1d8:	ffffffb0 	sdc3	$31,-80(ra)
5400c1dc:	ffffffb0 	sdc3	$31,-80(ra)
5400c1e0:	ffffffb0 	sdc3	$31,-80(ra)
5400c1e4:	ffffffb0 	sdc3	$31,-80(ra)
5400c1e8:	ffffffb0 	sdc3	$31,-80(ra)
5400c1ec:	ffffffb0 	sdc3	$31,-80(ra)
5400c1f0:	ffffffaf 	sdc3	$31,-81(ra)
5400c1f4:	ffffffaf 	sdc3	$31,-81(ra)
5400c1f8:	ffffffaf 	sdc3	$31,-81(ra)
5400c1fc:	ffffffaf 	sdc3	$31,-81(ra)
5400c200:	ffffffaf 	sdc3	$31,-81(ra)
5400c204:	ffffffaf 	sdc3	$31,-81(ra)
5400c208:	ffffffaf 	sdc3	$31,-81(ra)
5400c20c:	ffffffaf 	sdc3	$31,-81(ra)
5400c210:	ffffffae 	sdc3	$31,-82(ra)
5400c214:	ffffffae 	sdc3	$31,-82(ra)
5400c218:	ffffffae 	sdc3	$31,-82(ra)
5400c21c:	ffffffae 	sdc3	$31,-82(ra)
5400c220:	ffffffae 	sdc3	$31,-82(ra)
5400c224:	ffffffae 	sdc3	$31,-82(ra)
5400c228:	ffffffae 	sdc3	$31,-82(ra)
5400c22c:	ffffffae 	sdc3	$31,-82(ra)
5400c230:	ffffffae 	sdc3	$31,-82(ra)
5400c234:	ffffffad 	sdc3	$31,-83(ra)
5400c238:	ffffffad 	sdc3	$31,-83(ra)
5400c23c:	ffffffad 	sdc3	$31,-83(ra)
5400c240:	ffffffad 	sdc3	$31,-83(ra)
5400c244:	ffffffad 	sdc3	$31,-83(ra)
5400c248:	ffffffad 	sdc3	$31,-83(ra)
5400c24c:	ffffffad 	sdc3	$31,-83(ra)
5400c250:	ffffffad 	sdc3	$31,-83(ra)
5400c254:	ffffffac 	sdc3	$31,-84(ra)
5400c258:	ffffffac 	sdc3	$31,-84(ra)
5400c25c:	ffffffac 	sdc3	$31,-84(ra)
5400c260:	ffffffac 	sdc3	$31,-84(ra)
5400c264:	ffffffac 	sdc3	$31,-84(ra)
5400c268:	ffffffac 	sdc3	$31,-84(ra)
5400c26c:	ffffffac 	sdc3	$31,-84(ra)
5400c270:	ffffffac 	sdc3	$31,-84(ra)
5400c274:	ffffffab 	sdc3	$31,-85(ra)
5400c278:	ffffffab 	sdc3	$31,-85(ra)
5400c27c:	ffffffab 	sdc3	$31,-85(ra)
5400c280:	ffffffab 	sdc3	$31,-85(ra)
5400c284:	ffffffab 	sdc3	$31,-85(ra)
5400c288:	ffffffab 	sdc3	$31,-85(ra)
5400c28c:	ffffffab 	sdc3	$31,-85(ra)
5400c290:	ffffffab 	sdc3	$31,-85(ra)
5400c294:	ffffffaa 	sdc3	$31,-86(ra)
5400c298:	ffffffaa 	sdc3	$31,-86(ra)
5400c29c:	ffffffaa 	sdc3	$31,-86(ra)
5400c2a0:	ffffffaa 	sdc3	$31,-86(ra)
5400c2a4:	ffffffaa 	sdc3	$31,-86(ra)
5400c2a8:	ffffffaa 	sdc3	$31,-86(ra)
5400c2ac:	ffffffaa 	sdc3	$31,-86(ra)
5400c2b0:	ffffffaa 	sdc3	$31,-86(ra)
5400c2b4:	ffffffaa 	sdc3	$31,-86(ra)
5400c2b8:	ffffffa9 	sdc3	$31,-87(ra)
5400c2bc:	ffffffa9 	sdc3	$31,-87(ra)
5400c2c0:	ffffffa9 	sdc3	$31,-87(ra)
5400c2c4:	ffffffa9 	sdc3	$31,-87(ra)
5400c2c8:	ffffffa9 	sdc3	$31,-87(ra)
5400c2cc:	ffffffa9 	sdc3	$31,-87(ra)
5400c2d0:	ffffffa9 	sdc3	$31,-87(ra)
5400c2d4:	ffffffa9 	sdc3	$31,-87(ra)
5400c2d8:	ffffffa8 	sdc3	$31,-88(ra)
5400c2dc:	ffffffa8 	sdc3	$31,-88(ra)
5400c2e0:	ffffffa8 	sdc3	$31,-88(ra)
5400c2e4:	ffffffa8 	sdc3	$31,-88(ra)
5400c2e8:	ffffffa8 	sdc3	$31,-88(ra)
5400c2ec:	ffffffa8 	sdc3	$31,-88(ra)
5400c2f0:	ffffffa8 	sdc3	$31,-88(ra)
5400c2f4:	ffffffa8 	sdc3	$31,-88(ra)
5400c2f8:	ffffffa8 	sdc3	$31,-88(ra)
5400c2fc:	ffffffa7 	sdc3	$31,-89(ra)
5400c300:	ffffffa7 	sdc3	$31,-89(ra)
5400c304:	ffffffa7 	sdc3	$31,-89(ra)
5400c308:	ffffffa7 	sdc3	$31,-89(ra)
5400c30c:	ffffffa7 	sdc3	$31,-89(ra)
5400c310:	ffffffa7 	sdc3	$31,-89(ra)
5400c314:	ffffffa7 	sdc3	$31,-89(ra)
5400c318:	ffffffa7 	sdc3	$31,-89(ra)
5400c31c:	ffffffa6 	sdc3	$31,-90(ra)
5400c320:	ffffffa6 	sdc3	$31,-90(ra)
5400c324:	ffffffa6 	sdc3	$31,-90(ra)
5400c328:	ffffffa6 	sdc3	$31,-90(ra)
5400c32c:	ffffffa6 	sdc3	$31,-90(ra)
5400c330:	ffffffa6 	sdc3	$31,-90(ra)
5400c334:	ffffffa6 	sdc3	$31,-90(ra)
5400c338:	ffffffa6 	sdc3	$31,-90(ra)
5400c33c:	ffffffa6 	sdc3	$31,-90(ra)
5400c340:	ffffffa5 	sdc3	$31,-91(ra)
5400c344:	ffffffa5 	sdc3	$31,-91(ra)
5400c348:	ffffffa5 	sdc3	$31,-91(ra)
5400c34c:	ffffffa5 	sdc3	$31,-91(ra)
5400c350:	ffffffa5 	sdc3	$31,-91(ra)
5400c354:	ffffffa5 	sdc3	$31,-91(ra)
5400c358:	ffffffa5 	sdc3	$31,-91(ra)
5400c35c:	ffffffa5 	sdc3	$31,-91(ra)
5400c360:	ffffffa5 	sdc3	$31,-91(ra)
5400c364:	ffffffa4 	sdc3	$31,-92(ra)
5400c368:	ffffffa4 	sdc3	$31,-92(ra)
5400c36c:	ffffffa4 	sdc3	$31,-92(ra)
5400c370:	ffffffa4 	sdc3	$31,-92(ra)
5400c374:	ffffffa4 	sdc3	$31,-92(ra)
5400c378:	ffffffa4 	sdc3	$31,-92(ra)
5400c37c:	ffffffa4 	sdc3	$31,-92(ra)
5400c380:	ffffffa4 	sdc3	$31,-92(ra)
5400c384:	ffffffa3 	sdc3	$31,-93(ra)
5400c388:	ffffffa3 	sdc3	$31,-93(ra)
5400c38c:	ffffffa3 	sdc3	$31,-93(ra)
5400c390:	ffffffa3 	sdc3	$31,-93(ra)
5400c394:	ffffffa3 	sdc3	$31,-93(ra)
5400c398:	ffffffa3 	sdc3	$31,-93(ra)
5400c39c:	ffffffa3 	sdc3	$31,-93(ra)
5400c3a0:	ffffffa3 	sdc3	$31,-93(ra)
5400c3a4:	ffffffa3 	sdc3	$31,-93(ra)
5400c3a8:	ffffffa2 	sdc3	$31,-94(ra)
5400c3ac:	ffffffa2 	sdc3	$31,-94(ra)
5400c3b0:	ffffffa2 	sdc3	$31,-94(ra)
5400c3b4:	ffffffa2 	sdc3	$31,-94(ra)
5400c3b8:	ffffffa2 	sdc3	$31,-94(ra)
5400c3bc:	ffffffa2 	sdc3	$31,-94(ra)
5400c3c0:	ffffffa2 	sdc3	$31,-94(ra)
5400c3c4:	ffffffa2 	sdc3	$31,-94(ra)
5400c3c8:	ffffffa2 	sdc3	$31,-94(ra)
5400c3cc:	ffffffa1 	sdc3	$31,-95(ra)
5400c3d0:	ffffffa1 	sdc3	$31,-95(ra)
5400c3d4:	ffffffa1 	sdc3	$31,-95(ra)
5400c3d8:	ffffffa1 	sdc3	$31,-95(ra)
5400c3dc:	ffffffa1 	sdc3	$31,-95(ra)
5400c3e0:	ffffffa1 	sdc3	$31,-95(ra)
5400c3e4:	ffffffa1 	sdc3	$31,-95(ra)
5400c3e8:	ffffffa1 	sdc3	$31,-95(ra)
5400c3ec:	ffffffa1 	sdc3	$31,-95(ra)
5400c3f0:	ffffffa0 	sdc3	$31,-96(ra)
5400c3f4:	ffffffa0 	sdc3	$31,-96(ra)
5400c3f8:	ffffffa0 	sdc3	$31,-96(ra)
5400c3fc:	ffffffa0 	sdc3	$31,-96(ra)
5400c400:	ffffffa0 	sdc3	$31,-96(ra)
5400c404:	ffffffa0 	sdc3	$31,-96(ra)
5400c408:	ffffffa0 	sdc3	$31,-96(ra)
5400c40c:	ffffffa0 	sdc3	$31,-96(ra)
5400c410:	ffffffa0 	sdc3	$31,-96(ra)
5400c414:	ffffff9f 	sdc3	$31,-97(ra)
5400c418:	ffffff9f 	sdc3	$31,-97(ra)
5400c41c:	ffffff9f 	sdc3	$31,-97(ra)
5400c420:	ffffff9f 	sdc3	$31,-97(ra)
5400c424:	ffffff9f 	sdc3	$31,-97(ra)
5400c428:	ffffff9f 	sdc3	$31,-97(ra)
5400c42c:	ffffff9f 	sdc3	$31,-97(ra)
5400c430:	ffffff9f 	sdc3	$31,-97(ra)
5400c434:	ffffff9f 	sdc3	$31,-97(ra)
5400c438:	ffffff9e 	sdc3	$31,-98(ra)
5400c43c:	ffffff9e 	sdc3	$31,-98(ra)
5400c440:	ffffff9e 	sdc3	$31,-98(ra)
5400c444:	ffffff9e 	sdc3	$31,-98(ra)
5400c448:	ffffff9e 	sdc3	$31,-98(ra)
5400c44c:	ffffff9e 	sdc3	$31,-98(ra)
5400c450:	ffffff9e 	sdc3	$31,-98(ra)
5400c454:	ffffff9e 	sdc3	$31,-98(ra)
5400c458:	ffffff9e 	sdc3	$31,-98(ra)
5400c45c:	ffffff9e 	sdc3	$31,-98(ra)
5400c460:	ffffff9d 	sdc3	$31,-99(ra)
5400c464:	ffffff9d 	sdc3	$31,-99(ra)
5400c468:	ffffff9d 	sdc3	$31,-99(ra)
5400c46c:	ffffff9d 	sdc3	$31,-99(ra)
5400c470:	ffffff9d 	sdc3	$31,-99(ra)
5400c474:	ffffff9d 	sdc3	$31,-99(ra)
5400c478:	ffffff9d 	sdc3	$31,-99(ra)
5400c47c:	ffffff9d 	sdc3	$31,-99(ra)
5400c480:	ffffff9d 	sdc3	$31,-99(ra)
5400c484:	ffffff9c 	sdc3	$31,-100(ra)
5400c488:	ffffff9c 	sdc3	$31,-100(ra)
5400c48c:	ffffff9c 	sdc3	$31,-100(ra)
5400c490:	ffffff9c 	sdc3	$31,-100(ra)
5400c494:	ffffff9c 	sdc3	$31,-100(ra)
5400c498:	ffffff9c 	sdc3	$31,-100(ra)
5400c49c:	ffffff9c 	sdc3	$31,-100(ra)
5400c4a0:	ffffff9c 	sdc3	$31,-100(ra)
5400c4a4:	ffffff9c 	sdc3	$31,-100(ra)
5400c4a8:	ffffff9b 	sdc3	$31,-101(ra)
5400c4ac:	ffffff9b 	sdc3	$31,-101(ra)
5400c4b0:	ffffff9b 	sdc3	$31,-101(ra)
5400c4b4:	ffffff9b 	sdc3	$31,-101(ra)
5400c4b8:	ffffff9b 	sdc3	$31,-101(ra)
5400c4bc:	ffffff9b 	sdc3	$31,-101(ra)
5400c4c0:	ffffff9b 	sdc3	$31,-101(ra)
5400c4c4:	ffffff9b 	sdc3	$31,-101(ra)
5400c4c8:	ffffff9b 	sdc3	$31,-101(ra)
5400c4cc:	ffffff9b 	sdc3	$31,-101(ra)
5400c4d0:	ffffff9a 	sdc3	$31,-102(ra)
5400c4d4:	ffffff9a 	sdc3	$31,-102(ra)
5400c4d8:	ffffff9a 	sdc3	$31,-102(ra)
5400c4dc:	ffffff9a 	sdc3	$31,-102(ra)
5400c4e0:	ffffff9a 	sdc3	$31,-102(ra)
5400c4e4:	ffffff9a 	sdc3	$31,-102(ra)
5400c4e8:	ffffff9a 	sdc3	$31,-102(ra)
5400c4ec:	ffffff9a 	sdc3	$31,-102(ra)
5400c4f0:	ffffff9a 	sdc3	$31,-102(ra)
5400c4f4:	ffffff99 	sdc3	$31,-103(ra)
5400c4f8:	ffffff99 	sdc3	$31,-103(ra)
5400c4fc:	ffffff99 	sdc3	$31,-103(ra)
5400c500:	ffffff99 	sdc3	$31,-103(ra)
5400c504:	ffffff99 	sdc3	$31,-103(ra)
5400c508:	ffffff99 	sdc3	$31,-103(ra)
5400c50c:	ffffff99 	sdc3	$31,-103(ra)
5400c510:	ffffff99 	sdc3	$31,-103(ra)
5400c514:	ffffff99 	sdc3	$31,-103(ra)
5400c518:	ffffff99 	sdc3	$31,-103(ra)
5400c51c:	ffffff98 	sdc3	$31,-104(ra)
5400c520:	ffffff98 	sdc3	$31,-104(ra)
5400c524:	ffffff98 	sdc3	$31,-104(ra)
5400c528:	ffffff98 	sdc3	$31,-104(ra)
5400c52c:	ffffff98 	sdc3	$31,-104(ra)
5400c530:	ffffff98 	sdc3	$31,-104(ra)
5400c534:	ffffff98 	sdc3	$31,-104(ra)
5400c538:	ffffff98 	sdc3	$31,-104(ra)
5400c53c:	ffffff98 	sdc3	$31,-104(ra)
5400c540:	ffffff97 	sdc3	$31,-105(ra)
5400c544:	ffffff97 	sdc3	$31,-105(ra)
5400c548:	ffffff97 	sdc3	$31,-105(ra)
5400c54c:	ffffff97 	sdc3	$31,-105(ra)
5400c550:	ffffff97 	sdc3	$31,-105(ra)
5400c554:	ffffff97 	sdc3	$31,-105(ra)
5400c558:	ffffff97 	sdc3	$31,-105(ra)
5400c55c:	ffffff97 	sdc3	$31,-105(ra)
5400c560:	ffffff97 	sdc3	$31,-105(ra)
5400c564:	ffffff97 	sdc3	$31,-105(ra)
5400c568:	ffffff96 	sdc3	$31,-106(ra)
5400c56c:	ffffff96 	sdc3	$31,-106(ra)
5400c570:	ffffff96 	sdc3	$31,-106(ra)
5400c574:	ffffff96 	sdc3	$31,-106(ra)
5400c578:	ffffff96 	sdc3	$31,-106(ra)
5400c57c:	ffffff96 	sdc3	$31,-106(ra)
5400c580:	ffffff96 	sdc3	$31,-106(ra)
5400c584:	ffffff96 	sdc3	$31,-106(ra)
5400c588:	ffffff96 	sdc3	$31,-106(ra)
5400c58c:	ffffff96 	sdc3	$31,-106(ra)
5400c590:	ffffff95 	sdc3	$31,-107(ra)
5400c594:	ffffff95 	sdc3	$31,-107(ra)
5400c598:	ffffff95 	sdc3	$31,-107(ra)
5400c59c:	ffffff95 	sdc3	$31,-107(ra)
5400c5a0:	ffffff95 	sdc3	$31,-107(ra)
5400c5a4:	ffffff95 	sdc3	$31,-107(ra)
5400c5a8:	ffffff95 	sdc3	$31,-107(ra)
5400c5ac:	ffffff95 	sdc3	$31,-107(ra)
5400c5b0:	ffffff95 	sdc3	$31,-107(ra)
5400c5b4:	ffffff95 	sdc3	$31,-107(ra)
5400c5b8:	ffffff94 	sdc3	$31,-108(ra)
5400c5bc:	ffffff94 	sdc3	$31,-108(ra)
5400c5c0:	ffffff94 	sdc3	$31,-108(ra)
5400c5c4:	ffffff94 	sdc3	$31,-108(ra)
5400c5c8:	ffffff94 	sdc3	$31,-108(ra)
5400c5cc:	ffffff94 	sdc3	$31,-108(ra)
5400c5d0:	ffffff94 	sdc3	$31,-108(ra)
5400c5d4:	ffffff94 	sdc3	$31,-108(ra)
5400c5d8:	ffffff94 	sdc3	$31,-108(ra)
5400c5dc:	ffffff94 	sdc3	$31,-108(ra)
5400c5e0:	ffffff93 	sdc3	$31,-109(ra)
5400c5e4:	ffffff93 	sdc3	$31,-109(ra)
5400c5e8:	ffffff93 	sdc3	$31,-109(ra)
5400c5ec:	ffffff93 	sdc3	$31,-109(ra)
5400c5f0:	ffffff93 	sdc3	$31,-109(ra)
5400c5f4:	ffffff93 	sdc3	$31,-109(ra)
5400c5f8:	ffffff93 	sdc3	$31,-109(ra)
5400c5fc:	ffffff93 	sdc3	$31,-109(ra)
5400c600:	ffffff93 	sdc3	$31,-109(ra)
5400c604:	ffffff93 	sdc3	$31,-109(ra)
5400c608:	ffffff92 	sdc3	$31,-110(ra)
5400c60c:	ffffff92 	sdc3	$31,-110(ra)
5400c610:	ffffff92 	sdc3	$31,-110(ra)
5400c614:	ffffff92 	sdc3	$31,-110(ra)
5400c618:	ffffff92 	sdc3	$31,-110(ra)
5400c61c:	ffffff92 	sdc3	$31,-110(ra)
5400c620:	ffffff92 	sdc3	$31,-110(ra)
5400c624:	ffffff92 	sdc3	$31,-110(ra)
5400c628:	ffffff92 	sdc3	$31,-110(ra)
5400c62c:	ffffff92 	sdc3	$31,-110(ra)
5400c630:	ffffff92 	sdc3	$31,-110(ra)
5400c634:	ffffff91 	sdc3	$31,-111(ra)
5400c638:	ffffff91 	sdc3	$31,-111(ra)
5400c63c:	ffffff91 	sdc3	$31,-111(ra)
5400c640:	ffffff91 	sdc3	$31,-111(ra)
5400c644:	ffffff91 	sdc3	$31,-111(ra)
5400c648:	ffffff91 	sdc3	$31,-111(ra)
5400c64c:	ffffff91 	sdc3	$31,-111(ra)
5400c650:	ffffff91 	sdc3	$31,-111(ra)
5400c654:	ffffff91 	sdc3	$31,-111(ra)
5400c658:	ffffff91 	sdc3	$31,-111(ra)
5400c65c:	ffffff90 	sdc3	$31,-112(ra)
5400c660:	ffffff90 	sdc3	$31,-112(ra)
5400c664:	ffffff90 	sdc3	$31,-112(ra)
5400c668:	ffffff90 	sdc3	$31,-112(ra)
5400c66c:	ffffff90 	sdc3	$31,-112(ra)
5400c670:	ffffff90 	sdc3	$31,-112(ra)
5400c674:	ffffff90 	sdc3	$31,-112(ra)
5400c678:	ffffff90 	sdc3	$31,-112(ra)
5400c67c:	ffffff90 	sdc3	$31,-112(ra)
5400c680:	ffffff90 	sdc3	$31,-112(ra)
5400c684:	ffffff8f 	sdc3	$31,-113(ra)
5400c688:	ffffff8f 	sdc3	$31,-113(ra)
5400c68c:	ffffff8f 	sdc3	$31,-113(ra)
5400c690:	ffffff8f 	sdc3	$31,-113(ra)
5400c694:	ffffff8f 	sdc3	$31,-113(ra)
5400c698:	ffffff8f 	sdc3	$31,-113(ra)
5400c69c:	ffffff8f 	sdc3	$31,-113(ra)
5400c6a0:	ffffff8f 	sdc3	$31,-113(ra)
5400c6a4:	ffffff8f 	sdc3	$31,-113(ra)
5400c6a8:	ffffff8f 	sdc3	$31,-113(ra)
5400c6ac:	ffffff8f 	sdc3	$31,-113(ra)
5400c6b0:	ffffff8e 	sdc3	$31,-114(ra)
5400c6b4:	ffffff8e 	sdc3	$31,-114(ra)
5400c6b8:	ffffff8e 	sdc3	$31,-114(ra)
5400c6bc:	ffffff8e 	sdc3	$31,-114(ra)
5400c6c0:	ffffff8e 	sdc3	$31,-114(ra)
5400c6c4:	ffffff8e 	sdc3	$31,-114(ra)
5400c6c8:	ffffff8e 	sdc3	$31,-114(ra)
5400c6cc:	ffffff8e 	sdc3	$31,-114(ra)
5400c6d0:	ffffff8e 	sdc3	$31,-114(ra)
5400c6d4:	ffffff8e 	sdc3	$31,-114(ra)
5400c6d8:	ffffff8e 	sdc3	$31,-114(ra)
5400c6dc:	ffffff8d 	sdc3	$31,-115(ra)
5400c6e0:	ffffff8d 	sdc3	$31,-115(ra)
5400c6e4:	ffffff8d 	sdc3	$31,-115(ra)
5400c6e8:	ffffff8d 	sdc3	$31,-115(ra)
5400c6ec:	ffffff8d 	sdc3	$31,-115(ra)
5400c6f0:	ffffff8d 	sdc3	$31,-115(ra)
5400c6f4:	ffffff8d 	sdc3	$31,-115(ra)
5400c6f8:	ffffff8d 	sdc3	$31,-115(ra)
5400c6fc:	ffffff8d 	sdc3	$31,-115(ra)
5400c700:	ffffff8d 	sdc3	$31,-115(ra)
5400c704:	ffffff8c 	sdc3	$31,-116(ra)
5400c708:	ffffff8c 	sdc3	$31,-116(ra)
5400c70c:	ffffff8c 	sdc3	$31,-116(ra)
5400c710:	ffffff8c 	sdc3	$31,-116(ra)
5400c714:	ffffff8c 	sdc3	$31,-116(ra)
5400c718:	ffffff8c 	sdc3	$31,-116(ra)
5400c71c:	ffffff8c 	sdc3	$31,-116(ra)
5400c720:	ffffff8c 	sdc3	$31,-116(ra)
5400c724:	ffffff8c 	sdc3	$31,-116(ra)
5400c728:	ffffff8c 	sdc3	$31,-116(ra)
5400c72c:	ffffff8c 	sdc3	$31,-116(ra)
5400c730:	ffffff8b 	sdc3	$31,-117(ra)
5400c734:	ffffff8b 	sdc3	$31,-117(ra)
5400c738:	ffffff8b 	sdc3	$31,-117(ra)
5400c73c:	ffffff8b 	sdc3	$31,-117(ra)
5400c740:	ffffff8b 	sdc3	$31,-117(ra)
5400c744:	ffffff8b 	sdc3	$31,-117(ra)
5400c748:	ffffff8b 	sdc3	$31,-117(ra)
5400c74c:	ffffff8b 	sdc3	$31,-117(ra)
5400c750:	ffffff8b 	sdc3	$31,-117(ra)
5400c754:	ffffff8b 	sdc3	$31,-117(ra)
5400c758:	ffffff8b 	sdc3	$31,-117(ra)
5400c75c:	ffffff8a 	sdc3	$31,-118(ra)
5400c760:	ffffff8a 	sdc3	$31,-118(ra)
5400c764:	ffffff8a 	sdc3	$31,-118(ra)
5400c768:	ffffff8a 	sdc3	$31,-118(ra)
5400c76c:	ffffff8a 	sdc3	$31,-118(ra)
5400c770:	ffffff8a 	sdc3	$31,-118(ra)
5400c774:	ffffff8a 	sdc3	$31,-118(ra)
5400c778:	ffffff8a 	sdc3	$31,-118(ra)
5400c77c:	ffffff8a 	sdc3	$31,-118(ra)
5400c780:	ffffff8a 	sdc3	$31,-118(ra)
5400c784:	ffffff8a 	sdc3	$31,-118(ra)
5400c788:	ffffff89 	sdc3	$31,-119(ra)
5400c78c:	ffffff89 	sdc3	$31,-119(ra)
5400c790:	ffffff89 	sdc3	$31,-119(ra)
5400c794:	ffffff89 	sdc3	$31,-119(ra)
5400c798:	ffffff89 	sdc3	$31,-119(ra)
5400c79c:	ffffff89 	sdc3	$31,-119(ra)
5400c7a0:	ffffff89 	sdc3	$31,-119(ra)
5400c7a4:	ffffff89 	sdc3	$31,-119(ra)
5400c7a8:	ffffff89 	sdc3	$31,-119(ra)
5400c7ac:	ffffff89 	sdc3	$31,-119(ra)
5400c7b0:	ffffff89 	sdc3	$31,-119(ra)
5400c7b4:	ffffff89 	sdc3	$31,-119(ra)
5400c7b8:	ffffff88 	sdc3	$31,-120(ra)
5400c7bc:	ffffff88 	sdc3	$31,-120(ra)
5400c7c0:	ffffff88 	sdc3	$31,-120(ra)
5400c7c4:	ffffff88 	sdc3	$31,-120(ra)
5400c7c8:	ffffff88 	sdc3	$31,-120(ra)
5400c7cc:	ffffff88 	sdc3	$31,-120(ra)
5400c7d0:	ffffff88 	sdc3	$31,-120(ra)
5400c7d4:	ffffff88 	sdc3	$31,-120(ra)
5400c7d8:	ffffff88 	sdc3	$31,-120(ra)
5400c7dc:	ffffff88 	sdc3	$31,-120(ra)
5400c7e0:	ffffff88 	sdc3	$31,-120(ra)
5400c7e4:	ffffff87 	sdc3	$31,-121(ra)
5400c7e8:	ffffff87 	sdc3	$31,-121(ra)
5400c7ec:	ffffff87 	sdc3	$31,-121(ra)
5400c7f0:	ffffff87 	sdc3	$31,-121(ra)
5400c7f4:	ffffff87 	sdc3	$31,-121(ra)
5400c7f8:	ffffff87 	sdc3	$31,-121(ra)
5400c7fc:	ffffff87 	sdc3	$31,-121(ra)
5400c800:	ffffff87 	sdc3	$31,-121(ra)
5400c804:	ffffff87 	sdc3	$31,-121(ra)
5400c808:	ffffff87 	sdc3	$31,-121(ra)
5400c80c:	ffffff87 	sdc3	$31,-121(ra)
5400c810:	ffffff87 	sdc3	$31,-121(ra)
5400c814:	ffffff86 	sdc3	$31,-122(ra)
5400c818:	ffffff86 	sdc3	$31,-122(ra)
5400c81c:	ffffff86 	sdc3	$31,-122(ra)
5400c820:	ffffff86 	sdc3	$31,-122(ra)
5400c824:	ffffff86 	sdc3	$31,-122(ra)
5400c828:	ffffff86 	sdc3	$31,-122(ra)
5400c82c:	ffffff86 	sdc3	$31,-122(ra)
5400c830:	ffffff86 	sdc3	$31,-122(ra)
5400c834:	ffffff86 	sdc3	$31,-122(ra)
5400c838:	ffffff86 	sdc3	$31,-122(ra)
5400c83c:	ffffff86 	sdc3	$31,-122(ra)
5400c840:	ffffff85 	sdc3	$31,-123(ra)
5400c844:	ffffff85 	sdc3	$31,-123(ra)
5400c848:	ffffff85 	sdc3	$31,-123(ra)
5400c84c:	ffffff85 	sdc3	$31,-123(ra)
5400c850:	ffffff85 	sdc3	$31,-123(ra)
5400c854:	ffffff85 	sdc3	$31,-123(ra)
5400c858:	ffffff85 	sdc3	$31,-123(ra)
5400c85c:	ffffff85 	sdc3	$31,-123(ra)
5400c860:	ffffff85 	sdc3	$31,-123(ra)
5400c864:	ffffff85 	sdc3	$31,-123(ra)
5400c868:	ffffff85 	sdc3	$31,-123(ra)
5400c86c:	ffffff85 	sdc3	$31,-123(ra)
5400c870:	ffffff84 	sdc3	$31,-124(ra)
5400c874:	ffffff84 	sdc3	$31,-124(ra)
5400c878:	ffffff84 	sdc3	$31,-124(ra)
5400c87c:	ffffff84 	sdc3	$31,-124(ra)
5400c880:	ffffff84 	sdc3	$31,-124(ra)
5400c884:	ffffff84 	sdc3	$31,-124(ra)
5400c888:	ffffff84 	sdc3	$31,-124(ra)
5400c88c:	ffffff84 	sdc3	$31,-124(ra)
5400c890:	ffffff84 	sdc3	$31,-124(ra)
5400c894:	ffffff84 	sdc3	$31,-124(ra)
5400c898:	ffffff84 	sdc3	$31,-124(ra)
5400c89c:	ffffff84 	sdc3	$31,-124(ra)
5400c8a0:	ffffff83 	sdc3	$31,-125(ra)
5400c8a4:	ffffff83 	sdc3	$31,-125(ra)
5400c8a8:	ffffff83 	sdc3	$31,-125(ra)
5400c8ac:	ffffff83 	sdc3	$31,-125(ra)
5400c8b0:	ffffff83 	sdc3	$31,-125(ra)
5400c8b4:	ffffff83 	sdc3	$31,-125(ra)
5400c8b8:	ffffff83 	sdc3	$31,-125(ra)
5400c8bc:	ffffff83 	sdc3	$31,-125(ra)
5400c8c0:	ffffff83 	sdc3	$31,-125(ra)
5400c8c4:	ffffff83 	sdc3	$31,-125(ra)
5400c8c8:	ffffff83 	sdc3	$31,-125(ra)
5400c8cc:	ffffff83 	sdc3	$31,-125(ra)
5400c8d0:	ffffff82 	sdc3	$31,-126(ra)
5400c8d4:	ffffff82 	sdc3	$31,-126(ra)
5400c8d8:	ffffff82 	sdc3	$31,-126(ra)
5400c8dc:	ffffff82 	sdc3	$31,-126(ra)
5400c8e0:	ffffff82 	sdc3	$31,-126(ra)
5400c8e4:	ffffff82 	sdc3	$31,-126(ra)
5400c8e8:	ffffff82 	sdc3	$31,-126(ra)
5400c8ec:	ffffff82 	sdc3	$31,-126(ra)
5400c8f0:	ffffff82 	sdc3	$31,-126(ra)
5400c8f4:	ffffff82 	sdc3	$31,-126(ra)
5400c8f8:	ffffff82 	sdc3	$31,-126(ra)
5400c8fc:	ffffff82 	sdc3	$31,-126(ra)
5400c900:	ffffff81 	sdc3	$31,-127(ra)
5400c904:	ffffff81 	sdc3	$31,-127(ra)
5400c908:	ffffff81 	sdc3	$31,-127(ra)
5400c90c:	ffffff81 	sdc3	$31,-127(ra)
5400c910:	ffffff81 	sdc3	$31,-127(ra)
5400c914:	ffffff81 	sdc3	$31,-127(ra)
5400c918:	ffffff81 	sdc3	$31,-127(ra)
5400c91c:	ffffff81 	sdc3	$31,-127(ra)
5400c920:	ffffff81 	sdc3	$31,-127(ra)
5400c924:	ffffff81 	sdc3	$31,-127(ra)
5400c928:	ffffff81 	sdc3	$31,-127(ra)
5400c92c:	ffffff81 	sdc3	$31,-127(ra)
5400c930:	ffffff81 	sdc3	$31,-127(ra)
5400c934:	ffffff80 	sdc3	$31,-128(ra)
5400c938:	ffffff80 	sdc3	$31,-128(ra)
5400c93c:	ffffff80 	sdc3	$31,-128(ra)
5400c940:	ffffff80 	sdc3	$31,-128(ra)
5400c944:	ffffff80 	sdc3	$31,-128(ra)
5400c948:	ffffff80 	sdc3	$31,-128(ra)
5400c94c:	ffffff80 	sdc3	$31,-128(ra)
5400c950:	ffffff80 	sdc3	$31,-128(ra)
5400c954:	ffffff80 	sdc3	$31,-128(ra)
5400c958:	ffffff80 	sdc3	$31,-128(ra)
5400c95c:	ffffff80 	sdc3	$31,-128(ra)
5400c960:	ffffff80 	sdc3	$31,-128(ra)

5400c964 <arcsinTable>:
	...
5400c984:	00000001 	movf	zero,zero,$fcc0
5400c988:	00000001 	movf	zero,zero,$fcc0
5400c98c:	00000001 	movf	zero,zero,$fcc0
5400c990:	00000001 	movf	zero,zero,$fcc0
5400c994:	00000001 	movf	zero,zero,$fcc0
5400c998:	00000001 	movf	zero,zero,$fcc0
5400c99c:	00000001 	movf	zero,zero,$fcc0
5400c9a0:	00000001 	movf	zero,zero,$fcc0
5400c9a4:	00000001 	movf	zero,zero,$fcc0
5400c9a8:	00000002 	srl	zero,zero,0x0
5400c9ac:	00000002 	srl	zero,zero,0x0
5400c9b0:	00000002 	srl	zero,zero,0x0
5400c9b4:	00000002 	srl	zero,zero,0x0
5400c9b8:	00000002 	srl	zero,zero,0x0
5400c9bc:	00000002 	srl	zero,zero,0x0
5400c9c0:	00000002 	srl	zero,zero,0x0
5400c9c4:	00000002 	srl	zero,zero,0x0
5400c9c8:	00000003 	sra	zero,zero,0x0
5400c9cc:	00000003 	sra	zero,zero,0x0
5400c9d0:	00000003 	sra	zero,zero,0x0
5400c9d4:	00000003 	sra	zero,zero,0x0
5400c9d8:	00000003 	sra	zero,zero,0x0
5400c9dc:	00000003 	sra	zero,zero,0x0
5400c9e0:	00000003 	sra	zero,zero,0x0
5400c9e4:	00000003 	sra	zero,zero,0x0
5400c9e8:	00000003 	sra	zero,zero,0x0
5400c9ec:	00000004 	sllv	zero,zero,zero
5400c9f0:	00000004 	sllv	zero,zero,zero
5400c9f4:	00000004 	sllv	zero,zero,zero
5400c9f8:	00000004 	sllv	zero,zero,zero
5400c9fc:	00000004 	sllv	zero,zero,zero
5400ca00:	00000004 	sllv	zero,zero,zero
5400ca04:	00000004 	sllv	zero,zero,zero
5400ca08:	00000004 	sllv	zero,zero,zero
5400ca0c:	00000005 	0x5
5400ca10:	00000005 	0x5
5400ca14:	00000005 	0x5
5400ca18:	00000005 	0x5
5400ca1c:	00000005 	0x5
5400ca20:	00000005 	0x5
5400ca24:	00000005 	0x5
5400ca28:	00000005 	0x5
5400ca2c:	00000006 	srlv	zero,zero,zero
5400ca30:	00000006 	srlv	zero,zero,zero
5400ca34:	00000006 	srlv	zero,zero,zero
5400ca38:	00000006 	srlv	zero,zero,zero
5400ca3c:	00000006 	srlv	zero,zero,zero
5400ca40:	00000006 	srlv	zero,zero,zero
5400ca44:	00000006 	srlv	zero,zero,zero
5400ca48:	00000006 	srlv	zero,zero,zero
5400ca4c:	00000006 	srlv	zero,zero,zero
5400ca50:	00000007 	srav	zero,zero,zero
5400ca54:	00000007 	srav	zero,zero,zero
5400ca58:	00000007 	srav	zero,zero,zero
5400ca5c:	00000007 	srav	zero,zero,zero
5400ca60:	00000007 	srav	zero,zero,zero
5400ca64:	00000007 	srav	zero,zero,zero
5400ca68:	00000007 	srav	zero,zero,zero
5400ca6c:	00000007 	srav	zero,zero,zero
5400ca70:	00000008 	jr	zero
5400ca74:	00000008 	jr	zero
5400ca78:	00000008 	jr	zero
5400ca7c:	00000008 	jr	zero
5400ca80:	00000008 	jr	zero
5400ca84:	00000008 	jr	zero
5400ca88:	00000008 	jr	zero
5400ca8c:	00000008 	jr	zero
5400ca90:	00000009 	jalr	zero,zero
5400ca94:	00000009 	jalr	zero,zero
5400ca98:	00000009 	jalr	zero,zero
5400ca9c:	00000009 	jalr	zero,zero
5400caa0:	00000009 	jalr	zero,zero
5400caa4:	00000009 	jalr	zero,zero
5400caa8:	00000009 	jalr	zero,zero
5400caac:	00000009 	jalr	zero,zero
5400cab0:	00000009 	jalr	zero,zero
5400cab4:	0000000a 	movz	zero,zero,zero
5400cab8:	0000000a 	movz	zero,zero,zero
5400cabc:	0000000a 	movz	zero,zero,zero
5400cac0:	0000000a 	movz	zero,zero,zero
5400cac4:	0000000a 	movz	zero,zero,zero
5400cac8:	0000000a 	movz	zero,zero,zero
5400cacc:	0000000a 	movz	zero,zero,zero
5400cad0:	0000000a 	movz	zero,zero,zero
5400cad4:	0000000b 	movn	zero,zero,zero
5400cad8:	0000000b 	movn	zero,zero,zero
5400cadc:	0000000b 	movn	zero,zero,zero
5400cae0:	0000000b 	movn	zero,zero,zero
5400cae4:	0000000b 	movn	zero,zero,zero
5400cae8:	0000000b 	movn	zero,zero,zero
5400caec:	0000000b 	movn	zero,zero,zero
5400caf0:	0000000b 	movn	zero,zero,zero
5400caf4:	0000000c 	syscall
5400caf8:	0000000c 	syscall
5400cafc:	0000000c 	syscall
5400cb00:	0000000c 	syscall
5400cb04:	0000000c 	syscall
5400cb08:	0000000c 	syscall
5400cb0c:	0000000c 	syscall
5400cb10:	0000000c 	syscall
5400cb14:	0000000c 	syscall
5400cb18:	0000000d 	break
5400cb1c:	0000000d 	break
5400cb20:	0000000d 	break
5400cb24:	0000000d 	break
5400cb28:	0000000d 	break
5400cb2c:	0000000d 	break
5400cb30:	0000000d 	break
5400cb34:	0000000d 	break
5400cb38:	0000000e 	0xe
5400cb3c:	0000000e 	0xe
5400cb40:	0000000e 	0xe
5400cb44:	0000000e 	0xe
5400cb48:	0000000e 	0xe
5400cb4c:	0000000e 	0xe
5400cb50:	0000000e 	0xe
5400cb54:	0000000e 	0xe
5400cb58:	0000000f 	sync
5400cb5c:	0000000f 	sync
5400cb60:	0000000f 	sync
5400cb64:	0000000f 	sync
5400cb68:	0000000f 	sync
5400cb6c:	0000000f 	sync
5400cb70:	0000000f 	sync
5400cb74:	0000000f 	sync
5400cb78:	0000000f 	sync
5400cb7c:	00000010 	mfhi	zero
5400cb80:	00000010 	mfhi	zero
5400cb84:	00000010 	mfhi	zero
5400cb88:	00000010 	mfhi	zero
5400cb8c:	00000010 	mfhi	zero
5400cb90:	00000010 	mfhi	zero
5400cb94:	00000010 	mfhi	zero
5400cb98:	00000010 	mfhi	zero
5400cb9c:	00000011 	mthi	zero
5400cba0:	00000011 	mthi	zero
5400cba4:	00000011 	mthi	zero
5400cba8:	00000011 	mthi	zero
5400cbac:	00000011 	mthi	zero
5400cbb0:	00000011 	mthi	zero
5400cbb4:	00000011 	mthi	zero
5400cbb8:	00000011 	mthi	zero
5400cbbc:	00000012 	mflo	zero
5400cbc0:	00000012 	mflo	zero
5400cbc4:	00000012 	mflo	zero
5400cbc8:	00000012 	mflo	zero
5400cbcc:	00000012 	mflo	zero
5400cbd0:	00000012 	mflo	zero
5400cbd4:	00000012 	mflo	zero
5400cbd8:	00000012 	mflo	zero
5400cbdc:	00000012 	mflo	zero
5400cbe0:	00000013 	mtlo	zero
5400cbe4:	00000013 	mtlo	zero
5400cbe8:	00000013 	mtlo	zero
5400cbec:	00000013 	mtlo	zero
5400cbf0:	00000013 	mtlo	zero
5400cbf4:	00000013 	mtlo	zero
5400cbf8:	00000013 	mtlo	zero
5400cbfc:	00000013 	mtlo	zero
5400cc00:	00000014 	0x14
5400cc04:	00000014 	0x14
5400cc08:	00000014 	0x14
5400cc0c:	00000014 	0x14
5400cc10:	00000014 	0x14
5400cc14:	00000014 	0x14
5400cc18:	00000014 	0x14
5400cc1c:	00000014 	0x14
5400cc20:	00000015 	0x15
5400cc24:	00000015 	0x15
5400cc28:	00000015 	0x15
5400cc2c:	00000015 	0x15
5400cc30:	00000015 	0x15
5400cc34:	00000015 	0x15
5400cc38:	00000015 	0x15
5400cc3c:	00000015 	0x15
5400cc40:	00000015 	0x15
5400cc44:	00000016 	0x16
5400cc48:	00000016 	0x16
5400cc4c:	00000016 	0x16
5400cc50:	00000016 	0x16
5400cc54:	00000016 	0x16
5400cc58:	00000016 	0x16
5400cc5c:	00000016 	0x16
5400cc60:	00000016 	0x16
5400cc64:	00000017 	0x17
5400cc68:	00000017 	0x17
5400cc6c:	00000017 	0x17
5400cc70:	00000017 	0x17
5400cc74:	00000017 	0x17
5400cc78:	00000017 	0x17
5400cc7c:	00000017 	0x17
5400cc80:	00000017 	0x17
5400cc84:	00000018 	mult	zero,zero
5400cc88:	00000018 	mult	zero,zero
5400cc8c:	00000018 	mult	zero,zero
5400cc90:	00000018 	mult	zero,zero
5400cc94:	00000018 	mult	zero,zero
5400cc98:	00000018 	mult	zero,zero
5400cc9c:	00000018 	mult	zero,zero
5400cca0:	00000018 	mult	zero,zero
5400cca4:	00000018 	mult	zero,zero
5400cca8:	00000019 	multu	zero,zero
5400ccac:	00000019 	multu	zero,zero
5400ccb0:	00000019 	multu	zero,zero
5400ccb4:	00000019 	multu	zero,zero
5400ccb8:	00000019 	multu	zero,zero
5400ccbc:	00000019 	multu	zero,zero
5400ccc0:	00000019 	multu	zero,zero
5400ccc4:	00000019 	multu	zero,zero
5400ccc8:	0000001a 	div	zero,zero,zero
5400cccc:	0000001a 	div	zero,zero,zero
5400ccd0:	0000001a 	div	zero,zero,zero
5400ccd4:	0000001a 	div	zero,zero,zero
5400ccd8:	0000001a 	div	zero,zero,zero
5400ccdc:	0000001a 	div	zero,zero,zero
5400cce0:	0000001a 	div	zero,zero,zero
5400cce4:	0000001a 	div	zero,zero,zero
5400cce8:	0000001b 	divu	zero,zero,zero
5400ccec:	0000001b 	divu	zero,zero,zero
5400ccf0:	0000001b 	divu	zero,zero,zero
5400ccf4:	0000001b 	divu	zero,zero,zero
5400ccf8:	0000001b 	divu	zero,zero,zero
5400ccfc:	0000001b 	divu	zero,zero,zero
5400cd00:	0000001b 	divu	zero,zero,zero
5400cd04:	0000001b 	divu	zero,zero,zero
5400cd08:	0000001c 	0x1c
5400cd0c:	0000001c 	0x1c
5400cd10:	0000001c 	0x1c
5400cd14:	0000001c 	0x1c
5400cd18:	0000001c 	0x1c
5400cd1c:	0000001c 	0x1c
5400cd20:	0000001c 	0x1c
5400cd24:	0000001c 	0x1c
5400cd28:	0000001c 	0x1c
5400cd2c:	0000001d 	0x1d
5400cd30:	0000001d 	0x1d
5400cd34:	0000001d 	0x1d
5400cd38:	0000001d 	0x1d
5400cd3c:	0000001d 	0x1d
5400cd40:	0000001d 	0x1d
5400cd44:	0000001d 	0x1d
5400cd48:	0000001d 	0x1d
5400cd4c:	0000001e 	0x1e
5400cd50:	0000001e 	0x1e
5400cd54:	0000001e 	0x1e
5400cd58:	0000001e 	0x1e
5400cd5c:	0000001e 	0x1e
5400cd60:	0000001e 	0x1e
5400cd64:	0000001e 	0x1e
5400cd68:	0000001e 	0x1e
5400cd6c:	0000001f 	0x1f
5400cd70:	0000001f 	0x1f
5400cd74:	0000001f 	0x1f
5400cd78:	0000001f 	0x1f
5400cd7c:	0000001f 	0x1f
5400cd80:	0000001f 	0x1f
5400cd84:	0000001f 	0x1f
5400cd88:	0000001f 	0x1f
5400cd8c:	00000020 	add	zero,zero,zero
5400cd90:	00000020 	add	zero,zero,zero
5400cd94:	00000020 	add	zero,zero,zero
5400cd98:	00000020 	add	zero,zero,zero
5400cd9c:	00000020 	add	zero,zero,zero
5400cda0:	00000020 	add	zero,zero,zero
5400cda4:	00000020 	add	zero,zero,zero
5400cda8:	00000020 	add	zero,zero,zero
5400cdac:	00000020 	add	zero,zero,zero
5400cdb0:	00000021 	move	zero,zero
5400cdb4:	00000021 	move	zero,zero
5400cdb8:	00000021 	move	zero,zero
5400cdbc:	00000021 	move	zero,zero
5400cdc0:	00000021 	move	zero,zero
5400cdc4:	00000021 	move	zero,zero
5400cdc8:	00000021 	move	zero,zero
5400cdcc:	00000021 	move	zero,zero
5400cdd0:	00000022 	neg	zero,zero
5400cdd4:	00000022 	neg	zero,zero
5400cdd8:	00000022 	neg	zero,zero
5400cddc:	00000022 	neg	zero,zero
5400cde0:	00000022 	neg	zero,zero
5400cde4:	00000022 	neg	zero,zero
5400cde8:	00000022 	neg	zero,zero
5400cdec:	00000022 	neg	zero,zero
5400cdf0:	00000023 	negu	zero,zero
5400cdf4:	00000023 	negu	zero,zero
5400cdf8:	00000023 	negu	zero,zero
5400cdfc:	00000023 	negu	zero,zero
5400ce00:	00000023 	negu	zero,zero
5400ce04:	00000023 	negu	zero,zero
5400ce08:	00000023 	negu	zero,zero
5400ce0c:	00000023 	negu	zero,zero
5400ce10:	00000024 	and	zero,zero,zero
5400ce14:	00000024 	and	zero,zero,zero
5400ce18:	00000024 	and	zero,zero,zero
5400ce1c:	00000024 	and	zero,zero,zero
5400ce20:	00000024 	and	zero,zero,zero
5400ce24:	00000024 	and	zero,zero,zero
5400ce28:	00000024 	and	zero,zero,zero
5400ce2c:	00000024 	and	zero,zero,zero
5400ce30:	00000025 	move	zero,zero
5400ce34:	00000025 	move	zero,zero
5400ce38:	00000025 	move	zero,zero
5400ce3c:	00000025 	move	zero,zero
5400ce40:	00000025 	move	zero,zero
5400ce44:	00000025 	move	zero,zero
5400ce48:	00000025 	move	zero,zero
5400ce4c:	00000025 	move	zero,zero
5400ce50:	00000026 	xor	zero,zero,zero
5400ce54:	00000026 	xor	zero,zero,zero
5400ce58:	00000026 	xor	zero,zero,zero
5400ce5c:	00000026 	xor	zero,zero,zero
5400ce60:	00000026 	xor	zero,zero,zero
5400ce64:	00000026 	xor	zero,zero,zero
5400ce68:	00000026 	xor	zero,zero,zero
5400ce6c:	00000026 	xor	zero,zero,zero
5400ce70:	00000026 	xor	zero,zero,zero
5400ce74:	00000027 	nor	zero,zero,zero
5400ce78:	00000027 	nor	zero,zero,zero
5400ce7c:	00000027 	nor	zero,zero,zero
5400ce80:	00000027 	nor	zero,zero,zero
5400ce84:	00000027 	nor	zero,zero,zero
5400ce88:	00000027 	nor	zero,zero,zero
5400ce8c:	00000027 	nor	zero,zero,zero
5400ce90:	00000027 	nor	zero,zero,zero
5400ce94:	00000028 	0x28
5400ce98:	00000028 	0x28
5400ce9c:	00000028 	0x28
5400cea0:	00000028 	0x28
5400cea4:	00000028 	0x28
5400cea8:	00000028 	0x28
5400ceac:	00000028 	0x28
5400ceb0:	00000028 	0x28
5400ceb4:	00000029 	0x29
5400ceb8:	00000029 	0x29
5400cebc:	00000029 	0x29
5400cec0:	00000029 	0x29
5400cec4:	00000029 	0x29
5400cec8:	00000029 	0x29
5400cecc:	00000029 	0x29
5400ced0:	00000029 	0x29
5400ced4:	0000002a 	slt	zero,zero,zero
5400ced8:	0000002a 	slt	zero,zero,zero
5400cedc:	0000002a 	slt	zero,zero,zero
5400cee0:	0000002a 	slt	zero,zero,zero
5400cee4:	0000002a 	slt	zero,zero,zero
5400cee8:	0000002a 	slt	zero,zero,zero
5400ceec:	0000002a 	slt	zero,zero,zero
5400cef0:	0000002a 	slt	zero,zero,zero
5400cef4:	0000002b 	sltu	zero,zero,zero
5400cef8:	0000002b 	sltu	zero,zero,zero
5400cefc:	0000002b 	sltu	zero,zero,zero
5400cf00:	0000002b 	sltu	zero,zero,zero
5400cf04:	0000002b 	sltu	zero,zero,zero
5400cf08:	0000002b 	sltu	zero,zero,zero
5400cf0c:	0000002b 	sltu	zero,zero,zero
5400cf10:	0000002b 	sltu	zero,zero,zero
5400cf14:	0000002c 	0x2c
5400cf18:	0000002c 	0x2c
5400cf1c:	0000002c 	0x2c
5400cf20:	0000002c 	0x2c
5400cf24:	0000002c 	0x2c
5400cf28:	0000002c 	0x2c
5400cf2c:	0000002c 	0x2c
5400cf30:	0000002c 	0x2c
5400cf34:	0000002d 	0x2d
5400cf38:	0000002d 	0x2d
5400cf3c:	0000002d 	0x2d
5400cf40:	0000002d 	0x2d
5400cf44:	0000002d 	0x2d
5400cf48:	0000002d 	0x2d
5400cf4c:	0000002d 	0x2d
5400cf50:	0000002d 	0x2d
5400cf54:	0000002e 	0x2e
5400cf58:	0000002e 	0x2e
5400cf5c:	0000002e 	0x2e
5400cf60:	0000002e 	0x2e
5400cf64:	0000002e 	0x2e
5400cf68:	0000002e 	0x2e
5400cf6c:	0000002e 	0x2e
5400cf70:	0000002e 	0x2e
5400cf74:	0000002f 	0x2f
5400cf78:	0000002f 	0x2f
5400cf7c:	0000002f 	0x2f
5400cf80:	0000002f 	0x2f
5400cf84:	0000002f 	0x2f
5400cf88:	0000002f 	0x2f
5400cf8c:	0000002f 	0x2f
5400cf90:	0000002f 	0x2f
5400cf94:	00000030 	tge	zero,zero
5400cf98:	00000030 	tge	zero,zero
5400cf9c:	00000030 	tge	zero,zero
5400cfa0:	00000030 	tge	zero,zero
5400cfa4:	00000030 	tge	zero,zero
5400cfa8:	00000030 	tge	zero,zero
5400cfac:	00000030 	tge	zero,zero
5400cfb0:	00000030 	tge	zero,zero
5400cfb4:	00000031 	tgeu	zero,zero
5400cfb8:	00000031 	tgeu	zero,zero
5400cfbc:	00000031 	tgeu	zero,zero
5400cfc0:	00000031 	tgeu	zero,zero
5400cfc4:	00000031 	tgeu	zero,zero
5400cfc8:	00000031 	tgeu	zero,zero
5400cfcc:	00000031 	tgeu	zero,zero
5400cfd0:	00000031 	tgeu	zero,zero
5400cfd4:	00000032 	tlt	zero,zero
5400cfd8:	00000032 	tlt	zero,zero
5400cfdc:	00000032 	tlt	zero,zero
5400cfe0:	00000032 	tlt	zero,zero
5400cfe4:	00000032 	tlt	zero,zero
5400cfe8:	00000032 	tlt	zero,zero
5400cfec:	00000032 	tlt	zero,zero
5400cff0:	00000032 	tlt	zero,zero
5400cff4:	00000033 	tltu	zero,zero
5400cff8:	00000033 	tltu	zero,zero
5400cffc:	00000033 	tltu	zero,zero
5400d000:	00000033 	tltu	zero,zero
5400d004:	00000033 	tltu	zero,zero
5400d008:	00000033 	tltu	zero,zero
5400d00c:	00000033 	tltu	zero,zero
5400d010:	00000033 	tltu	zero,zero
5400d014:	00000034 	teq	zero,zero
5400d018:	00000034 	teq	zero,zero
5400d01c:	00000034 	teq	zero,zero
5400d020:	00000034 	teq	zero,zero
5400d024:	00000034 	teq	zero,zero
5400d028:	00000034 	teq	zero,zero
5400d02c:	00000034 	teq	zero,zero
5400d030:	00000034 	teq	zero,zero
5400d034:	00000035 	0x35
5400d038:	00000035 	0x35
5400d03c:	00000035 	0x35
5400d040:	00000035 	0x35
5400d044:	00000035 	0x35
5400d048:	00000035 	0x35
5400d04c:	00000035 	0x35
5400d050:	00000035 	0x35
5400d054:	00000036 	tne	zero,zero
5400d058:	00000036 	tne	zero,zero
5400d05c:	00000036 	tne	zero,zero
5400d060:	00000036 	tne	zero,zero
5400d064:	00000036 	tne	zero,zero
5400d068:	00000036 	tne	zero,zero
5400d06c:	00000036 	tne	zero,zero
5400d070:	00000036 	tne	zero,zero
5400d074:	00000037 	0x37
5400d078:	00000037 	0x37
5400d07c:	00000037 	0x37
5400d080:	00000037 	0x37
5400d084:	00000037 	0x37
5400d088:	00000037 	0x37
5400d08c:	00000037 	0x37
5400d090:	00000037 	0x37
5400d094:	00000038 	0x38
5400d098:	00000038 	0x38
5400d09c:	00000038 	0x38
5400d0a0:	00000038 	0x38
5400d0a4:	00000038 	0x38
5400d0a8:	00000038 	0x38
5400d0ac:	00000038 	0x38
5400d0b0:	00000038 	0x38
5400d0b4:	00000039 	0x39
5400d0b8:	00000039 	0x39
5400d0bc:	00000039 	0x39
5400d0c0:	00000039 	0x39
5400d0c4:	00000039 	0x39
5400d0c8:	00000039 	0x39
5400d0cc:	00000039 	0x39
5400d0d0:	00000039 	0x39
5400d0d4:	0000003a 	0x3a
5400d0d8:	0000003a 	0x3a
5400d0dc:	0000003a 	0x3a
5400d0e0:	0000003a 	0x3a
5400d0e4:	0000003a 	0x3a
5400d0e8:	0000003a 	0x3a
5400d0ec:	0000003a 	0x3a
5400d0f0:	0000003a 	0x3a
5400d0f4:	0000003b 	0x3b
5400d0f8:	0000003b 	0x3b
5400d0fc:	0000003b 	0x3b
5400d100:	0000003b 	0x3b
5400d104:	0000003b 	0x3b
5400d108:	0000003b 	0x3b
5400d10c:	0000003b 	0x3b
5400d110:	0000003c 	0x3c
5400d114:	0000003c 	0x3c
5400d118:	0000003c 	0x3c
5400d11c:	0000003c 	0x3c
5400d120:	0000003c 	0x3c
5400d124:	0000003c 	0x3c
5400d128:	0000003c 	0x3c
5400d12c:	0000003c 	0x3c
5400d130:	0000003d 	0x3d
5400d134:	0000003d 	0x3d
5400d138:	0000003d 	0x3d
5400d13c:	0000003d 	0x3d
5400d140:	0000003d 	0x3d
5400d144:	0000003d 	0x3d
5400d148:	0000003d 	0x3d
5400d14c:	0000003d 	0x3d
5400d150:	0000003e 	0x3e
5400d154:	0000003e 	0x3e
5400d158:	0000003e 	0x3e
5400d15c:	0000003e 	0x3e
5400d160:	0000003e 	0x3e
5400d164:	0000003e 	0x3e
5400d168:	0000003e 	0x3e
5400d16c:	0000003e 	0x3e
5400d170:	0000003f 	0x3f
5400d174:	0000003f 	0x3f
5400d178:	0000003f 	0x3f
5400d17c:	0000003f 	0x3f
5400d180:	0000003f 	0x3f
5400d184:	0000003f 	0x3f
5400d188:	0000003f 	0x3f
5400d18c:	00000040 	ssnop
5400d190:	00000040 	ssnop
5400d194:	00000040 	ssnop
5400d198:	00000040 	ssnop
5400d19c:	00000040 	ssnop
5400d1a0:	00000040 	ssnop
5400d1a4:	00000040 	ssnop
5400d1a8:	00000040 	ssnop
5400d1ac:	00000041 	0x41
5400d1b0:	00000041 	0x41
5400d1b4:	00000041 	0x41
5400d1b8:	00000041 	0x41
5400d1bc:	00000041 	0x41
5400d1c0:	00000041 	0x41
5400d1c4:	00000041 	0x41
5400d1c8:	00000041 	0x41
5400d1cc:	00000042 	srl	zero,zero,0x1
5400d1d0:	00000042 	srl	zero,zero,0x1
5400d1d4:	00000042 	srl	zero,zero,0x1
5400d1d8:	00000042 	srl	zero,zero,0x1
5400d1dc:	00000042 	srl	zero,zero,0x1
5400d1e0:	00000042 	srl	zero,zero,0x1
5400d1e4:	00000042 	srl	zero,zero,0x1
5400d1e8:	00000042 	srl	zero,zero,0x1
5400d1ec:	00000043 	sra	zero,zero,0x1
5400d1f0:	00000043 	sra	zero,zero,0x1
5400d1f4:	00000043 	sra	zero,zero,0x1
5400d1f8:	00000043 	sra	zero,zero,0x1
5400d1fc:	00000043 	sra	zero,zero,0x1
5400d200:	00000043 	sra	zero,zero,0x1
5400d204:	00000043 	sra	zero,zero,0x1
5400d208:	00000044 	0x44
5400d20c:	00000044 	0x44
5400d210:	00000044 	0x44
5400d214:	00000044 	0x44
5400d218:	00000044 	0x44
5400d21c:	00000044 	0x44
5400d220:	00000044 	0x44
5400d224:	00000044 	0x44
5400d228:	00000045 	0x45
5400d22c:	00000045 	0x45
5400d230:	00000045 	0x45
5400d234:	00000045 	0x45
5400d238:	00000045 	0x45
5400d23c:	00000045 	0x45
5400d240:	00000045 	0x45
5400d244:	00000045 	0x45
5400d248:	00000046 	rorv	zero,zero,zero
5400d24c:	00000046 	rorv	zero,zero,zero
5400d250:	00000046 	rorv	zero,zero,zero
5400d254:	00000046 	rorv	zero,zero,zero
5400d258:	00000046 	rorv	zero,zero,zero
5400d25c:	00000046 	rorv	zero,zero,zero
5400d260:	00000046 	rorv	zero,zero,zero
5400d264:	00000047 	0x47
5400d268:	00000047 	0x47
5400d26c:	00000047 	0x47
5400d270:	00000047 	0x47
5400d274:	00000047 	0x47
5400d278:	00000047 	0x47
5400d27c:	00000047 	0x47
5400d280:	00000047 	0x47
5400d284:	00000048 	0x48
5400d288:	00000048 	0x48
5400d28c:	00000048 	0x48
5400d290:	00000048 	0x48
5400d294:	00000048 	0x48
5400d298:	00000048 	0x48
5400d29c:	00000048 	0x48
5400d2a0:	00000049 	0x49
5400d2a4:	00000049 	0x49
5400d2a8:	00000049 	0x49
5400d2ac:	00000049 	0x49
5400d2b0:	00000049 	0x49
5400d2b4:	00000049 	0x49
5400d2b8:	00000049 	0x49
5400d2bc:	00000049 	0x49
5400d2c0:	0000004a 	0x4a
5400d2c4:	0000004a 	0x4a
5400d2c8:	0000004a 	0x4a
5400d2cc:	0000004a 	0x4a
5400d2d0:	0000004a 	0x4a
5400d2d4:	0000004a 	0x4a
5400d2d8:	0000004a 	0x4a
5400d2dc:	0000004b 	0x4b
5400d2e0:	0000004b 	0x4b
5400d2e4:	0000004b 	0x4b
5400d2e8:	0000004b 	0x4b
5400d2ec:	0000004b 	0x4b
5400d2f0:	0000004b 	0x4b
5400d2f4:	0000004b 	0x4b
5400d2f8:	0000004b 	0x4b
5400d2fc:	0000004c 	syscall	0x1
5400d300:	0000004c 	syscall	0x1
5400d304:	0000004c 	syscall	0x1
5400d308:	0000004c 	syscall	0x1
5400d30c:	0000004c 	syscall	0x1
5400d310:	0000004c 	syscall	0x1
5400d314:	0000004c 	syscall	0x1
5400d318:	0000004d 	break	0x0,0x1
5400d31c:	0000004d 	break	0x0,0x1
5400d320:	0000004d 	break	0x0,0x1
5400d324:	0000004d 	break	0x0,0x1
5400d328:	0000004d 	break	0x0,0x1
5400d32c:	0000004d 	break	0x0,0x1
5400d330:	0000004d 	break	0x0,0x1
5400d334:	0000004d 	break	0x0,0x1
5400d338:	0000004e 	0x4e
5400d33c:	0000004e 	0x4e
5400d340:	0000004e 	0x4e
5400d344:	0000004e 	0x4e
5400d348:	0000004e 	0x4e
5400d34c:	0000004e 	0x4e
5400d350:	0000004e 	0x4e
5400d354:	0000004f 	0x4f
5400d358:	0000004f 	0x4f
5400d35c:	0000004f 	0x4f
5400d360:	0000004f 	0x4f
5400d364:	0000004f 	0x4f
5400d368:	0000004f 	0x4f
5400d36c:	0000004f 	0x4f
5400d370:	0000004f 	0x4f
5400d374:	00000050 	0x50
5400d378:	00000050 	0x50
5400d37c:	00000050 	0x50
5400d380:	00000050 	0x50
5400d384:	00000050 	0x50
5400d388:	00000050 	0x50
5400d38c:	00000050 	0x50
5400d390:	00000051 	0x51
5400d394:	00000051 	0x51
5400d398:	00000051 	0x51
5400d39c:	00000051 	0x51
5400d3a0:	00000051 	0x51
5400d3a4:	00000051 	0x51
5400d3a8:	00000051 	0x51
5400d3ac:	00000052 	mflhxu	zero
5400d3b0:	00000052 	mflhxu	zero
5400d3b4:	00000052 	mflhxu	zero
5400d3b8:	00000052 	mflhxu	zero
5400d3bc:	00000052 	mflhxu	zero
5400d3c0:	00000052 	mflhxu	zero
5400d3c4:	00000052 	mflhxu	zero
5400d3c8:	00000052 	mflhxu	zero
5400d3cc:	00000053 	mtlhx	zero
5400d3d0:	00000053 	mtlhx	zero
5400d3d4:	00000053 	mtlhx	zero
5400d3d8:	00000053 	mtlhx	zero
5400d3dc:	00000053 	mtlhx	zero
5400d3e0:	00000053 	mtlhx	zero
5400d3e4:	00000053 	mtlhx	zero
5400d3e8:	00000054 	0x54
5400d3ec:	00000054 	0x54
5400d3f0:	00000054 	0x54
5400d3f4:	00000054 	0x54
5400d3f8:	00000054 	0x54
5400d3fc:	00000054 	0x54
5400d400:	00000054 	0x54
5400d404:	00000055 	0x55
5400d408:	00000055 	0x55
5400d40c:	00000055 	0x55
5400d410:	00000055 	0x55
5400d414:	00000055 	0x55
5400d418:	00000055 	0x55
5400d41c:	00000055 	0x55
5400d420:	00000056 	0x56
5400d424:	00000056 	0x56
5400d428:	00000056 	0x56
5400d42c:	00000056 	0x56
5400d430:	00000056 	0x56
5400d434:	00000056 	0x56
5400d438:	00000056 	0x56
5400d43c:	00000056 	0x56
5400d440:	00000057 	0x57
5400d444:	00000057 	0x57
5400d448:	00000057 	0x57
5400d44c:	00000057 	0x57
5400d450:	00000057 	0x57
5400d454:	00000057 	0x57
5400d458:	00000057 	0x57
5400d45c:	00000058 	0x58
5400d460:	00000058 	0x58
5400d464:	00000058 	0x58
5400d468:	00000058 	0x58
5400d46c:	00000058 	0x58
5400d470:	00000058 	0x58
5400d474:	00000058 	0x58
5400d478:	00000059 	0x59
5400d47c:	00000059 	0x59
5400d480:	00000059 	0x59
5400d484:	00000059 	0x59
5400d488:	00000059 	0x59
5400d48c:	00000059 	0x59
5400d490:	00000059 	0x59
5400d494:	0000005a 	0x5a
5400d498:	0000005a 	0x5a
5400d49c:	0000005a 	0x5a
5400d4a0:	0000005a 	0x5a
5400d4a4:	0000005a 	0x5a
5400d4a8:	0000005a 	0x5a
5400d4ac:	0000005a 	0x5a
5400d4b0:	0000005b 	0x5b
5400d4b4:	0000005b 	0x5b
5400d4b8:	0000005b 	0x5b
5400d4bc:	0000005b 	0x5b
5400d4c0:	0000005b 	0x5b
5400d4c4:	0000005b 	0x5b
5400d4c8:	0000005b 	0x5b
5400d4cc:	0000005c 	0x5c
5400d4d0:	0000005c 	0x5c
5400d4d4:	0000005c 	0x5c
5400d4d8:	0000005c 	0x5c
5400d4dc:	0000005c 	0x5c
5400d4e0:	0000005c 	0x5c
5400d4e4:	0000005c 	0x5c
5400d4e8:	0000005c 	0x5c
5400d4ec:	0000005d 	0x5d
5400d4f0:	0000005d 	0x5d
5400d4f4:	0000005d 	0x5d
5400d4f8:	0000005d 	0x5d
5400d4fc:	0000005d 	0x5d
5400d500:	0000005d 	0x5d
5400d504:	0000005d 	0x5d
5400d508:	0000005e 	0x5e
5400d50c:	0000005e 	0x5e
5400d510:	0000005e 	0x5e
5400d514:	0000005e 	0x5e
5400d518:	0000005e 	0x5e
5400d51c:	0000005e 	0x5e
5400d520:	0000005e 	0x5e
5400d524:	0000005f 	0x5f
5400d528:	0000005f 	0x5f
5400d52c:	0000005f 	0x5f
5400d530:	0000005f 	0x5f
5400d534:	0000005f 	0x5f
5400d538:	0000005f 	0x5f
5400d53c:	0000005f 	0x5f
5400d540:	00000060 	0x60
5400d544:	00000060 	0x60
5400d548:	00000060 	0x60
5400d54c:	00000060 	0x60
5400d550:	00000060 	0x60
5400d554:	00000060 	0x60
5400d558:	00000061 	0x61
5400d55c:	00000061 	0x61
5400d560:	00000061 	0x61
5400d564:	00000061 	0x61
5400d568:	00000061 	0x61
5400d56c:	00000061 	0x61
5400d570:	00000061 	0x61
5400d574:	00000062 	0x62
5400d578:	00000062 	0x62
5400d57c:	00000062 	0x62
5400d580:	00000062 	0x62
5400d584:	00000062 	0x62
5400d588:	00000062 	0x62
5400d58c:	00000062 	0x62
5400d590:	00000063 	0x63
5400d594:	00000063 	0x63
5400d598:	00000063 	0x63
5400d59c:	00000063 	0x63
5400d5a0:	00000063 	0x63
5400d5a4:	00000063 	0x63
5400d5a8:	00000063 	0x63
5400d5ac:	00000064 	0x64
5400d5b0:	00000064 	0x64
5400d5b4:	00000064 	0x64
5400d5b8:	00000064 	0x64
5400d5bc:	00000064 	0x64
5400d5c0:	00000064 	0x64
5400d5c4:	00000064 	0x64
5400d5c8:	00000065 	0x65
5400d5cc:	00000065 	0x65
5400d5d0:	00000065 	0x65
5400d5d4:	00000065 	0x65
5400d5d8:	00000065 	0x65
5400d5dc:	00000065 	0x65
5400d5e0:	00000065 	0x65
5400d5e4:	00000066 	0x66
5400d5e8:	00000066 	0x66
5400d5ec:	00000066 	0x66
5400d5f0:	00000066 	0x66
5400d5f4:	00000066 	0x66
5400d5f8:	00000066 	0x66
5400d5fc:	00000066 	0x66
5400d600:	00000067 	0x67
5400d604:	00000067 	0x67
5400d608:	00000067 	0x67
5400d60c:	00000067 	0x67
5400d610:	00000067 	0x67
5400d614:	00000067 	0x67
5400d618:	00000068 	0x68
5400d61c:	00000068 	0x68
5400d620:	00000068 	0x68
5400d624:	00000068 	0x68
5400d628:	00000068 	0x68
5400d62c:	00000068 	0x68
5400d630:	00000068 	0x68
5400d634:	00000069 	0x69
5400d638:	00000069 	0x69
5400d63c:	00000069 	0x69
5400d640:	00000069 	0x69
5400d644:	00000069 	0x69
5400d648:	00000069 	0x69
5400d64c:	00000069 	0x69
5400d650:	0000006a 	0x6a
5400d654:	0000006a 	0x6a
5400d658:	0000006a 	0x6a
5400d65c:	0000006a 	0x6a
5400d660:	0000006a 	0x6a
5400d664:	0000006a 	0x6a
5400d668:	0000006b 	0x6b
5400d66c:	0000006b 	0x6b
5400d670:	0000006b 	0x6b
5400d674:	0000006b 	0x6b
5400d678:	0000006b 	0x6b
5400d67c:	0000006b 	0x6b
5400d680:	0000006b 	0x6b
5400d684:	0000006c 	0x6c
5400d688:	0000006c 	0x6c
5400d68c:	0000006c 	0x6c
5400d690:	0000006c 	0x6c
5400d694:	0000006c 	0x6c
5400d698:	0000006c 	0x6c
5400d69c:	0000006c 	0x6c
5400d6a0:	0000006d 	0x6d
5400d6a4:	0000006d 	0x6d
5400d6a8:	0000006d 	0x6d
5400d6ac:	0000006d 	0x6d
5400d6b0:	0000006d 	0x6d
5400d6b4:	0000006d 	0x6d
5400d6b8:	0000006e 	0x6e
5400d6bc:	0000006e 	0x6e
5400d6c0:	0000006e 	0x6e
5400d6c4:	0000006e 	0x6e
5400d6c8:	0000006e 	0x6e
5400d6cc:	0000006e 	0x6e
5400d6d0:	0000006e 	0x6e
5400d6d4:	0000006f 	0x6f
5400d6d8:	0000006f 	0x6f
5400d6dc:	0000006f 	0x6f
5400d6e0:	0000006f 	0x6f
5400d6e4:	0000006f 	0x6f
5400d6e8:	0000006f 	0x6f
5400d6ec:	00000070 	tge	zero,zero,0x1
5400d6f0:	00000070 	tge	zero,zero,0x1
5400d6f4:	00000070 	tge	zero,zero,0x1
5400d6f8:	00000070 	tge	zero,zero,0x1
5400d6fc:	00000070 	tge	zero,zero,0x1
5400d700:	00000070 	tge	zero,zero,0x1
5400d704:	00000070 	tge	zero,zero,0x1
5400d708:	00000071 	tgeu	zero,zero,0x1
5400d70c:	00000071 	tgeu	zero,zero,0x1
5400d710:	00000071 	tgeu	zero,zero,0x1
5400d714:	00000071 	tgeu	zero,zero,0x1
5400d718:	00000071 	tgeu	zero,zero,0x1
5400d71c:	00000071 	tgeu	zero,zero,0x1
5400d720:	00000072 	tlt	zero,zero,0x1
5400d724:	00000072 	tlt	zero,zero,0x1
5400d728:	00000072 	tlt	zero,zero,0x1
5400d72c:	00000072 	tlt	zero,zero,0x1
5400d730:	00000072 	tlt	zero,zero,0x1
5400d734:	00000072 	tlt	zero,zero,0x1
5400d738:	00000073 	tltu	zero,zero,0x1
5400d73c:	00000073 	tltu	zero,zero,0x1
5400d740:	00000073 	tltu	zero,zero,0x1
5400d744:	00000073 	tltu	zero,zero,0x1
5400d748:	00000073 	tltu	zero,zero,0x1
5400d74c:	00000073 	tltu	zero,zero,0x1
5400d750:	00000073 	tltu	zero,zero,0x1
5400d754:	00000074 	teq	zero,zero,0x1
5400d758:	00000074 	teq	zero,zero,0x1
5400d75c:	00000074 	teq	zero,zero,0x1
5400d760:	00000074 	teq	zero,zero,0x1
5400d764:	00000074 	teq	zero,zero,0x1
5400d768:	00000074 	teq	zero,zero,0x1
5400d76c:	00000075 	0x75
5400d770:	00000075 	0x75
5400d774:	00000075 	0x75
5400d778:	00000075 	0x75
5400d77c:	00000075 	0x75
5400d780:	00000075 	0x75
5400d784:	00000076 	tne	zero,zero,0x1
5400d788:	00000076 	tne	zero,zero,0x1
5400d78c:	00000076 	tne	zero,zero,0x1
5400d790:	00000076 	tne	zero,zero,0x1
5400d794:	00000076 	tne	zero,zero,0x1
5400d798:	00000076 	tne	zero,zero,0x1
5400d79c:	00000076 	tne	zero,zero,0x1
5400d7a0:	00000077 	0x77
5400d7a4:	00000077 	0x77
5400d7a8:	00000077 	0x77
5400d7ac:	00000077 	0x77
5400d7b0:	00000077 	0x77
5400d7b4:	00000077 	0x77
5400d7b8:	00000078 	0x78
5400d7bc:	00000078 	0x78
5400d7c0:	00000078 	0x78
5400d7c4:	00000078 	0x78
5400d7c8:	00000078 	0x78
5400d7cc:	00000078 	0x78
5400d7d0:	00000079 	0x79
5400d7d4:	00000079 	0x79
5400d7d8:	00000079 	0x79
5400d7dc:	00000079 	0x79
5400d7e0:	00000079 	0x79
5400d7e4:	00000079 	0x79
5400d7e8:	0000007a 	0x7a
5400d7ec:	0000007a 	0x7a
5400d7f0:	0000007a 	0x7a
5400d7f4:	0000007a 	0x7a
5400d7f8:	0000007a 	0x7a
5400d7fc:	0000007a 	0x7a
5400d800:	0000007b 	0x7b
5400d804:	0000007b 	0x7b
5400d808:	0000007b 	0x7b
5400d80c:	0000007b 	0x7b
5400d810:	0000007b 	0x7b
5400d814:	0000007b 	0x7b
5400d818:	0000007c 	0x7c
5400d81c:	0000007c 	0x7c
5400d820:	0000007c 	0x7c
5400d824:	0000007c 	0x7c
5400d828:	0000007c 	0x7c
5400d82c:	0000007c 	0x7c
5400d830:	0000007c 	0x7c
5400d834:	0000007d 	0x7d
5400d838:	0000007d 	0x7d
5400d83c:	0000007d 	0x7d
5400d840:	0000007d 	0x7d
5400d844:	0000007d 	0x7d
5400d848:	0000007d 	0x7d
5400d84c:	0000007e 	0x7e
5400d850:	0000007e 	0x7e
5400d854:	0000007e 	0x7e
5400d858:	0000007e 	0x7e
5400d85c:	0000007e 	0x7e
5400d860:	0000007f 	0x7f
5400d864:	0000007f 	0x7f
5400d868:	0000007f 	0x7f
5400d86c:	0000007f 	0x7f
5400d870:	0000007f 	0x7f
5400d874:	0000007f 	0x7f
5400d878:	00000080 	sll	zero,zero,0x2
5400d87c:	00000080 	sll	zero,zero,0x2
5400d880:	00000080 	sll	zero,zero,0x2
5400d884:	00000080 	sll	zero,zero,0x2
5400d888:	00000080 	sll	zero,zero,0x2
5400d88c:	00000080 	sll	zero,zero,0x2
5400d890:	00000081 	0x81
5400d894:	00000081 	0x81
5400d898:	00000081 	0x81
5400d89c:	00000081 	0x81
5400d8a0:	00000081 	0x81
5400d8a4:	00000081 	0x81
5400d8a8:	00000082 	srl	zero,zero,0x2
5400d8ac:	00000082 	srl	zero,zero,0x2
5400d8b0:	00000082 	srl	zero,zero,0x2
5400d8b4:	00000082 	srl	zero,zero,0x2
5400d8b8:	00000082 	srl	zero,zero,0x2
5400d8bc:	00000082 	srl	zero,zero,0x2
5400d8c0:	00000083 	sra	zero,zero,0x2
5400d8c4:	00000083 	sra	zero,zero,0x2
5400d8c8:	00000083 	sra	zero,zero,0x2
5400d8cc:	00000083 	sra	zero,zero,0x2
5400d8d0:	00000083 	sra	zero,zero,0x2
5400d8d4:	00000083 	sra	zero,zero,0x2
5400d8d8:	00000084 	0x84
5400d8dc:	00000084 	0x84
5400d8e0:	00000084 	0x84
5400d8e4:	00000084 	0x84
5400d8e8:	00000084 	0x84
5400d8ec:	00000084 	0x84
5400d8f0:	00000085 	0x85
5400d8f4:	00000085 	0x85
5400d8f8:	00000085 	0x85
5400d8fc:	00000085 	0x85
5400d900:	00000085 	0x85
5400d904:	00000086 	0x86
5400d908:	00000086 	0x86
5400d90c:	00000086 	0x86
5400d910:	00000086 	0x86
5400d914:	00000086 	0x86
5400d918:	00000086 	0x86
5400d91c:	00000087 	0x87
5400d920:	00000087 	0x87
5400d924:	00000087 	0x87
5400d928:	00000087 	0x87
5400d92c:	00000087 	0x87
5400d930:	00000087 	0x87
5400d934:	00000088 	0x88
5400d938:	00000088 	0x88
5400d93c:	00000088 	0x88
5400d940:	00000088 	0x88
5400d944:	00000088 	0x88
5400d948:	00000089 	0x89
5400d94c:	00000089 	0x89
5400d950:	00000089 	0x89
5400d954:	00000089 	0x89
5400d958:	00000089 	0x89
5400d95c:	00000089 	0x89
5400d960:	0000008a 	0x8a

5400d964 <sinTable>:
5400d964:	00000003 	sra	zero,zero,0x0
5400d968:	00000009 	jalr	zero,zero
5400d96c:	0000000f 	sync
5400d970:	00000015 	0x15
5400d974:	0000001c 	0x1c
5400d978:	00000022 	neg	zero,zero
5400d97c:	00000028 	0x28
5400d980:	0000002f 	0x2f
5400d984:	00000035 	0x35
5400d988:	0000003b 	0x3b
5400d98c:	00000041 	0x41
5400d990:	00000048 	0x48
5400d994:	0000004e 	0x4e
5400d998:	00000054 	0x54
5400d99c:	0000005a 	0x5a
5400d9a0:	00000061 	0x61
5400d9a4:	00000067 	0x67
5400d9a8:	0000006d 	0x6d
5400d9ac:	00000073 	tltu	zero,zero,0x1
5400d9b0:	0000007a 	0x7a
5400d9b4:	00000080 	sll	zero,zero,0x2
5400d9b8:	00000086 	0x86
5400d9bc:	0000008c 	syscall	0x2
5400d9c0:	00000093 	0x93
5400d9c4:	00000099 	0x99
5400d9c8:	0000009f 	0x9f
5400d9cc:	000000a5 	0xa5
5400d9d0:	000000ab 	0xab
5400d9d4:	000000b2 	tlt	zero,zero,0x2
5400d9d8:	000000b8 	0xb8
5400d9dc:	000000be 	0xbe
5400d9e0:	000000c4 	0xc4
5400d9e4:	000000ca 	0xca
5400d9e8:	000000d1 	0xd1
5400d9ec:	000000d7 	0xd7
5400d9f0:	000000dd 	0xdd
5400d9f4:	000000e3 	0xe3
5400d9f8:	000000e9 	0xe9
5400d9fc:	000000ef 	0xef
5400da00:	000000f5 	0xf5
5400da04:	000000fb 	0xfb
5400da08:	00000101 	0x101
5400da0c:	00000108 	0x108
5400da10:	0000010e 	0x10e
5400da14:	00000114 	0x114
5400da18:	0000011a 	0x11a
5400da1c:	00000120 	0x120
5400da20:	00000126 	0x126
5400da24:	0000012c 	0x12c
5400da28:	00000132 	tlt	zero,zero,0x4
5400da2c:	00000138 	0x138
5400da30:	0000013e 	0x13e
5400da34:	00000144 	0x144
5400da38:	0000014a 	0x14a
5400da3c:	00000150 	0x150
5400da40:	00000156 	0x156
5400da44:	0000015b 	0x15b
5400da48:	00000161 	0x161
5400da4c:	00000167 	0x167
5400da50:	0000016d 	0x16d
5400da54:	00000173 	tltu	zero,zero,0x5
5400da58:	00000179 	0x179
5400da5c:	0000017f 	0x17f
5400da60:	00000184 	0x184
5400da64:	0000018a 	0x18a
5400da68:	00000190 	0x190
5400da6c:	00000196 	0x196
5400da70:	0000019c 	0x19c
5400da74:	000001a1 	0x1a1
5400da78:	000001a7 	0x1a7
5400da7c:	000001ad 	0x1ad
5400da80:	000001b2 	tlt	zero,zero,0x6
5400da84:	000001b8 	0x1b8
5400da88:	000001be 	0x1be
5400da8c:	000001c3 	sra	zero,zero,0x7
5400da90:	000001c9 	0x1c9
5400da94:	000001cf 	0x1cf
5400da98:	000001d4 	0x1d4
5400da9c:	000001da 	0x1da
5400daa0:	000001df 	0x1df
5400daa4:	000001e5 	0x1e5
5400daa8:	000001eb 	0x1eb
5400daac:	000001f0 	tge	zero,zero,0x7
5400dab0:	000001f5 	0x1f5
5400dab4:	000001fb 	0x1fb
5400dab8:	00000200 	sll	zero,zero,0x8
5400dabc:	00000206 	0x206
5400dac0:	0000020b 	0x20b
5400dac4:	00000211 	0x211
5400dac8:	00000216 	0x216
5400dacc:	0000021b 	0x21b
5400dad0:	00000221 	0x221
5400dad4:	00000226 	0x226
5400dad8:	0000022b 	0x22b
5400dadc:	00000231 	tgeu	zero,zero,0x8
5400dae0:	00000236 	tne	zero,zero,0x8
5400dae4:	0000023b 	0x23b
5400dae8:	00000240 	sll	zero,zero,0x9
5400daec:	00000245 	0x245
5400daf0:	0000024b 	0x24b
5400daf4:	00000250 	0x250
5400daf8:	00000255 	0x255
5400dafc:	0000025a 	0x25a
5400db00:	0000025f 	0x25f
5400db04:	00000264 	0x264
5400db08:	00000269 	0x269
5400db0c:	0000026e 	0x26e
5400db10:	00000273 	tltu	zero,zero,0x9
5400db14:	00000278 	0x278
5400db18:	0000027d 	0x27d
5400db1c:	00000282 	srl	zero,zero,0xa
5400db20:	00000287 	0x287
5400db24:	0000028c 	syscall	0xa
5400db28:	00000290 	0x290
5400db2c:	00000295 	0x295
5400db30:	0000029a 	0x29a
5400db34:	0000029f 	0x29f
5400db38:	000002a3 	0x2a3
5400db3c:	000002a8 	0x2a8
5400db40:	000002ad 	0x2ad
5400db44:	000002b2 	tlt	zero,zero,0xa
5400db48:	000002b6 	tne	zero,zero,0xa
5400db4c:	000002bb 	0x2bb
5400db50:	000002bf 	0x2bf
5400db54:	000002c4 	0x2c4
5400db58:	000002c8 	0x2c8
5400db5c:	000002cd 	break	0x0,0xb
5400db60:	000002d1 	0x2d1
5400db64:	000002d6 	0x2d6
5400db68:	000002da 	0x2da
5400db6c:	000002df 	0x2df
5400db70:	000002e3 	0x2e3
5400db74:	000002e7 	0x2e7
5400db78:	000002ec 	0x2ec
5400db7c:	000002f0 	tge	zero,zero,0xb
5400db80:	000002f4 	teq	zero,zero,0xb
5400db84:	000002f8 	0x2f8
5400db88:	000002fd 	0x2fd
5400db8c:	00000301 	0x301
5400db90:	00000305 	0x305
5400db94:	00000309 	0x309
5400db98:	0000030d 	break	0x0,0xc
5400db9c:	00000311 	0x311
5400dba0:	00000315 	0x315
5400dba4:	00000319 	0x319
5400dba8:	0000031d 	0x31d
5400dbac:	00000321 	0x321
5400dbb0:	00000325 	0x325
5400dbb4:	00000329 	0x329
5400dbb8:	0000032d 	0x32d
5400dbbc:	00000330 	tge	zero,zero,0xc
5400dbc0:	00000334 	teq	zero,zero,0xc
5400dbc4:	00000338 	0x338
5400dbc8:	0000033c 	0x33c
5400dbcc:	0000033f 	0x33f
5400dbd0:	00000343 	sra	zero,zero,0xd
5400dbd4:	00000347 	0x347
5400dbd8:	0000034a 	0x34a
5400dbdc:	0000034e 	0x34e
5400dbe0:	00000351 	0x351
5400dbe4:	00000355 	0x355
5400dbe8:	00000358 	0x358
5400dbec:	0000035c 	0x35c
5400dbf0:	0000035f 	0x35f
5400dbf4:	00000362 	0x362
5400dbf8:	00000366 	0x366
5400dbfc:	00000369 	0x369
5400dc00:	0000036c 	0x36c
5400dc04:	0000036f 	0x36f
5400dc08:	00000373 	tltu	zero,zero,0xd
5400dc0c:	00000376 	tne	zero,zero,0xd
5400dc10:	00000379 	0x379
5400dc14:	0000037c 	0x37c
5400dc18:	0000037f 	0x37f
5400dc1c:	00000382 	srl	zero,zero,0xe
5400dc20:	00000385 	0x385
5400dc24:	00000388 	0x388
5400dc28:	0000038b 	0x38b
5400dc2c:	0000038e 	0x38e
5400dc30:	00000391 	0x391
5400dc34:	00000394 	0x394
5400dc38:	00000396 	0x396
5400dc3c:	00000399 	0x399
5400dc40:	0000039c 	0x39c
5400dc44:	0000039f 	0x39f
5400dc48:	000003a1 	0x3a1
5400dc4c:	000003a4 	0x3a4
5400dc50:	000003a6 	0x3a6
5400dc54:	000003a9 	0x3a9
5400dc58:	000003ab 	0x3ab
5400dc5c:	000003ae 	0x3ae
5400dc60:	000003b0 	tge	zero,zero,0xe
5400dc64:	000003b3 	tltu	zero,zero,0xe
5400dc68:	000003b5 	0x3b5
5400dc6c:	000003b7 	0x3b7
5400dc70:	000003ba 	0x3ba
5400dc74:	000003bc 	0x3bc
5400dc78:	000003be 	0x3be
5400dc7c:	000003c0 	sll	zero,zero,0xf
5400dc80:	000003c3 	sra	zero,zero,0xf
5400dc84:	000003c5 	0x3c5
5400dc88:	000003c7 	0x3c7
5400dc8c:	000003c9 	0x3c9
5400dc90:	000003cb 	0x3cb
5400dc94:	000003cd 	break	0x0,0xf
5400dc98:	000003cf 	0x3cf
5400dc9c:	000003d1 	0x3d1
5400dca0:	000003d2 	0x3d2
5400dca4:	000003d4 	0x3d4
5400dca8:	000003d6 	0x3d6
5400dcac:	000003d8 	0x3d8
5400dcb0:	000003da 	0x3da
5400dcb4:	000003db 	0x3db
5400dcb8:	000003dd 	0x3dd
5400dcbc:	000003de 	0x3de
5400dcc0:	000003e0 	0x3e0
5400dcc4:	000003e2 	0x3e2
5400dcc8:	000003e3 	0x3e3
5400dccc:	000003e5 	0x3e5
5400dcd0:	000003e6 	0x3e6
5400dcd4:	000003e7 	0x3e7
5400dcd8:	000003e9 	0x3e9
5400dcdc:	000003ea 	0x3ea
5400dce0:	000003eb 	0x3eb
5400dce4:	000003ec 	0x3ec
5400dce8:	000003ee 	0x3ee
5400dcec:	000003ef 	0x3ef
5400dcf0:	000003f0 	tge	zero,zero,0xf
5400dcf4:	000003f1 	tgeu	zero,zero,0xf
5400dcf8:	000003f2 	tlt	zero,zero,0xf
5400dcfc:	000003f3 	tltu	zero,zero,0xf
5400dd00:	000003f4 	teq	zero,zero,0xf
5400dd04:	000003f5 	0x3f5
5400dd08:	000003f6 	tne	zero,zero,0xf
5400dd0c:	000003f7 	0x3f7
5400dd10:	000003f7 	0x3f7
5400dd14:	000003f8 	0x3f8
5400dd18:	000003f9 	0x3f9
5400dd1c:	000003fa 	0x3fa
5400dd20:	000003fa 	0x3fa
5400dd24:	000003fb 	0x3fb
5400dd28:	000003fb 	0x3fb
5400dd2c:	000003fc 	0x3fc
5400dd30:	000003fc 	0x3fc
5400dd34:	000003fd 	0x3fd
5400dd38:	000003fd 	0x3fd
5400dd3c:	000003fe 	0x3fe
5400dd40:	000003fe 	0x3fe
5400dd44:	000003fe 	0x3fe
5400dd48:	000003ff 	0x3ff
5400dd4c:	000003ff 	0x3ff
5400dd50:	000003ff 	0x3ff
5400dd54:	000003ff 	0x3ff
5400dd58:	000003ff 	0x3ff
5400dd5c:	000003ff 	0x3ff
5400dd60:	000003ff 	0x3ff
5400dd64:	000003ff 	0x3ff
5400dd68:	000003ff 	0x3ff
5400dd6c:	000003ff 	0x3ff
5400dd70:	000003ff 	0x3ff
5400dd74:	000003ff 	0x3ff
5400dd78:	000003ff 	0x3ff
5400dd7c:	000003ff 	0x3ff
5400dd80:	000003fe 	0x3fe
5400dd84:	000003fe 	0x3fe
5400dd88:	000003fe 	0x3fe
5400dd8c:	000003fd 	0x3fd
5400dd90:	000003fd 	0x3fd
5400dd94:	000003fc 	0x3fc
5400dd98:	000003fc 	0x3fc
5400dd9c:	000003fb 	0x3fb
5400dda0:	000003fb 	0x3fb
5400dda4:	000003fa 	0x3fa
5400dda8:	000003fa 	0x3fa
5400ddac:	000003f9 	0x3f9
5400ddb0:	000003f8 	0x3f8
5400ddb4:	000003f7 	0x3f7
5400ddb8:	000003f7 	0x3f7
5400ddbc:	000003f6 	tne	zero,zero,0xf
5400ddc0:	000003f5 	0x3f5
5400ddc4:	000003f4 	teq	zero,zero,0xf
5400ddc8:	000003f3 	tltu	zero,zero,0xf
5400ddcc:	000003f2 	tlt	zero,zero,0xf
5400ddd0:	000003f1 	tgeu	zero,zero,0xf
5400ddd4:	000003f0 	tge	zero,zero,0xf
5400ddd8:	000003ef 	0x3ef
5400dddc:	000003ee 	0x3ee
5400dde0:	000003ec 	0x3ec
5400dde4:	000003eb 	0x3eb
5400dde8:	000003ea 	0x3ea
5400ddec:	000003e9 	0x3e9
5400ddf0:	000003e7 	0x3e7
5400ddf4:	000003e6 	0x3e6
5400ddf8:	000003e5 	0x3e5
5400ddfc:	000003e3 	0x3e3
5400de00:	000003e2 	0x3e2
5400de04:	000003e0 	0x3e0
5400de08:	000003de 	0x3de
5400de0c:	000003dd 	0x3dd
5400de10:	000003db 	0x3db
5400de14:	000003da 	0x3da
5400de18:	000003d8 	0x3d8
5400de1c:	000003d6 	0x3d6
5400de20:	000003d4 	0x3d4
5400de24:	000003d2 	0x3d2
5400de28:	000003d1 	0x3d1
5400de2c:	000003cf 	0x3cf
5400de30:	000003cd 	break	0x0,0xf
5400de34:	000003cb 	0x3cb
5400de38:	000003c9 	0x3c9
5400de3c:	000003c7 	0x3c7
5400de40:	000003c5 	0x3c5
5400de44:	000003c3 	sra	zero,zero,0xf
5400de48:	000003c0 	sll	zero,zero,0xf
5400de4c:	000003be 	0x3be
5400de50:	000003bc 	0x3bc
5400de54:	000003ba 	0x3ba
5400de58:	000003b7 	0x3b7
5400de5c:	000003b5 	0x3b5
5400de60:	000003b3 	tltu	zero,zero,0xe
5400de64:	000003b0 	tge	zero,zero,0xe
5400de68:	000003ae 	0x3ae
5400de6c:	000003ab 	0x3ab
5400de70:	000003a9 	0x3a9
5400de74:	000003a6 	0x3a6
5400de78:	000003a4 	0x3a4
5400de7c:	000003a1 	0x3a1
5400de80:	0000039f 	0x39f
5400de84:	0000039c 	0x39c
5400de88:	00000399 	0x399
5400de8c:	00000396 	0x396
5400de90:	00000394 	0x394
5400de94:	00000391 	0x391
5400de98:	0000038e 	0x38e
5400de9c:	0000038b 	0x38b
5400dea0:	00000388 	0x388
5400dea4:	00000385 	0x385
5400dea8:	00000382 	srl	zero,zero,0xe
5400deac:	0000037f 	0x37f
5400deb0:	0000037c 	0x37c
5400deb4:	00000379 	0x379
5400deb8:	00000376 	tne	zero,zero,0xd
5400debc:	00000373 	tltu	zero,zero,0xd
5400dec0:	0000036f 	0x36f
5400dec4:	0000036c 	0x36c
5400dec8:	00000369 	0x369
5400decc:	00000366 	0x366
5400ded0:	00000362 	0x362
5400ded4:	0000035f 	0x35f
5400ded8:	0000035c 	0x35c
5400dedc:	00000358 	0x358
5400dee0:	00000355 	0x355
5400dee4:	00000351 	0x351
5400dee8:	0000034e 	0x34e
5400deec:	0000034a 	0x34a
5400def0:	00000347 	0x347
5400def4:	00000343 	sra	zero,zero,0xd
5400def8:	0000033f 	0x33f
5400defc:	0000033c 	0x33c
5400df00:	00000338 	0x338
5400df04:	00000334 	teq	zero,zero,0xc
5400df08:	00000330 	tge	zero,zero,0xc
5400df0c:	0000032d 	0x32d
5400df10:	00000329 	0x329
5400df14:	00000325 	0x325
5400df18:	00000321 	0x321
5400df1c:	0000031d 	0x31d
5400df20:	00000319 	0x319
5400df24:	00000315 	0x315
5400df28:	00000311 	0x311
5400df2c:	0000030d 	break	0x0,0xc
5400df30:	00000309 	0x309
5400df34:	00000305 	0x305
5400df38:	00000301 	0x301
5400df3c:	000002fd 	0x2fd
5400df40:	000002f8 	0x2f8
5400df44:	000002f4 	teq	zero,zero,0xb
5400df48:	000002f0 	tge	zero,zero,0xb
5400df4c:	000002ec 	0x2ec
5400df50:	000002e7 	0x2e7
5400df54:	000002e3 	0x2e3
5400df58:	000002df 	0x2df
5400df5c:	000002da 	0x2da
5400df60:	000002d6 	0x2d6
5400df64:	000002d1 	0x2d1
5400df68:	000002cd 	break	0x0,0xb
5400df6c:	000002c8 	0x2c8
5400df70:	000002c4 	0x2c4
5400df74:	000002bf 	0x2bf
5400df78:	000002bb 	0x2bb
5400df7c:	000002b6 	tne	zero,zero,0xa
5400df80:	000002b2 	tlt	zero,zero,0xa
5400df84:	000002ad 	0x2ad
5400df88:	000002a8 	0x2a8
5400df8c:	000002a3 	0x2a3
5400df90:	0000029f 	0x29f
5400df94:	0000029a 	0x29a
5400df98:	00000295 	0x295
5400df9c:	00000290 	0x290
5400dfa0:	0000028c 	syscall	0xa
5400dfa4:	00000287 	0x287
5400dfa8:	00000282 	srl	zero,zero,0xa
5400dfac:	0000027d 	0x27d
5400dfb0:	00000278 	0x278
5400dfb4:	00000273 	tltu	zero,zero,0x9
5400dfb8:	0000026e 	0x26e
5400dfbc:	00000269 	0x269
5400dfc0:	00000264 	0x264
5400dfc4:	0000025f 	0x25f
5400dfc8:	0000025a 	0x25a
5400dfcc:	00000255 	0x255
5400dfd0:	00000250 	0x250
5400dfd4:	0000024b 	0x24b
5400dfd8:	00000245 	0x245
5400dfdc:	00000240 	sll	zero,zero,0x9
5400dfe0:	0000023b 	0x23b
5400dfe4:	00000236 	tne	zero,zero,0x8
5400dfe8:	00000231 	tgeu	zero,zero,0x8
5400dfec:	0000022b 	0x22b
5400dff0:	00000226 	0x226
5400dff4:	00000221 	0x221
5400dff8:	0000021b 	0x21b
5400dffc:	00000216 	0x216
5400e000:	00000211 	0x211
5400e004:	0000020b 	0x20b
5400e008:	00000206 	0x206
5400e00c:	00000200 	sll	zero,zero,0x8
5400e010:	000001fb 	0x1fb
5400e014:	000001f5 	0x1f5
5400e018:	000001f0 	tge	zero,zero,0x7
5400e01c:	000001eb 	0x1eb
5400e020:	000001e5 	0x1e5
5400e024:	000001df 	0x1df
5400e028:	000001da 	0x1da
5400e02c:	000001d4 	0x1d4
5400e030:	000001cf 	0x1cf
5400e034:	000001c9 	0x1c9
5400e038:	000001c3 	sra	zero,zero,0x7
5400e03c:	000001be 	0x1be
5400e040:	000001b8 	0x1b8
5400e044:	000001b2 	tlt	zero,zero,0x6
5400e048:	000001ad 	0x1ad
5400e04c:	000001a7 	0x1a7
5400e050:	000001a1 	0x1a1
5400e054:	0000019c 	0x19c
5400e058:	00000196 	0x196
5400e05c:	00000190 	0x190
5400e060:	0000018a 	0x18a
5400e064:	00000184 	0x184
5400e068:	0000017f 	0x17f
5400e06c:	00000179 	0x179
5400e070:	00000173 	tltu	zero,zero,0x5
5400e074:	0000016d 	0x16d
5400e078:	00000167 	0x167
5400e07c:	00000161 	0x161
5400e080:	0000015b 	0x15b
5400e084:	00000156 	0x156
5400e088:	00000150 	0x150
5400e08c:	0000014a 	0x14a
5400e090:	00000144 	0x144
5400e094:	0000013e 	0x13e
5400e098:	00000138 	0x138
5400e09c:	00000132 	tlt	zero,zero,0x4
5400e0a0:	0000012c 	0x12c
5400e0a4:	00000126 	0x126
5400e0a8:	00000120 	0x120
5400e0ac:	0000011a 	0x11a
5400e0b0:	00000114 	0x114
5400e0b4:	0000010e 	0x10e
5400e0b8:	00000108 	0x108
5400e0bc:	00000101 	0x101
5400e0c0:	000000fb 	0xfb
5400e0c4:	000000f5 	0xf5
5400e0c8:	000000ef 	0xef
5400e0cc:	000000e9 	0xe9
5400e0d0:	000000e3 	0xe3
5400e0d4:	000000dd 	0xdd
5400e0d8:	000000d7 	0xd7
5400e0dc:	000000d1 	0xd1
5400e0e0:	000000ca 	0xca
5400e0e4:	000000c4 	0xc4
5400e0e8:	000000be 	0xbe
5400e0ec:	000000b8 	0xb8
5400e0f0:	000000b2 	tlt	zero,zero,0x2
5400e0f4:	000000ab 	0xab
5400e0f8:	000000a5 	0xa5
5400e0fc:	0000009f 	0x9f
5400e100:	00000099 	0x99
5400e104:	00000093 	0x93
5400e108:	0000008c 	syscall	0x2
5400e10c:	00000086 	0x86
5400e110:	00000080 	sll	zero,zero,0x2
5400e114:	0000007a 	0x7a
5400e118:	00000073 	tltu	zero,zero,0x1
5400e11c:	0000006d 	0x6d
5400e120:	00000067 	0x67
5400e124:	00000061 	0x61
5400e128:	0000005a 	0x5a
5400e12c:	00000054 	0x54
5400e130:	0000004e 	0x4e
5400e134:	00000048 	0x48
5400e138:	00000041 	0x41
5400e13c:	0000003b 	0x3b
5400e140:	00000035 	0x35
5400e144:	0000002f 	0x2f
5400e148:	00000028 	0x28
5400e14c:	00000022 	neg	zero,zero
5400e150:	0000001c 	0x1c
5400e154:	00000015 	0x15
5400e158:	0000000f 	sync
5400e15c:	00000009 	jalr	zero,zero
5400e160:	00000003 	sra	zero,zero,0x0
5400e164:	fffffffc 	sdc3	$31,-4(ra)
5400e168:	fffffff6 	sdc3	$31,-10(ra)
5400e16c:	fffffff0 	sdc3	$31,-16(ra)
5400e170:	ffffffea 	sdc3	$31,-22(ra)
5400e174:	ffffffe3 	sdc3	$31,-29(ra)
5400e178:	ffffffdd 	sdc3	$31,-35(ra)
5400e17c:	ffffffd7 	sdc3	$31,-41(ra)
5400e180:	ffffffd0 	sdc3	$31,-48(ra)
5400e184:	ffffffca 	sdc3	$31,-54(ra)
5400e188:	ffffffc4 	sdc3	$31,-60(ra)
5400e18c:	ffffffbe 	sdc3	$31,-66(ra)
5400e190:	ffffffb7 	sdc3	$31,-73(ra)
5400e194:	ffffffb1 	sdc3	$31,-79(ra)
5400e198:	ffffffab 	sdc3	$31,-85(ra)
5400e19c:	ffffffa5 	sdc3	$31,-91(ra)
5400e1a0:	ffffff9e 	sdc3	$31,-98(ra)
5400e1a4:	ffffff98 	sdc3	$31,-104(ra)
5400e1a8:	ffffff92 	sdc3	$31,-110(ra)
5400e1ac:	ffffff8c 	sdc3	$31,-116(ra)
5400e1b0:	ffffff85 	sdc3	$31,-123(ra)
5400e1b4:	ffffff7f 	sdc3	$31,-129(ra)
5400e1b8:	ffffff79 	sdc3	$31,-135(ra)
5400e1bc:	ffffff73 	sdc3	$31,-141(ra)
5400e1c0:	ffffff6c 	sdc3	$31,-148(ra)
5400e1c4:	ffffff66 	sdc3	$31,-154(ra)
5400e1c8:	ffffff60 	sdc3	$31,-160(ra)
5400e1cc:	ffffff5a 	sdc3	$31,-166(ra)
5400e1d0:	ffffff54 	sdc3	$31,-172(ra)
5400e1d4:	ffffff4d 	sdc3	$31,-179(ra)
5400e1d8:	ffffff47 	sdc3	$31,-185(ra)
5400e1dc:	ffffff41 	sdc3	$31,-191(ra)
5400e1e0:	ffffff3b 	sdc3	$31,-197(ra)
5400e1e4:	ffffff35 	sdc3	$31,-203(ra)
5400e1e8:	ffffff2e 	sdc3	$31,-210(ra)
5400e1ec:	ffffff28 	sdc3	$31,-216(ra)
5400e1f0:	ffffff22 	sdc3	$31,-222(ra)
5400e1f4:	ffffff1c 	sdc3	$31,-228(ra)
5400e1f8:	ffffff16 	sdc3	$31,-234(ra)
5400e1fc:	ffffff10 	sdc3	$31,-240(ra)
5400e200:	ffffff0a 	sdc3	$31,-246(ra)
5400e204:	ffffff04 	sdc3	$31,-252(ra)
5400e208:	fffffefe 	sdc3	$31,-258(ra)
5400e20c:	fffffef7 	sdc3	$31,-265(ra)
5400e210:	fffffef1 	sdc3	$31,-271(ra)
5400e214:	fffffeeb 	sdc3	$31,-277(ra)
5400e218:	fffffee5 	sdc3	$31,-283(ra)
5400e21c:	fffffedf 	sdc3	$31,-289(ra)
5400e220:	fffffed9 	sdc3	$31,-295(ra)
5400e224:	fffffed3 	sdc3	$31,-301(ra)
5400e228:	fffffecd 	sdc3	$31,-307(ra)
5400e22c:	fffffec7 	sdc3	$31,-313(ra)
5400e230:	fffffec1 	sdc3	$31,-319(ra)
5400e234:	fffffebb 	sdc3	$31,-325(ra)
5400e238:	fffffeb5 	sdc3	$31,-331(ra)
5400e23c:	fffffeaf 	sdc3	$31,-337(ra)
5400e240:	fffffea9 	sdc3	$31,-343(ra)
5400e244:	fffffea4 	sdc3	$31,-348(ra)
5400e248:	fffffe9e 	sdc3	$31,-354(ra)
5400e24c:	fffffe98 	sdc3	$31,-360(ra)
5400e250:	fffffe92 	sdc3	$31,-366(ra)
5400e254:	fffffe8c 	sdc3	$31,-372(ra)
5400e258:	fffffe86 	sdc3	$31,-378(ra)
5400e25c:	fffffe80 	sdc3	$31,-384(ra)
5400e260:	fffffe7b 	sdc3	$31,-389(ra)
5400e264:	fffffe75 	sdc3	$31,-395(ra)
5400e268:	fffffe6f 	sdc3	$31,-401(ra)
5400e26c:	fffffe69 	sdc3	$31,-407(ra)
5400e270:	fffffe63 	sdc3	$31,-413(ra)
5400e274:	fffffe5e 	sdc3	$31,-418(ra)
5400e278:	fffffe58 	sdc3	$31,-424(ra)
5400e27c:	fffffe52 	sdc3	$31,-430(ra)
5400e280:	fffffe4d 	sdc3	$31,-435(ra)
5400e284:	fffffe47 	sdc3	$31,-441(ra)
5400e288:	fffffe41 	sdc3	$31,-447(ra)
5400e28c:	fffffe3c 	sdc3	$31,-452(ra)
5400e290:	fffffe36 	sdc3	$31,-458(ra)
5400e294:	fffffe30 	sdc3	$31,-464(ra)
5400e298:	fffffe2b 	sdc3	$31,-469(ra)
5400e29c:	fffffe25 	sdc3	$31,-475(ra)
5400e2a0:	fffffe20 	sdc3	$31,-480(ra)
5400e2a4:	fffffe1a 	sdc3	$31,-486(ra)
5400e2a8:	fffffe14 	sdc3	$31,-492(ra)
5400e2ac:	fffffe0f 	sdc3	$31,-497(ra)
5400e2b0:	fffffe0a 	sdc3	$31,-502(ra)
5400e2b4:	fffffe04 	sdc3	$31,-508(ra)
5400e2b8:	fffffdff 	sdc3	$31,-513(ra)
5400e2bc:	fffffdf9 	sdc3	$31,-519(ra)
5400e2c0:	fffffdf4 	sdc3	$31,-524(ra)
5400e2c4:	fffffdee 	sdc3	$31,-530(ra)
5400e2c8:	fffffde9 	sdc3	$31,-535(ra)
5400e2cc:	fffffde4 	sdc3	$31,-540(ra)
5400e2d0:	fffffdde 	sdc3	$31,-546(ra)
5400e2d4:	fffffdd9 	sdc3	$31,-551(ra)
5400e2d8:	fffffdd4 	sdc3	$31,-556(ra)
5400e2dc:	fffffdce 	sdc3	$31,-562(ra)
5400e2e0:	fffffdc9 	sdc3	$31,-567(ra)
5400e2e4:	fffffdc4 	sdc3	$31,-572(ra)
5400e2e8:	fffffdbf 	sdc3	$31,-577(ra)
5400e2ec:	fffffdba 	sdc3	$31,-582(ra)
5400e2f0:	fffffdb4 	sdc3	$31,-588(ra)
5400e2f4:	fffffdaf 	sdc3	$31,-593(ra)
5400e2f8:	fffffdaa 	sdc3	$31,-598(ra)
5400e2fc:	fffffda5 	sdc3	$31,-603(ra)
5400e300:	fffffda0 	sdc3	$31,-608(ra)
5400e304:	fffffd9b 	sdc3	$31,-613(ra)
5400e308:	fffffd96 	sdc3	$31,-618(ra)
5400e30c:	fffffd91 	sdc3	$31,-623(ra)
5400e310:	fffffd8c 	sdc3	$31,-628(ra)
5400e314:	fffffd87 	sdc3	$31,-633(ra)
5400e318:	fffffd82 	sdc3	$31,-638(ra)
5400e31c:	fffffd7d 	sdc3	$31,-643(ra)
5400e320:	fffffd78 	sdc3	$31,-648(ra)
5400e324:	fffffd73 	sdc3	$31,-653(ra)
5400e328:	fffffd6f 	sdc3	$31,-657(ra)
5400e32c:	fffffd6a 	sdc3	$31,-662(ra)
5400e330:	fffffd65 	sdc3	$31,-667(ra)
5400e334:	fffffd60 	sdc3	$31,-672(ra)
5400e338:	fffffd5c 	sdc3	$31,-676(ra)
5400e33c:	fffffd57 	sdc3	$31,-681(ra)
5400e340:	fffffd52 	sdc3	$31,-686(ra)
5400e344:	fffffd4d 	sdc3	$31,-691(ra)
5400e348:	fffffd49 	sdc3	$31,-695(ra)
5400e34c:	fffffd44 	sdc3	$31,-700(ra)
5400e350:	fffffd40 	sdc3	$31,-704(ra)
5400e354:	fffffd3b 	sdc3	$31,-709(ra)
5400e358:	fffffd37 	sdc3	$31,-713(ra)
5400e35c:	fffffd32 	sdc3	$31,-718(ra)
5400e360:	fffffd2e 	sdc3	$31,-722(ra)
5400e364:	fffffd29 	sdc3	$31,-727(ra)
5400e368:	fffffd25 	sdc3	$31,-731(ra)
5400e36c:	fffffd20 	sdc3	$31,-736(ra)
5400e370:	fffffd1c 	sdc3	$31,-740(ra)
5400e374:	fffffd18 	sdc3	$31,-744(ra)
5400e378:	fffffd13 	sdc3	$31,-749(ra)
5400e37c:	fffffd0f 	sdc3	$31,-753(ra)
5400e380:	fffffd0b 	sdc3	$31,-757(ra)
5400e384:	fffffd07 	sdc3	$31,-761(ra)
5400e388:	fffffd02 	sdc3	$31,-766(ra)
5400e38c:	fffffcfe 	sdc3	$31,-770(ra)
5400e390:	fffffcfa 	sdc3	$31,-774(ra)
5400e394:	fffffcf6 	sdc3	$31,-778(ra)
5400e398:	fffffcf2 	sdc3	$31,-782(ra)
5400e39c:	fffffcee 	sdc3	$31,-786(ra)
5400e3a0:	fffffcea 	sdc3	$31,-790(ra)
5400e3a4:	fffffce6 	sdc3	$31,-794(ra)
5400e3a8:	fffffce2 	sdc3	$31,-798(ra)
5400e3ac:	fffffcde 	sdc3	$31,-802(ra)
5400e3b0:	fffffcda 	sdc3	$31,-806(ra)
5400e3b4:	fffffcd6 	sdc3	$31,-810(ra)
5400e3b8:	fffffcd2 	sdc3	$31,-814(ra)
5400e3bc:	fffffccf 	sdc3	$31,-817(ra)
5400e3c0:	fffffccb 	sdc3	$31,-821(ra)
5400e3c4:	fffffcc7 	sdc3	$31,-825(ra)
5400e3c8:	fffffcc3 	sdc3	$31,-829(ra)
5400e3cc:	fffffcc0 	sdc3	$31,-832(ra)
5400e3d0:	fffffcbc 	sdc3	$31,-836(ra)
5400e3d4:	fffffcb8 	sdc3	$31,-840(ra)
5400e3d8:	fffffcb5 	sdc3	$31,-843(ra)
5400e3dc:	fffffcb1 	sdc3	$31,-847(ra)
5400e3e0:	fffffcae 	sdc3	$31,-850(ra)
5400e3e4:	fffffcaa 	sdc3	$31,-854(ra)
5400e3e8:	fffffca7 	sdc3	$31,-857(ra)
5400e3ec:	fffffca3 	sdc3	$31,-861(ra)
5400e3f0:	fffffca0 	sdc3	$31,-864(ra)
5400e3f4:	fffffc9d 	sdc3	$31,-867(ra)
5400e3f8:	fffffc99 	sdc3	$31,-871(ra)
5400e3fc:	fffffc96 	sdc3	$31,-874(ra)
5400e400:	fffffc93 	sdc3	$31,-877(ra)
5400e404:	fffffc90 	sdc3	$31,-880(ra)
5400e408:	fffffc8c 	sdc3	$31,-884(ra)
5400e40c:	fffffc89 	sdc3	$31,-887(ra)
5400e410:	fffffc86 	sdc3	$31,-890(ra)
5400e414:	fffffc83 	sdc3	$31,-893(ra)
5400e418:	fffffc80 	sdc3	$31,-896(ra)
5400e41c:	fffffc7d 	sdc3	$31,-899(ra)
5400e420:	fffffc7a 	sdc3	$31,-902(ra)
5400e424:	fffffc77 	sdc3	$31,-905(ra)
5400e428:	fffffc74 	sdc3	$31,-908(ra)
5400e42c:	fffffc71 	sdc3	$31,-911(ra)
5400e430:	fffffc6e 	sdc3	$31,-914(ra)
5400e434:	fffffc6b 	sdc3	$31,-917(ra)
5400e438:	fffffc69 	sdc3	$31,-919(ra)
5400e43c:	fffffc66 	sdc3	$31,-922(ra)
5400e440:	fffffc63 	sdc3	$31,-925(ra)
5400e444:	fffffc60 	sdc3	$31,-928(ra)
5400e448:	fffffc5e 	sdc3	$31,-930(ra)
5400e44c:	fffffc5b 	sdc3	$31,-933(ra)
5400e450:	fffffc59 	sdc3	$31,-935(ra)
5400e454:	fffffc56 	sdc3	$31,-938(ra)
5400e458:	fffffc54 	sdc3	$31,-940(ra)
5400e45c:	fffffc51 	sdc3	$31,-943(ra)
5400e460:	fffffc4f 	sdc3	$31,-945(ra)
5400e464:	fffffc4c 	sdc3	$31,-948(ra)
5400e468:	fffffc4a 	sdc3	$31,-950(ra)
5400e46c:	fffffc48 	sdc3	$31,-952(ra)
5400e470:	fffffc45 	sdc3	$31,-955(ra)
5400e474:	fffffc43 	sdc3	$31,-957(ra)
5400e478:	fffffc41 	sdc3	$31,-959(ra)
5400e47c:	fffffc3f 	sdc3	$31,-961(ra)
5400e480:	fffffc3c 	sdc3	$31,-964(ra)
5400e484:	fffffc3a 	sdc3	$31,-966(ra)
5400e488:	fffffc38 	sdc3	$31,-968(ra)
5400e48c:	fffffc36 	sdc3	$31,-970(ra)
5400e490:	fffffc34 	sdc3	$31,-972(ra)
5400e494:	fffffc32 	sdc3	$31,-974(ra)
5400e498:	fffffc30 	sdc3	$31,-976(ra)
5400e49c:	fffffc2e 	sdc3	$31,-978(ra)
5400e4a0:	fffffc2d 	sdc3	$31,-979(ra)
5400e4a4:	fffffc2b 	sdc3	$31,-981(ra)
5400e4a8:	fffffc29 	sdc3	$31,-983(ra)
5400e4ac:	fffffc27 	sdc3	$31,-985(ra)
5400e4b0:	fffffc25 	sdc3	$31,-987(ra)
5400e4b4:	fffffc24 	sdc3	$31,-988(ra)
5400e4b8:	fffffc22 	sdc3	$31,-990(ra)
5400e4bc:	fffffc21 	sdc3	$31,-991(ra)
5400e4c0:	fffffc1f 	sdc3	$31,-993(ra)
5400e4c4:	fffffc1d 	sdc3	$31,-995(ra)
5400e4c8:	fffffc1c 	sdc3	$31,-996(ra)
5400e4cc:	fffffc1a 	sdc3	$31,-998(ra)
5400e4d0:	fffffc19 	sdc3	$31,-999(ra)
5400e4d4:	fffffc18 	sdc3	$31,-1000(ra)
5400e4d8:	fffffc16 	sdc3	$31,-1002(ra)
5400e4dc:	fffffc15 	sdc3	$31,-1003(ra)
5400e4e0:	fffffc14 	sdc3	$31,-1004(ra)
5400e4e4:	fffffc13 	sdc3	$31,-1005(ra)
5400e4e8:	fffffc11 	sdc3	$31,-1007(ra)
5400e4ec:	fffffc10 	sdc3	$31,-1008(ra)
5400e4f0:	fffffc0f 	sdc3	$31,-1009(ra)
5400e4f4:	fffffc0e 	sdc3	$31,-1010(ra)
5400e4f8:	fffffc0d 	sdc3	$31,-1011(ra)
5400e4fc:	fffffc0c 	sdc3	$31,-1012(ra)
5400e500:	fffffc0b 	sdc3	$31,-1013(ra)
5400e504:	fffffc0a 	sdc3	$31,-1014(ra)
5400e508:	fffffc09 	sdc3	$31,-1015(ra)
5400e50c:	fffffc08 	sdc3	$31,-1016(ra)
5400e510:	fffffc08 	sdc3	$31,-1016(ra)
5400e514:	fffffc07 	sdc3	$31,-1017(ra)
5400e518:	fffffc06 	sdc3	$31,-1018(ra)
5400e51c:	fffffc05 	sdc3	$31,-1019(ra)
5400e520:	fffffc05 	sdc3	$31,-1019(ra)
5400e524:	fffffc04 	sdc3	$31,-1020(ra)
5400e528:	fffffc04 	sdc3	$31,-1020(ra)
5400e52c:	fffffc03 	sdc3	$31,-1021(ra)
5400e530:	fffffc03 	sdc3	$31,-1021(ra)
5400e534:	fffffc02 	sdc3	$31,-1022(ra)
5400e538:	fffffc02 	sdc3	$31,-1022(ra)
5400e53c:	fffffc01 	sdc3	$31,-1023(ra)
5400e540:	fffffc01 	sdc3	$31,-1023(ra)
5400e544:	fffffc01 	sdc3	$31,-1023(ra)
5400e548:	fffffc00 	sdc3	$31,-1024(ra)
5400e54c:	fffffc00 	sdc3	$31,-1024(ra)
5400e550:	fffffc00 	sdc3	$31,-1024(ra)
5400e554:	fffffc00 	sdc3	$31,-1024(ra)
5400e558:	fffffc00 	sdc3	$31,-1024(ra)
5400e55c:	fffffc00 	sdc3	$31,-1024(ra)
5400e560:	fffffc00 	sdc3	$31,-1024(ra)
5400e564:	fffffc00 	sdc3	$31,-1024(ra)
5400e568:	fffffc00 	sdc3	$31,-1024(ra)
5400e56c:	fffffc00 	sdc3	$31,-1024(ra)
5400e570:	fffffc00 	sdc3	$31,-1024(ra)
5400e574:	fffffc00 	sdc3	$31,-1024(ra)
5400e578:	fffffc00 	sdc3	$31,-1024(ra)
5400e57c:	fffffc00 	sdc3	$31,-1024(ra)
5400e580:	fffffc01 	sdc3	$31,-1023(ra)
5400e584:	fffffc01 	sdc3	$31,-1023(ra)
5400e588:	fffffc01 	sdc3	$31,-1023(ra)
5400e58c:	fffffc02 	sdc3	$31,-1022(ra)
5400e590:	fffffc02 	sdc3	$31,-1022(ra)
5400e594:	fffffc03 	sdc3	$31,-1021(ra)
5400e598:	fffffc03 	sdc3	$31,-1021(ra)
5400e59c:	fffffc04 	sdc3	$31,-1020(ra)
5400e5a0:	fffffc04 	sdc3	$31,-1020(ra)
5400e5a4:	fffffc05 	sdc3	$31,-1019(ra)
5400e5a8:	fffffc05 	sdc3	$31,-1019(ra)
5400e5ac:	fffffc06 	sdc3	$31,-1018(ra)
5400e5b0:	fffffc07 	sdc3	$31,-1017(ra)
5400e5b4:	fffffc08 	sdc3	$31,-1016(ra)
5400e5b8:	fffffc08 	sdc3	$31,-1016(ra)
5400e5bc:	fffffc09 	sdc3	$31,-1015(ra)
5400e5c0:	fffffc0a 	sdc3	$31,-1014(ra)
5400e5c4:	fffffc0b 	sdc3	$31,-1013(ra)
5400e5c8:	fffffc0c 	sdc3	$31,-1012(ra)
5400e5cc:	fffffc0d 	sdc3	$31,-1011(ra)
5400e5d0:	fffffc0e 	sdc3	$31,-1010(ra)
5400e5d4:	fffffc0f 	sdc3	$31,-1009(ra)
5400e5d8:	fffffc10 	sdc3	$31,-1008(ra)
5400e5dc:	fffffc11 	sdc3	$31,-1007(ra)
5400e5e0:	fffffc13 	sdc3	$31,-1005(ra)
5400e5e4:	fffffc14 	sdc3	$31,-1004(ra)
5400e5e8:	fffffc15 	sdc3	$31,-1003(ra)
5400e5ec:	fffffc16 	sdc3	$31,-1002(ra)
5400e5f0:	fffffc18 	sdc3	$31,-1000(ra)
5400e5f4:	fffffc19 	sdc3	$31,-999(ra)
5400e5f8:	fffffc1a 	sdc3	$31,-998(ra)
5400e5fc:	fffffc1c 	sdc3	$31,-996(ra)
5400e600:	fffffc1d 	sdc3	$31,-995(ra)
5400e604:	fffffc1f 	sdc3	$31,-993(ra)
5400e608:	fffffc21 	sdc3	$31,-991(ra)
5400e60c:	fffffc22 	sdc3	$31,-990(ra)
5400e610:	fffffc24 	sdc3	$31,-988(ra)
5400e614:	fffffc25 	sdc3	$31,-987(ra)
5400e618:	fffffc27 	sdc3	$31,-985(ra)
5400e61c:	fffffc29 	sdc3	$31,-983(ra)
5400e620:	fffffc2b 	sdc3	$31,-981(ra)
5400e624:	fffffc2d 	sdc3	$31,-979(ra)
5400e628:	fffffc2e 	sdc3	$31,-978(ra)
5400e62c:	fffffc30 	sdc3	$31,-976(ra)
5400e630:	fffffc32 	sdc3	$31,-974(ra)
5400e634:	fffffc34 	sdc3	$31,-972(ra)
5400e638:	fffffc36 	sdc3	$31,-970(ra)
5400e63c:	fffffc38 	sdc3	$31,-968(ra)
5400e640:	fffffc3a 	sdc3	$31,-966(ra)
5400e644:	fffffc3c 	sdc3	$31,-964(ra)
5400e648:	fffffc3f 	sdc3	$31,-961(ra)
5400e64c:	fffffc41 	sdc3	$31,-959(ra)
5400e650:	fffffc43 	sdc3	$31,-957(ra)
5400e654:	fffffc45 	sdc3	$31,-955(ra)
5400e658:	fffffc48 	sdc3	$31,-952(ra)
5400e65c:	fffffc4a 	sdc3	$31,-950(ra)
5400e660:	fffffc4c 	sdc3	$31,-948(ra)
5400e664:	fffffc4f 	sdc3	$31,-945(ra)
5400e668:	fffffc51 	sdc3	$31,-943(ra)
5400e66c:	fffffc54 	sdc3	$31,-940(ra)
5400e670:	fffffc56 	sdc3	$31,-938(ra)
5400e674:	fffffc59 	sdc3	$31,-935(ra)
5400e678:	fffffc5b 	sdc3	$31,-933(ra)
5400e67c:	fffffc5e 	sdc3	$31,-930(ra)
5400e680:	fffffc60 	sdc3	$31,-928(ra)
5400e684:	fffffc63 	sdc3	$31,-925(ra)
5400e688:	fffffc66 	sdc3	$31,-922(ra)
5400e68c:	fffffc69 	sdc3	$31,-919(ra)
5400e690:	fffffc6b 	sdc3	$31,-917(ra)
5400e694:	fffffc6e 	sdc3	$31,-914(ra)
5400e698:	fffffc71 	sdc3	$31,-911(ra)
5400e69c:	fffffc74 	sdc3	$31,-908(ra)
5400e6a0:	fffffc77 	sdc3	$31,-905(ra)
5400e6a4:	fffffc7a 	sdc3	$31,-902(ra)
5400e6a8:	fffffc7d 	sdc3	$31,-899(ra)
5400e6ac:	fffffc80 	sdc3	$31,-896(ra)
5400e6b0:	fffffc83 	sdc3	$31,-893(ra)
5400e6b4:	fffffc86 	sdc3	$31,-890(ra)
5400e6b8:	fffffc89 	sdc3	$31,-887(ra)
5400e6bc:	fffffc8c 	sdc3	$31,-884(ra)
5400e6c0:	fffffc90 	sdc3	$31,-880(ra)
5400e6c4:	fffffc93 	sdc3	$31,-877(ra)
5400e6c8:	fffffc96 	sdc3	$31,-874(ra)
5400e6cc:	fffffc99 	sdc3	$31,-871(ra)
5400e6d0:	fffffc9d 	sdc3	$31,-867(ra)
5400e6d4:	fffffca0 	sdc3	$31,-864(ra)
5400e6d8:	fffffca3 	sdc3	$31,-861(ra)
5400e6dc:	fffffca7 	sdc3	$31,-857(ra)
5400e6e0:	fffffcaa 	sdc3	$31,-854(ra)
5400e6e4:	fffffcae 	sdc3	$31,-850(ra)
5400e6e8:	fffffcb1 	sdc3	$31,-847(ra)
5400e6ec:	fffffcb5 	sdc3	$31,-843(ra)
5400e6f0:	fffffcb8 	sdc3	$31,-840(ra)
5400e6f4:	fffffcbc 	sdc3	$31,-836(ra)
5400e6f8:	fffffcc0 	sdc3	$31,-832(ra)
5400e6fc:	fffffcc3 	sdc3	$31,-829(ra)
5400e700:	fffffcc7 	sdc3	$31,-825(ra)
5400e704:	fffffccb 	sdc3	$31,-821(ra)
5400e708:	fffffccf 	sdc3	$31,-817(ra)
5400e70c:	fffffcd2 	sdc3	$31,-814(ra)
5400e710:	fffffcd6 	sdc3	$31,-810(ra)
5400e714:	fffffcda 	sdc3	$31,-806(ra)
5400e718:	fffffcde 	sdc3	$31,-802(ra)
5400e71c:	fffffce2 	sdc3	$31,-798(ra)
5400e720:	fffffce6 	sdc3	$31,-794(ra)
5400e724:	fffffcea 	sdc3	$31,-790(ra)
5400e728:	fffffcee 	sdc3	$31,-786(ra)
5400e72c:	fffffcf2 	sdc3	$31,-782(ra)
5400e730:	fffffcf6 	sdc3	$31,-778(ra)
5400e734:	fffffcfa 	sdc3	$31,-774(ra)
5400e738:	fffffcfe 	sdc3	$31,-770(ra)
5400e73c:	fffffd02 	sdc3	$31,-766(ra)
5400e740:	fffffd07 	sdc3	$31,-761(ra)
5400e744:	fffffd0b 	sdc3	$31,-757(ra)
5400e748:	fffffd0f 	sdc3	$31,-753(ra)
5400e74c:	fffffd13 	sdc3	$31,-749(ra)
5400e750:	fffffd18 	sdc3	$31,-744(ra)
5400e754:	fffffd1c 	sdc3	$31,-740(ra)
5400e758:	fffffd20 	sdc3	$31,-736(ra)
5400e75c:	fffffd25 	sdc3	$31,-731(ra)
5400e760:	fffffd29 	sdc3	$31,-727(ra)
5400e764:	fffffd2e 	sdc3	$31,-722(ra)
5400e768:	fffffd32 	sdc3	$31,-718(ra)
5400e76c:	fffffd37 	sdc3	$31,-713(ra)
5400e770:	fffffd3b 	sdc3	$31,-709(ra)
5400e774:	fffffd40 	sdc3	$31,-704(ra)
5400e778:	fffffd44 	sdc3	$31,-700(ra)
5400e77c:	fffffd49 	sdc3	$31,-695(ra)
5400e780:	fffffd4d 	sdc3	$31,-691(ra)
5400e784:	fffffd52 	sdc3	$31,-686(ra)
5400e788:	fffffd57 	sdc3	$31,-681(ra)
5400e78c:	fffffd5c 	sdc3	$31,-676(ra)
5400e790:	fffffd60 	sdc3	$31,-672(ra)
5400e794:	fffffd65 	sdc3	$31,-667(ra)
5400e798:	fffffd6a 	sdc3	$31,-662(ra)
5400e79c:	fffffd6f 	sdc3	$31,-657(ra)
5400e7a0:	fffffd73 	sdc3	$31,-653(ra)
5400e7a4:	fffffd78 	sdc3	$31,-648(ra)
5400e7a8:	fffffd7d 	sdc3	$31,-643(ra)
5400e7ac:	fffffd82 	sdc3	$31,-638(ra)
5400e7b0:	fffffd87 	sdc3	$31,-633(ra)
5400e7b4:	fffffd8c 	sdc3	$31,-628(ra)
5400e7b8:	fffffd91 	sdc3	$31,-623(ra)
5400e7bc:	fffffd96 	sdc3	$31,-618(ra)
5400e7c0:	fffffd9b 	sdc3	$31,-613(ra)
5400e7c4:	fffffda0 	sdc3	$31,-608(ra)
5400e7c8:	fffffda5 	sdc3	$31,-603(ra)
5400e7cc:	fffffdaa 	sdc3	$31,-598(ra)
5400e7d0:	fffffdaf 	sdc3	$31,-593(ra)
5400e7d4:	fffffdb4 	sdc3	$31,-588(ra)
5400e7d8:	fffffdba 	sdc3	$31,-582(ra)
5400e7dc:	fffffdbf 	sdc3	$31,-577(ra)
5400e7e0:	fffffdc4 	sdc3	$31,-572(ra)
5400e7e4:	fffffdc9 	sdc3	$31,-567(ra)
5400e7e8:	fffffdce 	sdc3	$31,-562(ra)
5400e7ec:	fffffdd4 	sdc3	$31,-556(ra)
5400e7f0:	fffffdd9 	sdc3	$31,-551(ra)
5400e7f4:	fffffdde 	sdc3	$31,-546(ra)
5400e7f8:	fffffde4 	sdc3	$31,-540(ra)
5400e7fc:	fffffde9 	sdc3	$31,-535(ra)
5400e800:	fffffdee 	sdc3	$31,-530(ra)
5400e804:	fffffdf4 	sdc3	$31,-524(ra)
5400e808:	fffffdf9 	sdc3	$31,-519(ra)
5400e80c:	fffffdff 	sdc3	$31,-513(ra)
5400e810:	fffffe04 	sdc3	$31,-508(ra)
5400e814:	fffffe0a 	sdc3	$31,-502(ra)
5400e818:	fffffe0f 	sdc3	$31,-497(ra)
5400e81c:	fffffe14 	sdc3	$31,-492(ra)
5400e820:	fffffe1a 	sdc3	$31,-486(ra)
5400e824:	fffffe20 	sdc3	$31,-480(ra)
5400e828:	fffffe25 	sdc3	$31,-475(ra)
5400e82c:	fffffe2b 	sdc3	$31,-469(ra)
5400e830:	fffffe30 	sdc3	$31,-464(ra)
5400e834:	fffffe36 	sdc3	$31,-458(ra)
5400e838:	fffffe3c 	sdc3	$31,-452(ra)
5400e83c:	fffffe41 	sdc3	$31,-447(ra)
5400e840:	fffffe47 	sdc3	$31,-441(ra)
5400e844:	fffffe4d 	sdc3	$31,-435(ra)
5400e848:	fffffe52 	sdc3	$31,-430(ra)
5400e84c:	fffffe58 	sdc3	$31,-424(ra)
5400e850:	fffffe5e 	sdc3	$31,-418(ra)
5400e854:	fffffe63 	sdc3	$31,-413(ra)
5400e858:	fffffe69 	sdc3	$31,-407(ra)
5400e85c:	fffffe6f 	sdc3	$31,-401(ra)
5400e860:	fffffe75 	sdc3	$31,-395(ra)
5400e864:	fffffe7b 	sdc3	$31,-389(ra)
5400e868:	fffffe80 	sdc3	$31,-384(ra)
5400e86c:	fffffe86 	sdc3	$31,-378(ra)
5400e870:	fffffe8c 	sdc3	$31,-372(ra)
5400e874:	fffffe92 	sdc3	$31,-366(ra)
5400e878:	fffffe98 	sdc3	$31,-360(ra)
5400e87c:	fffffe9e 	sdc3	$31,-354(ra)
5400e880:	fffffea4 	sdc3	$31,-348(ra)
5400e884:	fffffea9 	sdc3	$31,-343(ra)
5400e888:	fffffeaf 	sdc3	$31,-337(ra)
5400e88c:	fffffeb5 	sdc3	$31,-331(ra)
5400e890:	fffffebb 	sdc3	$31,-325(ra)
5400e894:	fffffec1 	sdc3	$31,-319(ra)
5400e898:	fffffec7 	sdc3	$31,-313(ra)
5400e89c:	fffffecd 	sdc3	$31,-307(ra)
5400e8a0:	fffffed3 	sdc3	$31,-301(ra)
5400e8a4:	fffffed9 	sdc3	$31,-295(ra)
5400e8a8:	fffffedf 	sdc3	$31,-289(ra)
5400e8ac:	fffffee5 	sdc3	$31,-283(ra)
5400e8b0:	fffffeeb 	sdc3	$31,-277(ra)
5400e8b4:	fffffef1 	sdc3	$31,-271(ra)
5400e8b8:	fffffef7 	sdc3	$31,-265(ra)
5400e8bc:	fffffefe 	sdc3	$31,-258(ra)
5400e8c0:	ffffff04 	sdc3	$31,-252(ra)
5400e8c4:	ffffff0a 	sdc3	$31,-246(ra)
5400e8c8:	ffffff10 	sdc3	$31,-240(ra)
5400e8cc:	ffffff16 	sdc3	$31,-234(ra)
5400e8d0:	ffffff1c 	sdc3	$31,-228(ra)
5400e8d4:	ffffff22 	sdc3	$31,-222(ra)
5400e8d8:	ffffff28 	sdc3	$31,-216(ra)
5400e8dc:	ffffff2e 	sdc3	$31,-210(ra)
5400e8e0:	ffffff35 	sdc3	$31,-203(ra)
5400e8e4:	ffffff3b 	sdc3	$31,-197(ra)
5400e8e8:	ffffff41 	sdc3	$31,-191(ra)
5400e8ec:	ffffff47 	sdc3	$31,-185(ra)
5400e8f0:	ffffff4d 	sdc3	$31,-179(ra)
5400e8f4:	ffffff54 	sdc3	$31,-172(ra)
5400e8f8:	ffffff5a 	sdc3	$31,-166(ra)
5400e8fc:	ffffff60 	sdc3	$31,-160(ra)
5400e900:	ffffff66 	sdc3	$31,-154(ra)
5400e904:	ffffff6c 	sdc3	$31,-148(ra)
5400e908:	ffffff73 	sdc3	$31,-141(ra)
5400e90c:	ffffff79 	sdc3	$31,-135(ra)
5400e910:	ffffff7f 	sdc3	$31,-129(ra)
5400e914:	ffffff85 	sdc3	$31,-123(ra)
5400e918:	ffffff8c 	sdc3	$31,-116(ra)
5400e91c:	ffffff92 	sdc3	$31,-110(ra)
5400e920:	ffffff98 	sdc3	$31,-104(ra)
5400e924:	ffffff9e 	sdc3	$31,-98(ra)
5400e928:	ffffffa5 	sdc3	$31,-91(ra)
5400e92c:	ffffffab 	sdc3	$31,-85(ra)
5400e930:	ffffffb1 	sdc3	$31,-79(ra)
5400e934:	ffffffb7 	sdc3	$31,-73(ra)
5400e938:	ffffffbe 	sdc3	$31,-66(ra)
5400e93c:	ffffffc4 	sdc3	$31,-60(ra)
5400e940:	ffffffca 	sdc3	$31,-54(ra)
5400e944:	ffffffd0 	sdc3	$31,-48(ra)
5400e948:	ffffffd7 	sdc3	$31,-41(ra)
5400e94c:	ffffffdd 	sdc3	$31,-35(ra)
5400e950:	ffffffe3 	sdc3	$31,-29(ra)
5400e954:	ffffffea 	sdc3	$31,-22(ra)
5400e958:	fffffff0 	sdc3	$31,-16(ra)
5400e95c:	fffffff6 	sdc3	$31,-10(ra)
5400e960:	fffffffc 	sdc3	$31,-4(ra)

5400e964 <sqTable>:
5400e964:	00000000 	nop
5400e968:	00000001 	movf	zero,zero,$fcc0
5400e96c:	00000004 	sllv	zero,zero,zero
5400e970:	00000009 	jalr	zero,zero
5400e974:	00000010 	mfhi	zero
5400e978:	00000019 	multu	zero,zero
5400e97c:	00000024 	and	zero,zero,zero
5400e980:	00000031 	tgeu	zero,zero
5400e984:	00000040 	ssnop
5400e988:	00000051 	0x51
5400e98c:	00000064 	0x64
5400e990:	00000079 	0x79
5400e994:	00000090 	0x90
5400e998:	000000a9 	0xa9
5400e99c:	000000c4 	0xc4
5400e9a0:	000000e1 	0xe1
5400e9a4:	00000100 	sll	zero,zero,0x4
5400e9a8:	00000121 	0x121
5400e9ac:	00000144 	0x144
5400e9b0:	00000169 	0x169
5400e9b4:	00000190 	0x190
5400e9b8:	000001b9 	0x1b9
5400e9bc:	000001e4 	0x1e4
5400e9c0:	00000211 	0x211
5400e9c4:	00000240 	sll	zero,zero,0x9
5400e9c8:	00000271 	tgeu	zero,zero,0x9
5400e9cc:	000002a4 	0x2a4
5400e9d0:	000002d9 	0x2d9
5400e9d4:	00000310 	0x310
5400e9d8:	00000349 	0x349
5400e9dc:	00000384 	0x384
5400e9e0:	000003c1 	0x3c1
5400e9e4:	00000400 	sll	zero,zero,0x10
5400e9e8:	00000441 	0x441
5400e9ec:	00000484 	0x484
5400e9f0:	000004c9 	0x4c9
5400e9f4:	00000510 	0x510
5400e9f8:	00000559 	0x559
5400e9fc:	000005a4 	0x5a4
5400ea00:	000005f1 	tgeu	zero,zero,0x17
5400ea04:	00000640 	sll	zero,zero,0x19
5400ea08:	00000691 	0x691
5400ea0c:	000006e4 	0x6e4
5400ea10:	00000739 	0x739
5400ea14:	00000790 	0x790
5400ea18:	000007e9 	0x7e9
5400ea1c:	00000844 	0x844
5400ea20:	000008a1 	0x8a1
5400ea24:	00000900 	sll	at,zero,0x4
5400ea28:	00000961 	0x961
5400ea2c:	000009c4 	0x9c4
5400ea30:	00000a29 	0xa29
5400ea34:	00000a90 	0xa90
5400ea38:	00000af9 	0xaf9
5400ea3c:	00000b64 	0xb64
5400ea40:	00000bd1 	0xbd1
5400ea44:	00000c40 	sll	at,zero,0x11
5400ea48:	00000cb1 	tgeu	zero,zero,0x32
5400ea4c:	00000d24 	0xd24
5400ea50:	00000d99 	0xd99
5400ea54:	00000e10 	0xe10
5400ea58:	00000e89 	0xe89
5400ea5c:	00000f04 	0xf04
5400ea60:	00000f81 	0xf81
5400ea64:	00001000 	sll	v0,zero,0x0
5400ea68:	00001081 	0x1081
5400ea6c:	00001104 	0x1104
5400ea70:	00001189 	0x1189
5400ea74:	00001210 	0x1210
5400ea78:	00001299 	0x1299
5400ea7c:	00001324 	0x1324
5400ea80:	000013b1 	tgeu	zero,zero,0x4e
5400ea84:	00001440 	sll	v0,zero,0x11
5400ea88:	000014d1 	0x14d1
5400ea8c:	00001564 	0x1564
5400ea90:	000015f9 	0x15f9
5400ea94:	00001690 	0x1690
5400ea98:	00001729 	0x1729
5400ea9c:	000017c4 	0x17c4
5400eaa0:	00001861 	0x1861
5400eaa4:	00001900 	sll	v1,zero,0x4
5400eaa8:	000019a1 	0x19a1
5400eaac:	00001a44 	0x1a44
5400eab0:	00001ae9 	0x1ae9
5400eab4:	00001b90 	0x1b90
5400eab8:	00001c39 	0x1c39
5400eabc:	00001ce4 	0x1ce4
5400eac0:	00001d91 	0x1d91
5400eac4:	00001e40 	sll	v1,zero,0x19
5400eac8:	00001ef1 	tgeu	zero,zero,0x7b
5400eacc:	00001fa4 	0x1fa4
5400ead0:	00002059 	0x2059
5400ead4:	00002110 	0x2110
5400ead8:	000021c9 	0x21c9
5400eadc:	00002284 	0x2284
5400eae0:	00002341 	0x2341
5400eae4:	00002400 	sll	a0,zero,0x10
5400eae8:	000024c1 	0x24c1
5400eaec:	00002584 	0x2584
5400eaf0:	00002649 	0x2649
5400eaf4:	00002710 	0x2710
5400eaf8:	000027d9 	0x27d9
5400eafc:	000028a4 	0x28a4
5400eb00:	00002971 	tgeu	zero,zero,0xa5
5400eb04:	00002a40 	sll	a1,zero,0x9
5400eb08:	00002b11 	0x2b11
5400eb0c:	00002be4 	0x2be4
5400eb10:	00002cb9 	0x2cb9
5400eb14:	00002d90 	0x2d90
5400eb18:	00002e69 	0x2e69
5400eb1c:	00002f44 	0x2f44
5400eb20:	00003021 	move	a2,zero
5400eb24:	00003100 	sll	a2,zero,0x4
5400eb28:	000031e1 	0x31e1
5400eb2c:	000032c4 	0x32c4
5400eb30:	000033a9 	0x33a9
5400eb34:	00003490 	0x3490
5400eb38:	00003579 	0x3579
5400eb3c:	00003664 	0x3664
5400eb40:	00003751 	0x3751
5400eb44:	00003840 	sll	a3,zero,0x1
5400eb48:	00003931 	tgeu	zero,zero,0xe4
5400eb4c:	00003a24 	0x3a24
5400eb50:	00003b19 	0x3b19
5400eb54:	00003c10 	0x3c10
5400eb58:	00003d09 	0x3d09
5400eb5c:	00003e04 	0x3e04
5400eb60:	00003f01 	0x3f01
5400eb64:	00004000 	sll	t0,zero,0x0
5400eb68:	00004101 	0x4101
5400eb6c:	00004204 	0x4204
5400eb70:	00004309 	0x4309
5400eb74:	00004410 	0x4410
5400eb78:	00004519 	0x4519
5400eb7c:	00004624 	0x4624
5400eb80:	00004731 	tgeu	zero,zero,0x11c
5400eb84:	00004840 	sll	t1,zero,0x1
5400eb88:	00004951 	0x4951
5400eb8c:	00004a64 	0x4a64
5400eb90:	00004b79 	0x4b79
5400eb94:	00004c90 	0x4c90
5400eb98:	00004da9 	0x4da9
5400eb9c:	00004ec4 	0x4ec4
5400eba0:	00004fe1 	0x4fe1
5400eba4:	00005100 	sll	t2,zero,0x4
5400eba8:	00005221 	0x5221
5400ebac:	00005344 	0x5344
5400ebb0:	00005469 	0x5469
5400ebb4:	00005590 	0x5590
5400ebb8:	000056b9 	0x56b9
5400ebbc:	000057e4 	0x57e4
5400ebc0:	00005911 	0x5911
5400ebc4:	00005a40 	sll	t3,zero,0x9
5400ebc8:	00005b71 	tgeu	zero,zero,0x16d
5400ebcc:	00005ca4 	0x5ca4
5400ebd0:	00005dd9 	0x5dd9
5400ebd4:	00005f10 	0x5f10
5400ebd8:	00006049 	0x6049
5400ebdc:	00006184 	0x6184
5400ebe0:	000062c1 	0x62c1
5400ebe4:	00006400 	sll	t4,zero,0x10
5400ebe8:	00006541 	0x6541
5400ebec:	00006684 	0x6684
5400ebf0:	000067c9 	0x67c9
5400ebf4:	00006910 	0x6910
5400ebf8:	00006a59 	0x6a59
5400ebfc:	00006ba4 	0x6ba4
5400ec00:	00006cf1 	tgeu	zero,zero,0x1b3
5400ec04:	00006e40 	sll	t5,zero,0x19
5400ec08:	00006f91 	0x6f91
5400ec0c:	000070e4 	0x70e4
5400ec10:	00007239 	0x7239
5400ec14:	00007390 	0x7390
5400ec18:	000074e9 	0x74e9
5400ec1c:	00007644 	0x7644
5400ec20:	000077a1 	0x77a1
5400ec24:	00007900 	sll	t7,zero,0x4
5400ec28:	00007a61 	0x7a61
5400ec2c:	00007bc4 	0x7bc4
5400ec30:	00007d29 	0x7d29
5400ec34:	00007e90 	0x7e90
5400ec38:	00007ff9 	0x7ff9
5400ec3c:	00008164 	0x8164
5400ec40:	000082d1 	0x82d1
5400ec44:	00008440 	sll	s0,zero,0x11
5400ec48:	000085b1 	tgeu	zero,zero,0x216
5400ec4c:	00008724 	0x8724
5400ec50:	00008899 	0x8899
5400ec54:	00008a10 	0x8a10
5400ec58:	00008b89 	0x8b89
5400ec5c:	00008d04 	0x8d04
5400ec60:	00008e81 	0x8e81
5400ec64:	00009000 	sll	s2,zero,0x0
5400ec68:	00009181 	0x9181
5400ec6c:	00009304 	0x9304
5400ec70:	00009489 	0x9489
5400ec74:	00009610 	0x9610
5400ec78:	00009799 	0x9799
5400ec7c:	00009924 	0x9924
5400ec80:	00009ab1 	tgeu	zero,zero,0x26a
5400ec84:	00009c40 	sll	s3,zero,0x11
5400ec88:	00009dd1 	0x9dd1
5400ec8c:	00009f64 	0x9f64
5400ec90:	0000a0f9 	0xa0f9
5400ec94:	0000a290 	0xa290
5400ec98:	0000a429 	0xa429
5400ec9c:	0000a5c4 	0xa5c4
5400eca0:	0000a761 	0xa761
5400eca4:	0000a900 	sll	s5,zero,0x4
5400eca8:	0000aaa1 	0xaaa1
5400ecac:	0000ac44 	0xac44
5400ecb0:	0000ade9 	0xade9
5400ecb4:	0000af90 	0xaf90
5400ecb8:	0000b139 	0xb139
5400ecbc:	0000b2e4 	0xb2e4
5400ecc0:	0000b491 	0xb491
5400ecc4:	0000b640 	sll	s6,zero,0x19
5400ecc8:	0000b7f1 	tgeu	zero,zero,0x2df
5400eccc:	0000b9a4 	0xb9a4
5400ecd0:	0000bb59 	0xbb59
5400ecd4:	0000bd10 	0xbd10
5400ecd8:	0000bec9 	0xbec9
5400ecdc:	0000c084 	0xc084
5400ece0:	0000c241 	0xc241
5400ece4:	0000c400 	sll	t8,zero,0x10
5400ece8:	0000c5c1 	0xc5c1
5400ecec:	0000c784 	0xc784
5400ecf0:	0000c949 	0xc949
5400ecf4:	0000cb10 	0xcb10
5400ecf8:	0000ccd9 	0xccd9
5400ecfc:	0000cea4 	0xcea4
5400ed00:	0000d071 	tgeu	zero,zero,0x341
5400ed04:	0000d240 	sll	k0,zero,0x9
5400ed08:	0000d411 	0xd411
5400ed0c:	0000d5e4 	0xd5e4
5400ed10:	0000d7b9 	0xd7b9
5400ed14:	0000d990 	0xd990
5400ed18:	0000db69 	0xdb69
5400ed1c:	0000dd44 	0xdd44
5400ed20:	0000df21 	0xdf21
5400ed24:	0000e100 	sll	gp,zero,0x4
5400ed28:	0000e2e1 	0xe2e1
5400ed2c:	0000e4c4 	0xe4c4
5400ed30:	0000e6a9 	0xe6a9
5400ed34:	0000e890 	0xe890
5400ed38:	0000ea79 	0xea79
5400ed3c:	0000ec64 	0xec64
5400ed40:	0000ee51 	0xee51
5400ed44:	0000f040 	sll	s8,zero,0x1
5400ed48:	0000f231 	tgeu	zero,zero,0x3c8
5400ed4c:	0000f424 	0xf424
5400ed50:	0000f619 	0xf619
5400ed54:	0000f810 	mfhi	ra
5400ed58:	0000fa09 	0xfa09
5400ed5c:	0000fc04 	0xfc04
5400ed60:	0000fe01 	0xfe01
5400ed64:	00010000 	sll	zero,at,0x0
5400ed68:	00010201 	0x10201
5400ed6c:	00010404 	0x10404
5400ed70:	00010609 	0x10609
5400ed74:	00010810 	0x10810
5400ed78:	00010a19 	0x10a19
5400ed7c:	00010c24 	0x10c24
5400ed80:	00010e31 	tgeu	zero,at,0x38
5400ed84:	00011040 	sll	v0,at,0x1
5400ed88:	00011251 	0x11251
5400ed8c:	00011464 	0x11464
5400ed90:	00011679 	0x11679
5400ed94:	00011890 	0x11890
5400ed98:	00011aa9 	0x11aa9
5400ed9c:	00011cc4 	0x11cc4
5400eda0:	00011ee1 	0x11ee1
5400eda4:	00012100 	sll	a0,at,0x4
5400eda8:	00012321 	0x12321
5400edac:	00012544 	0x12544
5400edb0:	00012769 	0x12769
5400edb4:	00012990 	0x12990
5400edb8:	00012bb9 	0x12bb9
5400edbc:	00012de4 	0x12de4
5400edc0:	00013011 	0x13011
5400edc4:	00013240 	sll	a2,at,0x9
5400edc8:	00013471 	tgeu	zero,at,0xd1
5400edcc:	000136a4 	0x136a4
5400edd0:	000138d9 	0x138d9
5400edd4:	00013b10 	0x13b10
5400edd8:	00013d49 	0x13d49
5400eddc:	00013f84 	0x13f84
5400ede0:	000141c1 	0x141c1
5400ede4:	00014400 	sll	t0,at,0x10
5400ede8:	00014641 	0x14641
5400edec:	00014884 	0x14884
5400edf0:	00014ac9 	0x14ac9
5400edf4:	00014d10 	0x14d10
5400edf8:	00014f59 	0x14f59
5400edfc:	000151a4 	0x151a4
5400ee00:	000153f1 	tgeu	zero,at,0x14f
5400ee04:	00015640 	sll	t2,at,0x19
5400ee08:	00015891 	0x15891
5400ee0c:	00015ae4 	0x15ae4
5400ee10:	00015d39 	0x15d39
5400ee14:	00015f90 	0x15f90
5400ee18:	000161e9 	0x161e9
5400ee1c:	00016444 	0x16444
5400ee20:	000166a1 	0x166a1
5400ee24:	00016900 	sll	t5,at,0x4
5400ee28:	00016b61 	0x16b61
5400ee2c:	00016dc4 	0x16dc4
5400ee30:	00017029 	0x17029
5400ee34:	00017290 	0x17290
5400ee38:	000174f9 	0x174f9
5400ee3c:	00017764 	0x17764
5400ee40:	000179d1 	0x179d1
5400ee44:	00017c40 	sll	t7,at,0x11
5400ee48:	00017eb1 	tgeu	zero,at,0x1fa
5400ee4c:	00018124 	0x18124
5400ee50:	00018399 	0x18399
5400ee54:	00018610 	0x18610
5400ee58:	00018889 	0x18889
5400ee5c:	00018b04 	0x18b04
5400ee60:	00018d81 	0x18d81
5400ee64:	00019000 	sll	s2,at,0x0
5400ee68:	00019281 	0x19281
5400ee6c:	00019504 	0x19504
5400ee70:	00019789 	0x19789
5400ee74:	00019a10 	0x19a10
5400ee78:	00019c99 	0x19c99
5400ee7c:	00019f24 	0x19f24
5400ee80:	0001a1b1 	tgeu	zero,at,0x286
5400ee84:	0001a440 	sll	s4,at,0x11
5400ee88:	0001a6d1 	0x1a6d1
5400ee8c:	0001a964 	0x1a964
5400ee90:	0001abf9 	0x1abf9
5400ee94:	0001ae90 	0x1ae90
5400ee98:	0001b129 	0x1b129
5400ee9c:	0001b3c4 	0x1b3c4
5400eea0:	0001b661 	0x1b661
5400eea4:	0001b900 	sll	s7,at,0x4
5400eea8:	0001bba1 	0x1bba1
5400eeac:	0001be44 	0x1be44
5400eeb0:	0001c0e9 	0x1c0e9
5400eeb4:	0001c390 	0x1c390
5400eeb8:	0001c639 	0x1c639
5400eebc:	0001c8e4 	0x1c8e4
5400eec0:	0001cb91 	0x1cb91
5400eec4:	0001ce40 	sll	t9,at,0x19
5400eec8:	0001d0f1 	tgeu	zero,at,0x343
5400eecc:	0001d3a4 	0x1d3a4
5400eed0:	0001d659 	0x1d659
5400eed4:	0001d910 	0x1d910
5400eed8:	0001dbc9 	0x1dbc9
5400eedc:	0001de84 	0x1de84
5400eee0:	0001e141 	0x1e141
5400eee4:	0001e400 	sll	gp,at,0x10
5400eee8:	0001e6c1 	0x1e6c1
5400eeec:	0001e984 	0x1e984
5400eef0:	0001ec49 	0x1ec49
5400eef4:	0001ef10 	0x1ef10
5400eef8:	0001f1d9 	0x1f1d9
5400eefc:	0001f4a4 	0x1f4a4
5400ef00:	0001f771 	tgeu	zero,at,0x3dd
5400ef04:	0001fa40 	sll	ra,at,0x9
5400ef08:	0001fd11 	0x1fd11
5400ef0c:	0001ffe4 	0x1ffe4
5400ef10:	000202b9 	0x202b9
5400ef14:	00020590 	0x20590
5400ef18:	00020869 	0x20869
5400ef1c:	00020b44 	0x20b44
5400ef20:	00020e21 	0x20e21
5400ef24:	00021100 	sll	v0,v0,0x4
5400ef28:	000213e1 	0x213e1
5400ef2c:	000216c4 	0x216c4
5400ef30:	000219a9 	0x219a9
5400ef34:	00021c90 	0x21c90
5400ef38:	00021f79 	0x21f79
5400ef3c:	00022264 	0x22264
5400ef40:	00022551 	0x22551
5400ef44:	00022840 	sll	a1,v0,0x1
5400ef48:	00022b31 	tgeu	zero,v0,0xac
5400ef4c:	00022e24 	0x22e24
5400ef50:	00023119 	0x23119
5400ef54:	00023410 	0x23410
5400ef58:	00023709 	0x23709
5400ef5c:	00023a04 	0x23a04
5400ef60:	00023d01 	0x23d01
5400ef64:	00024000 	sll	t0,v0,0x0
5400ef68:	00024301 	0x24301
5400ef6c:	00024604 	0x24604
5400ef70:	00024909 	0x24909
5400ef74:	00024c10 	0x24c10
5400ef78:	00024f19 	0x24f19
5400ef7c:	00025224 	0x25224
5400ef80:	00025531 	tgeu	zero,v0,0x154
5400ef84:	00025840 	sll	t3,v0,0x1
5400ef88:	00025b51 	0x25b51
5400ef8c:	00025e64 	0x25e64
5400ef90:	00026179 	0x26179
5400ef94:	00026490 	0x26490
5400ef98:	000267a9 	0x267a9
5400ef9c:	00026ac4 	0x26ac4
5400efa0:	00026de1 	0x26de1
5400efa4:	00027100 	sll	t6,v0,0x4
5400efa8:	00027421 	0x27421
5400efac:	00027744 	0x27744
5400efb0:	00027a69 	0x27a69
5400efb4:	00027d90 	0x27d90
5400efb8:	000280b9 	0x280b9
5400efbc:	000283e4 	0x283e4
5400efc0:	00028711 	0x28711
5400efc4:	00028a40 	sll	s1,v0,0x9
5400efc8:	00028d71 	tgeu	zero,v0,0x235
5400efcc:	000290a4 	0x290a4
5400efd0:	000293d9 	0x293d9
5400efd4:	00029710 	0x29710
5400efd8:	00029a49 	0x29a49
5400efdc:	00029d84 	0x29d84
5400efe0:	0002a0c1 	0x2a0c1
5400efe4:	0002a400 	sll	s4,v0,0x10
5400efe8:	0002a741 	0x2a741
5400efec:	0002aa84 	0x2aa84
5400eff0:	0002adc9 	0x2adc9
5400eff4:	0002b110 	0x2b110
5400eff8:	0002b459 	0x2b459
5400effc:	0002b7a4 	0x2b7a4
5400f000:	0002baf1 	tgeu	zero,v0,0x2eb
5400f004:	0002be40 	sll	s7,v0,0x19
5400f008:	0002c191 	0x2c191
5400f00c:	0002c4e4 	0x2c4e4
5400f010:	0002c839 	0x2c839
5400f014:	0002cb90 	0x2cb90
5400f018:	0002cee9 	0x2cee9
5400f01c:	0002d244 	0x2d244
5400f020:	0002d5a1 	0x2d5a1
5400f024:	0002d900 	sll	k1,v0,0x4
5400f028:	0002dc61 	0x2dc61
5400f02c:	0002dfc4 	0x2dfc4
5400f030:	0002e329 	0x2e329
5400f034:	0002e690 	0x2e690
5400f038:	0002e9f9 	0x2e9f9
5400f03c:	0002ed64 	0x2ed64
5400f040:	0002f0d1 	0x2f0d1
5400f044:	0002f440 	sll	s8,v0,0x11
5400f048:	0002f7b1 	tgeu	zero,v0,0x3de
5400f04c:	0002fb24 	0x2fb24
5400f050:	0002fe99 	0x2fe99
5400f054:	00030210 	0x30210
5400f058:	00030589 	0x30589
5400f05c:	00030904 	0x30904
5400f060:	00030c81 	0x30c81
5400f064:	00031000 	sll	v0,v1,0x0
5400f068:	00031381 	0x31381
5400f06c:	00031704 	0x31704
5400f070:	00031a89 	0x31a89
5400f074:	00031e10 	0x31e10
5400f078:	00032199 	0x32199
5400f07c:	00032524 	0x32524
5400f080:	000328b1 	tgeu	zero,v1,0xa2
5400f084:	00032c40 	sll	a1,v1,0x11
5400f088:	00032fd1 	0x32fd1
5400f08c:	00033364 	0x33364
5400f090:	000336f9 	0x336f9
5400f094:	00033a90 	0x33a90
5400f098:	00033e29 	0x33e29
5400f09c:	000341c4 	0x341c4
5400f0a0:	00034561 	0x34561
5400f0a4:	00034900 	sll	t1,v1,0x4
5400f0a8:	00034ca1 	0x34ca1
5400f0ac:	00035044 	0x35044
5400f0b0:	000353e9 	0x353e9
5400f0b4:	00035790 	0x35790
5400f0b8:	00035b39 	0x35b39
5400f0bc:	00035ee4 	0x35ee4
5400f0c0:	00036291 	0x36291
5400f0c4:	00036640 	sll	t4,v1,0x19
5400f0c8:	000369f1 	tgeu	zero,v1,0x1a7
5400f0cc:	00036da4 	0x36da4
5400f0d0:	00037159 	0x37159
5400f0d4:	00037510 	0x37510
5400f0d8:	000378c9 	0x378c9
5400f0dc:	00037c84 	0x37c84
5400f0e0:	00038041 	0x38041
5400f0e4:	00038400 	sll	s0,v1,0x10
5400f0e8:	000387c1 	0x387c1
5400f0ec:	00038b84 	0x38b84
5400f0f0:	00038f49 	0x38f49
5400f0f4:	00039310 	0x39310
5400f0f8:	000396d9 	0x396d9
5400f0fc:	00039aa4 	0x39aa4
5400f100:	00039e71 	tgeu	zero,v1,0x279
5400f104:	0003a240 	sll	s4,v1,0x9
5400f108:	0003a611 	0x3a611
5400f10c:	0003a9e4 	0x3a9e4
5400f110:	0003adb9 	0x3adb9
5400f114:	0003b190 	0x3b190
5400f118:	0003b569 	0x3b569
5400f11c:	0003b944 	0x3b944
5400f120:	0003bd21 	0x3bd21
5400f124:	0003c100 	sll	t8,v1,0x4
5400f128:	0003c4e1 	0x3c4e1
5400f12c:	0003c8c4 	0x3c8c4
5400f130:	0003cca9 	0x3cca9
5400f134:	0003d090 	0x3d090
5400f138:	0003d479 	0x3d479
5400f13c:	0003d864 	0x3d864
5400f140:	0003dc51 	0x3dc51
5400f144:	0003e040 	sll	gp,v1,0x1
5400f148:	0003e431 	tgeu	zero,v1,0x390
5400f14c:	0003e824 	and	sp,zero,v1
5400f150:	0003ec19 	0x3ec19
5400f154:	0003f010 	0x3f010
5400f158:	0003f409 	0x3f409
5400f15c:	0003f804 	sllv	ra,v1,zero
5400f160:	0003fc01 	0x3fc01

5400f164 <sinTable>:
5400f164:	00000003 	sra	zero,zero,0x0
5400f168:	00000009 	jalr	zero,zero
5400f16c:	0000000f 	sync
5400f170:	00000015 	0x15
5400f174:	0000001c 	0x1c
5400f178:	00000022 	neg	zero,zero
5400f17c:	00000028 	0x28
5400f180:	0000002f 	0x2f
5400f184:	00000035 	0x35
5400f188:	0000003b 	0x3b
5400f18c:	00000041 	0x41
5400f190:	00000048 	0x48
5400f194:	0000004e 	0x4e
5400f198:	00000054 	0x54
5400f19c:	0000005a 	0x5a
5400f1a0:	00000061 	0x61
5400f1a4:	00000067 	0x67
5400f1a8:	0000006d 	0x6d
5400f1ac:	00000073 	tltu	zero,zero,0x1
5400f1b0:	0000007a 	0x7a
5400f1b4:	00000080 	sll	zero,zero,0x2
5400f1b8:	00000086 	0x86
5400f1bc:	0000008c 	syscall	0x2
5400f1c0:	00000093 	0x93
5400f1c4:	00000099 	0x99
5400f1c8:	0000009f 	0x9f
5400f1cc:	000000a5 	0xa5
5400f1d0:	000000ab 	0xab
5400f1d4:	000000b2 	tlt	zero,zero,0x2
5400f1d8:	000000b8 	0xb8
5400f1dc:	000000be 	0xbe
5400f1e0:	000000c4 	0xc4
5400f1e4:	000000ca 	0xca
5400f1e8:	000000d1 	0xd1
5400f1ec:	000000d7 	0xd7
5400f1f0:	000000dd 	0xdd
5400f1f4:	000000e3 	0xe3
5400f1f8:	000000e9 	0xe9
5400f1fc:	000000ef 	0xef
5400f200:	000000f5 	0xf5
5400f204:	000000fb 	0xfb
5400f208:	00000101 	0x101
5400f20c:	00000108 	0x108
5400f210:	0000010e 	0x10e
5400f214:	00000114 	0x114
5400f218:	0000011a 	0x11a
5400f21c:	00000120 	0x120
5400f220:	00000126 	0x126
5400f224:	0000012c 	0x12c
5400f228:	00000132 	tlt	zero,zero,0x4
5400f22c:	00000138 	0x138
5400f230:	0000013e 	0x13e
5400f234:	00000144 	0x144
5400f238:	0000014a 	0x14a
5400f23c:	00000150 	0x150
5400f240:	00000156 	0x156
5400f244:	0000015b 	0x15b
5400f248:	00000161 	0x161
5400f24c:	00000167 	0x167
5400f250:	0000016d 	0x16d
5400f254:	00000173 	tltu	zero,zero,0x5
5400f258:	00000179 	0x179
5400f25c:	0000017f 	0x17f
5400f260:	00000184 	0x184
5400f264:	0000018a 	0x18a
5400f268:	00000190 	0x190
5400f26c:	00000196 	0x196
5400f270:	0000019c 	0x19c
5400f274:	000001a1 	0x1a1
5400f278:	000001a7 	0x1a7
5400f27c:	000001ad 	0x1ad
5400f280:	000001b2 	tlt	zero,zero,0x6
5400f284:	000001b8 	0x1b8
5400f288:	000001be 	0x1be
5400f28c:	000001c3 	sra	zero,zero,0x7
5400f290:	000001c9 	0x1c9
5400f294:	000001cf 	0x1cf
5400f298:	000001d4 	0x1d4
5400f29c:	000001da 	0x1da
5400f2a0:	000001df 	0x1df
5400f2a4:	000001e5 	0x1e5
5400f2a8:	000001eb 	0x1eb
5400f2ac:	000001f0 	tge	zero,zero,0x7
5400f2b0:	000001f5 	0x1f5
5400f2b4:	000001fb 	0x1fb
5400f2b8:	00000200 	sll	zero,zero,0x8
5400f2bc:	00000206 	0x206
5400f2c0:	0000020b 	0x20b
5400f2c4:	00000211 	0x211
5400f2c8:	00000216 	0x216
5400f2cc:	0000021b 	0x21b
5400f2d0:	00000221 	0x221
5400f2d4:	00000226 	0x226
5400f2d8:	0000022b 	0x22b
5400f2dc:	00000231 	tgeu	zero,zero,0x8
5400f2e0:	00000236 	tne	zero,zero,0x8
5400f2e4:	0000023b 	0x23b
5400f2e8:	00000240 	sll	zero,zero,0x9
5400f2ec:	00000245 	0x245
5400f2f0:	0000024b 	0x24b
5400f2f4:	00000250 	0x250
5400f2f8:	00000255 	0x255
5400f2fc:	0000025a 	0x25a
5400f300:	0000025f 	0x25f
5400f304:	00000264 	0x264
5400f308:	00000269 	0x269
5400f30c:	0000026e 	0x26e
5400f310:	00000273 	tltu	zero,zero,0x9
5400f314:	00000278 	0x278
5400f318:	0000027d 	0x27d
5400f31c:	00000282 	srl	zero,zero,0xa
5400f320:	00000287 	0x287
5400f324:	0000028c 	syscall	0xa
5400f328:	00000290 	0x290
5400f32c:	00000295 	0x295
5400f330:	0000029a 	0x29a
5400f334:	0000029f 	0x29f
5400f338:	000002a3 	0x2a3
5400f33c:	000002a8 	0x2a8
5400f340:	000002ad 	0x2ad
5400f344:	000002b2 	tlt	zero,zero,0xa
5400f348:	000002b6 	tne	zero,zero,0xa
5400f34c:	000002bb 	0x2bb
5400f350:	000002bf 	0x2bf
5400f354:	000002c4 	0x2c4
5400f358:	000002c8 	0x2c8
5400f35c:	000002cd 	break	0x0,0xb
5400f360:	000002d1 	0x2d1
5400f364:	000002d6 	0x2d6
5400f368:	000002da 	0x2da
5400f36c:	000002df 	0x2df
5400f370:	000002e3 	0x2e3
5400f374:	000002e7 	0x2e7
5400f378:	000002ec 	0x2ec
5400f37c:	000002f0 	tge	zero,zero,0xb
5400f380:	000002f4 	teq	zero,zero,0xb
5400f384:	000002f8 	0x2f8
5400f388:	000002fd 	0x2fd
5400f38c:	00000301 	0x301
5400f390:	00000305 	0x305
5400f394:	00000309 	0x309
5400f398:	0000030d 	break	0x0,0xc
5400f39c:	00000311 	0x311
5400f3a0:	00000315 	0x315
5400f3a4:	00000319 	0x319
5400f3a8:	0000031d 	0x31d
5400f3ac:	00000321 	0x321
5400f3b0:	00000325 	0x325
5400f3b4:	00000329 	0x329
5400f3b8:	0000032d 	0x32d
5400f3bc:	00000330 	tge	zero,zero,0xc
5400f3c0:	00000334 	teq	zero,zero,0xc
5400f3c4:	00000338 	0x338
5400f3c8:	0000033c 	0x33c
5400f3cc:	0000033f 	0x33f
5400f3d0:	00000343 	sra	zero,zero,0xd
5400f3d4:	00000347 	0x347
5400f3d8:	0000034a 	0x34a
5400f3dc:	0000034e 	0x34e
5400f3e0:	00000351 	0x351
5400f3e4:	00000355 	0x355
5400f3e8:	00000358 	0x358
5400f3ec:	0000035c 	0x35c
5400f3f0:	0000035f 	0x35f
5400f3f4:	00000362 	0x362
5400f3f8:	00000366 	0x366
5400f3fc:	00000369 	0x369
5400f400:	0000036c 	0x36c
5400f404:	0000036f 	0x36f
5400f408:	00000373 	tltu	zero,zero,0xd
5400f40c:	00000376 	tne	zero,zero,0xd
5400f410:	00000379 	0x379
5400f414:	0000037c 	0x37c
5400f418:	0000037f 	0x37f
5400f41c:	00000382 	srl	zero,zero,0xe
5400f420:	00000385 	0x385
5400f424:	00000388 	0x388
5400f428:	0000038b 	0x38b
5400f42c:	0000038e 	0x38e
5400f430:	00000391 	0x391
5400f434:	00000394 	0x394
5400f438:	00000396 	0x396
5400f43c:	00000399 	0x399
5400f440:	0000039c 	0x39c
5400f444:	0000039f 	0x39f
5400f448:	000003a1 	0x3a1
5400f44c:	000003a4 	0x3a4
5400f450:	000003a6 	0x3a6
5400f454:	000003a9 	0x3a9
5400f458:	000003ab 	0x3ab
5400f45c:	000003ae 	0x3ae
5400f460:	000003b0 	tge	zero,zero,0xe
5400f464:	000003b3 	tltu	zero,zero,0xe
5400f468:	000003b5 	0x3b5
5400f46c:	000003b7 	0x3b7
5400f470:	000003ba 	0x3ba
5400f474:	000003bc 	0x3bc
5400f478:	000003be 	0x3be
5400f47c:	000003c0 	sll	zero,zero,0xf
5400f480:	000003c3 	sra	zero,zero,0xf
5400f484:	000003c5 	0x3c5
5400f488:	000003c7 	0x3c7
5400f48c:	000003c9 	0x3c9
5400f490:	000003cb 	0x3cb
5400f494:	000003cd 	break	0x0,0xf
5400f498:	000003cf 	0x3cf
5400f49c:	000003d1 	0x3d1
5400f4a0:	000003d2 	0x3d2
5400f4a4:	000003d4 	0x3d4
5400f4a8:	000003d6 	0x3d6
5400f4ac:	000003d8 	0x3d8
5400f4b0:	000003da 	0x3da
5400f4b4:	000003db 	0x3db
5400f4b8:	000003dd 	0x3dd
5400f4bc:	000003de 	0x3de
5400f4c0:	000003e0 	0x3e0
5400f4c4:	000003e2 	0x3e2
5400f4c8:	000003e3 	0x3e3
5400f4cc:	000003e5 	0x3e5
5400f4d0:	000003e6 	0x3e6
5400f4d4:	000003e7 	0x3e7
5400f4d8:	000003e9 	0x3e9
5400f4dc:	000003ea 	0x3ea
5400f4e0:	000003eb 	0x3eb
5400f4e4:	000003ec 	0x3ec
5400f4e8:	000003ee 	0x3ee
5400f4ec:	000003ef 	0x3ef
5400f4f0:	000003f0 	tge	zero,zero,0xf
5400f4f4:	000003f1 	tgeu	zero,zero,0xf
5400f4f8:	000003f2 	tlt	zero,zero,0xf
5400f4fc:	000003f3 	tltu	zero,zero,0xf
5400f500:	000003f4 	teq	zero,zero,0xf
5400f504:	000003f5 	0x3f5
5400f508:	000003f6 	tne	zero,zero,0xf
5400f50c:	000003f7 	0x3f7
5400f510:	000003f7 	0x3f7
5400f514:	000003f8 	0x3f8
5400f518:	000003f9 	0x3f9
5400f51c:	000003fa 	0x3fa
5400f520:	000003fa 	0x3fa
5400f524:	000003fb 	0x3fb
5400f528:	000003fb 	0x3fb
5400f52c:	000003fc 	0x3fc
5400f530:	000003fc 	0x3fc
5400f534:	000003fd 	0x3fd
5400f538:	000003fd 	0x3fd
5400f53c:	000003fe 	0x3fe
5400f540:	000003fe 	0x3fe
5400f544:	000003fe 	0x3fe
5400f548:	000003ff 	0x3ff
5400f54c:	000003ff 	0x3ff
5400f550:	000003ff 	0x3ff
5400f554:	000003ff 	0x3ff
5400f558:	000003ff 	0x3ff
5400f55c:	000003ff 	0x3ff
5400f560:	000003ff 	0x3ff
5400f564:	000003ff 	0x3ff
5400f568:	000003ff 	0x3ff
5400f56c:	000003ff 	0x3ff
5400f570:	000003ff 	0x3ff
5400f574:	000003ff 	0x3ff
5400f578:	000003ff 	0x3ff
5400f57c:	000003ff 	0x3ff
5400f580:	000003fe 	0x3fe
5400f584:	000003fe 	0x3fe
5400f588:	000003fe 	0x3fe
5400f58c:	000003fd 	0x3fd
5400f590:	000003fd 	0x3fd
5400f594:	000003fc 	0x3fc
5400f598:	000003fc 	0x3fc
5400f59c:	000003fb 	0x3fb
5400f5a0:	000003fb 	0x3fb
5400f5a4:	000003fa 	0x3fa
5400f5a8:	000003fa 	0x3fa
5400f5ac:	000003f9 	0x3f9
5400f5b0:	000003f8 	0x3f8
5400f5b4:	000003f7 	0x3f7
5400f5b8:	000003f7 	0x3f7
5400f5bc:	000003f6 	tne	zero,zero,0xf
5400f5c0:	000003f5 	0x3f5
5400f5c4:	000003f4 	teq	zero,zero,0xf
5400f5c8:	000003f3 	tltu	zero,zero,0xf
5400f5cc:	000003f2 	tlt	zero,zero,0xf
5400f5d0:	000003f1 	tgeu	zero,zero,0xf
5400f5d4:	000003f0 	tge	zero,zero,0xf
5400f5d8:	000003ef 	0x3ef
5400f5dc:	000003ee 	0x3ee
5400f5e0:	000003ec 	0x3ec
5400f5e4:	000003eb 	0x3eb
5400f5e8:	000003ea 	0x3ea
5400f5ec:	000003e9 	0x3e9
5400f5f0:	000003e7 	0x3e7
5400f5f4:	000003e6 	0x3e6
5400f5f8:	000003e5 	0x3e5
5400f5fc:	000003e3 	0x3e3
5400f600:	000003e2 	0x3e2
5400f604:	000003e0 	0x3e0
5400f608:	000003de 	0x3de
5400f60c:	000003dd 	0x3dd
5400f610:	000003db 	0x3db
5400f614:	000003da 	0x3da
5400f618:	000003d8 	0x3d8
5400f61c:	000003d6 	0x3d6
5400f620:	000003d4 	0x3d4
5400f624:	000003d2 	0x3d2
5400f628:	000003d1 	0x3d1
5400f62c:	000003cf 	0x3cf
5400f630:	000003cd 	break	0x0,0xf
5400f634:	000003cb 	0x3cb
5400f638:	000003c9 	0x3c9
5400f63c:	000003c7 	0x3c7
5400f640:	000003c5 	0x3c5
5400f644:	000003c3 	sra	zero,zero,0xf
5400f648:	000003c0 	sll	zero,zero,0xf
5400f64c:	000003be 	0x3be
5400f650:	000003bc 	0x3bc
5400f654:	000003ba 	0x3ba
5400f658:	000003b7 	0x3b7
5400f65c:	000003b5 	0x3b5
5400f660:	000003b3 	tltu	zero,zero,0xe
5400f664:	000003b0 	tge	zero,zero,0xe
5400f668:	000003ae 	0x3ae
5400f66c:	000003ab 	0x3ab
5400f670:	000003a9 	0x3a9
5400f674:	000003a6 	0x3a6
5400f678:	000003a4 	0x3a4
5400f67c:	000003a1 	0x3a1
5400f680:	0000039f 	0x39f
5400f684:	0000039c 	0x39c
5400f688:	00000399 	0x399
5400f68c:	00000396 	0x396
5400f690:	00000394 	0x394
5400f694:	00000391 	0x391
5400f698:	0000038e 	0x38e
5400f69c:	0000038b 	0x38b
5400f6a0:	00000388 	0x388
5400f6a4:	00000385 	0x385
5400f6a8:	00000382 	srl	zero,zero,0xe
5400f6ac:	0000037f 	0x37f
5400f6b0:	0000037c 	0x37c
5400f6b4:	00000379 	0x379
5400f6b8:	00000376 	tne	zero,zero,0xd
5400f6bc:	00000373 	tltu	zero,zero,0xd
5400f6c0:	0000036f 	0x36f
5400f6c4:	0000036c 	0x36c
5400f6c8:	00000369 	0x369
5400f6cc:	00000366 	0x366
5400f6d0:	00000362 	0x362
5400f6d4:	0000035f 	0x35f
5400f6d8:	0000035c 	0x35c
5400f6dc:	00000358 	0x358
5400f6e0:	00000355 	0x355
5400f6e4:	00000351 	0x351
5400f6e8:	0000034e 	0x34e
5400f6ec:	0000034a 	0x34a
5400f6f0:	00000347 	0x347
5400f6f4:	00000343 	sra	zero,zero,0xd
5400f6f8:	0000033f 	0x33f
5400f6fc:	0000033c 	0x33c
5400f700:	00000338 	0x338
5400f704:	00000334 	teq	zero,zero,0xc
5400f708:	00000330 	tge	zero,zero,0xc
5400f70c:	0000032d 	0x32d
5400f710:	00000329 	0x329
5400f714:	00000325 	0x325
5400f718:	00000321 	0x321
5400f71c:	0000031d 	0x31d
5400f720:	00000319 	0x319
5400f724:	00000315 	0x315
5400f728:	00000311 	0x311
5400f72c:	0000030d 	break	0x0,0xc
5400f730:	00000309 	0x309
5400f734:	00000305 	0x305
5400f738:	00000301 	0x301
5400f73c:	000002fd 	0x2fd
5400f740:	000002f8 	0x2f8
5400f744:	000002f4 	teq	zero,zero,0xb
5400f748:	000002f0 	tge	zero,zero,0xb
5400f74c:	000002ec 	0x2ec
5400f750:	000002e7 	0x2e7
5400f754:	000002e3 	0x2e3
5400f758:	000002df 	0x2df
5400f75c:	000002da 	0x2da
5400f760:	000002d6 	0x2d6
5400f764:	000002d1 	0x2d1
5400f768:	000002cd 	break	0x0,0xb
5400f76c:	000002c8 	0x2c8
5400f770:	000002c4 	0x2c4
5400f774:	000002bf 	0x2bf
5400f778:	000002bb 	0x2bb
5400f77c:	000002b6 	tne	zero,zero,0xa
5400f780:	000002b2 	tlt	zero,zero,0xa
5400f784:	000002ad 	0x2ad
5400f788:	000002a8 	0x2a8
5400f78c:	000002a3 	0x2a3
5400f790:	0000029f 	0x29f
5400f794:	0000029a 	0x29a
5400f798:	00000295 	0x295
5400f79c:	00000290 	0x290
5400f7a0:	0000028c 	syscall	0xa
5400f7a4:	00000287 	0x287
5400f7a8:	00000282 	srl	zero,zero,0xa
5400f7ac:	0000027d 	0x27d
5400f7b0:	00000278 	0x278
5400f7b4:	00000273 	tltu	zero,zero,0x9
5400f7b8:	0000026e 	0x26e
5400f7bc:	00000269 	0x269
5400f7c0:	00000264 	0x264
5400f7c4:	0000025f 	0x25f
5400f7c8:	0000025a 	0x25a
5400f7cc:	00000255 	0x255
5400f7d0:	00000250 	0x250
5400f7d4:	0000024b 	0x24b
5400f7d8:	00000245 	0x245
5400f7dc:	00000240 	sll	zero,zero,0x9
5400f7e0:	0000023b 	0x23b
5400f7e4:	00000236 	tne	zero,zero,0x8
5400f7e8:	00000231 	tgeu	zero,zero,0x8
5400f7ec:	0000022b 	0x22b
5400f7f0:	00000226 	0x226
5400f7f4:	00000221 	0x221
5400f7f8:	0000021b 	0x21b
5400f7fc:	00000216 	0x216
5400f800:	00000211 	0x211
5400f804:	0000020b 	0x20b
5400f808:	00000206 	0x206
5400f80c:	00000200 	sll	zero,zero,0x8
5400f810:	000001fb 	0x1fb
5400f814:	000001f5 	0x1f5
5400f818:	000001f0 	tge	zero,zero,0x7
5400f81c:	000001eb 	0x1eb
5400f820:	000001e5 	0x1e5
5400f824:	000001df 	0x1df
5400f828:	000001da 	0x1da
5400f82c:	000001d4 	0x1d4
5400f830:	000001cf 	0x1cf
5400f834:	000001c9 	0x1c9
5400f838:	000001c3 	sra	zero,zero,0x7
5400f83c:	000001be 	0x1be
5400f840:	000001b8 	0x1b8
5400f844:	000001b2 	tlt	zero,zero,0x6
5400f848:	000001ad 	0x1ad
5400f84c:	000001a7 	0x1a7
5400f850:	000001a1 	0x1a1
5400f854:	0000019c 	0x19c
5400f858:	00000196 	0x196
5400f85c:	00000190 	0x190
5400f860:	0000018a 	0x18a
5400f864:	00000184 	0x184
5400f868:	0000017f 	0x17f
5400f86c:	00000179 	0x179
5400f870:	00000173 	tltu	zero,zero,0x5
5400f874:	0000016d 	0x16d
5400f878:	00000167 	0x167
5400f87c:	00000161 	0x161
5400f880:	0000015b 	0x15b
5400f884:	00000156 	0x156
5400f888:	00000150 	0x150
5400f88c:	0000014a 	0x14a
5400f890:	00000144 	0x144
5400f894:	0000013e 	0x13e
5400f898:	00000138 	0x138
5400f89c:	00000132 	tlt	zero,zero,0x4
5400f8a0:	0000012c 	0x12c
5400f8a4:	00000126 	0x126
5400f8a8:	00000120 	0x120
5400f8ac:	0000011a 	0x11a
5400f8b0:	00000114 	0x114
5400f8b4:	0000010e 	0x10e
5400f8b8:	00000108 	0x108
5400f8bc:	00000101 	0x101
5400f8c0:	000000fb 	0xfb
5400f8c4:	000000f5 	0xf5
5400f8c8:	000000ef 	0xef
5400f8cc:	000000e9 	0xe9
5400f8d0:	000000e3 	0xe3
5400f8d4:	000000dd 	0xdd
5400f8d8:	000000d7 	0xd7
5400f8dc:	000000d1 	0xd1
5400f8e0:	000000ca 	0xca
5400f8e4:	000000c4 	0xc4
5400f8e8:	000000be 	0xbe
5400f8ec:	000000b8 	0xb8
5400f8f0:	000000b2 	tlt	zero,zero,0x2
5400f8f4:	000000ab 	0xab
5400f8f8:	000000a5 	0xa5
5400f8fc:	0000009f 	0x9f
5400f900:	00000099 	0x99
5400f904:	00000093 	0x93
5400f908:	0000008c 	syscall	0x2
5400f90c:	00000086 	0x86
5400f910:	00000080 	sll	zero,zero,0x2
5400f914:	0000007a 	0x7a
5400f918:	00000073 	tltu	zero,zero,0x1
5400f91c:	0000006d 	0x6d
5400f920:	00000067 	0x67
5400f924:	00000061 	0x61
5400f928:	0000005a 	0x5a
5400f92c:	00000054 	0x54
5400f930:	0000004e 	0x4e
5400f934:	00000048 	0x48
5400f938:	00000041 	0x41
5400f93c:	0000003b 	0x3b
5400f940:	00000035 	0x35
5400f944:	0000002f 	0x2f
5400f948:	00000028 	0x28
5400f94c:	00000022 	neg	zero,zero
5400f950:	0000001c 	0x1c
5400f954:	00000015 	0x15
5400f958:	0000000f 	sync
5400f95c:	00000009 	jalr	zero,zero
5400f960:	00000003 	sra	zero,zero,0x0
5400f964:	fffffffc 	sdc3	$31,-4(ra)
5400f968:	fffffff6 	sdc3	$31,-10(ra)
5400f96c:	fffffff0 	sdc3	$31,-16(ra)
5400f970:	ffffffea 	sdc3	$31,-22(ra)
5400f974:	ffffffe3 	sdc3	$31,-29(ra)
5400f978:	ffffffdd 	sdc3	$31,-35(ra)
5400f97c:	ffffffd7 	sdc3	$31,-41(ra)
5400f980:	ffffffd0 	sdc3	$31,-48(ra)
5400f984:	ffffffca 	sdc3	$31,-54(ra)
5400f988:	ffffffc4 	sdc3	$31,-60(ra)
5400f98c:	ffffffbe 	sdc3	$31,-66(ra)
5400f990:	ffffffb7 	sdc3	$31,-73(ra)
5400f994:	ffffffb1 	sdc3	$31,-79(ra)
5400f998:	ffffffab 	sdc3	$31,-85(ra)
5400f99c:	ffffffa5 	sdc3	$31,-91(ra)
5400f9a0:	ffffff9e 	sdc3	$31,-98(ra)
5400f9a4:	ffffff98 	sdc3	$31,-104(ra)
5400f9a8:	ffffff92 	sdc3	$31,-110(ra)
5400f9ac:	ffffff8c 	sdc3	$31,-116(ra)
5400f9b0:	ffffff85 	sdc3	$31,-123(ra)
5400f9b4:	ffffff7f 	sdc3	$31,-129(ra)
5400f9b8:	ffffff79 	sdc3	$31,-135(ra)
5400f9bc:	ffffff73 	sdc3	$31,-141(ra)
5400f9c0:	ffffff6c 	sdc3	$31,-148(ra)
5400f9c4:	ffffff66 	sdc3	$31,-154(ra)
5400f9c8:	ffffff60 	sdc3	$31,-160(ra)
5400f9cc:	ffffff5a 	sdc3	$31,-166(ra)
5400f9d0:	ffffff54 	sdc3	$31,-172(ra)
5400f9d4:	ffffff4d 	sdc3	$31,-179(ra)
5400f9d8:	ffffff47 	sdc3	$31,-185(ra)
5400f9dc:	ffffff41 	sdc3	$31,-191(ra)
5400f9e0:	ffffff3b 	sdc3	$31,-197(ra)
5400f9e4:	ffffff35 	sdc3	$31,-203(ra)
5400f9e8:	ffffff2e 	sdc3	$31,-210(ra)
5400f9ec:	ffffff28 	sdc3	$31,-216(ra)
5400f9f0:	ffffff22 	sdc3	$31,-222(ra)
5400f9f4:	ffffff1c 	sdc3	$31,-228(ra)
5400f9f8:	ffffff16 	sdc3	$31,-234(ra)
5400f9fc:	ffffff10 	sdc3	$31,-240(ra)
5400fa00:	ffffff0a 	sdc3	$31,-246(ra)
5400fa04:	ffffff04 	sdc3	$31,-252(ra)
5400fa08:	fffffefe 	sdc3	$31,-258(ra)
5400fa0c:	fffffef7 	sdc3	$31,-265(ra)
5400fa10:	fffffef1 	sdc3	$31,-271(ra)
5400fa14:	fffffeeb 	sdc3	$31,-277(ra)
5400fa18:	fffffee5 	sdc3	$31,-283(ra)
5400fa1c:	fffffedf 	sdc3	$31,-289(ra)
5400fa20:	fffffed9 	sdc3	$31,-295(ra)
5400fa24:	fffffed3 	sdc3	$31,-301(ra)
5400fa28:	fffffecd 	sdc3	$31,-307(ra)
5400fa2c:	fffffec7 	sdc3	$31,-313(ra)
5400fa30:	fffffec1 	sdc3	$31,-319(ra)
5400fa34:	fffffebb 	sdc3	$31,-325(ra)
5400fa38:	fffffeb5 	sdc3	$31,-331(ra)
5400fa3c:	fffffeaf 	sdc3	$31,-337(ra)
5400fa40:	fffffea9 	sdc3	$31,-343(ra)
5400fa44:	fffffea4 	sdc3	$31,-348(ra)
5400fa48:	fffffe9e 	sdc3	$31,-354(ra)
5400fa4c:	fffffe98 	sdc3	$31,-360(ra)
5400fa50:	fffffe92 	sdc3	$31,-366(ra)
5400fa54:	fffffe8c 	sdc3	$31,-372(ra)
5400fa58:	fffffe86 	sdc3	$31,-378(ra)
5400fa5c:	fffffe80 	sdc3	$31,-384(ra)
5400fa60:	fffffe7b 	sdc3	$31,-389(ra)
5400fa64:	fffffe75 	sdc3	$31,-395(ra)
5400fa68:	fffffe6f 	sdc3	$31,-401(ra)
5400fa6c:	fffffe69 	sdc3	$31,-407(ra)
5400fa70:	fffffe63 	sdc3	$31,-413(ra)
5400fa74:	fffffe5e 	sdc3	$31,-418(ra)
5400fa78:	fffffe58 	sdc3	$31,-424(ra)
5400fa7c:	fffffe52 	sdc3	$31,-430(ra)
5400fa80:	fffffe4d 	sdc3	$31,-435(ra)
5400fa84:	fffffe47 	sdc3	$31,-441(ra)
5400fa88:	fffffe41 	sdc3	$31,-447(ra)
5400fa8c:	fffffe3c 	sdc3	$31,-452(ra)
5400fa90:	fffffe36 	sdc3	$31,-458(ra)
5400fa94:	fffffe30 	sdc3	$31,-464(ra)
5400fa98:	fffffe2b 	sdc3	$31,-469(ra)
5400fa9c:	fffffe25 	sdc3	$31,-475(ra)
5400faa0:	fffffe20 	sdc3	$31,-480(ra)
5400faa4:	fffffe1a 	sdc3	$31,-486(ra)
5400faa8:	fffffe14 	sdc3	$31,-492(ra)
5400faac:	fffffe0f 	sdc3	$31,-497(ra)
5400fab0:	fffffe0a 	sdc3	$31,-502(ra)
5400fab4:	fffffe04 	sdc3	$31,-508(ra)
5400fab8:	fffffdff 	sdc3	$31,-513(ra)
5400fabc:	fffffdf9 	sdc3	$31,-519(ra)
5400fac0:	fffffdf4 	sdc3	$31,-524(ra)
5400fac4:	fffffdee 	sdc3	$31,-530(ra)
5400fac8:	fffffde9 	sdc3	$31,-535(ra)
5400facc:	fffffde4 	sdc3	$31,-540(ra)
5400fad0:	fffffdde 	sdc3	$31,-546(ra)
5400fad4:	fffffdd9 	sdc3	$31,-551(ra)
5400fad8:	fffffdd4 	sdc3	$31,-556(ra)
5400fadc:	fffffdce 	sdc3	$31,-562(ra)
5400fae0:	fffffdc9 	sdc3	$31,-567(ra)
5400fae4:	fffffdc4 	sdc3	$31,-572(ra)
5400fae8:	fffffdbf 	sdc3	$31,-577(ra)
5400faec:	fffffdba 	sdc3	$31,-582(ra)
5400faf0:	fffffdb4 	sdc3	$31,-588(ra)
5400faf4:	fffffdaf 	sdc3	$31,-593(ra)
5400faf8:	fffffdaa 	sdc3	$31,-598(ra)
5400fafc:	fffffda5 	sdc3	$31,-603(ra)
5400fb00:	fffffda0 	sdc3	$31,-608(ra)
5400fb04:	fffffd9b 	sdc3	$31,-613(ra)
5400fb08:	fffffd96 	sdc3	$31,-618(ra)
5400fb0c:	fffffd91 	sdc3	$31,-623(ra)
5400fb10:	fffffd8c 	sdc3	$31,-628(ra)
5400fb14:	fffffd87 	sdc3	$31,-633(ra)
5400fb18:	fffffd82 	sdc3	$31,-638(ra)
5400fb1c:	fffffd7d 	sdc3	$31,-643(ra)
5400fb20:	fffffd78 	sdc3	$31,-648(ra)
5400fb24:	fffffd73 	sdc3	$31,-653(ra)
5400fb28:	fffffd6f 	sdc3	$31,-657(ra)
5400fb2c:	fffffd6a 	sdc3	$31,-662(ra)
5400fb30:	fffffd65 	sdc3	$31,-667(ra)
5400fb34:	fffffd60 	sdc3	$31,-672(ra)
5400fb38:	fffffd5c 	sdc3	$31,-676(ra)
5400fb3c:	fffffd57 	sdc3	$31,-681(ra)
5400fb40:	fffffd52 	sdc3	$31,-686(ra)
5400fb44:	fffffd4d 	sdc3	$31,-691(ra)
5400fb48:	fffffd49 	sdc3	$31,-695(ra)
5400fb4c:	fffffd44 	sdc3	$31,-700(ra)
5400fb50:	fffffd40 	sdc3	$31,-704(ra)
5400fb54:	fffffd3b 	sdc3	$31,-709(ra)
5400fb58:	fffffd37 	sdc3	$31,-713(ra)
5400fb5c:	fffffd32 	sdc3	$31,-718(ra)
5400fb60:	fffffd2e 	sdc3	$31,-722(ra)
5400fb64:	fffffd29 	sdc3	$31,-727(ra)
5400fb68:	fffffd25 	sdc3	$31,-731(ra)
5400fb6c:	fffffd20 	sdc3	$31,-736(ra)
5400fb70:	fffffd1c 	sdc3	$31,-740(ra)
5400fb74:	fffffd18 	sdc3	$31,-744(ra)
5400fb78:	fffffd13 	sdc3	$31,-749(ra)
5400fb7c:	fffffd0f 	sdc3	$31,-753(ra)
5400fb80:	fffffd0b 	sdc3	$31,-757(ra)
5400fb84:	fffffd07 	sdc3	$31,-761(ra)
5400fb88:	fffffd02 	sdc3	$31,-766(ra)
5400fb8c:	fffffcfe 	sdc3	$31,-770(ra)
5400fb90:	fffffcfa 	sdc3	$31,-774(ra)
5400fb94:	fffffcf6 	sdc3	$31,-778(ra)
5400fb98:	fffffcf2 	sdc3	$31,-782(ra)
5400fb9c:	fffffcee 	sdc3	$31,-786(ra)
5400fba0:	fffffcea 	sdc3	$31,-790(ra)
5400fba4:	fffffce6 	sdc3	$31,-794(ra)
5400fba8:	fffffce2 	sdc3	$31,-798(ra)
5400fbac:	fffffcde 	sdc3	$31,-802(ra)
5400fbb0:	fffffcda 	sdc3	$31,-806(ra)
5400fbb4:	fffffcd6 	sdc3	$31,-810(ra)
5400fbb8:	fffffcd2 	sdc3	$31,-814(ra)
5400fbbc:	fffffccf 	sdc3	$31,-817(ra)
5400fbc0:	fffffccb 	sdc3	$31,-821(ra)
5400fbc4:	fffffcc7 	sdc3	$31,-825(ra)
5400fbc8:	fffffcc3 	sdc3	$31,-829(ra)
5400fbcc:	fffffcc0 	sdc3	$31,-832(ra)
5400fbd0:	fffffcbc 	sdc3	$31,-836(ra)
5400fbd4:	fffffcb8 	sdc3	$31,-840(ra)
5400fbd8:	fffffcb5 	sdc3	$31,-843(ra)
5400fbdc:	fffffcb1 	sdc3	$31,-847(ra)
5400fbe0:	fffffcae 	sdc3	$31,-850(ra)
5400fbe4:	fffffcaa 	sdc3	$31,-854(ra)
5400fbe8:	fffffca7 	sdc3	$31,-857(ra)
5400fbec:	fffffca3 	sdc3	$31,-861(ra)
5400fbf0:	fffffca0 	sdc3	$31,-864(ra)
5400fbf4:	fffffc9d 	sdc3	$31,-867(ra)
5400fbf8:	fffffc99 	sdc3	$31,-871(ra)
5400fbfc:	fffffc96 	sdc3	$31,-874(ra)
5400fc00:	fffffc93 	sdc3	$31,-877(ra)
5400fc04:	fffffc90 	sdc3	$31,-880(ra)
5400fc08:	fffffc8c 	sdc3	$31,-884(ra)
5400fc0c:	fffffc89 	sdc3	$31,-887(ra)
5400fc10:	fffffc86 	sdc3	$31,-890(ra)
5400fc14:	fffffc83 	sdc3	$31,-893(ra)
5400fc18:	fffffc80 	sdc3	$31,-896(ra)
5400fc1c:	fffffc7d 	sdc3	$31,-899(ra)
5400fc20:	fffffc7a 	sdc3	$31,-902(ra)
5400fc24:	fffffc77 	sdc3	$31,-905(ra)
5400fc28:	fffffc74 	sdc3	$31,-908(ra)
5400fc2c:	fffffc71 	sdc3	$31,-911(ra)
5400fc30:	fffffc6e 	sdc3	$31,-914(ra)
5400fc34:	fffffc6b 	sdc3	$31,-917(ra)
5400fc38:	fffffc69 	sdc3	$31,-919(ra)
5400fc3c:	fffffc66 	sdc3	$31,-922(ra)
5400fc40:	fffffc63 	sdc3	$31,-925(ra)
5400fc44:	fffffc60 	sdc3	$31,-928(ra)
5400fc48:	fffffc5e 	sdc3	$31,-930(ra)
5400fc4c:	fffffc5b 	sdc3	$31,-933(ra)
5400fc50:	fffffc59 	sdc3	$31,-935(ra)
5400fc54:	fffffc56 	sdc3	$31,-938(ra)
5400fc58:	fffffc54 	sdc3	$31,-940(ra)
5400fc5c:	fffffc51 	sdc3	$31,-943(ra)
5400fc60:	fffffc4f 	sdc3	$31,-945(ra)
5400fc64:	fffffc4c 	sdc3	$31,-948(ra)
5400fc68:	fffffc4a 	sdc3	$31,-950(ra)
5400fc6c:	fffffc48 	sdc3	$31,-952(ra)
5400fc70:	fffffc45 	sdc3	$31,-955(ra)
5400fc74:	fffffc43 	sdc3	$31,-957(ra)
5400fc78:	fffffc41 	sdc3	$31,-959(ra)
5400fc7c:	fffffc3f 	sdc3	$31,-961(ra)
5400fc80:	fffffc3c 	sdc3	$31,-964(ra)
5400fc84:	fffffc3a 	sdc3	$31,-966(ra)
5400fc88:	fffffc38 	sdc3	$31,-968(ra)
5400fc8c:	fffffc36 	sdc3	$31,-970(ra)
5400fc90:	fffffc34 	sdc3	$31,-972(ra)
5400fc94:	fffffc32 	sdc3	$31,-974(ra)
5400fc98:	fffffc30 	sdc3	$31,-976(ra)
5400fc9c:	fffffc2e 	sdc3	$31,-978(ra)
5400fca0:	fffffc2d 	sdc3	$31,-979(ra)
5400fca4:	fffffc2b 	sdc3	$31,-981(ra)
5400fca8:	fffffc29 	sdc3	$31,-983(ra)
5400fcac:	fffffc27 	sdc3	$31,-985(ra)
5400fcb0:	fffffc25 	sdc3	$31,-987(ra)
5400fcb4:	fffffc24 	sdc3	$31,-988(ra)
5400fcb8:	fffffc22 	sdc3	$31,-990(ra)
5400fcbc:	fffffc21 	sdc3	$31,-991(ra)
5400fcc0:	fffffc1f 	sdc3	$31,-993(ra)
5400fcc4:	fffffc1d 	sdc3	$31,-995(ra)
5400fcc8:	fffffc1c 	sdc3	$31,-996(ra)
5400fccc:	fffffc1a 	sdc3	$31,-998(ra)
5400fcd0:	fffffc19 	sdc3	$31,-999(ra)
5400fcd4:	fffffc18 	sdc3	$31,-1000(ra)
5400fcd8:	fffffc16 	sdc3	$31,-1002(ra)
5400fcdc:	fffffc15 	sdc3	$31,-1003(ra)
5400fce0:	fffffc14 	sdc3	$31,-1004(ra)
5400fce4:	fffffc13 	sdc3	$31,-1005(ra)
5400fce8:	fffffc11 	sdc3	$31,-1007(ra)
5400fcec:	fffffc10 	sdc3	$31,-1008(ra)
5400fcf0:	fffffc0f 	sdc3	$31,-1009(ra)
5400fcf4:	fffffc0e 	sdc3	$31,-1010(ra)
5400fcf8:	fffffc0d 	sdc3	$31,-1011(ra)
5400fcfc:	fffffc0c 	sdc3	$31,-1012(ra)
5400fd00:	fffffc0b 	sdc3	$31,-1013(ra)
5400fd04:	fffffc0a 	sdc3	$31,-1014(ra)
5400fd08:	fffffc09 	sdc3	$31,-1015(ra)
5400fd0c:	fffffc08 	sdc3	$31,-1016(ra)
5400fd10:	fffffc08 	sdc3	$31,-1016(ra)
5400fd14:	fffffc07 	sdc3	$31,-1017(ra)
5400fd18:	fffffc06 	sdc3	$31,-1018(ra)
5400fd1c:	fffffc05 	sdc3	$31,-1019(ra)
5400fd20:	fffffc05 	sdc3	$31,-1019(ra)
5400fd24:	fffffc04 	sdc3	$31,-1020(ra)
5400fd28:	fffffc04 	sdc3	$31,-1020(ra)
5400fd2c:	fffffc03 	sdc3	$31,-1021(ra)
5400fd30:	fffffc03 	sdc3	$31,-1021(ra)
5400fd34:	fffffc02 	sdc3	$31,-1022(ra)
5400fd38:	fffffc02 	sdc3	$31,-1022(ra)
5400fd3c:	fffffc01 	sdc3	$31,-1023(ra)
5400fd40:	fffffc01 	sdc3	$31,-1023(ra)
5400fd44:	fffffc01 	sdc3	$31,-1023(ra)
5400fd48:	fffffc00 	sdc3	$31,-1024(ra)
5400fd4c:	fffffc00 	sdc3	$31,-1024(ra)
5400fd50:	fffffc00 	sdc3	$31,-1024(ra)
5400fd54:	fffffc00 	sdc3	$31,-1024(ra)
5400fd58:	fffffc00 	sdc3	$31,-1024(ra)
5400fd5c:	fffffc00 	sdc3	$31,-1024(ra)
5400fd60:	fffffc00 	sdc3	$31,-1024(ra)
5400fd64:	fffffc00 	sdc3	$31,-1024(ra)
5400fd68:	fffffc00 	sdc3	$31,-1024(ra)
5400fd6c:	fffffc00 	sdc3	$31,-1024(ra)
5400fd70:	fffffc00 	sdc3	$31,-1024(ra)
5400fd74:	fffffc00 	sdc3	$31,-1024(ra)
5400fd78:	fffffc00 	sdc3	$31,-1024(ra)
5400fd7c:	fffffc00 	sdc3	$31,-1024(ra)
5400fd80:	fffffc01 	sdc3	$31,-1023(ra)
5400fd84:	fffffc01 	sdc3	$31,-1023(ra)
5400fd88:	fffffc01 	sdc3	$31,-1023(ra)
5400fd8c:	fffffc02 	sdc3	$31,-1022(ra)
5400fd90:	fffffc02 	sdc3	$31,-1022(ra)
5400fd94:	fffffc03 	sdc3	$31,-1021(ra)
5400fd98:	fffffc03 	sdc3	$31,-1021(ra)
5400fd9c:	fffffc04 	sdc3	$31,-1020(ra)
5400fda0:	fffffc04 	sdc3	$31,-1020(ra)
5400fda4:	fffffc05 	sdc3	$31,-1019(ra)
5400fda8:	fffffc05 	sdc3	$31,-1019(ra)
5400fdac:	fffffc06 	sdc3	$31,-1018(ra)
5400fdb0:	fffffc07 	sdc3	$31,-1017(ra)
5400fdb4:	fffffc08 	sdc3	$31,-1016(ra)
5400fdb8:	fffffc08 	sdc3	$31,-1016(ra)
5400fdbc:	fffffc09 	sdc3	$31,-1015(ra)
5400fdc0:	fffffc0a 	sdc3	$31,-1014(ra)
5400fdc4:	fffffc0b 	sdc3	$31,-1013(ra)
5400fdc8:	fffffc0c 	sdc3	$31,-1012(ra)
5400fdcc:	fffffc0d 	sdc3	$31,-1011(ra)
5400fdd0:	fffffc0e 	sdc3	$31,-1010(ra)
5400fdd4:	fffffc0f 	sdc3	$31,-1009(ra)
5400fdd8:	fffffc10 	sdc3	$31,-1008(ra)
5400fddc:	fffffc11 	sdc3	$31,-1007(ra)
5400fde0:	fffffc13 	sdc3	$31,-1005(ra)
5400fde4:	fffffc14 	sdc3	$31,-1004(ra)
5400fde8:	fffffc15 	sdc3	$31,-1003(ra)
5400fdec:	fffffc16 	sdc3	$31,-1002(ra)
5400fdf0:	fffffc18 	sdc3	$31,-1000(ra)
5400fdf4:	fffffc19 	sdc3	$31,-999(ra)
5400fdf8:	fffffc1a 	sdc3	$31,-998(ra)
5400fdfc:	fffffc1c 	sdc3	$31,-996(ra)
5400fe00:	fffffc1d 	sdc3	$31,-995(ra)
5400fe04:	fffffc1f 	sdc3	$31,-993(ra)
5400fe08:	fffffc21 	sdc3	$31,-991(ra)
5400fe0c:	fffffc22 	sdc3	$31,-990(ra)
5400fe10:	fffffc24 	sdc3	$31,-988(ra)
5400fe14:	fffffc25 	sdc3	$31,-987(ra)
5400fe18:	fffffc27 	sdc3	$31,-985(ra)
5400fe1c:	fffffc29 	sdc3	$31,-983(ra)
5400fe20:	fffffc2b 	sdc3	$31,-981(ra)
5400fe24:	fffffc2d 	sdc3	$31,-979(ra)
5400fe28:	fffffc2e 	sdc3	$31,-978(ra)
5400fe2c:	fffffc30 	sdc3	$31,-976(ra)
5400fe30:	fffffc32 	sdc3	$31,-974(ra)
5400fe34:	fffffc34 	sdc3	$31,-972(ra)
5400fe38:	fffffc36 	sdc3	$31,-970(ra)
5400fe3c:	fffffc38 	sdc3	$31,-968(ra)
5400fe40:	fffffc3a 	sdc3	$31,-966(ra)
5400fe44:	fffffc3c 	sdc3	$31,-964(ra)
5400fe48:	fffffc3f 	sdc3	$31,-961(ra)
5400fe4c:	fffffc41 	sdc3	$31,-959(ra)
5400fe50:	fffffc43 	sdc3	$31,-957(ra)
5400fe54:	fffffc45 	sdc3	$31,-955(ra)
5400fe58:	fffffc48 	sdc3	$31,-952(ra)
5400fe5c:	fffffc4a 	sdc3	$31,-950(ra)
5400fe60:	fffffc4c 	sdc3	$31,-948(ra)
5400fe64:	fffffc4f 	sdc3	$31,-945(ra)
5400fe68:	fffffc51 	sdc3	$31,-943(ra)
5400fe6c:	fffffc54 	sdc3	$31,-940(ra)
5400fe70:	fffffc56 	sdc3	$31,-938(ra)
5400fe74:	fffffc59 	sdc3	$31,-935(ra)
5400fe78:	fffffc5b 	sdc3	$31,-933(ra)
5400fe7c:	fffffc5e 	sdc3	$31,-930(ra)
5400fe80:	fffffc60 	sdc3	$31,-928(ra)
5400fe84:	fffffc63 	sdc3	$31,-925(ra)
5400fe88:	fffffc66 	sdc3	$31,-922(ra)
5400fe8c:	fffffc69 	sdc3	$31,-919(ra)
5400fe90:	fffffc6b 	sdc3	$31,-917(ra)
5400fe94:	fffffc6e 	sdc3	$31,-914(ra)
5400fe98:	fffffc71 	sdc3	$31,-911(ra)
5400fe9c:	fffffc74 	sdc3	$31,-908(ra)
5400fea0:	fffffc77 	sdc3	$31,-905(ra)
5400fea4:	fffffc7a 	sdc3	$31,-902(ra)
5400fea8:	fffffc7d 	sdc3	$31,-899(ra)
5400feac:	fffffc80 	sdc3	$31,-896(ra)
5400feb0:	fffffc83 	sdc3	$31,-893(ra)
5400feb4:	fffffc86 	sdc3	$31,-890(ra)
5400feb8:	fffffc89 	sdc3	$31,-887(ra)
5400febc:	fffffc8c 	sdc3	$31,-884(ra)
5400fec0:	fffffc90 	sdc3	$31,-880(ra)
5400fec4:	fffffc93 	sdc3	$31,-877(ra)
5400fec8:	fffffc96 	sdc3	$31,-874(ra)
5400fecc:	fffffc99 	sdc3	$31,-871(ra)
5400fed0:	fffffc9d 	sdc3	$31,-867(ra)
5400fed4:	fffffca0 	sdc3	$31,-864(ra)
5400fed8:	fffffca3 	sdc3	$31,-861(ra)
5400fedc:	fffffca7 	sdc3	$31,-857(ra)
5400fee0:	fffffcaa 	sdc3	$31,-854(ra)
5400fee4:	fffffcae 	sdc3	$31,-850(ra)
5400fee8:	fffffcb1 	sdc3	$31,-847(ra)
5400feec:	fffffcb5 	sdc3	$31,-843(ra)
5400fef0:	fffffcb8 	sdc3	$31,-840(ra)
5400fef4:	fffffcbc 	sdc3	$31,-836(ra)
5400fef8:	fffffcc0 	sdc3	$31,-832(ra)
5400fefc:	fffffcc3 	sdc3	$31,-829(ra)
5400ff00:	fffffcc7 	sdc3	$31,-825(ra)
5400ff04:	fffffccb 	sdc3	$31,-821(ra)
5400ff08:	fffffccf 	sdc3	$31,-817(ra)
5400ff0c:	fffffcd2 	sdc3	$31,-814(ra)
5400ff10:	fffffcd6 	sdc3	$31,-810(ra)
5400ff14:	fffffcda 	sdc3	$31,-806(ra)
5400ff18:	fffffcde 	sdc3	$31,-802(ra)
5400ff1c:	fffffce2 	sdc3	$31,-798(ra)
5400ff20:	fffffce6 	sdc3	$31,-794(ra)
5400ff24:	fffffcea 	sdc3	$31,-790(ra)
5400ff28:	fffffcee 	sdc3	$31,-786(ra)
5400ff2c:	fffffcf2 	sdc3	$31,-782(ra)
5400ff30:	fffffcf6 	sdc3	$31,-778(ra)
5400ff34:	fffffcfa 	sdc3	$31,-774(ra)
5400ff38:	fffffcfe 	sdc3	$31,-770(ra)
5400ff3c:	fffffd02 	sdc3	$31,-766(ra)
5400ff40:	fffffd07 	sdc3	$31,-761(ra)
5400ff44:	fffffd0b 	sdc3	$31,-757(ra)
5400ff48:	fffffd0f 	sdc3	$31,-753(ra)
5400ff4c:	fffffd13 	sdc3	$31,-749(ra)
5400ff50:	fffffd18 	sdc3	$31,-744(ra)
5400ff54:	fffffd1c 	sdc3	$31,-740(ra)
5400ff58:	fffffd20 	sdc3	$31,-736(ra)
5400ff5c:	fffffd25 	sdc3	$31,-731(ra)
5400ff60:	fffffd29 	sdc3	$31,-727(ra)
5400ff64:	fffffd2e 	sdc3	$31,-722(ra)
5400ff68:	fffffd32 	sdc3	$31,-718(ra)
5400ff6c:	fffffd37 	sdc3	$31,-713(ra)
5400ff70:	fffffd3b 	sdc3	$31,-709(ra)
5400ff74:	fffffd40 	sdc3	$31,-704(ra)
5400ff78:	fffffd44 	sdc3	$31,-700(ra)
5400ff7c:	fffffd49 	sdc3	$31,-695(ra)
5400ff80:	fffffd4d 	sdc3	$31,-691(ra)
5400ff84:	fffffd52 	sdc3	$31,-686(ra)
5400ff88:	fffffd57 	sdc3	$31,-681(ra)
5400ff8c:	fffffd5c 	sdc3	$31,-676(ra)
5400ff90:	fffffd60 	sdc3	$31,-672(ra)
5400ff94:	fffffd65 	sdc3	$31,-667(ra)
5400ff98:	fffffd6a 	sdc3	$31,-662(ra)
5400ff9c:	fffffd6f 	sdc3	$31,-657(ra)
5400ffa0:	fffffd73 	sdc3	$31,-653(ra)
5400ffa4:	fffffd78 	sdc3	$31,-648(ra)
5400ffa8:	fffffd7d 	sdc3	$31,-643(ra)
5400ffac:	fffffd82 	sdc3	$31,-638(ra)
5400ffb0:	fffffd87 	sdc3	$31,-633(ra)
5400ffb4:	fffffd8c 	sdc3	$31,-628(ra)
5400ffb8:	fffffd91 	sdc3	$31,-623(ra)
5400ffbc:	fffffd96 	sdc3	$31,-618(ra)
5400ffc0:	fffffd9b 	sdc3	$31,-613(ra)
5400ffc4:	fffffda0 	sdc3	$31,-608(ra)
5400ffc8:	fffffda5 	sdc3	$31,-603(ra)
5400ffcc:	fffffdaa 	sdc3	$31,-598(ra)
5400ffd0:	fffffdaf 	sdc3	$31,-593(ra)
5400ffd4:	fffffdb4 	sdc3	$31,-588(ra)
5400ffd8:	fffffdba 	sdc3	$31,-582(ra)
5400ffdc:	fffffdbf 	sdc3	$31,-577(ra)
5400ffe0:	fffffdc4 	sdc3	$31,-572(ra)
5400ffe4:	fffffdc9 	sdc3	$31,-567(ra)
5400ffe8:	fffffdce 	sdc3	$31,-562(ra)
5400ffec:	fffffdd4 	sdc3	$31,-556(ra)
5400fff0:	fffffdd9 	sdc3	$31,-551(ra)
5400fff4:	fffffdde 	sdc3	$31,-546(ra)
5400fff8:	fffffde4 	sdc3	$31,-540(ra)
5400fffc:	fffffde9 	sdc3	$31,-535(ra)
54010000:	fffffdee 	sdc3	$31,-530(ra)
54010004:	fffffdf4 	sdc3	$31,-524(ra)
54010008:	fffffdf9 	sdc3	$31,-519(ra)
5401000c:	fffffdff 	sdc3	$31,-513(ra)
54010010:	fffffe04 	sdc3	$31,-508(ra)
54010014:	fffffe0a 	sdc3	$31,-502(ra)
54010018:	fffffe0f 	sdc3	$31,-497(ra)
5401001c:	fffffe14 	sdc3	$31,-492(ra)
54010020:	fffffe1a 	sdc3	$31,-486(ra)
54010024:	fffffe20 	sdc3	$31,-480(ra)
54010028:	fffffe25 	sdc3	$31,-475(ra)
5401002c:	fffffe2b 	sdc3	$31,-469(ra)
54010030:	fffffe30 	sdc3	$31,-464(ra)
54010034:	fffffe36 	sdc3	$31,-458(ra)
54010038:	fffffe3c 	sdc3	$31,-452(ra)
5401003c:	fffffe41 	sdc3	$31,-447(ra)
54010040:	fffffe47 	sdc3	$31,-441(ra)
54010044:	fffffe4d 	sdc3	$31,-435(ra)
54010048:	fffffe52 	sdc3	$31,-430(ra)
5401004c:	fffffe58 	sdc3	$31,-424(ra)
54010050:	fffffe5e 	sdc3	$31,-418(ra)
54010054:	fffffe63 	sdc3	$31,-413(ra)
54010058:	fffffe69 	sdc3	$31,-407(ra)
5401005c:	fffffe6f 	sdc3	$31,-401(ra)
54010060:	fffffe75 	sdc3	$31,-395(ra)
54010064:	fffffe7b 	sdc3	$31,-389(ra)
54010068:	fffffe80 	sdc3	$31,-384(ra)
5401006c:	fffffe86 	sdc3	$31,-378(ra)
54010070:	fffffe8c 	sdc3	$31,-372(ra)
54010074:	fffffe92 	sdc3	$31,-366(ra)
54010078:	fffffe98 	sdc3	$31,-360(ra)
5401007c:	fffffe9e 	sdc3	$31,-354(ra)
54010080:	fffffea4 	sdc3	$31,-348(ra)
54010084:	fffffea9 	sdc3	$31,-343(ra)
54010088:	fffffeaf 	sdc3	$31,-337(ra)
5401008c:	fffffeb5 	sdc3	$31,-331(ra)
54010090:	fffffebb 	sdc3	$31,-325(ra)
54010094:	fffffec1 	sdc3	$31,-319(ra)
54010098:	fffffec7 	sdc3	$31,-313(ra)
5401009c:	fffffecd 	sdc3	$31,-307(ra)
540100a0:	fffffed3 	sdc3	$31,-301(ra)
540100a4:	fffffed9 	sdc3	$31,-295(ra)
540100a8:	fffffedf 	sdc3	$31,-289(ra)
540100ac:	fffffee5 	sdc3	$31,-283(ra)
540100b0:	fffffeeb 	sdc3	$31,-277(ra)
540100b4:	fffffef1 	sdc3	$31,-271(ra)
540100b8:	fffffef7 	sdc3	$31,-265(ra)
540100bc:	fffffefe 	sdc3	$31,-258(ra)
540100c0:	ffffff04 	sdc3	$31,-252(ra)
540100c4:	ffffff0a 	sdc3	$31,-246(ra)
540100c8:	ffffff10 	sdc3	$31,-240(ra)
540100cc:	ffffff16 	sdc3	$31,-234(ra)
540100d0:	ffffff1c 	sdc3	$31,-228(ra)
540100d4:	ffffff22 	sdc3	$31,-222(ra)
540100d8:	ffffff28 	sdc3	$31,-216(ra)
540100dc:	ffffff2e 	sdc3	$31,-210(ra)
540100e0:	ffffff35 	sdc3	$31,-203(ra)
540100e4:	ffffff3b 	sdc3	$31,-197(ra)
540100e8:	ffffff41 	sdc3	$31,-191(ra)
540100ec:	ffffff47 	sdc3	$31,-185(ra)
540100f0:	ffffff4d 	sdc3	$31,-179(ra)
540100f4:	ffffff54 	sdc3	$31,-172(ra)
540100f8:	ffffff5a 	sdc3	$31,-166(ra)
540100fc:	ffffff60 	sdc3	$31,-160(ra)
54010100:	ffffff66 	sdc3	$31,-154(ra)
54010104:	ffffff6c 	sdc3	$31,-148(ra)
54010108:	ffffff73 	sdc3	$31,-141(ra)
5401010c:	ffffff79 	sdc3	$31,-135(ra)
54010110:	ffffff7f 	sdc3	$31,-129(ra)
54010114:	ffffff85 	sdc3	$31,-123(ra)
54010118:	ffffff8c 	sdc3	$31,-116(ra)
5401011c:	ffffff92 	sdc3	$31,-110(ra)
54010120:	ffffff98 	sdc3	$31,-104(ra)
54010124:	ffffff9e 	sdc3	$31,-98(ra)
54010128:	ffffffa5 	sdc3	$31,-91(ra)
5401012c:	ffffffab 	sdc3	$31,-85(ra)
54010130:	ffffffb1 	sdc3	$31,-79(ra)
54010134:	ffffffb7 	sdc3	$31,-73(ra)
54010138:	ffffffbe 	sdc3	$31,-66(ra)
5401013c:	ffffffc4 	sdc3	$31,-60(ra)
54010140:	ffffffca 	sdc3	$31,-54(ra)
54010144:	ffffffd0 	sdc3	$31,-48(ra)
54010148:	ffffffd7 	sdc3	$31,-41(ra)
5401014c:	ffffffdd 	sdc3	$31,-35(ra)
54010150:	ffffffe3 	sdc3	$31,-29(ra)
54010154:	ffffffea 	sdc3	$31,-22(ra)
54010158:	fffffff0 	sdc3	$31,-16(ra)
5401015c:	fffffff6 	sdc3	$31,-10(ra)
54010160:	fffffffc 	sdc3	$31,-4(ra)

54010164 <RandomSeed>:
54010164:	00000083 	sra	zero,zero,0x2

54010168 <sinTable>:
54010168:	00000003 	sra	zero,zero,0x0
5401016c:	00000009 	jalr	zero,zero
54010170:	0000000f 	sync
54010174:	00000015 	0x15
54010178:	0000001c 	0x1c
5401017c:	00000022 	neg	zero,zero
54010180:	00000028 	0x28
54010184:	0000002f 	0x2f
54010188:	00000035 	0x35
5401018c:	0000003b 	0x3b
54010190:	00000041 	0x41
54010194:	00000048 	0x48
54010198:	0000004e 	0x4e
5401019c:	00000054 	0x54
540101a0:	0000005a 	0x5a
540101a4:	00000061 	0x61
540101a8:	00000067 	0x67
540101ac:	0000006d 	0x6d
540101b0:	00000073 	tltu	zero,zero,0x1
540101b4:	0000007a 	0x7a
540101b8:	00000080 	sll	zero,zero,0x2
540101bc:	00000086 	0x86
540101c0:	0000008c 	syscall	0x2
540101c4:	00000093 	0x93
540101c8:	00000099 	0x99
540101cc:	0000009f 	0x9f
540101d0:	000000a5 	0xa5
540101d4:	000000ab 	0xab
540101d8:	000000b2 	tlt	zero,zero,0x2
540101dc:	000000b8 	0xb8
540101e0:	000000be 	0xbe
540101e4:	000000c4 	0xc4
540101e8:	000000ca 	0xca
540101ec:	000000d1 	0xd1
540101f0:	000000d7 	0xd7
540101f4:	000000dd 	0xdd
540101f8:	000000e3 	0xe3
540101fc:	000000e9 	0xe9
54010200:	000000ef 	0xef
54010204:	000000f5 	0xf5
54010208:	000000fb 	0xfb
5401020c:	00000101 	0x101
54010210:	00000108 	0x108
54010214:	0000010e 	0x10e
54010218:	00000114 	0x114
5401021c:	0000011a 	0x11a
54010220:	00000120 	0x120
54010224:	00000126 	0x126
54010228:	0000012c 	0x12c
5401022c:	00000132 	tlt	zero,zero,0x4
54010230:	00000138 	0x138
54010234:	0000013e 	0x13e
54010238:	00000144 	0x144
5401023c:	0000014a 	0x14a
54010240:	00000150 	0x150
54010244:	00000156 	0x156
54010248:	0000015b 	0x15b
5401024c:	00000161 	0x161
54010250:	00000167 	0x167
54010254:	0000016d 	0x16d
54010258:	00000173 	tltu	zero,zero,0x5
5401025c:	00000179 	0x179
54010260:	0000017f 	0x17f
54010264:	00000184 	0x184
54010268:	0000018a 	0x18a
5401026c:	00000190 	0x190
54010270:	00000196 	0x196
54010274:	0000019c 	0x19c
54010278:	000001a1 	0x1a1
5401027c:	000001a7 	0x1a7
54010280:	000001ad 	0x1ad
54010284:	000001b2 	tlt	zero,zero,0x6
54010288:	000001b8 	0x1b8
5401028c:	000001be 	0x1be
54010290:	000001c3 	sra	zero,zero,0x7
54010294:	000001c9 	0x1c9
54010298:	000001cf 	0x1cf
5401029c:	000001d4 	0x1d4
540102a0:	000001da 	0x1da
540102a4:	000001df 	0x1df
540102a8:	000001e5 	0x1e5
540102ac:	000001eb 	0x1eb
540102b0:	000001f0 	tge	zero,zero,0x7
540102b4:	000001f5 	0x1f5
540102b8:	000001fb 	0x1fb
540102bc:	00000200 	sll	zero,zero,0x8
540102c0:	00000206 	0x206
540102c4:	0000020b 	0x20b
540102c8:	00000211 	0x211
540102cc:	00000216 	0x216
540102d0:	0000021b 	0x21b
540102d4:	00000221 	0x221
540102d8:	00000226 	0x226
540102dc:	0000022b 	0x22b
540102e0:	00000231 	tgeu	zero,zero,0x8
540102e4:	00000236 	tne	zero,zero,0x8
540102e8:	0000023b 	0x23b
540102ec:	00000240 	sll	zero,zero,0x9
540102f0:	00000245 	0x245
540102f4:	0000024b 	0x24b
540102f8:	00000250 	0x250
540102fc:	00000255 	0x255
54010300:	0000025a 	0x25a
54010304:	0000025f 	0x25f
54010308:	00000264 	0x264
5401030c:	00000269 	0x269
54010310:	0000026e 	0x26e
54010314:	00000273 	tltu	zero,zero,0x9
54010318:	00000278 	0x278
5401031c:	0000027d 	0x27d
54010320:	00000282 	srl	zero,zero,0xa
54010324:	00000287 	0x287
54010328:	0000028c 	syscall	0xa
5401032c:	00000290 	0x290
54010330:	00000295 	0x295
54010334:	0000029a 	0x29a
54010338:	0000029f 	0x29f
5401033c:	000002a3 	0x2a3
54010340:	000002a8 	0x2a8
54010344:	000002ad 	0x2ad
54010348:	000002b2 	tlt	zero,zero,0xa
5401034c:	000002b6 	tne	zero,zero,0xa
54010350:	000002bb 	0x2bb
54010354:	000002bf 	0x2bf
54010358:	000002c4 	0x2c4
5401035c:	000002c8 	0x2c8
54010360:	000002cd 	break	0x0,0xb
54010364:	000002d1 	0x2d1
54010368:	000002d6 	0x2d6
5401036c:	000002da 	0x2da
54010370:	000002df 	0x2df
54010374:	000002e3 	0x2e3
54010378:	000002e7 	0x2e7
5401037c:	000002ec 	0x2ec
54010380:	000002f0 	tge	zero,zero,0xb
54010384:	000002f4 	teq	zero,zero,0xb
54010388:	000002f8 	0x2f8
5401038c:	000002fd 	0x2fd
54010390:	00000301 	0x301
54010394:	00000305 	0x305
54010398:	00000309 	0x309
5401039c:	0000030d 	break	0x0,0xc
540103a0:	00000311 	0x311
540103a4:	00000315 	0x315
540103a8:	00000319 	0x319
540103ac:	0000031d 	0x31d
540103b0:	00000321 	0x321
540103b4:	00000325 	0x325
540103b8:	00000329 	0x329
540103bc:	0000032d 	0x32d
540103c0:	00000330 	tge	zero,zero,0xc
540103c4:	00000334 	teq	zero,zero,0xc
540103c8:	00000338 	0x338
540103cc:	0000033c 	0x33c
540103d0:	0000033f 	0x33f
540103d4:	00000343 	sra	zero,zero,0xd
540103d8:	00000347 	0x347
540103dc:	0000034a 	0x34a
540103e0:	0000034e 	0x34e
540103e4:	00000351 	0x351
540103e8:	00000355 	0x355
540103ec:	00000358 	0x358
540103f0:	0000035c 	0x35c
540103f4:	0000035f 	0x35f
540103f8:	00000362 	0x362
540103fc:	00000366 	0x366
54010400:	00000369 	0x369
54010404:	0000036c 	0x36c
54010408:	0000036f 	0x36f
5401040c:	00000373 	tltu	zero,zero,0xd
54010410:	00000376 	tne	zero,zero,0xd
54010414:	00000379 	0x379
54010418:	0000037c 	0x37c
5401041c:	0000037f 	0x37f
54010420:	00000382 	srl	zero,zero,0xe
54010424:	00000385 	0x385
54010428:	00000388 	0x388
5401042c:	0000038b 	0x38b
54010430:	0000038e 	0x38e
54010434:	00000391 	0x391
54010438:	00000394 	0x394
5401043c:	00000396 	0x396
54010440:	00000399 	0x399
54010444:	0000039c 	0x39c
54010448:	0000039f 	0x39f
5401044c:	000003a1 	0x3a1
54010450:	000003a4 	0x3a4
54010454:	000003a6 	0x3a6
54010458:	000003a9 	0x3a9
5401045c:	000003ab 	0x3ab
54010460:	000003ae 	0x3ae
54010464:	000003b0 	tge	zero,zero,0xe
54010468:	000003b3 	tltu	zero,zero,0xe
5401046c:	000003b5 	0x3b5
54010470:	000003b7 	0x3b7
54010474:	000003ba 	0x3ba
54010478:	000003bc 	0x3bc
5401047c:	000003be 	0x3be
54010480:	000003c0 	sll	zero,zero,0xf
54010484:	000003c3 	sra	zero,zero,0xf
54010488:	000003c5 	0x3c5
5401048c:	000003c7 	0x3c7
54010490:	000003c9 	0x3c9
54010494:	000003cb 	0x3cb
54010498:	000003cd 	break	0x0,0xf
5401049c:	000003cf 	0x3cf
540104a0:	000003d1 	0x3d1
540104a4:	000003d2 	0x3d2
540104a8:	000003d4 	0x3d4
540104ac:	000003d6 	0x3d6
540104b0:	000003d8 	0x3d8
540104b4:	000003da 	0x3da
540104b8:	000003db 	0x3db
540104bc:	000003dd 	0x3dd
540104c0:	000003de 	0x3de
540104c4:	000003e0 	0x3e0
540104c8:	000003e2 	0x3e2
540104cc:	000003e3 	0x3e3
540104d0:	000003e5 	0x3e5
540104d4:	000003e6 	0x3e6
540104d8:	000003e7 	0x3e7
540104dc:	000003e9 	0x3e9
540104e0:	000003ea 	0x3ea
540104e4:	000003eb 	0x3eb
540104e8:	000003ec 	0x3ec
540104ec:	000003ee 	0x3ee
540104f0:	000003ef 	0x3ef
540104f4:	000003f0 	tge	zero,zero,0xf
540104f8:	000003f1 	tgeu	zero,zero,0xf
540104fc:	000003f2 	tlt	zero,zero,0xf
54010500:	000003f3 	tltu	zero,zero,0xf
54010504:	000003f4 	teq	zero,zero,0xf
54010508:	000003f5 	0x3f5
5401050c:	000003f6 	tne	zero,zero,0xf
54010510:	000003f7 	0x3f7
54010514:	000003f7 	0x3f7
54010518:	000003f8 	0x3f8
5401051c:	000003f9 	0x3f9
54010520:	000003fa 	0x3fa
54010524:	000003fa 	0x3fa
54010528:	000003fb 	0x3fb
5401052c:	000003fb 	0x3fb
54010530:	000003fc 	0x3fc
54010534:	000003fc 	0x3fc
54010538:	000003fd 	0x3fd
5401053c:	000003fd 	0x3fd
54010540:	000003fe 	0x3fe
54010544:	000003fe 	0x3fe
54010548:	000003fe 	0x3fe
5401054c:	000003ff 	0x3ff
54010550:	000003ff 	0x3ff
54010554:	000003ff 	0x3ff
54010558:	000003ff 	0x3ff
5401055c:	000003ff 	0x3ff
54010560:	000003ff 	0x3ff
54010564:	000003ff 	0x3ff
54010568:	000003ff 	0x3ff
5401056c:	000003ff 	0x3ff
54010570:	000003ff 	0x3ff
54010574:	000003ff 	0x3ff
54010578:	000003ff 	0x3ff
5401057c:	000003ff 	0x3ff
54010580:	000003ff 	0x3ff
54010584:	000003fe 	0x3fe
54010588:	000003fe 	0x3fe
5401058c:	000003fe 	0x3fe
54010590:	000003fd 	0x3fd
54010594:	000003fd 	0x3fd
54010598:	000003fc 	0x3fc
5401059c:	000003fc 	0x3fc
540105a0:	000003fb 	0x3fb
540105a4:	000003fb 	0x3fb
540105a8:	000003fa 	0x3fa
540105ac:	000003fa 	0x3fa
540105b0:	000003f9 	0x3f9
540105b4:	000003f8 	0x3f8
540105b8:	000003f7 	0x3f7
540105bc:	000003f7 	0x3f7
540105c0:	000003f6 	tne	zero,zero,0xf
540105c4:	000003f5 	0x3f5
540105c8:	000003f4 	teq	zero,zero,0xf
540105cc:	000003f3 	tltu	zero,zero,0xf
540105d0:	000003f2 	tlt	zero,zero,0xf
540105d4:	000003f1 	tgeu	zero,zero,0xf
540105d8:	000003f0 	tge	zero,zero,0xf
540105dc:	000003ef 	0x3ef
540105e0:	000003ee 	0x3ee
540105e4:	000003ec 	0x3ec
540105e8:	000003eb 	0x3eb
540105ec:	000003ea 	0x3ea
540105f0:	000003e9 	0x3e9
540105f4:	000003e7 	0x3e7
540105f8:	000003e6 	0x3e6
540105fc:	000003e5 	0x3e5
54010600:	000003e3 	0x3e3
54010604:	000003e2 	0x3e2
54010608:	000003e0 	0x3e0
5401060c:	000003de 	0x3de
54010610:	000003dd 	0x3dd
54010614:	000003db 	0x3db
54010618:	000003da 	0x3da
5401061c:	000003d8 	0x3d8
54010620:	000003d6 	0x3d6
54010624:	000003d4 	0x3d4
54010628:	000003d2 	0x3d2
5401062c:	000003d1 	0x3d1
54010630:	000003cf 	0x3cf
54010634:	000003cd 	break	0x0,0xf
54010638:	000003cb 	0x3cb
5401063c:	000003c9 	0x3c9
54010640:	000003c7 	0x3c7
54010644:	000003c5 	0x3c5
54010648:	000003c3 	sra	zero,zero,0xf
5401064c:	000003c0 	sll	zero,zero,0xf
54010650:	000003be 	0x3be
54010654:	000003bc 	0x3bc
54010658:	000003ba 	0x3ba
5401065c:	000003b7 	0x3b7
54010660:	000003b5 	0x3b5
54010664:	000003b3 	tltu	zero,zero,0xe
54010668:	000003b0 	tge	zero,zero,0xe
5401066c:	000003ae 	0x3ae
54010670:	000003ab 	0x3ab
54010674:	000003a9 	0x3a9
54010678:	000003a6 	0x3a6
5401067c:	000003a4 	0x3a4
54010680:	000003a1 	0x3a1
54010684:	0000039f 	0x39f
54010688:	0000039c 	0x39c
5401068c:	00000399 	0x399
54010690:	00000396 	0x396
54010694:	00000394 	0x394
54010698:	00000391 	0x391
5401069c:	0000038e 	0x38e
540106a0:	0000038b 	0x38b
540106a4:	00000388 	0x388
540106a8:	00000385 	0x385
540106ac:	00000382 	srl	zero,zero,0xe
540106b0:	0000037f 	0x37f
540106b4:	0000037c 	0x37c
540106b8:	00000379 	0x379
540106bc:	00000376 	tne	zero,zero,0xd
540106c0:	00000373 	tltu	zero,zero,0xd
540106c4:	0000036f 	0x36f
540106c8:	0000036c 	0x36c
540106cc:	00000369 	0x369
540106d0:	00000366 	0x366
540106d4:	00000362 	0x362
540106d8:	0000035f 	0x35f
540106dc:	0000035c 	0x35c
540106e0:	00000358 	0x358
540106e4:	00000355 	0x355
540106e8:	00000351 	0x351
540106ec:	0000034e 	0x34e
540106f0:	0000034a 	0x34a
540106f4:	00000347 	0x347
540106f8:	00000343 	sra	zero,zero,0xd
540106fc:	0000033f 	0x33f
54010700:	0000033c 	0x33c
54010704:	00000338 	0x338
54010708:	00000334 	teq	zero,zero,0xc
5401070c:	00000330 	tge	zero,zero,0xc
54010710:	0000032d 	0x32d
54010714:	00000329 	0x329
54010718:	00000325 	0x325
5401071c:	00000321 	0x321
54010720:	0000031d 	0x31d
54010724:	00000319 	0x319
54010728:	00000315 	0x315
5401072c:	00000311 	0x311
54010730:	0000030d 	break	0x0,0xc
54010734:	00000309 	0x309
54010738:	00000305 	0x305
5401073c:	00000301 	0x301
54010740:	000002fd 	0x2fd
54010744:	000002f8 	0x2f8
54010748:	000002f4 	teq	zero,zero,0xb
5401074c:	000002f0 	tge	zero,zero,0xb
54010750:	000002ec 	0x2ec
54010754:	000002e7 	0x2e7
54010758:	000002e3 	0x2e3
5401075c:	000002df 	0x2df
54010760:	000002da 	0x2da
54010764:	000002d6 	0x2d6
54010768:	000002d1 	0x2d1
5401076c:	000002cd 	break	0x0,0xb
54010770:	000002c8 	0x2c8
54010774:	000002c4 	0x2c4
54010778:	000002bf 	0x2bf
5401077c:	000002bb 	0x2bb
54010780:	000002b6 	tne	zero,zero,0xa
54010784:	000002b2 	tlt	zero,zero,0xa
54010788:	000002ad 	0x2ad
5401078c:	000002a8 	0x2a8
54010790:	000002a3 	0x2a3
54010794:	0000029f 	0x29f
54010798:	0000029a 	0x29a
5401079c:	00000295 	0x295
540107a0:	00000290 	0x290
540107a4:	0000028c 	syscall	0xa
540107a8:	00000287 	0x287
540107ac:	00000282 	srl	zero,zero,0xa
540107b0:	0000027d 	0x27d
540107b4:	00000278 	0x278
540107b8:	00000273 	tltu	zero,zero,0x9
540107bc:	0000026e 	0x26e
540107c0:	00000269 	0x269
540107c4:	00000264 	0x264
540107c8:	0000025f 	0x25f
540107cc:	0000025a 	0x25a
540107d0:	00000255 	0x255
540107d4:	00000250 	0x250
540107d8:	0000024b 	0x24b
540107dc:	00000245 	0x245
540107e0:	00000240 	sll	zero,zero,0x9
540107e4:	0000023b 	0x23b
540107e8:	00000236 	tne	zero,zero,0x8
540107ec:	00000231 	tgeu	zero,zero,0x8
540107f0:	0000022b 	0x22b
540107f4:	00000226 	0x226
540107f8:	00000221 	0x221
540107fc:	0000021b 	0x21b
54010800:	00000216 	0x216
54010804:	00000211 	0x211
54010808:	0000020b 	0x20b
5401080c:	00000206 	0x206
54010810:	00000200 	sll	zero,zero,0x8
54010814:	000001fb 	0x1fb
54010818:	000001f5 	0x1f5
5401081c:	000001f0 	tge	zero,zero,0x7
54010820:	000001eb 	0x1eb
54010824:	000001e5 	0x1e5
54010828:	000001df 	0x1df
5401082c:	000001da 	0x1da
54010830:	000001d4 	0x1d4
54010834:	000001cf 	0x1cf
54010838:	000001c9 	0x1c9
5401083c:	000001c3 	sra	zero,zero,0x7
54010840:	000001be 	0x1be
54010844:	000001b8 	0x1b8
54010848:	000001b2 	tlt	zero,zero,0x6
5401084c:	000001ad 	0x1ad
54010850:	000001a7 	0x1a7
54010854:	000001a1 	0x1a1
54010858:	0000019c 	0x19c
5401085c:	00000196 	0x196
54010860:	00000190 	0x190
54010864:	0000018a 	0x18a
54010868:	00000184 	0x184
5401086c:	0000017f 	0x17f
54010870:	00000179 	0x179
54010874:	00000173 	tltu	zero,zero,0x5
54010878:	0000016d 	0x16d
5401087c:	00000167 	0x167
54010880:	00000161 	0x161
54010884:	0000015b 	0x15b
54010888:	00000156 	0x156
5401088c:	00000150 	0x150
54010890:	0000014a 	0x14a
54010894:	00000144 	0x144
54010898:	0000013e 	0x13e
5401089c:	00000138 	0x138
540108a0:	00000132 	tlt	zero,zero,0x4
540108a4:	0000012c 	0x12c
540108a8:	00000126 	0x126
540108ac:	00000120 	0x120
540108b0:	0000011a 	0x11a
540108b4:	00000114 	0x114
540108b8:	0000010e 	0x10e
540108bc:	00000108 	0x108
540108c0:	00000101 	0x101
540108c4:	000000fb 	0xfb
540108c8:	000000f5 	0xf5
540108cc:	000000ef 	0xef
540108d0:	000000e9 	0xe9
540108d4:	000000e3 	0xe3
540108d8:	000000dd 	0xdd
540108dc:	000000d7 	0xd7
540108e0:	000000d1 	0xd1
540108e4:	000000ca 	0xca
540108e8:	000000c4 	0xc4
540108ec:	000000be 	0xbe
540108f0:	000000b8 	0xb8
540108f4:	000000b2 	tlt	zero,zero,0x2
540108f8:	000000ab 	0xab
540108fc:	000000a5 	0xa5
54010900:	0000009f 	0x9f
54010904:	00000099 	0x99
54010908:	00000093 	0x93
5401090c:	0000008c 	syscall	0x2
54010910:	00000086 	0x86
54010914:	00000080 	sll	zero,zero,0x2
54010918:	0000007a 	0x7a
5401091c:	00000073 	tltu	zero,zero,0x1
54010920:	0000006d 	0x6d
54010924:	00000067 	0x67
54010928:	00000061 	0x61
5401092c:	0000005a 	0x5a
54010930:	00000054 	0x54
54010934:	0000004e 	0x4e
54010938:	00000048 	0x48
5401093c:	00000041 	0x41
54010940:	0000003b 	0x3b
54010944:	00000035 	0x35
54010948:	0000002f 	0x2f
5401094c:	00000028 	0x28
54010950:	00000022 	neg	zero,zero
54010954:	0000001c 	0x1c
54010958:	00000015 	0x15
5401095c:	0000000f 	sync
54010960:	00000009 	jalr	zero,zero
54010964:	00000003 	sra	zero,zero,0x0
54010968:	fffffffc 	sdc3	$31,-4(ra)
5401096c:	fffffff6 	sdc3	$31,-10(ra)
54010970:	fffffff0 	sdc3	$31,-16(ra)
54010974:	ffffffea 	sdc3	$31,-22(ra)
54010978:	ffffffe3 	sdc3	$31,-29(ra)
5401097c:	ffffffdd 	sdc3	$31,-35(ra)
54010980:	ffffffd7 	sdc3	$31,-41(ra)
54010984:	ffffffd0 	sdc3	$31,-48(ra)
54010988:	ffffffca 	sdc3	$31,-54(ra)
5401098c:	ffffffc4 	sdc3	$31,-60(ra)
54010990:	ffffffbe 	sdc3	$31,-66(ra)
54010994:	ffffffb7 	sdc3	$31,-73(ra)
54010998:	ffffffb1 	sdc3	$31,-79(ra)
5401099c:	ffffffab 	sdc3	$31,-85(ra)
540109a0:	ffffffa5 	sdc3	$31,-91(ra)
540109a4:	ffffff9e 	sdc3	$31,-98(ra)
540109a8:	ffffff98 	sdc3	$31,-104(ra)
540109ac:	ffffff92 	sdc3	$31,-110(ra)
540109b0:	ffffff8c 	sdc3	$31,-116(ra)
540109b4:	ffffff85 	sdc3	$31,-123(ra)
540109b8:	ffffff7f 	sdc3	$31,-129(ra)
540109bc:	ffffff79 	sdc3	$31,-135(ra)
540109c0:	ffffff73 	sdc3	$31,-141(ra)
540109c4:	ffffff6c 	sdc3	$31,-148(ra)
540109c8:	ffffff66 	sdc3	$31,-154(ra)
540109cc:	ffffff60 	sdc3	$31,-160(ra)
540109d0:	ffffff5a 	sdc3	$31,-166(ra)
540109d4:	ffffff54 	sdc3	$31,-172(ra)
540109d8:	ffffff4d 	sdc3	$31,-179(ra)
540109dc:	ffffff47 	sdc3	$31,-185(ra)
540109e0:	ffffff41 	sdc3	$31,-191(ra)
540109e4:	ffffff3b 	sdc3	$31,-197(ra)
540109e8:	ffffff35 	sdc3	$31,-203(ra)
540109ec:	ffffff2e 	sdc3	$31,-210(ra)
540109f0:	ffffff28 	sdc3	$31,-216(ra)
540109f4:	ffffff22 	sdc3	$31,-222(ra)
540109f8:	ffffff1c 	sdc3	$31,-228(ra)
540109fc:	ffffff16 	sdc3	$31,-234(ra)
54010a00:	ffffff10 	sdc3	$31,-240(ra)
54010a04:	ffffff0a 	sdc3	$31,-246(ra)
54010a08:	ffffff04 	sdc3	$31,-252(ra)
54010a0c:	fffffefe 	sdc3	$31,-258(ra)
54010a10:	fffffef7 	sdc3	$31,-265(ra)
54010a14:	fffffef1 	sdc3	$31,-271(ra)
54010a18:	fffffeeb 	sdc3	$31,-277(ra)
54010a1c:	fffffee5 	sdc3	$31,-283(ra)
54010a20:	fffffedf 	sdc3	$31,-289(ra)
54010a24:	fffffed9 	sdc3	$31,-295(ra)
54010a28:	fffffed3 	sdc3	$31,-301(ra)
54010a2c:	fffffecd 	sdc3	$31,-307(ra)
54010a30:	fffffec7 	sdc3	$31,-313(ra)
54010a34:	fffffec1 	sdc3	$31,-319(ra)
54010a38:	fffffebb 	sdc3	$31,-325(ra)
54010a3c:	fffffeb5 	sdc3	$31,-331(ra)
54010a40:	fffffeaf 	sdc3	$31,-337(ra)
54010a44:	fffffea9 	sdc3	$31,-343(ra)
54010a48:	fffffea4 	sdc3	$31,-348(ra)
54010a4c:	fffffe9e 	sdc3	$31,-354(ra)
54010a50:	fffffe98 	sdc3	$31,-360(ra)
54010a54:	fffffe92 	sdc3	$31,-366(ra)
54010a58:	fffffe8c 	sdc3	$31,-372(ra)
54010a5c:	fffffe86 	sdc3	$31,-378(ra)
54010a60:	fffffe80 	sdc3	$31,-384(ra)
54010a64:	fffffe7b 	sdc3	$31,-389(ra)
54010a68:	fffffe75 	sdc3	$31,-395(ra)
54010a6c:	fffffe6f 	sdc3	$31,-401(ra)
54010a70:	fffffe69 	sdc3	$31,-407(ra)
54010a74:	fffffe63 	sdc3	$31,-413(ra)
54010a78:	fffffe5e 	sdc3	$31,-418(ra)
54010a7c:	fffffe58 	sdc3	$31,-424(ra)
54010a80:	fffffe52 	sdc3	$31,-430(ra)
54010a84:	fffffe4d 	sdc3	$31,-435(ra)
54010a88:	fffffe47 	sdc3	$31,-441(ra)
54010a8c:	fffffe41 	sdc3	$31,-447(ra)
54010a90:	fffffe3c 	sdc3	$31,-452(ra)
54010a94:	fffffe36 	sdc3	$31,-458(ra)
54010a98:	fffffe30 	sdc3	$31,-464(ra)
54010a9c:	fffffe2b 	sdc3	$31,-469(ra)
54010aa0:	fffffe25 	sdc3	$31,-475(ra)
54010aa4:	fffffe20 	sdc3	$31,-480(ra)
54010aa8:	fffffe1a 	sdc3	$31,-486(ra)
54010aac:	fffffe14 	sdc3	$31,-492(ra)
54010ab0:	fffffe0f 	sdc3	$31,-497(ra)
54010ab4:	fffffe0a 	sdc3	$31,-502(ra)
54010ab8:	fffffe04 	sdc3	$31,-508(ra)
54010abc:	fffffdff 	sdc3	$31,-513(ra)
54010ac0:	fffffdf9 	sdc3	$31,-519(ra)
54010ac4:	fffffdf4 	sdc3	$31,-524(ra)
54010ac8:	fffffdee 	sdc3	$31,-530(ra)
54010acc:	fffffde9 	sdc3	$31,-535(ra)
54010ad0:	fffffde4 	sdc3	$31,-540(ra)
54010ad4:	fffffdde 	sdc3	$31,-546(ra)
54010ad8:	fffffdd9 	sdc3	$31,-551(ra)
54010adc:	fffffdd4 	sdc3	$31,-556(ra)
54010ae0:	fffffdce 	sdc3	$31,-562(ra)
54010ae4:	fffffdc9 	sdc3	$31,-567(ra)
54010ae8:	fffffdc4 	sdc3	$31,-572(ra)
54010aec:	fffffdbf 	sdc3	$31,-577(ra)
54010af0:	fffffdba 	sdc3	$31,-582(ra)
54010af4:	fffffdb4 	sdc3	$31,-588(ra)
54010af8:	fffffdaf 	sdc3	$31,-593(ra)
54010afc:	fffffdaa 	sdc3	$31,-598(ra)
54010b00:	fffffda5 	sdc3	$31,-603(ra)
54010b04:	fffffda0 	sdc3	$31,-608(ra)
54010b08:	fffffd9b 	sdc3	$31,-613(ra)
54010b0c:	fffffd96 	sdc3	$31,-618(ra)
54010b10:	fffffd91 	sdc3	$31,-623(ra)
54010b14:	fffffd8c 	sdc3	$31,-628(ra)
54010b18:	fffffd87 	sdc3	$31,-633(ra)
54010b1c:	fffffd82 	sdc3	$31,-638(ra)
54010b20:	fffffd7d 	sdc3	$31,-643(ra)
54010b24:	fffffd78 	sdc3	$31,-648(ra)
54010b28:	fffffd73 	sdc3	$31,-653(ra)
54010b2c:	fffffd6f 	sdc3	$31,-657(ra)
54010b30:	fffffd6a 	sdc3	$31,-662(ra)
54010b34:	fffffd65 	sdc3	$31,-667(ra)
54010b38:	fffffd60 	sdc3	$31,-672(ra)
54010b3c:	fffffd5c 	sdc3	$31,-676(ra)
54010b40:	fffffd57 	sdc3	$31,-681(ra)
54010b44:	fffffd52 	sdc3	$31,-686(ra)
54010b48:	fffffd4d 	sdc3	$31,-691(ra)
54010b4c:	fffffd49 	sdc3	$31,-695(ra)
54010b50:	fffffd44 	sdc3	$31,-700(ra)
54010b54:	fffffd40 	sdc3	$31,-704(ra)
54010b58:	fffffd3b 	sdc3	$31,-709(ra)
54010b5c:	fffffd37 	sdc3	$31,-713(ra)
54010b60:	fffffd32 	sdc3	$31,-718(ra)
54010b64:	fffffd2e 	sdc3	$31,-722(ra)
54010b68:	fffffd29 	sdc3	$31,-727(ra)
54010b6c:	fffffd25 	sdc3	$31,-731(ra)
54010b70:	fffffd20 	sdc3	$31,-736(ra)
54010b74:	fffffd1c 	sdc3	$31,-740(ra)
54010b78:	fffffd18 	sdc3	$31,-744(ra)
54010b7c:	fffffd13 	sdc3	$31,-749(ra)
54010b80:	fffffd0f 	sdc3	$31,-753(ra)
54010b84:	fffffd0b 	sdc3	$31,-757(ra)
54010b88:	fffffd07 	sdc3	$31,-761(ra)
54010b8c:	fffffd02 	sdc3	$31,-766(ra)
54010b90:	fffffcfe 	sdc3	$31,-770(ra)
54010b94:	fffffcfa 	sdc3	$31,-774(ra)
54010b98:	fffffcf6 	sdc3	$31,-778(ra)
54010b9c:	fffffcf2 	sdc3	$31,-782(ra)
54010ba0:	fffffcee 	sdc3	$31,-786(ra)
54010ba4:	fffffcea 	sdc3	$31,-790(ra)
54010ba8:	fffffce6 	sdc3	$31,-794(ra)
54010bac:	fffffce2 	sdc3	$31,-798(ra)
54010bb0:	fffffcde 	sdc3	$31,-802(ra)
54010bb4:	fffffcda 	sdc3	$31,-806(ra)
54010bb8:	fffffcd6 	sdc3	$31,-810(ra)
54010bbc:	fffffcd2 	sdc3	$31,-814(ra)
54010bc0:	fffffccf 	sdc3	$31,-817(ra)
54010bc4:	fffffccb 	sdc3	$31,-821(ra)
54010bc8:	fffffcc7 	sdc3	$31,-825(ra)
54010bcc:	fffffcc3 	sdc3	$31,-829(ra)
54010bd0:	fffffcc0 	sdc3	$31,-832(ra)
54010bd4:	fffffcbc 	sdc3	$31,-836(ra)
54010bd8:	fffffcb8 	sdc3	$31,-840(ra)
54010bdc:	fffffcb5 	sdc3	$31,-843(ra)
54010be0:	fffffcb1 	sdc3	$31,-847(ra)
54010be4:	fffffcae 	sdc3	$31,-850(ra)
54010be8:	fffffcaa 	sdc3	$31,-854(ra)
54010bec:	fffffca7 	sdc3	$31,-857(ra)
54010bf0:	fffffca3 	sdc3	$31,-861(ra)
54010bf4:	fffffca0 	sdc3	$31,-864(ra)
54010bf8:	fffffc9d 	sdc3	$31,-867(ra)
54010bfc:	fffffc99 	sdc3	$31,-871(ra)
54010c00:	fffffc96 	sdc3	$31,-874(ra)
54010c04:	fffffc93 	sdc3	$31,-877(ra)
54010c08:	fffffc90 	sdc3	$31,-880(ra)
54010c0c:	fffffc8c 	sdc3	$31,-884(ra)
54010c10:	fffffc89 	sdc3	$31,-887(ra)
54010c14:	fffffc86 	sdc3	$31,-890(ra)
54010c18:	fffffc83 	sdc3	$31,-893(ra)
54010c1c:	fffffc80 	sdc3	$31,-896(ra)
54010c20:	fffffc7d 	sdc3	$31,-899(ra)
54010c24:	fffffc7a 	sdc3	$31,-902(ra)
54010c28:	fffffc77 	sdc3	$31,-905(ra)
54010c2c:	fffffc74 	sdc3	$31,-908(ra)
54010c30:	fffffc71 	sdc3	$31,-911(ra)
54010c34:	fffffc6e 	sdc3	$31,-914(ra)
54010c38:	fffffc6b 	sdc3	$31,-917(ra)
54010c3c:	fffffc69 	sdc3	$31,-919(ra)
54010c40:	fffffc66 	sdc3	$31,-922(ra)
54010c44:	fffffc63 	sdc3	$31,-925(ra)
54010c48:	fffffc60 	sdc3	$31,-928(ra)
54010c4c:	fffffc5e 	sdc3	$31,-930(ra)
54010c50:	fffffc5b 	sdc3	$31,-933(ra)
54010c54:	fffffc59 	sdc3	$31,-935(ra)
54010c58:	fffffc56 	sdc3	$31,-938(ra)
54010c5c:	fffffc54 	sdc3	$31,-940(ra)
54010c60:	fffffc51 	sdc3	$31,-943(ra)
54010c64:	fffffc4f 	sdc3	$31,-945(ra)
54010c68:	fffffc4c 	sdc3	$31,-948(ra)
54010c6c:	fffffc4a 	sdc3	$31,-950(ra)
54010c70:	fffffc48 	sdc3	$31,-952(ra)
54010c74:	fffffc45 	sdc3	$31,-955(ra)
54010c78:	fffffc43 	sdc3	$31,-957(ra)
54010c7c:	fffffc41 	sdc3	$31,-959(ra)
54010c80:	fffffc3f 	sdc3	$31,-961(ra)
54010c84:	fffffc3c 	sdc3	$31,-964(ra)
54010c88:	fffffc3a 	sdc3	$31,-966(ra)
54010c8c:	fffffc38 	sdc3	$31,-968(ra)
54010c90:	fffffc36 	sdc3	$31,-970(ra)
54010c94:	fffffc34 	sdc3	$31,-972(ra)
54010c98:	fffffc32 	sdc3	$31,-974(ra)
54010c9c:	fffffc30 	sdc3	$31,-976(ra)
54010ca0:	fffffc2e 	sdc3	$31,-978(ra)
54010ca4:	fffffc2d 	sdc3	$31,-979(ra)
54010ca8:	fffffc2b 	sdc3	$31,-981(ra)
54010cac:	fffffc29 	sdc3	$31,-983(ra)
54010cb0:	fffffc27 	sdc3	$31,-985(ra)
54010cb4:	fffffc25 	sdc3	$31,-987(ra)
54010cb8:	fffffc24 	sdc3	$31,-988(ra)
54010cbc:	fffffc22 	sdc3	$31,-990(ra)
54010cc0:	fffffc21 	sdc3	$31,-991(ra)
54010cc4:	fffffc1f 	sdc3	$31,-993(ra)
54010cc8:	fffffc1d 	sdc3	$31,-995(ra)
54010ccc:	fffffc1c 	sdc3	$31,-996(ra)
54010cd0:	fffffc1a 	sdc3	$31,-998(ra)
54010cd4:	fffffc19 	sdc3	$31,-999(ra)
54010cd8:	fffffc18 	sdc3	$31,-1000(ra)
54010cdc:	fffffc16 	sdc3	$31,-1002(ra)
54010ce0:	fffffc15 	sdc3	$31,-1003(ra)
54010ce4:	fffffc14 	sdc3	$31,-1004(ra)
54010ce8:	fffffc13 	sdc3	$31,-1005(ra)
54010cec:	fffffc11 	sdc3	$31,-1007(ra)
54010cf0:	fffffc10 	sdc3	$31,-1008(ra)
54010cf4:	fffffc0f 	sdc3	$31,-1009(ra)
54010cf8:	fffffc0e 	sdc3	$31,-1010(ra)
54010cfc:	fffffc0d 	sdc3	$31,-1011(ra)
54010d00:	fffffc0c 	sdc3	$31,-1012(ra)
54010d04:	fffffc0b 	sdc3	$31,-1013(ra)
54010d08:	fffffc0a 	sdc3	$31,-1014(ra)
54010d0c:	fffffc09 	sdc3	$31,-1015(ra)
54010d10:	fffffc08 	sdc3	$31,-1016(ra)
54010d14:	fffffc08 	sdc3	$31,-1016(ra)
54010d18:	fffffc07 	sdc3	$31,-1017(ra)
54010d1c:	fffffc06 	sdc3	$31,-1018(ra)
54010d20:	fffffc05 	sdc3	$31,-1019(ra)
54010d24:	fffffc05 	sdc3	$31,-1019(ra)
54010d28:	fffffc04 	sdc3	$31,-1020(ra)
54010d2c:	fffffc04 	sdc3	$31,-1020(ra)
54010d30:	fffffc03 	sdc3	$31,-1021(ra)
54010d34:	fffffc03 	sdc3	$31,-1021(ra)
54010d38:	fffffc02 	sdc3	$31,-1022(ra)
54010d3c:	fffffc02 	sdc3	$31,-1022(ra)
54010d40:	fffffc01 	sdc3	$31,-1023(ra)
54010d44:	fffffc01 	sdc3	$31,-1023(ra)
54010d48:	fffffc01 	sdc3	$31,-1023(ra)
54010d4c:	fffffc00 	sdc3	$31,-1024(ra)
54010d50:	fffffc00 	sdc3	$31,-1024(ra)
54010d54:	fffffc00 	sdc3	$31,-1024(ra)
54010d58:	fffffc00 	sdc3	$31,-1024(ra)
54010d5c:	fffffc00 	sdc3	$31,-1024(ra)
54010d60:	fffffc00 	sdc3	$31,-1024(ra)
54010d64:	fffffc00 	sdc3	$31,-1024(ra)
54010d68:	fffffc00 	sdc3	$31,-1024(ra)
54010d6c:	fffffc00 	sdc3	$31,-1024(ra)
54010d70:	fffffc00 	sdc3	$31,-1024(ra)
54010d74:	fffffc00 	sdc3	$31,-1024(ra)
54010d78:	fffffc00 	sdc3	$31,-1024(ra)
54010d7c:	fffffc00 	sdc3	$31,-1024(ra)
54010d80:	fffffc00 	sdc3	$31,-1024(ra)
54010d84:	fffffc01 	sdc3	$31,-1023(ra)
54010d88:	fffffc01 	sdc3	$31,-1023(ra)
54010d8c:	fffffc01 	sdc3	$31,-1023(ra)
54010d90:	fffffc02 	sdc3	$31,-1022(ra)
54010d94:	fffffc02 	sdc3	$31,-1022(ra)
54010d98:	fffffc03 	sdc3	$31,-1021(ra)
54010d9c:	fffffc03 	sdc3	$31,-1021(ra)
54010da0:	fffffc04 	sdc3	$31,-1020(ra)
54010da4:	fffffc04 	sdc3	$31,-1020(ra)
54010da8:	fffffc05 	sdc3	$31,-1019(ra)
54010dac:	fffffc05 	sdc3	$31,-1019(ra)
54010db0:	fffffc06 	sdc3	$31,-1018(ra)
54010db4:	fffffc07 	sdc3	$31,-1017(ra)
54010db8:	fffffc08 	sdc3	$31,-1016(ra)
54010dbc:	fffffc08 	sdc3	$31,-1016(ra)
54010dc0:	fffffc09 	sdc3	$31,-1015(ra)
54010dc4:	fffffc0a 	sdc3	$31,-1014(ra)
54010dc8:	fffffc0b 	sdc3	$31,-1013(ra)
54010dcc:	fffffc0c 	sdc3	$31,-1012(ra)
54010dd0:	fffffc0d 	sdc3	$31,-1011(ra)
54010dd4:	fffffc0e 	sdc3	$31,-1010(ra)
54010dd8:	fffffc0f 	sdc3	$31,-1009(ra)
54010ddc:	fffffc10 	sdc3	$31,-1008(ra)
54010de0:	fffffc11 	sdc3	$31,-1007(ra)
54010de4:	fffffc13 	sdc3	$31,-1005(ra)
54010de8:	fffffc14 	sdc3	$31,-1004(ra)
54010dec:	fffffc15 	sdc3	$31,-1003(ra)
54010df0:	fffffc16 	sdc3	$31,-1002(ra)
54010df4:	fffffc18 	sdc3	$31,-1000(ra)
54010df8:	fffffc19 	sdc3	$31,-999(ra)
54010dfc:	fffffc1a 	sdc3	$31,-998(ra)
54010e00:	fffffc1c 	sdc3	$31,-996(ra)
54010e04:	fffffc1d 	sdc3	$31,-995(ra)
54010e08:	fffffc1f 	sdc3	$31,-993(ra)
54010e0c:	fffffc21 	sdc3	$31,-991(ra)
54010e10:	fffffc22 	sdc3	$31,-990(ra)
54010e14:	fffffc24 	sdc3	$31,-988(ra)
54010e18:	fffffc25 	sdc3	$31,-987(ra)
54010e1c:	fffffc27 	sdc3	$31,-985(ra)
54010e20:	fffffc29 	sdc3	$31,-983(ra)
54010e24:	fffffc2b 	sdc3	$31,-981(ra)
54010e28:	fffffc2d 	sdc3	$31,-979(ra)
54010e2c:	fffffc2e 	sdc3	$31,-978(ra)
54010e30:	fffffc30 	sdc3	$31,-976(ra)
54010e34:	fffffc32 	sdc3	$31,-974(ra)
54010e38:	fffffc34 	sdc3	$31,-972(ra)
54010e3c:	fffffc36 	sdc3	$31,-970(ra)
54010e40:	fffffc38 	sdc3	$31,-968(ra)
54010e44:	fffffc3a 	sdc3	$31,-966(ra)
54010e48:	fffffc3c 	sdc3	$31,-964(ra)
54010e4c:	fffffc3f 	sdc3	$31,-961(ra)
54010e50:	fffffc41 	sdc3	$31,-959(ra)
54010e54:	fffffc43 	sdc3	$31,-957(ra)
54010e58:	fffffc45 	sdc3	$31,-955(ra)
54010e5c:	fffffc48 	sdc3	$31,-952(ra)
54010e60:	fffffc4a 	sdc3	$31,-950(ra)
54010e64:	fffffc4c 	sdc3	$31,-948(ra)
54010e68:	fffffc4f 	sdc3	$31,-945(ra)
54010e6c:	fffffc51 	sdc3	$31,-943(ra)
54010e70:	fffffc54 	sdc3	$31,-940(ra)
54010e74:	fffffc56 	sdc3	$31,-938(ra)
54010e78:	fffffc59 	sdc3	$31,-935(ra)
54010e7c:	fffffc5b 	sdc3	$31,-933(ra)
54010e80:	fffffc5e 	sdc3	$31,-930(ra)
54010e84:	fffffc60 	sdc3	$31,-928(ra)
54010e88:	fffffc63 	sdc3	$31,-925(ra)
54010e8c:	fffffc66 	sdc3	$31,-922(ra)
54010e90:	fffffc69 	sdc3	$31,-919(ra)
54010e94:	fffffc6b 	sdc3	$31,-917(ra)
54010e98:	fffffc6e 	sdc3	$31,-914(ra)
54010e9c:	fffffc71 	sdc3	$31,-911(ra)
54010ea0:	fffffc74 	sdc3	$31,-908(ra)
54010ea4:	fffffc77 	sdc3	$31,-905(ra)
54010ea8:	fffffc7a 	sdc3	$31,-902(ra)
54010eac:	fffffc7d 	sdc3	$31,-899(ra)
54010eb0:	fffffc80 	sdc3	$31,-896(ra)
54010eb4:	fffffc83 	sdc3	$31,-893(ra)
54010eb8:	fffffc86 	sdc3	$31,-890(ra)
54010ebc:	fffffc89 	sdc3	$31,-887(ra)
54010ec0:	fffffc8c 	sdc3	$31,-884(ra)
54010ec4:	fffffc90 	sdc3	$31,-880(ra)
54010ec8:	fffffc93 	sdc3	$31,-877(ra)
54010ecc:	fffffc96 	sdc3	$31,-874(ra)
54010ed0:	fffffc99 	sdc3	$31,-871(ra)
54010ed4:	fffffc9d 	sdc3	$31,-867(ra)
54010ed8:	fffffca0 	sdc3	$31,-864(ra)
54010edc:	fffffca3 	sdc3	$31,-861(ra)
54010ee0:	fffffca7 	sdc3	$31,-857(ra)
54010ee4:	fffffcaa 	sdc3	$31,-854(ra)
54010ee8:	fffffcae 	sdc3	$31,-850(ra)
54010eec:	fffffcb1 	sdc3	$31,-847(ra)
54010ef0:	fffffcb5 	sdc3	$31,-843(ra)
54010ef4:	fffffcb8 	sdc3	$31,-840(ra)
54010ef8:	fffffcbc 	sdc3	$31,-836(ra)
54010efc:	fffffcc0 	sdc3	$31,-832(ra)
54010f00:	fffffcc3 	sdc3	$31,-829(ra)
54010f04:	fffffcc7 	sdc3	$31,-825(ra)
54010f08:	fffffccb 	sdc3	$31,-821(ra)
54010f0c:	fffffccf 	sdc3	$31,-817(ra)
54010f10:	fffffcd2 	sdc3	$31,-814(ra)
54010f14:	fffffcd6 	sdc3	$31,-810(ra)
54010f18:	fffffcda 	sdc3	$31,-806(ra)
54010f1c:	fffffcde 	sdc3	$31,-802(ra)
54010f20:	fffffce2 	sdc3	$31,-798(ra)
54010f24:	fffffce6 	sdc3	$31,-794(ra)
54010f28:	fffffcea 	sdc3	$31,-790(ra)
54010f2c:	fffffcee 	sdc3	$31,-786(ra)
54010f30:	fffffcf2 	sdc3	$31,-782(ra)
54010f34:	fffffcf6 	sdc3	$31,-778(ra)
54010f38:	fffffcfa 	sdc3	$31,-774(ra)
54010f3c:	fffffcfe 	sdc3	$31,-770(ra)
54010f40:	fffffd02 	sdc3	$31,-766(ra)
54010f44:	fffffd07 	sdc3	$31,-761(ra)
54010f48:	fffffd0b 	sdc3	$31,-757(ra)
54010f4c:	fffffd0f 	sdc3	$31,-753(ra)
54010f50:	fffffd13 	sdc3	$31,-749(ra)
54010f54:	fffffd18 	sdc3	$31,-744(ra)
54010f58:	fffffd1c 	sdc3	$31,-740(ra)
54010f5c:	fffffd20 	sdc3	$31,-736(ra)
54010f60:	fffffd25 	sdc3	$31,-731(ra)
54010f64:	fffffd29 	sdc3	$31,-727(ra)
54010f68:	fffffd2e 	sdc3	$31,-722(ra)
54010f6c:	fffffd32 	sdc3	$31,-718(ra)
54010f70:	fffffd37 	sdc3	$31,-713(ra)
54010f74:	fffffd3b 	sdc3	$31,-709(ra)
54010f78:	fffffd40 	sdc3	$31,-704(ra)
54010f7c:	fffffd44 	sdc3	$31,-700(ra)
54010f80:	fffffd49 	sdc3	$31,-695(ra)
54010f84:	fffffd4d 	sdc3	$31,-691(ra)
54010f88:	fffffd52 	sdc3	$31,-686(ra)
54010f8c:	fffffd57 	sdc3	$31,-681(ra)
54010f90:	fffffd5c 	sdc3	$31,-676(ra)
54010f94:	fffffd60 	sdc3	$31,-672(ra)
54010f98:	fffffd65 	sdc3	$31,-667(ra)
54010f9c:	fffffd6a 	sdc3	$31,-662(ra)
54010fa0:	fffffd6f 	sdc3	$31,-657(ra)
54010fa4:	fffffd73 	sdc3	$31,-653(ra)
54010fa8:	fffffd78 	sdc3	$31,-648(ra)
54010fac:	fffffd7d 	sdc3	$31,-643(ra)
54010fb0:	fffffd82 	sdc3	$31,-638(ra)
54010fb4:	fffffd87 	sdc3	$31,-633(ra)
54010fb8:	fffffd8c 	sdc3	$31,-628(ra)
54010fbc:	fffffd91 	sdc3	$31,-623(ra)
54010fc0:	fffffd96 	sdc3	$31,-618(ra)
54010fc4:	fffffd9b 	sdc3	$31,-613(ra)
54010fc8:	fffffda0 	sdc3	$31,-608(ra)
54010fcc:	fffffda5 	sdc3	$31,-603(ra)
54010fd0:	fffffdaa 	sdc3	$31,-598(ra)
54010fd4:	fffffdaf 	sdc3	$31,-593(ra)
54010fd8:	fffffdb4 	sdc3	$31,-588(ra)
54010fdc:	fffffdba 	sdc3	$31,-582(ra)
54010fe0:	fffffdbf 	sdc3	$31,-577(ra)
54010fe4:	fffffdc4 	sdc3	$31,-572(ra)
54010fe8:	fffffdc9 	sdc3	$31,-567(ra)
54010fec:	fffffdce 	sdc3	$31,-562(ra)
54010ff0:	fffffdd4 	sdc3	$31,-556(ra)
54010ff4:	fffffdd9 	sdc3	$31,-551(ra)
54010ff8:	fffffdde 	sdc3	$31,-546(ra)
54010ffc:	fffffde4 	sdc3	$31,-540(ra)
54011000:	fffffde9 	sdc3	$31,-535(ra)
54011004:	fffffdee 	sdc3	$31,-530(ra)
54011008:	fffffdf4 	sdc3	$31,-524(ra)
5401100c:	fffffdf9 	sdc3	$31,-519(ra)
54011010:	fffffdff 	sdc3	$31,-513(ra)
54011014:	fffffe04 	sdc3	$31,-508(ra)
54011018:	fffffe0a 	sdc3	$31,-502(ra)
5401101c:	fffffe0f 	sdc3	$31,-497(ra)
54011020:	fffffe14 	sdc3	$31,-492(ra)
54011024:	fffffe1a 	sdc3	$31,-486(ra)
54011028:	fffffe20 	sdc3	$31,-480(ra)
5401102c:	fffffe25 	sdc3	$31,-475(ra)
54011030:	fffffe2b 	sdc3	$31,-469(ra)
54011034:	fffffe30 	sdc3	$31,-464(ra)
54011038:	fffffe36 	sdc3	$31,-458(ra)
5401103c:	fffffe3c 	sdc3	$31,-452(ra)
54011040:	fffffe41 	sdc3	$31,-447(ra)
54011044:	fffffe47 	sdc3	$31,-441(ra)
54011048:	fffffe4d 	sdc3	$31,-435(ra)
5401104c:	fffffe52 	sdc3	$31,-430(ra)
54011050:	fffffe58 	sdc3	$31,-424(ra)
54011054:	fffffe5e 	sdc3	$31,-418(ra)
54011058:	fffffe63 	sdc3	$31,-413(ra)
5401105c:	fffffe69 	sdc3	$31,-407(ra)
54011060:	fffffe6f 	sdc3	$31,-401(ra)
54011064:	fffffe75 	sdc3	$31,-395(ra)
54011068:	fffffe7b 	sdc3	$31,-389(ra)
5401106c:	fffffe80 	sdc3	$31,-384(ra)
54011070:	fffffe86 	sdc3	$31,-378(ra)
54011074:	fffffe8c 	sdc3	$31,-372(ra)
54011078:	fffffe92 	sdc3	$31,-366(ra)
5401107c:	fffffe98 	sdc3	$31,-360(ra)
54011080:	fffffe9e 	sdc3	$31,-354(ra)
54011084:	fffffea4 	sdc3	$31,-348(ra)
54011088:	fffffea9 	sdc3	$31,-343(ra)
5401108c:	fffffeaf 	sdc3	$31,-337(ra)
54011090:	fffffeb5 	sdc3	$31,-331(ra)
54011094:	fffffebb 	sdc3	$31,-325(ra)
54011098:	fffffec1 	sdc3	$31,-319(ra)
5401109c:	fffffec7 	sdc3	$31,-313(ra)
540110a0:	fffffecd 	sdc3	$31,-307(ra)
540110a4:	fffffed3 	sdc3	$31,-301(ra)
540110a8:	fffffed9 	sdc3	$31,-295(ra)
540110ac:	fffffedf 	sdc3	$31,-289(ra)
540110b0:	fffffee5 	sdc3	$31,-283(ra)
540110b4:	fffffeeb 	sdc3	$31,-277(ra)
540110b8:	fffffef1 	sdc3	$31,-271(ra)
540110bc:	fffffef7 	sdc3	$31,-265(ra)
540110c0:	fffffefe 	sdc3	$31,-258(ra)
540110c4:	ffffff04 	sdc3	$31,-252(ra)
540110c8:	ffffff0a 	sdc3	$31,-246(ra)
540110cc:	ffffff10 	sdc3	$31,-240(ra)
540110d0:	ffffff16 	sdc3	$31,-234(ra)
540110d4:	ffffff1c 	sdc3	$31,-228(ra)
540110d8:	ffffff22 	sdc3	$31,-222(ra)
540110dc:	ffffff28 	sdc3	$31,-216(ra)
540110e0:	ffffff2e 	sdc3	$31,-210(ra)
540110e4:	ffffff35 	sdc3	$31,-203(ra)
540110e8:	ffffff3b 	sdc3	$31,-197(ra)
540110ec:	ffffff41 	sdc3	$31,-191(ra)
540110f0:	ffffff47 	sdc3	$31,-185(ra)
540110f4:	ffffff4d 	sdc3	$31,-179(ra)
540110f8:	ffffff54 	sdc3	$31,-172(ra)
540110fc:	ffffff5a 	sdc3	$31,-166(ra)
54011100:	ffffff60 	sdc3	$31,-160(ra)
54011104:	ffffff66 	sdc3	$31,-154(ra)
54011108:	ffffff6c 	sdc3	$31,-148(ra)
5401110c:	ffffff73 	sdc3	$31,-141(ra)
54011110:	ffffff79 	sdc3	$31,-135(ra)
54011114:	ffffff7f 	sdc3	$31,-129(ra)
54011118:	ffffff85 	sdc3	$31,-123(ra)
5401111c:	ffffff8c 	sdc3	$31,-116(ra)
54011120:	ffffff92 	sdc3	$31,-110(ra)
54011124:	ffffff98 	sdc3	$31,-104(ra)
54011128:	ffffff9e 	sdc3	$31,-98(ra)
5401112c:	ffffffa5 	sdc3	$31,-91(ra)
54011130:	ffffffab 	sdc3	$31,-85(ra)
54011134:	ffffffb1 	sdc3	$31,-79(ra)
54011138:	ffffffb7 	sdc3	$31,-73(ra)
5401113c:	ffffffbe 	sdc3	$31,-66(ra)
54011140:	ffffffc4 	sdc3	$31,-60(ra)
54011144:	ffffffca 	sdc3	$31,-54(ra)
54011148:	ffffffd0 	sdc3	$31,-48(ra)
5401114c:	ffffffd7 	sdc3	$31,-41(ra)
54011150:	ffffffdd 	sdc3	$31,-35(ra)
54011154:	ffffffe3 	sdc3	$31,-29(ra)
54011158:	ffffffea 	sdc3	$31,-22(ra)
5401115c:	fffffff0 	sdc3	$31,-16(ra)
54011160:	fffffff6 	sdc3	$31,-10(ra)
54011164:	fffffffc 	sdc3	$31,-4(ra)

54011168 <sinTable>:
54011168:	00000003 	sra	zero,zero,0x0
5401116c:	00000009 	jalr	zero,zero
54011170:	0000000f 	sync
54011174:	00000015 	0x15
54011178:	0000001c 	0x1c
5401117c:	00000022 	neg	zero,zero
54011180:	00000028 	0x28
54011184:	0000002f 	0x2f
54011188:	00000035 	0x35
5401118c:	0000003b 	0x3b
54011190:	00000041 	0x41
54011194:	00000048 	0x48
54011198:	0000004e 	0x4e
5401119c:	00000054 	0x54
540111a0:	0000005a 	0x5a
540111a4:	00000061 	0x61
540111a8:	00000067 	0x67
540111ac:	0000006d 	0x6d
540111b0:	00000073 	tltu	zero,zero,0x1
540111b4:	0000007a 	0x7a
540111b8:	00000080 	sll	zero,zero,0x2
540111bc:	00000086 	0x86
540111c0:	0000008c 	syscall	0x2
540111c4:	00000093 	0x93
540111c8:	00000099 	0x99
540111cc:	0000009f 	0x9f
540111d0:	000000a5 	0xa5
540111d4:	000000ab 	0xab
540111d8:	000000b2 	tlt	zero,zero,0x2
540111dc:	000000b8 	0xb8
540111e0:	000000be 	0xbe
540111e4:	000000c4 	0xc4
540111e8:	000000ca 	0xca
540111ec:	000000d1 	0xd1
540111f0:	000000d7 	0xd7
540111f4:	000000dd 	0xdd
540111f8:	000000e3 	0xe3
540111fc:	000000e9 	0xe9
54011200:	000000ef 	0xef
54011204:	000000f5 	0xf5
54011208:	000000fb 	0xfb
5401120c:	00000101 	0x101
54011210:	00000108 	0x108
54011214:	0000010e 	0x10e
54011218:	00000114 	0x114
5401121c:	0000011a 	0x11a
54011220:	00000120 	0x120
54011224:	00000126 	0x126
54011228:	0000012c 	0x12c
5401122c:	00000132 	tlt	zero,zero,0x4
54011230:	00000138 	0x138
54011234:	0000013e 	0x13e
54011238:	00000144 	0x144
5401123c:	0000014a 	0x14a
54011240:	00000150 	0x150
54011244:	00000156 	0x156
54011248:	0000015b 	0x15b
5401124c:	00000161 	0x161
54011250:	00000167 	0x167
54011254:	0000016d 	0x16d
54011258:	00000173 	tltu	zero,zero,0x5
5401125c:	00000179 	0x179
54011260:	0000017f 	0x17f
54011264:	00000184 	0x184
54011268:	0000018a 	0x18a
5401126c:	00000190 	0x190
54011270:	00000196 	0x196
54011274:	0000019c 	0x19c
54011278:	000001a1 	0x1a1
5401127c:	000001a7 	0x1a7
54011280:	000001ad 	0x1ad
54011284:	000001b2 	tlt	zero,zero,0x6
54011288:	000001b8 	0x1b8
5401128c:	000001be 	0x1be
54011290:	000001c3 	sra	zero,zero,0x7
54011294:	000001c9 	0x1c9
54011298:	000001cf 	0x1cf
5401129c:	000001d4 	0x1d4
540112a0:	000001da 	0x1da
540112a4:	000001df 	0x1df
540112a8:	000001e5 	0x1e5
540112ac:	000001eb 	0x1eb
540112b0:	000001f0 	tge	zero,zero,0x7
540112b4:	000001f5 	0x1f5
540112b8:	000001fb 	0x1fb
540112bc:	00000200 	sll	zero,zero,0x8
540112c0:	00000206 	0x206
540112c4:	0000020b 	0x20b
540112c8:	00000211 	0x211
540112cc:	00000216 	0x216
540112d0:	0000021b 	0x21b
540112d4:	00000221 	0x221
540112d8:	00000226 	0x226
540112dc:	0000022b 	0x22b
540112e0:	00000231 	tgeu	zero,zero,0x8
540112e4:	00000236 	tne	zero,zero,0x8
540112e8:	0000023b 	0x23b
540112ec:	00000240 	sll	zero,zero,0x9
540112f0:	00000245 	0x245
540112f4:	0000024b 	0x24b
540112f8:	00000250 	0x250
540112fc:	00000255 	0x255
54011300:	0000025a 	0x25a
54011304:	0000025f 	0x25f
54011308:	00000264 	0x264
5401130c:	00000269 	0x269
54011310:	0000026e 	0x26e
54011314:	00000273 	tltu	zero,zero,0x9
54011318:	00000278 	0x278
5401131c:	0000027d 	0x27d
54011320:	00000282 	srl	zero,zero,0xa
54011324:	00000287 	0x287
54011328:	0000028c 	syscall	0xa
5401132c:	00000290 	0x290
54011330:	00000295 	0x295
54011334:	0000029a 	0x29a
54011338:	0000029f 	0x29f
5401133c:	000002a3 	0x2a3
54011340:	000002a8 	0x2a8
54011344:	000002ad 	0x2ad
54011348:	000002b2 	tlt	zero,zero,0xa
5401134c:	000002b6 	tne	zero,zero,0xa
54011350:	000002bb 	0x2bb
54011354:	000002bf 	0x2bf
54011358:	000002c4 	0x2c4
5401135c:	000002c8 	0x2c8
54011360:	000002cd 	break	0x0,0xb
54011364:	000002d1 	0x2d1
54011368:	000002d6 	0x2d6
5401136c:	000002da 	0x2da
54011370:	000002df 	0x2df
54011374:	000002e3 	0x2e3
54011378:	000002e7 	0x2e7
5401137c:	000002ec 	0x2ec
54011380:	000002f0 	tge	zero,zero,0xb
54011384:	000002f4 	teq	zero,zero,0xb
54011388:	000002f8 	0x2f8
5401138c:	000002fd 	0x2fd
54011390:	00000301 	0x301
54011394:	00000305 	0x305
54011398:	00000309 	0x309
5401139c:	0000030d 	break	0x0,0xc
540113a0:	00000311 	0x311
540113a4:	00000315 	0x315
540113a8:	00000319 	0x319
540113ac:	0000031d 	0x31d
540113b0:	00000321 	0x321
540113b4:	00000325 	0x325
540113b8:	00000329 	0x329
540113bc:	0000032d 	0x32d
540113c0:	00000330 	tge	zero,zero,0xc
540113c4:	00000334 	teq	zero,zero,0xc
540113c8:	00000338 	0x338
540113cc:	0000033c 	0x33c
540113d0:	0000033f 	0x33f
540113d4:	00000343 	sra	zero,zero,0xd
540113d8:	00000347 	0x347
540113dc:	0000034a 	0x34a
540113e0:	0000034e 	0x34e
540113e4:	00000351 	0x351
540113e8:	00000355 	0x355
540113ec:	00000358 	0x358
540113f0:	0000035c 	0x35c
540113f4:	0000035f 	0x35f
540113f8:	00000362 	0x362
540113fc:	00000366 	0x366
54011400:	00000369 	0x369
54011404:	0000036c 	0x36c
54011408:	0000036f 	0x36f
5401140c:	00000373 	tltu	zero,zero,0xd
54011410:	00000376 	tne	zero,zero,0xd
54011414:	00000379 	0x379
54011418:	0000037c 	0x37c
5401141c:	0000037f 	0x37f
54011420:	00000382 	srl	zero,zero,0xe
54011424:	00000385 	0x385
54011428:	00000388 	0x388
5401142c:	0000038b 	0x38b
54011430:	0000038e 	0x38e
54011434:	00000391 	0x391
54011438:	00000394 	0x394
5401143c:	00000396 	0x396
54011440:	00000399 	0x399
54011444:	0000039c 	0x39c
54011448:	0000039f 	0x39f
5401144c:	000003a1 	0x3a1
54011450:	000003a4 	0x3a4
54011454:	000003a6 	0x3a6
54011458:	000003a9 	0x3a9
5401145c:	000003ab 	0x3ab
54011460:	000003ae 	0x3ae
54011464:	000003b0 	tge	zero,zero,0xe
54011468:	000003b3 	tltu	zero,zero,0xe
5401146c:	000003b5 	0x3b5
54011470:	000003b7 	0x3b7
54011474:	000003ba 	0x3ba
54011478:	000003bc 	0x3bc
5401147c:	000003be 	0x3be
54011480:	000003c0 	sll	zero,zero,0xf
54011484:	000003c3 	sra	zero,zero,0xf
54011488:	000003c5 	0x3c5
5401148c:	000003c7 	0x3c7
54011490:	000003c9 	0x3c9
54011494:	000003cb 	0x3cb
54011498:	000003cd 	break	0x0,0xf
5401149c:	000003cf 	0x3cf
540114a0:	000003d1 	0x3d1
540114a4:	000003d2 	0x3d2
540114a8:	000003d4 	0x3d4
540114ac:	000003d6 	0x3d6
540114b0:	000003d8 	0x3d8
540114b4:	000003da 	0x3da
540114b8:	000003db 	0x3db
540114bc:	000003dd 	0x3dd
540114c0:	000003de 	0x3de
540114c4:	000003e0 	0x3e0
540114c8:	000003e2 	0x3e2
540114cc:	000003e3 	0x3e3
540114d0:	000003e5 	0x3e5
540114d4:	000003e6 	0x3e6
540114d8:	000003e7 	0x3e7
540114dc:	000003e9 	0x3e9
540114e0:	000003ea 	0x3ea
540114e4:	000003eb 	0x3eb
540114e8:	000003ec 	0x3ec
540114ec:	000003ee 	0x3ee
540114f0:	000003ef 	0x3ef
540114f4:	000003f0 	tge	zero,zero,0xf
540114f8:	000003f1 	tgeu	zero,zero,0xf
540114fc:	000003f2 	tlt	zero,zero,0xf
54011500:	000003f3 	tltu	zero,zero,0xf
54011504:	000003f4 	teq	zero,zero,0xf
54011508:	000003f5 	0x3f5
5401150c:	000003f6 	tne	zero,zero,0xf
54011510:	000003f7 	0x3f7
54011514:	000003f7 	0x3f7
54011518:	000003f8 	0x3f8
5401151c:	000003f9 	0x3f9
54011520:	000003fa 	0x3fa
54011524:	000003fa 	0x3fa
54011528:	000003fb 	0x3fb
5401152c:	000003fb 	0x3fb
54011530:	000003fc 	0x3fc
54011534:	000003fc 	0x3fc
54011538:	000003fd 	0x3fd
5401153c:	000003fd 	0x3fd
54011540:	000003fe 	0x3fe
54011544:	000003fe 	0x3fe
54011548:	000003fe 	0x3fe
5401154c:	000003ff 	0x3ff
54011550:	000003ff 	0x3ff
54011554:	000003ff 	0x3ff
54011558:	000003ff 	0x3ff
5401155c:	000003ff 	0x3ff
54011560:	000003ff 	0x3ff
54011564:	000003ff 	0x3ff
54011568:	000003ff 	0x3ff
5401156c:	000003ff 	0x3ff
54011570:	000003ff 	0x3ff
54011574:	000003ff 	0x3ff
54011578:	000003ff 	0x3ff
5401157c:	000003ff 	0x3ff
54011580:	000003ff 	0x3ff
54011584:	000003fe 	0x3fe
54011588:	000003fe 	0x3fe
5401158c:	000003fe 	0x3fe
54011590:	000003fd 	0x3fd
54011594:	000003fd 	0x3fd
54011598:	000003fc 	0x3fc
5401159c:	000003fc 	0x3fc
540115a0:	000003fb 	0x3fb
540115a4:	000003fb 	0x3fb
540115a8:	000003fa 	0x3fa
540115ac:	000003fa 	0x3fa
540115b0:	000003f9 	0x3f9
540115b4:	000003f8 	0x3f8
540115b8:	000003f7 	0x3f7
540115bc:	000003f7 	0x3f7
540115c0:	000003f6 	tne	zero,zero,0xf
540115c4:	000003f5 	0x3f5
540115c8:	000003f4 	teq	zero,zero,0xf
540115cc:	000003f3 	tltu	zero,zero,0xf
540115d0:	000003f2 	tlt	zero,zero,0xf
540115d4:	000003f1 	tgeu	zero,zero,0xf
540115d8:	000003f0 	tge	zero,zero,0xf
540115dc:	000003ef 	0x3ef
540115e0:	000003ee 	0x3ee
540115e4:	000003ec 	0x3ec
540115e8:	000003eb 	0x3eb
540115ec:	000003ea 	0x3ea
540115f0:	000003e9 	0x3e9
540115f4:	000003e7 	0x3e7
540115f8:	000003e6 	0x3e6
540115fc:	000003e5 	0x3e5
54011600:	000003e3 	0x3e3
54011604:	000003e2 	0x3e2
54011608:	000003e0 	0x3e0
5401160c:	000003de 	0x3de
54011610:	000003dd 	0x3dd
54011614:	000003db 	0x3db
54011618:	000003da 	0x3da
5401161c:	000003d8 	0x3d8
54011620:	000003d6 	0x3d6
54011624:	000003d4 	0x3d4
54011628:	000003d2 	0x3d2
5401162c:	000003d1 	0x3d1
54011630:	000003cf 	0x3cf
54011634:	000003cd 	break	0x0,0xf
54011638:	000003cb 	0x3cb
5401163c:	000003c9 	0x3c9
54011640:	000003c7 	0x3c7
54011644:	000003c5 	0x3c5
54011648:	000003c3 	sra	zero,zero,0xf
5401164c:	000003c0 	sll	zero,zero,0xf
54011650:	000003be 	0x3be
54011654:	000003bc 	0x3bc
54011658:	000003ba 	0x3ba
5401165c:	000003b7 	0x3b7
54011660:	000003b5 	0x3b5
54011664:	000003b3 	tltu	zero,zero,0xe
54011668:	000003b0 	tge	zero,zero,0xe
5401166c:	000003ae 	0x3ae
54011670:	000003ab 	0x3ab
54011674:	000003a9 	0x3a9
54011678:	000003a6 	0x3a6
5401167c:	000003a4 	0x3a4
54011680:	000003a1 	0x3a1
54011684:	0000039f 	0x39f
54011688:	0000039c 	0x39c
5401168c:	00000399 	0x399
54011690:	00000396 	0x396
54011694:	00000394 	0x394
54011698:	00000391 	0x391
5401169c:	0000038e 	0x38e
540116a0:	0000038b 	0x38b
540116a4:	00000388 	0x388
540116a8:	00000385 	0x385
540116ac:	00000382 	srl	zero,zero,0xe
540116b0:	0000037f 	0x37f
540116b4:	0000037c 	0x37c
540116b8:	00000379 	0x379
540116bc:	00000376 	tne	zero,zero,0xd
540116c0:	00000373 	tltu	zero,zero,0xd
540116c4:	0000036f 	0x36f
540116c8:	0000036c 	0x36c
540116cc:	00000369 	0x369
540116d0:	00000366 	0x366
540116d4:	00000362 	0x362
540116d8:	0000035f 	0x35f
540116dc:	0000035c 	0x35c
540116e0:	00000358 	0x358
540116e4:	00000355 	0x355
540116e8:	00000351 	0x351
540116ec:	0000034e 	0x34e
540116f0:	0000034a 	0x34a
540116f4:	00000347 	0x347
540116f8:	00000343 	sra	zero,zero,0xd
540116fc:	0000033f 	0x33f
54011700:	0000033c 	0x33c
54011704:	00000338 	0x338
54011708:	00000334 	teq	zero,zero,0xc
5401170c:	00000330 	tge	zero,zero,0xc
54011710:	0000032d 	0x32d
54011714:	00000329 	0x329
54011718:	00000325 	0x325
5401171c:	00000321 	0x321
54011720:	0000031d 	0x31d
54011724:	00000319 	0x319
54011728:	00000315 	0x315
5401172c:	00000311 	0x311
54011730:	0000030d 	break	0x0,0xc
54011734:	00000309 	0x309
54011738:	00000305 	0x305
5401173c:	00000301 	0x301
54011740:	000002fd 	0x2fd
54011744:	000002f8 	0x2f8
54011748:	000002f4 	teq	zero,zero,0xb
5401174c:	000002f0 	tge	zero,zero,0xb
54011750:	000002ec 	0x2ec
54011754:	000002e7 	0x2e7
54011758:	000002e3 	0x2e3
5401175c:	000002df 	0x2df
54011760:	000002da 	0x2da
54011764:	000002d6 	0x2d6
54011768:	000002d1 	0x2d1
5401176c:	000002cd 	break	0x0,0xb
54011770:	000002c8 	0x2c8
54011774:	000002c4 	0x2c4
54011778:	000002bf 	0x2bf
5401177c:	000002bb 	0x2bb
54011780:	000002b6 	tne	zero,zero,0xa
54011784:	000002b2 	tlt	zero,zero,0xa
54011788:	000002ad 	0x2ad
5401178c:	000002a8 	0x2a8
54011790:	000002a3 	0x2a3
54011794:	0000029f 	0x29f
54011798:	0000029a 	0x29a
5401179c:	00000295 	0x295
540117a0:	00000290 	0x290
540117a4:	0000028c 	syscall	0xa
540117a8:	00000287 	0x287
540117ac:	00000282 	srl	zero,zero,0xa
540117b0:	0000027d 	0x27d
540117b4:	00000278 	0x278
540117b8:	00000273 	tltu	zero,zero,0x9
540117bc:	0000026e 	0x26e
540117c0:	00000269 	0x269
540117c4:	00000264 	0x264
540117c8:	0000025f 	0x25f
540117cc:	0000025a 	0x25a
540117d0:	00000255 	0x255
540117d4:	00000250 	0x250
540117d8:	0000024b 	0x24b
540117dc:	00000245 	0x245
540117e0:	00000240 	sll	zero,zero,0x9
540117e4:	0000023b 	0x23b
540117e8:	00000236 	tne	zero,zero,0x8
540117ec:	00000231 	tgeu	zero,zero,0x8
540117f0:	0000022b 	0x22b
540117f4:	00000226 	0x226
540117f8:	00000221 	0x221
540117fc:	0000021b 	0x21b
54011800:	00000216 	0x216
54011804:	00000211 	0x211
54011808:	0000020b 	0x20b
5401180c:	00000206 	0x206
54011810:	00000200 	sll	zero,zero,0x8
54011814:	000001fb 	0x1fb
54011818:	000001f5 	0x1f5
5401181c:	000001f0 	tge	zero,zero,0x7
54011820:	000001eb 	0x1eb
54011824:	000001e5 	0x1e5
54011828:	000001df 	0x1df
5401182c:	000001da 	0x1da
54011830:	000001d4 	0x1d4
54011834:	000001cf 	0x1cf
54011838:	000001c9 	0x1c9
5401183c:	000001c3 	sra	zero,zero,0x7
54011840:	000001be 	0x1be
54011844:	000001b8 	0x1b8
54011848:	000001b2 	tlt	zero,zero,0x6
5401184c:	000001ad 	0x1ad
54011850:	000001a7 	0x1a7
54011854:	000001a1 	0x1a1
54011858:	0000019c 	0x19c
5401185c:	00000196 	0x196
54011860:	00000190 	0x190
54011864:	0000018a 	0x18a
54011868:	00000184 	0x184
5401186c:	0000017f 	0x17f
54011870:	00000179 	0x179
54011874:	00000173 	tltu	zero,zero,0x5
54011878:	0000016d 	0x16d
5401187c:	00000167 	0x167
54011880:	00000161 	0x161
54011884:	0000015b 	0x15b
54011888:	00000156 	0x156
5401188c:	00000150 	0x150
54011890:	0000014a 	0x14a
54011894:	00000144 	0x144
54011898:	0000013e 	0x13e
5401189c:	00000138 	0x138
540118a0:	00000132 	tlt	zero,zero,0x4
540118a4:	0000012c 	0x12c
540118a8:	00000126 	0x126
540118ac:	00000120 	0x120
540118b0:	0000011a 	0x11a
540118b4:	00000114 	0x114
540118b8:	0000010e 	0x10e
540118bc:	00000108 	0x108
540118c0:	00000101 	0x101
540118c4:	000000fb 	0xfb
540118c8:	000000f5 	0xf5
540118cc:	000000ef 	0xef
540118d0:	000000e9 	0xe9
540118d4:	000000e3 	0xe3
540118d8:	000000dd 	0xdd
540118dc:	000000d7 	0xd7
540118e0:	000000d1 	0xd1
540118e4:	000000ca 	0xca
540118e8:	000000c4 	0xc4
540118ec:	000000be 	0xbe
540118f0:	000000b8 	0xb8
540118f4:	000000b2 	tlt	zero,zero,0x2
540118f8:	000000ab 	0xab
540118fc:	000000a5 	0xa5
54011900:	0000009f 	0x9f
54011904:	00000099 	0x99
54011908:	00000093 	0x93
5401190c:	0000008c 	syscall	0x2
54011910:	00000086 	0x86
54011914:	00000080 	sll	zero,zero,0x2
54011918:	0000007a 	0x7a
5401191c:	00000073 	tltu	zero,zero,0x1
54011920:	0000006d 	0x6d
54011924:	00000067 	0x67
54011928:	00000061 	0x61
5401192c:	0000005a 	0x5a
54011930:	00000054 	0x54
54011934:	0000004e 	0x4e
54011938:	00000048 	0x48
5401193c:	00000041 	0x41
54011940:	0000003b 	0x3b
54011944:	00000035 	0x35
54011948:	0000002f 	0x2f
5401194c:	00000028 	0x28
54011950:	00000022 	neg	zero,zero
54011954:	0000001c 	0x1c
54011958:	00000015 	0x15
5401195c:	0000000f 	sync
54011960:	00000009 	jalr	zero,zero
54011964:	00000003 	sra	zero,zero,0x0
54011968:	fffffffc 	sdc3	$31,-4(ra)
5401196c:	fffffff6 	sdc3	$31,-10(ra)
54011970:	fffffff0 	sdc3	$31,-16(ra)
54011974:	ffffffea 	sdc3	$31,-22(ra)
54011978:	ffffffe3 	sdc3	$31,-29(ra)
5401197c:	ffffffdd 	sdc3	$31,-35(ra)
54011980:	ffffffd7 	sdc3	$31,-41(ra)
54011984:	ffffffd0 	sdc3	$31,-48(ra)
54011988:	ffffffca 	sdc3	$31,-54(ra)
5401198c:	ffffffc4 	sdc3	$31,-60(ra)
54011990:	ffffffbe 	sdc3	$31,-66(ra)
54011994:	ffffffb7 	sdc3	$31,-73(ra)
54011998:	ffffffb1 	sdc3	$31,-79(ra)
5401199c:	ffffffab 	sdc3	$31,-85(ra)
540119a0:	ffffffa5 	sdc3	$31,-91(ra)
540119a4:	ffffff9e 	sdc3	$31,-98(ra)
540119a8:	ffffff98 	sdc3	$31,-104(ra)
540119ac:	ffffff92 	sdc3	$31,-110(ra)
540119b0:	ffffff8c 	sdc3	$31,-116(ra)
540119b4:	ffffff85 	sdc3	$31,-123(ra)
540119b8:	ffffff7f 	sdc3	$31,-129(ra)
540119bc:	ffffff79 	sdc3	$31,-135(ra)
540119c0:	ffffff73 	sdc3	$31,-141(ra)
540119c4:	ffffff6c 	sdc3	$31,-148(ra)
540119c8:	ffffff66 	sdc3	$31,-154(ra)
540119cc:	ffffff60 	sdc3	$31,-160(ra)
540119d0:	ffffff5a 	sdc3	$31,-166(ra)
540119d4:	ffffff54 	sdc3	$31,-172(ra)
540119d8:	ffffff4d 	sdc3	$31,-179(ra)
540119dc:	ffffff47 	sdc3	$31,-185(ra)
540119e0:	ffffff41 	sdc3	$31,-191(ra)
540119e4:	ffffff3b 	sdc3	$31,-197(ra)
540119e8:	ffffff35 	sdc3	$31,-203(ra)
540119ec:	ffffff2e 	sdc3	$31,-210(ra)
540119f0:	ffffff28 	sdc3	$31,-216(ra)
540119f4:	ffffff22 	sdc3	$31,-222(ra)
540119f8:	ffffff1c 	sdc3	$31,-228(ra)
540119fc:	ffffff16 	sdc3	$31,-234(ra)
54011a00:	ffffff10 	sdc3	$31,-240(ra)
54011a04:	ffffff0a 	sdc3	$31,-246(ra)
54011a08:	ffffff04 	sdc3	$31,-252(ra)
54011a0c:	fffffefe 	sdc3	$31,-258(ra)
54011a10:	fffffef7 	sdc3	$31,-265(ra)
54011a14:	fffffef1 	sdc3	$31,-271(ra)
54011a18:	fffffeeb 	sdc3	$31,-277(ra)
54011a1c:	fffffee5 	sdc3	$31,-283(ra)
54011a20:	fffffedf 	sdc3	$31,-289(ra)
54011a24:	fffffed9 	sdc3	$31,-295(ra)
54011a28:	fffffed3 	sdc3	$31,-301(ra)
54011a2c:	fffffecd 	sdc3	$31,-307(ra)
54011a30:	fffffec7 	sdc3	$31,-313(ra)
54011a34:	fffffec1 	sdc3	$31,-319(ra)
54011a38:	fffffebb 	sdc3	$31,-325(ra)
54011a3c:	fffffeb5 	sdc3	$31,-331(ra)
54011a40:	fffffeaf 	sdc3	$31,-337(ra)
54011a44:	fffffea9 	sdc3	$31,-343(ra)
54011a48:	fffffea4 	sdc3	$31,-348(ra)
54011a4c:	fffffe9e 	sdc3	$31,-354(ra)
54011a50:	fffffe98 	sdc3	$31,-360(ra)
54011a54:	fffffe92 	sdc3	$31,-366(ra)
54011a58:	fffffe8c 	sdc3	$31,-372(ra)
54011a5c:	fffffe86 	sdc3	$31,-378(ra)
54011a60:	fffffe80 	sdc3	$31,-384(ra)
54011a64:	fffffe7b 	sdc3	$31,-389(ra)
54011a68:	fffffe75 	sdc3	$31,-395(ra)
54011a6c:	fffffe6f 	sdc3	$31,-401(ra)
54011a70:	fffffe69 	sdc3	$31,-407(ra)
54011a74:	fffffe63 	sdc3	$31,-413(ra)
54011a78:	fffffe5e 	sdc3	$31,-418(ra)
54011a7c:	fffffe58 	sdc3	$31,-424(ra)
54011a80:	fffffe52 	sdc3	$31,-430(ra)
54011a84:	fffffe4d 	sdc3	$31,-435(ra)
54011a88:	fffffe47 	sdc3	$31,-441(ra)
54011a8c:	fffffe41 	sdc3	$31,-447(ra)
54011a90:	fffffe3c 	sdc3	$31,-452(ra)
54011a94:	fffffe36 	sdc3	$31,-458(ra)
54011a98:	fffffe30 	sdc3	$31,-464(ra)
54011a9c:	fffffe2b 	sdc3	$31,-469(ra)
54011aa0:	fffffe25 	sdc3	$31,-475(ra)
54011aa4:	fffffe20 	sdc3	$31,-480(ra)
54011aa8:	fffffe1a 	sdc3	$31,-486(ra)
54011aac:	fffffe14 	sdc3	$31,-492(ra)
54011ab0:	fffffe0f 	sdc3	$31,-497(ra)
54011ab4:	fffffe0a 	sdc3	$31,-502(ra)
54011ab8:	fffffe04 	sdc3	$31,-508(ra)
54011abc:	fffffdff 	sdc3	$31,-513(ra)
54011ac0:	fffffdf9 	sdc3	$31,-519(ra)
54011ac4:	fffffdf4 	sdc3	$31,-524(ra)
54011ac8:	fffffdee 	sdc3	$31,-530(ra)
54011acc:	fffffde9 	sdc3	$31,-535(ra)
54011ad0:	fffffde4 	sdc3	$31,-540(ra)
54011ad4:	fffffdde 	sdc3	$31,-546(ra)
54011ad8:	fffffdd9 	sdc3	$31,-551(ra)
54011adc:	fffffdd4 	sdc3	$31,-556(ra)
54011ae0:	fffffdce 	sdc3	$31,-562(ra)
54011ae4:	fffffdc9 	sdc3	$31,-567(ra)
54011ae8:	fffffdc4 	sdc3	$31,-572(ra)
54011aec:	fffffdbf 	sdc3	$31,-577(ra)
54011af0:	fffffdba 	sdc3	$31,-582(ra)
54011af4:	fffffdb4 	sdc3	$31,-588(ra)
54011af8:	fffffdaf 	sdc3	$31,-593(ra)
54011afc:	fffffdaa 	sdc3	$31,-598(ra)
54011b00:	fffffda5 	sdc3	$31,-603(ra)
54011b04:	fffffda0 	sdc3	$31,-608(ra)
54011b08:	fffffd9b 	sdc3	$31,-613(ra)
54011b0c:	fffffd96 	sdc3	$31,-618(ra)
54011b10:	fffffd91 	sdc3	$31,-623(ra)
54011b14:	fffffd8c 	sdc3	$31,-628(ra)
54011b18:	fffffd87 	sdc3	$31,-633(ra)
54011b1c:	fffffd82 	sdc3	$31,-638(ra)
54011b20:	fffffd7d 	sdc3	$31,-643(ra)
54011b24:	fffffd78 	sdc3	$31,-648(ra)
54011b28:	fffffd73 	sdc3	$31,-653(ra)
54011b2c:	fffffd6f 	sdc3	$31,-657(ra)
54011b30:	fffffd6a 	sdc3	$31,-662(ra)
54011b34:	fffffd65 	sdc3	$31,-667(ra)
54011b38:	fffffd60 	sdc3	$31,-672(ra)
54011b3c:	fffffd5c 	sdc3	$31,-676(ra)
54011b40:	fffffd57 	sdc3	$31,-681(ra)
54011b44:	fffffd52 	sdc3	$31,-686(ra)
54011b48:	fffffd4d 	sdc3	$31,-691(ra)
54011b4c:	fffffd49 	sdc3	$31,-695(ra)
54011b50:	fffffd44 	sdc3	$31,-700(ra)
54011b54:	fffffd40 	sdc3	$31,-704(ra)
54011b58:	fffffd3b 	sdc3	$31,-709(ra)
54011b5c:	fffffd37 	sdc3	$31,-713(ra)
54011b60:	fffffd32 	sdc3	$31,-718(ra)
54011b64:	fffffd2e 	sdc3	$31,-722(ra)
54011b68:	fffffd29 	sdc3	$31,-727(ra)
54011b6c:	fffffd25 	sdc3	$31,-731(ra)
54011b70:	fffffd20 	sdc3	$31,-736(ra)
54011b74:	fffffd1c 	sdc3	$31,-740(ra)
54011b78:	fffffd18 	sdc3	$31,-744(ra)
54011b7c:	fffffd13 	sdc3	$31,-749(ra)
54011b80:	fffffd0f 	sdc3	$31,-753(ra)
54011b84:	fffffd0b 	sdc3	$31,-757(ra)
54011b88:	fffffd07 	sdc3	$31,-761(ra)
54011b8c:	fffffd02 	sdc3	$31,-766(ra)
54011b90:	fffffcfe 	sdc3	$31,-770(ra)
54011b94:	fffffcfa 	sdc3	$31,-774(ra)
54011b98:	fffffcf6 	sdc3	$31,-778(ra)
54011b9c:	fffffcf2 	sdc3	$31,-782(ra)
54011ba0:	fffffcee 	sdc3	$31,-786(ra)
54011ba4:	fffffcea 	sdc3	$31,-790(ra)
54011ba8:	fffffce6 	sdc3	$31,-794(ra)
54011bac:	fffffce2 	sdc3	$31,-798(ra)
54011bb0:	fffffcde 	sdc3	$31,-802(ra)
54011bb4:	fffffcda 	sdc3	$31,-806(ra)
54011bb8:	fffffcd6 	sdc3	$31,-810(ra)
54011bbc:	fffffcd2 	sdc3	$31,-814(ra)
54011bc0:	fffffccf 	sdc3	$31,-817(ra)
54011bc4:	fffffccb 	sdc3	$31,-821(ra)
54011bc8:	fffffcc7 	sdc3	$31,-825(ra)
54011bcc:	fffffcc3 	sdc3	$31,-829(ra)
54011bd0:	fffffcc0 	sdc3	$31,-832(ra)
54011bd4:	fffffcbc 	sdc3	$31,-836(ra)
54011bd8:	fffffcb8 	sdc3	$31,-840(ra)
54011bdc:	fffffcb5 	sdc3	$31,-843(ra)
54011be0:	fffffcb1 	sdc3	$31,-847(ra)
54011be4:	fffffcae 	sdc3	$31,-850(ra)
54011be8:	fffffcaa 	sdc3	$31,-854(ra)
54011bec:	fffffca7 	sdc3	$31,-857(ra)
54011bf0:	fffffca3 	sdc3	$31,-861(ra)
54011bf4:	fffffca0 	sdc3	$31,-864(ra)
54011bf8:	fffffc9d 	sdc3	$31,-867(ra)
54011bfc:	fffffc99 	sdc3	$31,-871(ra)
54011c00:	fffffc96 	sdc3	$31,-874(ra)
54011c04:	fffffc93 	sdc3	$31,-877(ra)
54011c08:	fffffc90 	sdc3	$31,-880(ra)
54011c0c:	fffffc8c 	sdc3	$31,-884(ra)
54011c10:	fffffc89 	sdc3	$31,-887(ra)
54011c14:	fffffc86 	sdc3	$31,-890(ra)
54011c18:	fffffc83 	sdc3	$31,-893(ra)
54011c1c:	fffffc80 	sdc3	$31,-896(ra)
54011c20:	fffffc7d 	sdc3	$31,-899(ra)
54011c24:	fffffc7a 	sdc3	$31,-902(ra)
54011c28:	fffffc77 	sdc3	$31,-905(ra)
54011c2c:	fffffc74 	sdc3	$31,-908(ra)
54011c30:	fffffc71 	sdc3	$31,-911(ra)
54011c34:	fffffc6e 	sdc3	$31,-914(ra)
54011c38:	fffffc6b 	sdc3	$31,-917(ra)
54011c3c:	fffffc69 	sdc3	$31,-919(ra)
54011c40:	fffffc66 	sdc3	$31,-922(ra)
54011c44:	fffffc63 	sdc3	$31,-925(ra)
54011c48:	fffffc60 	sdc3	$31,-928(ra)
54011c4c:	fffffc5e 	sdc3	$31,-930(ra)
54011c50:	fffffc5b 	sdc3	$31,-933(ra)
54011c54:	fffffc59 	sdc3	$31,-935(ra)
54011c58:	fffffc56 	sdc3	$31,-938(ra)
54011c5c:	fffffc54 	sdc3	$31,-940(ra)
54011c60:	fffffc51 	sdc3	$31,-943(ra)
54011c64:	fffffc4f 	sdc3	$31,-945(ra)
54011c68:	fffffc4c 	sdc3	$31,-948(ra)
54011c6c:	fffffc4a 	sdc3	$31,-950(ra)
54011c70:	fffffc48 	sdc3	$31,-952(ra)
54011c74:	fffffc45 	sdc3	$31,-955(ra)
54011c78:	fffffc43 	sdc3	$31,-957(ra)
54011c7c:	fffffc41 	sdc3	$31,-959(ra)
54011c80:	fffffc3f 	sdc3	$31,-961(ra)
54011c84:	fffffc3c 	sdc3	$31,-964(ra)
54011c88:	fffffc3a 	sdc3	$31,-966(ra)
54011c8c:	fffffc38 	sdc3	$31,-968(ra)
54011c90:	fffffc36 	sdc3	$31,-970(ra)
54011c94:	fffffc34 	sdc3	$31,-972(ra)
54011c98:	fffffc32 	sdc3	$31,-974(ra)
54011c9c:	fffffc30 	sdc3	$31,-976(ra)
54011ca0:	fffffc2e 	sdc3	$31,-978(ra)
54011ca4:	fffffc2d 	sdc3	$31,-979(ra)
54011ca8:	fffffc2b 	sdc3	$31,-981(ra)
54011cac:	fffffc29 	sdc3	$31,-983(ra)
54011cb0:	fffffc27 	sdc3	$31,-985(ra)
54011cb4:	fffffc25 	sdc3	$31,-987(ra)
54011cb8:	fffffc24 	sdc3	$31,-988(ra)
54011cbc:	fffffc22 	sdc3	$31,-990(ra)
54011cc0:	fffffc21 	sdc3	$31,-991(ra)
54011cc4:	fffffc1f 	sdc3	$31,-993(ra)
54011cc8:	fffffc1d 	sdc3	$31,-995(ra)
54011ccc:	fffffc1c 	sdc3	$31,-996(ra)
54011cd0:	fffffc1a 	sdc3	$31,-998(ra)
54011cd4:	fffffc19 	sdc3	$31,-999(ra)
54011cd8:	fffffc18 	sdc3	$31,-1000(ra)
54011cdc:	fffffc16 	sdc3	$31,-1002(ra)
54011ce0:	fffffc15 	sdc3	$31,-1003(ra)
54011ce4:	fffffc14 	sdc3	$31,-1004(ra)
54011ce8:	fffffc13 	sdc3	$31,-1005(ra)
54011cec:	fffffc11 	sdc3	$31,-1007(ra)
54011cf0:	fffffc10 	sdc3	$31,-1008(ra)
54011cf4:	fffffc0f 	sdc3	$31,-1009(ra)
54011cf8:	fffffc0e 	sdc3	$31,-1010(ra)
54011cfc:	fffffc0d 	sdc3	$31,-1011(ra)
54011d00:	fffffc0c 	sdc3	$31,-1012(ra)
54011d04:	fffffc0b 	sdc3	$31,-1013(ra)
54011d08:	fffffc0a 	sdc3	$31,-1014(ra)
54011d0c:	fffffc09 	sdc3	$31,-1015(ra)
54011d10:	fffffc08 	sdc3	$31,-1016(ra)
54011d14:	fffffc08 	sdc3	$31,-1016(ra)
54011d18:	fffffc07 	sdc3	$31,-1017(ra)
54011d1c:	fffffc06 	sdc3	$31,-1018(ra)
54011d20:	fffffc05 	sdc3	$31,-1019(ra)
54011d24:	fffffc05 	sdc3	$31,-1019(ra)
54011d28:	fffffc04 	sdc3	$31,-1020(ra)
54011d2c:	fffffc04 	sdc3	$31,-1020(ra)
54011d30:	fffffc03 	sdc3	$31,-1021(ra)
54011d34:	fffffc03 	sdc3	$31,-1021(ra)
54011d38:	fffffc02 	sdc3	$31,-1022(ra)
54011d3c:	fffffc02 	sdc3	$31,-1022(ra)
54011d40:	fffffc01 	sdc3	$31,-1023(ra)
54011d44:	fffffc01 	sdc3	$31,-1023(ra)
54011d48:	fffffc01 	sdc3	$31,-1023(ra)
54011d4c:	fffffc00 	sdc3	$31,-1024(ra)
54011d50:	fffffc00 	sdc3	$31,-1024(ra)
54011d54:	fffffc00 	sdc3	$31,-1024(ra)
54011d58:	fffffc00 	sdc3	$31,-1024(ra)
54011d5c:	fffffc00 	sdc3	$31,-1024(ra)
54011d60:	fffffc00 	sdc3	$31,-1024(ra)
54011d64:	fffffc00 	sdc3	$31,-1024(ra)
54011d68:	fffffc00 	sdc3	$31,-1024(ra)
54011d6c:	fffffc00 	sdc3	$31,-1024(ra)
54011d70:	fffffc00 	sdc3	$31,-1024(ra)
54011d74:	fffffc00 	sdc3	$31,-1024(ra)
54011d78:	fffffc00 	sdc3	$31,-1024(ra)
54011d7c:	fffffc00 	sdc3	$31,-1024(ra)
54011d80:	fffffc00 	sdc3	$31,-1024(ra)
54011d84:	fffffc01 	sdc3	$31,-1023(ra)
54011d88:	fffffc01 	sdc3	$31,-1023(ra)
54011d8c:	fffffc01 	sdc3	$31,-1023(ra)
54011d90:	fffffc02 	sdc3	$31,-1022(ra)
54011d94:	fffffc02 	sdc3	$31,-1022(ra)
54011d98:	fffffc03 	sdc3	$31,-1021(ra)
54011d9c:	fffffc03 	sdc3	$31,-1021(ra)
54011da0:	fffffc04 	sdc3	$31,-1020(ra)
54011da4:	fffffc04 	sdc3	$31,-1020(ra)
54011da8:	fffffc05 	sdc3	$31,-1019(ra)
54011dac:	fffffc05 	sdc3	$31,-1019(ra)
54011db0:	fffffc06 	sdc3	$31,-1018(ra)
54011db4:	fffffc07 	sdc3	$31,-1017(ra)
54011db8:	fffffc08 	sdc3	$31,-1016(ra)
54011dbc:	fffffc08 	sdc3	$31,-1016(ra)
54011dc0:	fffffc09 	sdc3	$31,-1015(ra)
54011dc4:	fffffc0a 	sdc3	$31,-1014(ra)
54011dc8:	fffffc0b 	sdc3	$31,-1013(ra)
54011dcc:	fffffc0c 	sdc3	$31,-1012(ra)
54011dd0:	fffffc0d 	sdc3	$31,-1011(ra)
54011dd4:	fffffc0e 	sdc3	$31,-1010(ra)
54011dd8:	fffffc0f 	sdc3	$31,-1009(ra)
54011ddc:	fffffc10 	sdc3	$31,-1008(ra)
54011de0:	fffffc11 	sdc3	$31,-1007(ra)
54011de4:	fffffc13 	sdc3	$31,-1005(ra)
54011de8:	fffffc14 	sdc3	$31,-1004(ra)
54011dec:	fffffc15 	sdc3	$31,-1003(ra)
54011df0:	fffffc16 	sdc3	$31,-1002(ra)
54011df4:	fffffc18 	sdc3	$31,-1000(ra)
54011df8:	fffffc19 	sdc3	$31,-999(ra)
54011dfc:	fffffc1a 	sdc3	$31,-998(ra)
54011e00:	fffffc1c 	sdc3	$31,-996(ra)
54011e04:	fffffc1d 	sdc3	$31,-995(ra)
54011e08:	fffffc1f 	sdc3	$31,-993(ra)
54011e0c:	fffffc21 	sdc3	$31,-991(ra)
54011e10:	fffffc22 	sdc3	$31,-990(ra)
54011e14:	fffffc24 	sdc3	$31,-988(ra)
54011e18:	fffffc25 	sdc3	$31,-987(ra)
54011e1c:	fffffc27 	sdc3	$31,-985(ra)
54011e20:	fffffc29 	sdc3	$31,-983(ra)
54011e24:	fffffc2b 	sdc3	$31,-981(ra)
54011e28:	fffffc2d 	sdc3	$31,-979(ra)
54011e2c:	fffffc2e 	sdc3	$31,-978(ra)
54011e30:	fffffc30 	sdc3	$31,-976(ra)
54011e34:	fffffc32 	sdc3	$31,-974(ra)
54011e38:	fffffc34 	sdc3	$31,-972(ra)
54011e3c:	fffffc36 	sdc3	$31,-970(ra)
54011e40:	fffffc38 	sdc3	$31,-968(ra)
54011e44:	fffffc3a 	sdc3	$31,-966(ra)
54011e48:	fffffc3c 	sdc3	$31,-964(ra)
54011e4c:	fffffc3f 	sdc3	$31,-961(ra)
54011e50:	fffffc41 	sdc3	$31,-959(ra)
54011e54:	fffffc43 	sdc3	$31,-957(ra)
54011e58:	fffffc45 	sdc3	$31,-955(ra)
54011e5c:	fffffc48 	sdc3	$31,-952(ra)
54011e60:	fffffc4a 	sdc3	$31,-950(ra)
54011e64:	fffffc4c 	sdc3	$31,-948(ra)
54011e68:	fffffc4f 	sdc3	$31,-945(ra)
54011e6c:	fffffc51 	sdc3	$31,-943(ra)
54011e70:	fffffc54 	sdc3	$31,-940(ra)
54011e74:	fffffc56 	sdc3	$31,-938(ra)
54011e78:	fffffc59 	sdc3	$31,-935(ra)
54011e7c:	fffffc5b 	sdc3	$31,-933(ra)
54011e80:	fffffc5e 	sdc3	$31,-930(ra)
54011e84:	fffffc60 	sdc3	$31,-928(ra)
54011e88:	fffffc63 	sdc3	$31,-925(ra)
54011e8c:	fffffc66 	sdc3	$31,-922(ra)
54011e90:	fffffc69 	sdc3	$31,-919(ra)
54011e94:	fffffc6b 	sdc3	$31,-917(ra)
54011e98:	fffffc6e 	sdc3	$31,-914(ra)
54011e9c:	fffffc71 	sdc3	$31,-911(ra)
54011ea0:	fffffc74 	sdc3	$31,-908(ra)
54011ea4:	fffffc77 	sdc3	$31,-905(ra)
54011ea8:	fffffc7a 	sdc3	$31,-902(ra)
54011eac:	fffffc7d 	sdc3	$31,-899(ra)
54011eb0:	fffffc80 	sdc3	$31,-896(ra)
54011eb4:	fffffc83 	sdc3	$31,-893(ra)
54011eb8:	fffffc86 	sdc3	$31,-890(ra)
54011ebc:	fffffc89 	sdc3	$31,-887(ra)
54011ec0:	fffffc8c 	sdc3	$31,-884(ra)
54011ec4:	fffffc90 	sdc3	$31,-880(ra)
54011ec8:	fffffc93 	sdc3	$31,-877(ra)
54011ecc:	fffffc96 	sdc3	$31,-874(ra)
54011ed0:	fffffc99 	sdc3	$31,-871(ra)
54011ed4:	fffffc9d 	sdc3	$31,-867(ra)
54011ed8:	fffffca0 	sdc3	$31,-864(ra)
54011edc:	fffffca3 	sdc3	$31,-861(ra)
54011ee0:	fffffca7 	sdc3	$31,-857(ra)
54011ee4:	fffffcaa 	sdc3	$31,-854(ra)
54011ee8:	fffffcae 	sdc3	$31,-850(ra)
54011eec:	fffffcb1 	sdc3	$31,-847(ra)
54011ef0:	fffffcb5 	sdc3	$31,-843(ra)
54011ef4:	fffffcb8 	sdc3	$31,-840(ra)
54011ef8:	fffffcbc 	sdc3	$31,-836(ra)
54011efc:	fffffcc0 	sdc3	$31,-832(ra)
54011f00:	fffffcc3 	sdc3	$31,-829(ra)
54011f04:	fffffcc7 	sdc3	$31,-825(ra)
54011f08:	fffffccb 	sdc3	$31,-821(ra)
54011f0c:	fffffccf 	sdc3	$31,-817(ra)
54011f10:	fffffcd2 	sdc3	$31,-814(ra)
54011f14:	fffffcd6 	sdc3	$31,-810(ra)
54011f18:	fffffcda 	sdc3	$31,-806(ra)
54011f1c:	fffffcde 	sdc3	$31,-802(ra)
54011f20:	fffffce2 	sdc3	$31,-798(ra)
54011f24:	fffffce6 	sdc3	$31,-794(ra)
54011f28:	fffffcea 	sdc3	$31,-790(ra)
54011f2c:	fffffcee 	sdc3	$31,-786(ra)
54011f30:	fffffcf2 	sdc3	$31,-782(ra)
54011f34:	fffffcf6 	sdc3	$31,-778(ra)
54011f38:	fffffcfa 	sdc3	$31,-774(ra)
54011f3c:	fffffcfe 	sdc3	$31,-770(ra)
54011f40:	fffffd02 	sdc3	$31,-766(ra)
54011f44:	fffffd07 	sdc3	$31,-761(ra)
54011f48:	fffffd0b 	sdc3	$31,-757(ra)
54011f4c:	fffffd0f 	sdc3	$31,-753(ra)
54011f50:	fffffd13 	sdc3	$31,-749(ra)
54011f54:	fffffd18 	sdc3	$31,-744(ra)
54011f58:	fffffd1c 	sdc3	$31,-740(ra)
54011f5c:	fffffd20 	sdc3	$31,-736(ra)
54011f60:	fffffd25 	sdc3	$31,-731(ra)
54011f64:	fffffd29 	sdc3	$31,-727(ra)
54011f68:	fffffd2e 	sdc3	$31,-722(ra)
54011f6c:	fffffd32 	sdc3	$31,-718(ra)
54011f70:	fffffd37 	sdc3	$31,-713(ra)
54011f74:	fffffd3b 	sdc3	$31,-709(ra)
54011f78:	fffffd40 	sdc3	$31,-704(ra)
54011f7c:	fffffd44 	sdc3	$31,-700(ra)
54011f80:	fffffd49 	sdc3	$31,-695(ra)
54011f84:	fffffd4d 	sdc3	$31,-691(ra)
54011f88:	fffffd52 	sdc3	$31,-686(ra)
54011f8c:	fffffd57 	sdc3	$31,-681(ra)
54011f90:	fffffd5c 	sdc3	$31,-676(ra)
54011f94:	fffffd60 	sdc3	$31,-672(ra)
54011f98:	fffffd65 	sdc3	$31,-667(ra)
54011f9c:	fffffd6a 	sdc3	$31,-662(ra)
54011fa0:	fffffd6f 	sdc3	$31,-657(ra)
54011fa4:	fffffd73 	sdc3	$31,-653(ra)
54011fa8:	fffffd78 	sdc3	$31,-648(ra)
54011fac:	fffffd7d 	sdc3	$31,-643(ra)
54011fb0:	fffffd82 	sdc3	$31,-638(ra)
54011fb4:	fffffd87 	sdc3	$31,-633(ra)
54011fb8:	fffffd8c 	sdc3	$31,-628(ra)
54011fbc:	fffffd91 	sdc3	$31,-623(ra)
54011fc0:	fffffd96 	sdc3	$31,-618(ra)
54011fc4:	fffffd9b 	sdc3	$31,-613(ra)
54011fc8:	fffffda0 	sdc3	$31,-608(ra)
54011fcc:	fffffda5 	sdc3	$31,-603(ra)
54011fd0:	fffffdaa 	sdc3	$31,-598(ra)
54011fd4:	fffffdaf 	sdc3	$31,-593(ra)
54011fd8:	fffffdb4 	sdc3	$31,-588(ra)
54011fdc:	fffffdba 	sdc3	$31,-582(ra)
54011fe0:	fffffdbf 	sdc3	$31,-577(ra)
54011fe4:	fffffdc4 	sdc3	$31,-572(ra)
54011fe8:	fffffdc9 	sdc3	$31,-567(ra)
54011fec:	fffffdce 	sdc3	$31,-562(ra)
54011ff0:	fffffdd4 	sdc3	$31,-556(ra)
54011ff4:	fffffdd9 	sdc3	$31,-551(ra)
54011ff8:	fffffdde 	sdc3	$31,-546(ra)
54011ffc:	fffffde4 	sdc3	$31,-540(ra)
54012000:	fffffde9 	sdc3	$31,-535(ra)
54012004:	fffffdee 	sdc3	$31,-530(ra)
54012008:	fffffdf4 	sdc3	$31,-524(ra)
5401200c:	fffffdf9 	sdc3	$31,-519(ra)
54012010:	fffffdff 	sdc3	$31,-513(ra)
54012014:	fffffe04 	sdc3	$31,-508(ra)
54012018:	fffffe0a 	sdc3	$31,-502(ra)
5401201c:	fffffe0f 	sdc3	$31,-497(ra)
54012020:	fffffe14 	sdc3	$31,-492(ra)
54012024:	fffffe1a 	sdc3	$31,-486(ra)
54012028:	fffffe20 	sdc3	$31,-480(ra)
5401202c:	fffffe25 	sdc3	$31,-475(ra)
54012030:	fffffe2b 	sdc3	$31,-469(ra)
54012034:	fffffe30 	sdc3	$31,-464(ra)
54012038:	fffffe36 	sdc3	$31,-458(ra)
5401203c:	fffffe3c 	sdc3	$31,-452(ra)
54012040:	fffffe41 	sdc3	$31,-447(ra)
54012044:	fffffe47 	sdc3	$31,-441(ra)
54012048:	fffffe4d 	sdc3	$31,-435(ra)
5401204c:	fffffe52 	sdc3	$31,-430(ra)
54012050:	fffffe58 	sdc3	$31,-424(ra)
54012054:	fffffe5e 	sdc3	$31,-418(ra)
54012058:	fffffe63 	sdc3	$31,-413(ra)
5401205c:	fffffe69 	sdc3	$31,-407(ra)
54012060:	fffffe6f 	sdc3	$31,-401(ra)
54012064:	fffffe75 	sdc3	$31,-395(ra)
54012068:	fffffe7b 	sdc3	$31,-389(ra)
5401206c:	fffffe80 	sdc3	$31,-384(ra)
54012070:	fffffe86 	sdc3	$31,-378(ra)
54012074:	fffffe8c 	sdc3	$31,-372(ra)
54012078:	fffffe92 	sdc3	$31,-366(ra)
5401207c:	fffffe98 	sdc3	$31,-360(ra)
54012080:	fffffe9e 	sdc3	$31,-354(ra)
54012084:	fffffea4 	sdc3	$31,-348(ra)
54012088:	fffffea9 	sdc3	$31,-343(ra)
5401208c:	fffffeaf 	sdc3	$31,-337(ra)
54012090:	fffffeb5 	sdc3	$31,-331(ra)
54012094:	fffffebb 	sdc3	$31,-325(ra)
54012098:	fffffec1 	sdc3	$31,-319(ra)
5401209c:	fffffec7 	sdc3	$31,-313(ra)
540120a0:	fffffecd 	sdc3	$31,-307(ra)
540120a4:	fffffed3 	sdc3	$31,-301(ra)
540120a8:	fffffed9 	sdc3	$31,-295(ra)
540120ac:	fffffedf 	sdc3	$31,-289(ra)
540120b0:	fffffee5 	sdc3	$31,-283(ra)
540120b4:	fffffeeb 	sdc3	$31,-277(ra)
540120b8:	fffffef1 	sdc3	$31,-271(ra)
540120bc:	fffffef7 	sdc3	$31,-265(ra)
540120c0:	fffffefe 	sdc3	$31,-258(ra)
540120c4:	ffffff04 	sdc3	$31,-252(ra)
540120c8:	ffffff0a 	sdc3	$31,-246(ra)
540120cc:	ffffff10 	sdc3	$31,-240(ra)
540120d0:	ffffff16 	sdc3	$31,-234(ra)
540120d4:	ffffff1c 	sdc3	$31,-228(ra)
540120d8:	ffffff22 	sdc3	$31,-222(ra)
540120dc:	ffffff28 	sdc3	$31,-216(ra)
540120e0:	ffffff2e 	sdc3	$31,-210(ra)
540120e4:	ffffff35 	sdc3	$31,-203(ra)
540120e8:	ffffff3b 	sdc3	$31,-197(ra)
540120ec:	ffffff41 	sdc3	$31,-191(ra)
540120f0:	ffffff47 	sdc3	$31,-185(ra)
540120f4:	ffffff4d 	sdc3	$31,-179(ra)
540120f8:	ffffff54 	sdc3	$31,-172(ra)
540120fc:	ffffff5a 	sdc3	$31,-166(ra)
54012100:	ffffff60 	sdc3	$31,-160(ra)
54012104:	ffffff66 	sdc3	$31,-154(ra)
54012108:	ffffff6c 	sdc3	$31,-148(ra)
5401210c:	ffffff73 	sdc3	$31,-141(ra)
54012110:	ffffff79 	sdc3	$31,-135(ra)
54012114:	ffffff7f 	sdc3	$31,-129(ra)
54012118:	ffffff85 	sdc3	$31,-123(ra)
5401211c:	ffffff8c 	sdc3	$31,-116(ra)
54012120:	ffffff92 	sdc3	$31,-110(ra)
54012124:	ffffff98 	sdc3	$31,-104(ra)
54012128:	ffffff9e 	sdc3	$31,-98(ra)
5401212c:	ffffffa5 	sdc3	$31,-91(ra)
54012130:	ffffffab 	sdc3	$31,-85(ra)
54012134:	ffffffb1 	sdc3	$31,-79(ra)
54012138:	ffffffb7 	sdc3	$31,-73(ra)
5401213c:	ffffffbe 	sdc3	$31,-66(ra)
54012140:	ffffffc4 	sdc3	$31,-60(ra)
54012144:	ffffffca 	sdc3	$31,-54(ra)
54012148:	ffffffd0 	sdc3	$31,-48(ra)
5401214c:	ffffffd7 	sdc3	$31,-41(ra)
54012150:	ffffffdd 	sdc3	$31,-35(ra)
54012154:	ffffffe3 	sdc3	$31,-29(ra)
54012158:	ffffffea 	sdc3	$31,-22(ra)
5401215c:	fffffff0 	sdc3	$31,-16(ra)
54012160:	fffffff6 	sdc3	$31,-10(ra)
54012164:	fffffffc 	sdc3	$31,-4(ra)
Disassembly of section .bss:

54012168 <s_last_random_index>:
54012168:	00000000 	nop

5401216c <s_fusion>:
	...

54012240 <linebuf>:
	...

54014240 <FadeCase>:
54014240:	00000000 	nop

54014244 <RandomLineCount>:
54014244:	00000000 	nop

54014248 <LouverCase>:
	...

54014249 <EraseCase>:
	...

5401424a <CutCase>:
	...

5401424c <eraseswitch.0>:
5401424c:	00000000 	nop

54014250 <RANDOMLINE>:
	...

54014c50 <RandomLineShuffle>:
	...

54015650 <pthread_mutex_type_t>:
54015650:	00000000 	nop

54015654 <pthread_share_type_t>:
54015654:	00000000 	nop

54015658 <tx>:
54015658:	00000000 	nop

5401565c <counter>:
5401565c:	00000000 	nop

54015660 <ty>:
54015660:	00000000 	nop

54015664 <dlook>:
54015664:	00000000 	nop
Disassembly of section .reginfo:

00000000 <.reginfo>:
   0:	e3fffffc 	sc	ra,-4(ra)
	...
Disassembly of section .pdr:

00000000 <.pdr>:
   0:	54000020 	bnezl	zero,84 <_init-0x53ffff7c>
   4:	807f0000 	lb	ra,0(v1)
   8:	fffffffc 	sdc3	$31,-4(ra)
	...
  14:	00000038 	0x38
  18:	0000001d 	0x1d
  1c:	0000001f 	0x1f
  20:	540001b8 	bnezl	zero,704 <_init-0x53fff8fc>
  24:	800f0000 	lb	t7,0(zero)
  28:	fffffff8 	sdc3	$31,-8(ra)
	...
  34:	00000030 	tge	zero,zero
  38:	0000001d 	0x1d
  3c:	0000001f 	0x1f
  40:	54000350 	bnezl	zero,d84 <_init-0x53fff27c>
  44:	80070000 	lb	a3,0(zero)
  48:	fffffffc 	sdc3	$31,-4(ra)
	...
  54:	00000040 	ssnop
  58:	0000001d 	0x1d
  5c:	0000001f 	0x1f
  60:	54000478 	bnezl	zero,1244 <_init-0x53ffedbc>
  64:	803f0000 	lb	ra,0(at)
  68:	fffffff8 	sdc3	$31,-8(ra)
	...
  74:	00000050 	0x50
  78:	0000001d 	0x1d
  7c:	0000001f 	0x1f
  80:	5400079c 	bnezl	zero,1ef4 <_init-0x53ffe10c>
  84:	80070000 	lb	a3,0(zero)
  88:	fffffffc 	sdc3	$31,-4(ra)
	...
  94:	00000020 	add	zero,zero,zero
  98:	0000001d 	0x1d
  9c:	0000001f 	0x1f
  a0:	54000848 	bnezl	zero,21c4 <_init-0x53ffde3c>
  a4:	80070000 	lb	a3,0(zero)
  a8:	fffffffc 	sdc3	$31,-4(ra)
	...
  b4:	00000020 	add	zero,zero,zero
  b8:	0000001d 	0x1d
  bc:	0000001f 	0x1f
  c0:	54000938 	bnezl	zero,25a4 <_init-0x53ffda5c>
  c4:	80030000 	lb	v1,0(zero)
  c8:	fffffff8 	sdc3	$31,-8(ra)
	...
  d4:	00000020 	add	zero,zero,zero
  d8:	0000001d 	0x1d
  dc:	0000001f 	0x1f
  e0:	54000aa0 	bnezl	zero,2b64 <_init-0x53ffd49c>
  e4:	80030000 	lb	v1,0(zero)
  e8:	fffffff8 	sdc3	$31,-8(ra)
	...
  f4:	00000050 	0x50
  f8:	0000001d 	0x1d
  fc:	0000001f 	0x1f
 100:	54000bfc 	bnezl	zero,30f4 <_init-0x53ffcf0c>
 104:	c0ff0000 	ll	ra,0(a3)
 108:	fffffffc 	sdc3	$31,-4(ra)
	...
 114:	00000058 	0x58
 118:	0000001d 	0x1d
 11c:	0000001f 	0x1f
 120:	54001ca4 	bnezl	zero,73b4 <_init-0x53ff8c4c>
 124:	80000000 	lb	zero,0(zero)
 128:	fffffff8 	sdc3	$31,-8(ra)
	...
 134:	00000018 	mult	zero,zero
 138:	0000001d 	0x1d
 13c:	0000001f 	0x1f
 140:	54001ccc 	bnezl	zero,7474 <_init-0x53ff8b8c>
 144:	00000000 	nop
	...
 158:	0000001d 	0x1d
 15c:	0000001f 	0x1f
 160:	54001cd4 	bnezl	zero,74b4 <_init-0x53ff8b4c>
 164:	801f0000 	lb	ra,0(zero)
 168:	fffffffc 	sdc3	$31,-4(ra)
	...
 174:	00000040 	ssnop
 178:	0000001d 	0x1d
 17c:	0000001f 	0x1f
 180:	54001e10 	bnezl	zero,79c4 <_init-0x53ff863c>
 184:	801f0000 	lb	ra,0(zero)
 188:	fffffffc 	sdc3	$31,-4(ra)
	...
 194:	00000048 	0x48
 198:	0000001d 	0x1d
 19c:	0000001f 	0x1f
 1a0:	54002074 	bnezl	zero,8374 <_init-0x53ff7c8c>
 1a4:	00000000 	nop
	...
 1b8:	0000001d 	0x1d
 1bc:	0000001f 	0x1f
 1c0:	5400207c 	bnezl	zero,83b4 <_init-0x53ff7c4c>
 1c4:	00000000 	nop
	...
 1d8:	0000001d 	0x1d
 1dc:	0000001f 	0x1f
 1e0:	54002088 	bnezl	zero,8404 <_init-0x53ff7bfc>
 1e4:	00000000 	nop
	...
 1f8:	0000001d 	0x1d
 1fc:	0000001f 	0x1f
 200:	54002094 	bnezl	zero,8454 <_init-0x53ff7bac>
 204:	c0000000 	ll	zero,0(zero)
 208:	fffffffc 	sdc3	$31,-4(ra)
	...
 214:	00000020 	add	zero,zero,zero
 218:	0000001e 	0x1e
 21c:	0000001f 	0x1f
 220:	540020fc 	bnezl	zero,8614 <_init-0x53ff79ec>
 224:	c0000000 	ll	zero,0(zero)
 228:	fffffffc 	sdc3	$31,-4(ra)
	...
 234:	00000020 	add	zero,zero,zero
 238:	0000001e 	0x1e
 23c:	0000001f 	0x1f
 240:	54002164 	bnezl	zero,87d4 <_init-0x53ff782c>
 244:	00000000 	nop
	...
 258:	0000001d 	0x1d
 25c:	0000001f 	0x1f
 260:	54002170 	bnezl	zero,8824 <_init-0x53ff77dc>
 264:	00000000 	nop
	...
 278:	0000001d 	0x1d
 27c:	0000001f 	0x1f
 280:	5400217c 	bnezl	zero,8874 <_init-0x53ff778c>
 284:	00000000 	nop
	...
 298:	0000001d 	0x1d
 29c:	0000001f 	0x1f
 2a0:	54002188 	bnezl	zero,88c4 <_init-0x53ff773c>
 2a4:	00000000 	nop
	...
 2b8:	0000001d 	0x1d
 2bc:	0000001f 	0x1f
 2c0:	54002194 	bnezl	zero,8914 <_init-0x53ff76ec>
 2c4:	00000000 	nop
	...
 2d8:	0000001d 	0x1d
 2dc:	0000001f 	0x1f
 2e0:	5400219c 	bnezl	zero,8954 <_init-0x53ff76ac>
 2e4:	00000000 	nop
	...
 2f8:	0000001d 	0x1d
 2fc:	0000001f 	0x1f
 300:	540021c4 	bnezl	zero,8a14 <_init-0x53ff75ec>
 304:	00000000 	nop
	...
 318:	0000001d 	0x1d
 31c:	0000001f 	0x1f
 320:	540021ec 	bnezl	zero,8ad4 <_init-0x53ff752c>
 324:	00000000 	nop
	...
 338:	0000001d 	0x1d
 33c:	0000001f 	0x1f
 340:	54002210 	bnezl	zero,8b84 <_init-0x53ff747c>
 344:	00000000 	nop
	...
 358:	0000001d 	0x1d
 35c:	0000001f 	0x1f
 360:	54002230 	bnezl	zero,8c24 <_init-0x53ff73dc>
 364:	00000000 	nop
	...
 378:	0000001d 	0x1d
 37c:	0000001f 	0x1f
 380:	540022b4 	bnezl	zero,8e54 <_init-0x53ff71ac>
 384:	80010000 	lb	at,0(zero)
 388:	fffffffc 	sdc3	$31,-4(ra)
	...
 394:	00000018 	mult	zero,zero
 398:	0000001d 	0x1d
 39c:	0000001f 	0x1f
 3a0:	5400237c 	bnezl	zero,9194 <_init-0x53ff6e6c>
 3a4:	00000000 	nop
	...
 3b8:	0000001d 	0x1d
 3bc:	0000001f 	0x1f
 3c0:	54002388 	bnezl	zero,91e4 <_init-0x53ff6e1c>
 3c4:	00000000 	nop
	...
 3d8:	0000001d 	0x1d
 3dc:	0000001f 	0x1f
 3e0:	54002398 	bnezl	zero,9244 <_init-0x53ff6dbc>
 3e4:	80030000 	lb	v1,0(zero)
 3e8:	fffffff8 	sdc3	$31,-8(ra)
	...
 3f4:	00000058 	0x58
 3f8:	0000001d 	0x1d
 3fc:	0000001f 	0x1f
 400:	54002650 	bnezl	zero,9d44 <_init-0x53ff62bc>
 404:	00000000 	nop
	...
 418:	0000001d 	0x1d
 41c:	0000001f 	0x1f
 420:	54002690 	bnezl	zero,9e64 <_init-0x53ff619c>
 424:	00000000 	nop
	...
 438:	0000001d 	0x1d
 43c:	0000001f 	0x1f
 440:	54002698 	bnezl	zero,9ea4 <_init-0x53ff615c>
 444:	00000000 	nop
	...
 458:	0000001d 	0x1d
 45c:	0000001f 	0x1f
 460:	54002798 	bnezl	zero,a2c4 <_init-0x53ff5d3c>
 464:	c0ff0000 	ll	ra,0(a3)
 468:	fffffffc 	sdc3	$31,-4(ra)
	...
 474:	000000d0 	0xd0
 478:	0000001d 	0x1d
 47c:	0000001f 	0x1f
 480:	54003528 	bnezl	zero,d924 <_init-0x53ff26dc>
 484:	00000000 	nop
	...
 498:	0000001d 	0x1d
 49c:	0000001f 	0x1f
 4a0:	540035b0 	bnezl	zero,db64 <_init-0x53ff249c>
 4a4:	c0ff0000 	ll	ra,0(a3)
 4a8:	fffffffc 	sdc3	$31,-4(ra)
	...
 4b4:	00000048 	0x48
 4b8:	0000001d 	0x1d
 4bc:	0000001f 	0x1f
 4c0:	540037c8 	bnezl	zero,e3e4 <_init-0x53ff1c1c>
 4c4:	c0ff0000 	ll	ra,0(a3)
 4c8:	fffffffc 	sdc3	$31,-4(ra)
	...
 4d4:	00000080 	sll	zero,zero,0x2
 4d8:	0000001d 	0x1d
 4dc:	0000001f 	0x1f
 4e0:	54003b40 	bnezl	zero,f1e4 <_init-0x53ff0e1c>
 4e4:	c0ff0000 	ll	ra,0(a3)
 4e8:	fffffffc 	sdc3	$31,-4(ra)
	...
 4f4:	00000068 	0x68
 4f8:	0000001d 	0x1d
 4fc:	0000001f 	0x1f
 500:	54003d18 	bnezl	zero,f964 <_init-0x53ff069c>
 504:	00000000 	nop
	...
 518:	0000001d 	0x1d
 51c:	0000001f 	0x1f
 520:	54003d58 	bnezl	zero,fa84 <_init-0x53ff057c>
 524:	00000000 	nop
	...
 538:	0000001d 	0x1d
 53c:	0000001f 	0x1f
 540:	54003d60 	bnezl	zero,fac4 <_init-0x53ff053c>
 544:	c0ff0000 	ll	ra,0(a3)
 548:	fffffffc 	sdc3	$31,-4(ra)
	...
 554:	000000b0 	tge	zero,zero,0x2
 558:	0000001d 	0x1d
 55c:	0000001f 	0x1f
 560:	54004600 	bnezl	zero,11d64 <_init-0x53fee29c>
 564:	80000000 	lb	zero,0(zero)
 568:	fffffff8 	sdc3	$31,-8(ra)
	...
 574:	00000040 	ssnop
 578:	0000001d 	0x1d
 57c:	0000001f 	0x1f
 580:	54004758 	bnezl	zero,122e4 <_init-0x53fedd1c>
 584:	c0ff0000 	ll	ra,0(a3)
 588:	fffffffc 	sdc3	$31,-4(ra)
	...
 594:	00000088 	0x88
 598:	0000001d 	0x1d
 59c:	0000001f 	0x1f
 5a0:	54004db0 	bnezl	zero,13c64 <_init-0x53fec39c>
 5a4:	c0ff0000 	ll	ra,0(a3)
 5a8:	fffffffc 	sdc3	$31,-4(ra)
	...
 5b4:	00000070 	tge	zero,zero,0x1
 5b8:	0000001d 	0x1d
 5bc:	0000001f 	0x1f
 5c0:	54005310 	bnezl	zero,15204 <_init-0x53feadfc>
 5c4:	c0ff0000 	ll	ra,0(a3)
 5c8:	fffffffc 	sdc3	$31,-4(ra)
	...
 5d4:	00000068 	0x68
 5d8:	0000001d 	0x1d
 5dc:	0000001f 	0x1f
 5e0:	54005668 	bnezl	zero,15f84 <_init-0x53fea07c>
 5e4:	c0ff0000 	ll	ra,0(a3)
 5e8:	fffffffc 	sdc3	$31,-4(ra)
	...
 5f4:	00000070 	tge	zero,zero,0x1
 5f8:	0000001d 	0x1d
 5fc:	0000001f 	0x1f
 600:	54005b98 	bnezl	zero,17464 <_init-0x53fe8b9c>
 604:	00000000 	nop
	...
 618:	0000001d 	0x1d
 61c:	0000001f 	0x1f
 620:	54005bc8 	bnezl	zero,17544 <_init-0x53fe8abc>
 624:	c0ff0000 	ll	ra,0(a3)
 628:	fffffffc 	sdc3	$31,-4(ra)
	...
 634:	000000f0 	tge	zero,zero,0x3
 638:	0000001d 	0x1d
 63c:	0000001f 	0x1f
 640:	54006390 	bnezl	zero,19484 <_init-0x53fe6b7c>
 644:	c0ff0000 	ll	ra,0(a3)
 648:	fffffffc 	sdc3	$31,-4(ra)
	...
 654:	00000088 	0x88
 658:	0000001d 	0x1d
 65c:	0000001f 	0x1f
 660:	540067d0 	bnezl	zero,1a5a4 <_init-0x53fe5a5c>
 664:	c0ff0000 	ll	ra,0(a3)
 668:	fffffffc 	sdc3	$31,-4(ra)
	...
 674:	00000078 	0x78
 678:	0000001d 	0x1d
 67c:	0000001f 	0x1f
 680:	54006c38 	bnezl	zero,1b764 <_init-0x53fe489c>
 684:	c0ff0000 	ll	ra,0(a3)
 688:	fffffffc 	sdc3	$31,-4(ra)
	...
 694:	000000c0 	ehb
 698:	0000001d 	0x1d
 69c:	0000001f 	0x1f
 6a0:	54007170 	bnezl	zero,1cc64 <_init-0x53fe339c>
 6a4:	c0ff0000 	ll	ra,0(a3)
 6a8:	fffffffc 	sdc3	$31,-4(ra)
	...
 6b4:	00000068 	0x68
 6b8:	0000001d 	0x1d
 6bc:	0000001f 	0x1f
 6c0:	540074f0 	bnezl	zero,1da84 <_init-0x53fe257c>
 6c4:	c0ff0000 	ll	ra,0(a3)
 6c8:	fffffffc 	sdc3	$31,-4(ra)
	...
 6d4:	00000070 	tge	zero,zero,0x1
 6d8:	0000001d 	0x1d
 6dc:	0000001f 	0x1f
 6e0:	54007918 	bnezl	zero,1eb44 <_init-0x53fe14bc>
 6e4:	00000000 	nop
	...
 6f8:	0000001d 	0x1d
 6fc:	0000001f 	0x1f
 700:	54007958 	bnezl	zero,1ec64 <_init-0x53fe139c>
 704:	00000000 	nop
	...
 718:	0000001d 	0x1d
 71c:	0000001f 	0x1f
 720:	54007960 	bnezl	zero,1eca4 <_init-0x53fe135c>
 724:	c0ff0000 	ll	ra,0(a3)
 728:	fffffffc 	sdc3	$31,-4(ra)
	...
 734:	000000b8 	0xb8
 738:	0000001d 	0x1d
 73c:	0000001f 	0x1f
 740:	540081b0 	bnezl	zero,fffe0e04 <dlook+0xabfcb7a0>
 744:	00000000 	nop
	...
 758:	0000001d 	0x1d
 75c:	0000001f 	0x1f
 760:	540081f0 	bnezl	zero,fffe0f24 <dlook+0xabfcb8c0>
 764:	c0ff0000 	ll	ra,0(a3)
 768:	fffffffc 	sdc3	$31,-4(ra)
	...
 774:	00000070 	tge	zero,zero,0x1
 778:	0000001d 	0x1d
 77c:	0000001f 	0x1f
 780:	540084b8 	bnezl	zero,fffe1a64 <dlook+0xabfcc400>
 784:	001f0000 	sll	zero,ra,0x0
 788:	fffffff8 	sdc3	$31,-8(ra)
	...
 794:	00000018 	mult	zero,zero
 798:	0000001d 	0x1d
 79c:	0000001f 	0x1f
 7a0:	540086b0 	bnezl	zero,fffe2264 <dlook+0xabfccc00>
 7a4:	40ff0000 	0x40ff0000
 7a8:	fffffff8 	sdc3	$31,-8(ra)
	...
 7b4:	000000c8 	0xc8
 7b8:	0000001d 	0x1d
 7bc:	0000001f 	0x1f
 7c0:	54008df0 	bnezl	zero,fffe3f84 <dlook+0xabfce920>
 7c4:	00000000 	nop
	...
 7d8:	0000001d 	0x1d
 7dc:	0000001f 	0x1f
 7e0:	54008eb8 	bnezl	zero,fffe42c4 <dlook+0xabfcec60>
 7e4:	00000000 	nop
	...
 7f8:	0000001d 	0x1d
 7fc:	0000001f 	0x1f
 800:	54008f58 	bnezl	zero,fffe4564 <dlook+0xabfcef00>
 804:	00000000 	nop
	...
 818:	0000001d 	0x1d
 81c:	0000001f 	0x1f
 820:	54008f68 	bnezl	zero,fffe45c4 <dlook+0xabfcef60>
 824:	00000000 	nop
	...
 838:	0000001d 	0x1d
 83c:	0000001f 	0x1f
 840:	54008f74 	bnezl	zero,fffe4614 <dlook+0xabfcefb0>
 844:	00000000 	nop
	...
 858:	0000001d 	0x1d
 85c:	0000001f 	0x1f
 860:	54008f80 	bnezl	zero,fffe4664 <dlook+0xabfcf000>
 864:	00000000 	nop
	...
 878:	0000001d 	0x1d
 87c:	0000001f 	0x1f
 880:	54008f8c 	bnezl	zero,fffe46b4 <dlook+0xabfcf050>
 884:	00000000 	nop
	...
 898:	0000001d 	0x1d
 89c:	0000001f 	0x1f
 8a0:	54008f98 	bnezl	zero,fffe4704 <dlook+0xabfcf0a0>
 8a4:	00000000 	nop
	...
 8b8:	0000001d 	0x1d
 8bc:	0000001f 	0x1f
 8c0:	54008fa4 	bnezl	zero,fffe4754 <dlook+0xabfcf0f0>
 8c4:	00000000 	nop
	...
 8d8:	0000001d 	0x1d
 8dc:	0000001f 	0x1f
 8e0:	54008fb0 	bnezl	zero,fffe47a4 <dlook+0xabfcf140>
 8e4:	00000000 	nop
	...
 8f8:	0000001d 	0x1d
 8fc:	0000001f 	0x1f
Disassembly of section .debug_abbrev:

00000000 <.debug_abbrev>:
   0:	10011101 	beq	zero,at,4408 <_init-0x53ffbbf8>
   4:	11011206 	beq	t0,at,4820 <_init-0x53ffb7e0>
   8:	130e2501 	beq	t8,t6,9410 <_init-0x53ff6bf0>
   c:	1b0e030b 	0x1b0e030b
  10:	0200000e 	0x200000e
  14:	0e030024 	jal	80c0090 <_init-0x4bf3ff70>
  18:	0b3e0b0b 	j	cf82c2c <_init-0x4707d3d4>
  1c:	04030000 	bgezl	zero,20 <_init-0x53ffffe0>
  20:	0b130101 	j	c4c0404 <_init-0x47b3fbfc>
  24:	3b0b3a0b 	xori	t3,t8,0x3a0b
  28:	0400000b 	bltz	zero,58 <_init-0x53ffffa8>
  2c:	0e030028 	jal	80c00a0 <_init-0x4bf3ff60>
  30:	00000d1c 	0xd1c
  34:	03001605 	0x3001605
  38:	3b0b3a0e 	xori	t3,t8,0x3a0e
  3c:	0013490b 	0x13490b
  40:	00240600 	0x240600
  44:	0b0b0803 	j	c2c200c <_init-0x47d3dff4>
  48:	00000b3e 	0xb3e
  4c:	01011307 	0x1011307
  50:	3a0b0b13 	xori	t3,s0,0xb13
  54:	00053b0b 	0x53b0b
  58:	000d0800 	sll	at,t5,0x0
  5c:	0b3a0803 	j	ce8200c <_init-0x4717dff4>
  60:	1349053b 	beq	k0,t1,1550 <_init-0x53ffeab0>
  64:	00000a38 	0xa38
  68:	03001609 	0x3001609
  6c:	3b0b3a0e 	xori	t3,t8,0x3a0e
  70:	00134905 	0x134905
  74:	00260a00 	0x260a00
  78:	00001349 	0x1349
  7c:	0b000f0b 	j	c003c2c <_init-0x47ffc3d4>
  80:	0013490b 	0x13490b
  84:	01130c00 	0x1130c00
  88:	0b0b1301 	j	c2c4c04 <_init-0x47d3b3fc>
  8c:	0b3b0b3a 	j	cec2ce8 <_init-0x4713d318>
  90:	0d0d0000 	jal	4340000 <_init-0x4fcc0000>
  94:	3a0e0300 	xori	t6,s0,0x300
  98:	490b3b0b 	bc2tl	$cc2,ecc8 <_init-0x53ff1338>
  9c:	000a3813 	0xa3813
  a0:	000d0e00 	sll	at,t5,0x18
  a4:	0b3a0803 	j	ce8200c <_init-0x4717dff4>
  a8:	13490b3b 	beq	k0,t1,2d98 <_init-0x53ffd268>
  ac:	00000a38 	0xa38
  b0:	0300160f 	0x300160f
  b4:	3b0b3a08 	xori	t3,t8,0x3a08
  b8:	0013490b 	0x13490b
  bc:	01151000 	0x1151000
  c0:	0c271301 	jal	9c4c04 <_init-0x5363b3fc>
  c4:	05110000 	bgezal	t0,c8 <_init-0x53ffff38>
  c8:	00134900 	sll	t1,s3,0x4
  cc:	012e1200 	0x12e1200
  d0:	0e031301 	jal	80c4c04 <_init-0x4bf3b3fc>
  d4:	0b3b0b3a 	j	cec2ce8 <_init-0x4713d318>
  d8:	13490c27 	beq	k0,t1,3178 <_init-0x53ffce88>
  dc:	01120111 	0x1120111
  e0:	00000a40 	sll	at,zero,0x9
  e4:	03000513 	0x3000513
  e8:	3b0b3a08 	xori	t3,t8,0x3a08
  ec:	0213490b 	0x213490b
  f0:	1400000a 	bnez	zero,11c <_init-0x53fffee4>
  f4:	0803000a 	j	c0028 <_init-0x53f3ffd8>
  f8:	0b3b0b3a 	j	cec2ce8 <_init-0x4713d318>
  fc:	00000111 	0x111
 100:	03003415 	0x3003415
 104:	3413490e 	li	s3,0x490e
 108:	000a020c 	syscall	0x2808
 10c:	011d1600 	0x11d1600
 110:	01111331 	tgeu	t0,s1,0x4c
 114:	00000112 	0x112
 118:	31000517 	andi	zero,t0,0x517
 11c:	18000013 	blez	zero,16c <_init-0x53fffe94>
 120:	13310005 	beq	t9,s1,138 <_init-0x53fffec8>
 124:	00000a02 	srl	at,zero,0x8
 128:	55010b19 	bnel	t0,at,2d90 <_init-0x53ffd270>
 12c:	1a000006 	blez	s0,148 <_init-0x53fffeb8>
 130:	13310034 	beq	t9,s1,204 <_init-0x53fffdfc>
 134:	00000a02 	srl	at,zero,0x8
 138:	0101011b 	0x101011b
 13c:	00134913 	0x134913
 140:	00211c00 	0x211c00
 144:	0b2f1349 	j	cbc4d24 <_init-0x4743b2dc>
 148:	2e1d0000 	sltiu	sp,s0,0
 14c:	03130101 	0x3130101
 150:	3b0b3a0e 	xori	t3,t8,0x3a0e
 154:	200c270b 	addi	t4,zero,9995
 158:	1e00000b 	bgtz	s0,188 <_init-0x53fffe78>
 15c:	08030005 	j	c0014 <_init-0x53f3ffec>
 160:	0b3b0b3a 	j	cec2ce8 <_init-0x4713d318>
 164:	00001349 	0x1349
 168:	0300051f 	0x300051f
 16c:	3b0b3a0e 	xori	t3,t8,0x3a0e
 170:	0013490b 	0x13490b
 174:	00342000 	0x342000
 178:	0b3a0803 	j	ce8200c <_init-0x4717dff4>
 17c:	13490b3b 	beq	k0,t1,2e6c <_init-0x53ffd194>
 180:	34210000 	ori	at,at,0x0
 184:	3a0e0300 	xori	t6,s0,0x300
 188:	490b3b0b 	bc2tl	$cc2,edb8 <_init-0x53ff1248>
 18c:	22000013 	addi	zero,s0,19
 190:	1301012e 	beq	t8,at,64c <_init-0x53fff9b4>
 194:	0b3a0e03 	j	ce8380c <_init-0x4717c7f4>
 198:	0c27053b 	jal	9c14ec <_init-0x5363eb14>
 19c:	01111349 	0x1111349
 1a0:	0a400112 	j	9000448 <_init-0x4afffbb8>
 1a4:	05230000 	bgezl	t1,1a8 <_init-0x53fffe58>
 1a8:	3a080300 	xori	t0,s0,0x300
 1ac:	49053b0b 	bc2t	$cc1,eddc <_init-0x53ff1224>
 1b0:	000a0213 	0xa0213
 1b4:	00052400 	sll	a0,a1,0x10
 1b8:	0b3a0e03 	j	ce8380c <_init-0x4717c7f4>
 1bc:	1349053b 	beq	k0,t1,16ac <_init-0x53ffe954>
 1c0:	00000a02 	srl	at,zero,0x8
 1c4:	03003425 	0x3003425
 1c8:	3b0b3a08 	xori	t3,t8,0x3a08
 1cc:	02134905 	0x2134905
 1d0:	2600000a 	addiu	zero,s0,10
 1d4:	0e030034 	jal	80c00d0 <_init-0x4bf3ff30>
 1d8:	053b0b3a 	0x53b0b3a
 1dc:	00001349 	0x1349
 1e0:	03003427 	0x3003427
 1e4:	3b0b3a0e 	xori	t3,t8,0x3a0e
 1e8:	02134905 	0x2134905
 1ec:	2800000a 	slti	zero,zero,10
 1f0:	1301012e 	beq	t8,at,6ac <_init-0x53fff954>
 1f4:	0b3a0e03 	j	ce8380c <_init-0x4717c7f4>
 1f8:	0c27053b 	jal	9c14ec <_init-0x5363eb14>
 1fc:	0b201349 	j	c804d24 <_init-0x477fb2dc>
 200:	05290000 	tgeiu	t1,0
 204:	3a0e0300 	xori	t6,s0,0x300
 208:	49053b0b 	bc2t	$cc1,ee38 <_init-0x53ff11c8>
 20c:	2a000013 	slti	zero,s0,19
 210:	08030034 	j	c00d0 <_init-0x53f3ff30>
 214:	053b0b3a 	0x53b0b3a
 218:	00001349 	0x1349
 21c:	0300342b 	0x300342b
 220:	3413490e 	li	s3,0x490e
 224:	2c00000c 	sltiu	zero,zero,12
 228:	1301012e 	beq	t8,at,6e4 <_init-0x53fff91c>
 22c:	0e030c3f 	jal	80c30fc <_init-0x4bf3cf04>
 230:	053b0b3a 	0x53b0b3a
 234:	13490c27 	beq	k0,t1,32d4 <_init-0x53ffcd2c>
 238:	01120111 	0x1120111
 23c:	00000a40 	sll	at,zero,0x9
 240:	01011d2d 	0x1011d2d
 244:	11133113 	beq	t0,s3,c694 <_init-0x53ff396c>
 248:	00011201 	0x11201
 24c:	00342e00 	0x342e00
 250:	00001331 	tgeu	zero,zero,0x4c
 254:	31000a2f 	andi	zero,t0,0xa2f
 258:	00011113 	0x11113
 25c:	010b3000 	0x10b3000
 260:	06551301 	0x6551301
 264:	0a310000 	j	8c40000 <_init-0x4b3c0000>
 268:	3a0e0300 	xori	t6,s0,0x300
 26c:	00053b0b 	0x53b0b
 270:	010b3200 	0x10b3200
 274:	05330000 	bgezall	t1,278 <_init-0x53fffd88>
 278:	3a080300 	xori	t0,s0,0x300
 27c:	49053b0b 	bc2t	$cc1,eeac <_init-0x53ff1154>
 280:	34000013 	li	zero,0x13
 284:	1301012e 	beq	t8,at,740 <_init-0x53fff8c0>
 288:	0b3a0e03 	j	ce8380c <_init-0x4717c7f4>
 28c:	0c270b3b 	jal	9c2cec <_init-0x5363d314>
 290:	0b201349 	j	c804d24 <_init-0x477fb2dc>
 294:	0a350000 	j	8d40000 <_init-0x4b2c0000>
 298:	3a080300 	xori	t0,s0,0x300
 29c:	00053b0b 	0x53b0b
 2a0:	002e3600 	0x2e3600
 2a4:	0e030c3f 	jal	80c30fc <_init-0x4bf3cf04>
 2a8:	053b0b3a 	0x53b0b3a
 2ac:	13490c27 	beq	k0,t1,334c <_init-0x53ffccb4>
 2b0:	01120111 	0x1120111
 2b4:	00000a40 	sll	at,zero,0x9
 2b8:	3f002e37 	0x3f002e37
 2bc:	3a0e030c 	xori	t6,s0,0x30c
 2c0:	27053b0b 	addiu	a1,t8,15115
 2c4:	1201110c 	beq	s0,at,46f8 <_init-0x53ffb908>
 2c8:	000a4001 	0xa4001
 2cc:	00343800 	0x343800
 2d0:	0b3a0e03 	j	ce8380c <_init-0x4717c7f4>
 2d4:	13490b3b 	beq	k0,t1,2fc4 <_init-0x53ffd03c>
 2d8:	0a020c3f 	j	80830fc <_init-0x4bf7cf04>
 2dc:	34390000 	ori	t9,at,0x0
 2e0:	3a0e0300 	xori	t6,s0,0x300
 2e4:	490b3b0b 	bc2tl	$cc2,ef14 <_init-0x53ff10ec>
 2e8:	000a0213 	0xa0213
 2ec:	11010000 	beq	t0,at,2f0 <_init-0x53fffd10>
 2f0:	12061001 	beq	s0,a2,42f8 <_init-0x53ffbd08>
 2f4:	25011101 	addiu	at,t0,4353
 2f8:	030b130e 	0x30b130e
 2fc:	000e1b0e 	0xe1b0e
 300:	00240200 	0x240200
 304:	0b0b0e03 	j	c2c380c <_init-0x47d3c7f4>
 308:	00000b3e 	0xb3e
 30c:	01010403 	0x1010403
 310:	3a0b0b13 	xori	t3,s0,0xb13
 314:	000b3b0b 	0xb3b0b
 318:	00280400 	0x280400
 31c:	0d1c0e03 	jal	470380c <_init-0x4f8fc7f4>
 320:	16050000 	bne	s0,a1,324 <_init-0x53fffcdc>
 324:	3a0e0300 	xori	t6,s0,0x300
 328:	490b3b0b 	bc2tl	$cc2,ef58 <_init-0x53ff10a8>
 32c:	06000013 	bltz	s0,37c <_init-0x53fffc84>
 330:	08030024 	j	c0090 <_init-0x53f3ff70>
 334:	0b3e0b0b 	j	cf82c2c <_init-0x4707d3d4>
 338:	26070000 	addiu	a3,s0,0
 33c:	00134900 	sll	t1,s3,0x4
 340:	000f0800 	sll	at,t7,0x0
 344:	13490b0b 	beq	k0,t1,2f74 <_init-0x53ffd08c>
 348:	13090000 	beq	t8,t1,34c <_init-0x53fffcb4>
 34c:	0b130101 	j	c4c0404 <_init-0x47b3fbfc>
 350:	3b0b3a0b 	xori	t3,t8,0x3a0b
 354:	0a00000b 	j	800002c <_init-0x4bffffd4>
 358:	0e03000d 	jal	80c0034 <_init-0x4bf3ffcc>
 35c:	0b3b0b3a 	j	cec2ce8 <_init-0x4713d318>
 360:	0a381349 	j	8e04d24 <_init-0x4b1fb2dc>
 364:	0d0b0000 	jal	42c0000 <_init-0x4fd40000>
 368:	3a080300 	xori	t0,s0,0x300
 36c:	490b3b0b 	bc2tl	$cc2,ef9c <_init-0x53ff1064>
 370:	000a3813 	0xa3813
 374:	01010c00 	0x1010c00
 378:	13491301 	beq	k0,t1,4f80 <_init-0x53ffb080>
 37c:	210d0000 	addi	t5,t0,0
 380:	2f134900 	sltiu	s3,t8,18688
 384:	0e00000b 	jal	800002c <_init-0x4bffffd4>
 388:	1301012e 	beq	t8,at,844 <_init-0x53fff7bc>
 38c:	0e030c3f 	jal	80c30fc <_init-0x4bf3cf04>
 390:	0b3b0b3a 	j	cec2ce8 <_init-0x4713d318>
 394:	13490c27 	beq	k0,t1,3434 <_init-0x53ffcbcc>
 398:	01120111 	0x1120111
 39c:	00000a40 	sll	at,zero,0x9
 3a0:	0300050f 	0x300050f
 3a4:	3b0b3a0e 	xori	t3,t8,0x3a0e
 3a8:	0213490b 	0x213490b
 3ac:	1000000a 	b	3d8 <_init-0x53fffc28>
 3b0:	0e030034 	jal	80c00d0 <_init-0x4bf3ff30>
 3b4:	0c341349 	jal	d04d24 <_init-0x532fb2dc>
 3b8:	00000a02 	srl	at,zero,0x8
 3bc:	03003411 	0x3003411
 3c0:	3b0b3a0e 	xori	t3,t8,0x3a0e
 3c4:	0213490b 	0x213490b
 3c8:	1200000a 	beqz	s0,3f4 <_init-0x53fffc0c>
 3cc:	1331011d 	beq	t9,s1,844 <_init-0x53fff7bc>
 3d0:	01120111 	0x1120111
 3d4:	05130000 	bgezall	t0,3d8 <_init-0x53fffc28>
 3d8:	00133100 	sll	a2,s3,0x4
 3dc:	012e1400 	0x12e1400
 3e0:	0e031301 	jal	80c4c04 <_init-0x4bf3b3fc>
 3e4:	0b3b0b3a 	j	cec2ce8 <_init-0x4713d318>
 3e8:	13490c27 	beq	k0,t1,3488 <_init-0x53ffcb78>
 3ec:	00000b20 	0xb20
 3f0:	03000515 	0x3000515
 3f4:	3b0b3a0e 	xori	t3,t8,0x3a0e
 3f8:	0013490b 	0x13490b
 3fc:	00341600 	0x341600
 400:	13490e03 	beq	k0,t1,3c10 <_init-0x53ffc3f0>
 404:	00000c34 	teq	zero,zero,0x30
 408:	3f002e17 	0x3f002e17
 40c:	3a0e030c 	xori	t6,s0,0x30c
 410:	270b3b0b 	addiu	t3,t8,15115
 414:	1113490c 	beq	t0,s3,12848 <_init-0x53fed7b8>
 418:	40011201 	0x40011201
 41c:	1800000a 	blez	zero,448 <_init-0x53fffbb8>
 420:	0e030034 	jal	80c00d0 <_init-0x4bf3ff30>
 424:	0b3b0b3a 	j	cec2ce8 <_init-0x4713d318>
 428:	0c3f1349 	jal	fc4d24 <_init-0x5303b2dc>
 42c:	00000a02 	srl	at,zero,0x8
	...
Disassembly of section .debug_info:

00000000 <.debug_info>:
       0:	00001115 	0x1115
       4:	00000002 	srl	zero,zero,0x0
       8:	01040000 	0x1040000
       c:	00000000 	nop
      10:	54001cd4 	bnezl	zero,7364 <_init-0x53ff8c9c>
      14:	54000020 	bnezl	zero,98 <_init-0x53ffff68>
      18:	000002eb 	0x2eb
      1c:	00034701 	0x34701
      20:	0000df00 	sll	k1,zero,0x1c
      24:	00000200 	sll	zero,zero,0x8
      28:	08010000 	j	40000 <_init-0x53fc0000>
      2c:	0003aa02 	srl	s5,v1,0x8
      30:	02070200 	0x2070200
      34:	0000070c 	syscall	0x1c
      38:	11020704 	beq	t0,v0,1c4c <_init-0x53ffe3b4>
      3c:	04000007 	bltz	zero,5c <_init-0x53ffffa4>
      40:	00560307 	0x560307
      44:	02040000 	0x2040000
      48:	00a20426 	0xa20426
      4c:	04000000 	bltz	zero,50 <_init-0x53ffffb0>
      50:	000005e9 	0x5e9
      54:	6c050001 	0x6c050001
      58:	02000001 	movf	zero,s0,$fcc0
      5c:	00004129 	0x4129
      60:	6e690600 	0x6e690600
      64:	05040074 	0x5040074
      68:	00082302 	srl	a0,t0,0xc
      6c:	02050800 	0x2050800
      70:	0000070c 	syscall	0x1c
      74:	28020704 	slti	v0,zero,1796
      78:	04000008 	bltz	zero,9c <_init-0x53ffff64>
      7c:	00090205 	0x90205
      80:	06010000 	bgez	s0,84 <_init-0x53ffff7c>
      84:	00056b02 	srl	t5,a1,0xc
      88:	02050200 	0x2050200
      8c:	00000707 	0x707
      90:	ba070708 	swr	a3,1800(s0)
      94:	08000000 	j	0 <_init-0x54000000>
      98:	08012c0a 	j	4b028 <_init-0x53fb4fd8>
      9c:	006e696d 	0x6e696d
      a0:	3a01290a 	xori	at,s0,0x290a
      a4:	02000000 	0x2000000
      a8:	6d080023 	0x6d080023
      ac:	0a007861 	j	801e184 <_init-0x4bfe1e7c>
      b0:	003a012b 	0x3a012b
      b4:	23020000 	addi	v0,t8,0
      b8:	87090004 	lh	t1,4(t8)
      bc:	0a000001 	j	8000004 <_init-0x4bfffffc>
      c0:	0092012c 	0x92012c
      c4:	7d0a0000 	ext	t2,t0,0x0,0x1
      c8:	03000000 	0x3000000
      cc:	000000f2 	tlt	zero,zero,0x3
      d0:	04a30904 	bgezl	a1,24e4 <_init-0x53ffdb1c>
      d4:	000005af 	0x5af
      d8:	053c0400 	0x53c0400
      dc:	04010000 	b	e0 <_init-0x53ffff20>
      e0:	00000250 	0x250
      e4:	01710402 	0x1710402
      e8:	04030000 	bgezl	zero,ec <_init-0x53ffff14>
      ec:	0000022b 	0x22b
      f0:	07030000 	bgezl	t8,f4 <_init-0x53ffff0c>
      f4:	04000001 	bltz	zero,fc <_init-0x53ffff04>
      f8:	4104b009 	0x4104b009
      fc:	00000008 	jr	zero
     100:	00077004 	sllv	t6,a3,zero
     104:	0b000100 	j	c000400 <_init-0x47fffc00>
     108:	00002504 	0x2504
     10c:	01320c00 	0x1320c00
     110:	05080000 	tgei	t0,0
     114:	01990d2a 	0x1990d2a
     118:	26050000 	addiu	a1,s0,0
     11c:	00000061 	0x61
     120:	0d002302 	jal	4008c08 <_init-0x4fff73f8>
     124:	00000688 	0x688
     128:	00612905 	0x612905
     12c:	23020000 	addi	v0,t8,0
     130:	cd050004 	pref	0x5,4(t0)
     134:	05000007 	bltz	t0,154 <_init-0x53fffeac>
     138:	00010d2a 	0x10d2a
     13c:	01a80c00 	0x1a80c00
     140:	05280000 	tgei	t1,0
     144:	03e80d48 	0x3e80d48
     148:	35050000 	ori	a1,t0,0x0
     14c:	00000061 	0x61
     150:	0d002302 	jal	4008c08 <_init-0x4fff73f8>
     154:	000001c7 	0x1c7
     158:	00613805 	0x613805
     15c:	23020000 	addi	v0,t8,0
     160:	07be0d04 	0x7be0d04
     164:	3b050000 	xori	a1,t8,0x0
     168:	00000061 	0x61
     16c:	0d082302 	jal	4208c08 <_init-0x4fdf73f8>
     170:	00000194 	0x194
     174:	00613e05 	0x613e05
     178:	23020000 	addi	v0,t8,0
     17c:	65720e0c 	0x65720e0c
     180:	41050064 	0x41050064
     184:	00000132 	tlt	zero,zero,0x4
     188:	0d102302 	jal	4408c08 <_init-0x4fbf73f8>
     18c:	0000041d 	0x41d
     190:	01324405 	0x1324405
     194:	23020000 	addi	v0,t8,0
     198:	083c0d18 	j	f03460 <_init-0x530fcba0>
     19c:	47050000 	c1	0x1050000
     1a0:	00000132 	tlt	zero,zero,0x4
     1a4:	00202302 	ror	a0,zero,0xc
     1a8:	0006fd05 	0x6fd05
     1ac:	3d480500 	0x3d480500
     1b0:	0c000001 	jal	4 <_init-0x53fffffc>
     1b4:	000001fe 	0x1fe
     1b8:	0d3e0714 	jal	4f81c50 <_init-0x4f07e3b0>
     1bc:	00000644 	0x644
     1c0:	01fe3507 	0x1fe3507
     1c4:	23020000 	addi	v0,t8,0
     1c8:	00780e00 	0x780e00
     1cc:	00613707 	0x613707
     1d0:	23020000 	addi	v0,t8,0
     1d4:	00790e04 	0x790e04
     1d8:	00613907 	0x613907
     1dc:	23020000 	addi	v0,t8,0
     1e0:	07940d08 	0x7940d08
     1e4:	3b070000 	xori	a3,t8,0x0
     1e8:	00000061 	0x61
     1ec:	0d0c2302 	jal	4308c08 <_init-0x4fcf73f8>
     1f0:	0000003f 	0x3f
     1f4:	00613d07 	0x613d07
     1f8:	23020000 	addi	v0,t8,0
     1fc:	040b0010 	tltiu	zero,16
     200:	0000002c 	0x2c
     204:	00002105 	0x2105
     208:	b33e0700 	0xb33e0700
     20c:	0c000001 	jal	4 <_init-0x53fffffc>
     210:	0000025e 	0x25e
     214:	0d420814 	jal	5082050 <_init-0x4ef7dfb0>
     218:	00000046 	rorv	zero,zero,zero
     21c:	00613908 	0x613908
     220:	23020000 	addi	v0,t8,0
     224:	02c00d00 	0x2c00d00
     228:	3b080000 	xori	t0,t8,0x0
     22c:	00000061 	0x61
     230:	0e042302 	jal	8108c08 <_init-0x4bef73f8>
     234:	00796164 	0x796164
     238:	00613d08 	0x613d08
     23c:	23020000 	addi	v0,t8,0
     240:	02260d08 	0x2260d08
     244:	3f080000 	0x3f080000
     248:	00000061 	0x61
     24c:	0d0c2302 	jal	4308c08 <_init-0x4fcf73f8>
     250:	00000434 	teq	zero,zero,0x10
     254:	007d4108 	0x7d4108
     258:	23020000 	addi	v0,t8,0
     25c:	94050010 	lhu	a1,16(zero)
     260:	08000005 	j	14 <_init-0x53ffffec>
     264:	00020f42 	srl	at,v0,0x1d
     268:	029c0c00 	0x29c0c00
     26c:	080c0000 	j	300000 <_init-0x53d00000>
     270:	03e30d50 	0x3e30d50
     274:	4b080000 	c2	0x1080000
     278:	00000061 	0x61
     27c:	0d002302 	jal	4008c08 <_init-0x4fff73f8>
     280:	000004c7 	0x4c7
     284:	00614d08 	0x614d08
     288:	23020000 	addi	v0,t8,0
     28c:	04d80d04 	0x4d80d04
     290:	4f080000 	lwxc1	$f0,t0(t8)
     294:	00000061 	0x61
     298:	00082302 	srl	a0,t0,0xc
     29c:	00028c05 	0x28c05
     2a0:	69500800 	0x69500800
     2a4:	0c000002 	jal	8 <_init-0x53fffff8>
     2a8:	000002da 	0x2da
     2ac:	0d5e0824 	jal	5782090 <_init-0x4e87df70>
     2b0:	00000211 	0x211
     2b4:	025e5908 	0x25e5908
     2b8:	23020000 	addi	v0,t8,0
     2bc:	005d0d00 	0x5d0d00
     2c0:	5b080000 	0x5b080000
     2c4:	0000029c 	0x29c
     2c8:	0d142302 	jal	4508c08 <_init-0x4faf73f8>
     2cc:	000003f6 	tne	zero,zero,0xf
     2d0:	006f5d08 	0x6f5d08
     2d4:	23020000 	addi	v0,t8,0
     2d8:	2f050020 	sltiu	a1,t8,32
     2dc:	08000000 	j	0 <_init-0x54000000>
     2e0:	0002a75e 	0x2a75e
     2e4:	003a0a00 	0x3a0a00
     2e8:	270c0000 	addiu	t4,t8,0
     2ec:	08000003 	j	c <_init-0x53fffff4>
     2f0:	780e3206 	0x780e3206
     2f4:	84270600 	lh	a3,1536(at)
     2f8:	02000000 	0x2000000
     2fc:	790e0023 	0x790e0023
     300:	842a0600 	lh	t2,1536(at)
     304:	02000000 	0x2000000
     308:	940d0223 	lhu	t5,547(zero)
     30c:	06000007 	bltz	s0,32c <_init-0x53fffcd4>
     310:	0000842d 	0x842d
     314:	04230200 	bgezl	at,b18 <_init-0x53fff4e8>
     318:	00003f0d 	break	0x0,0xfc
     31c:	84300600 	lh	s0,1536(at)
     320:	02000000 	0x2000000
     324:	05000623 	bltz	t0,1bb4 <_init-0x53ffe44c>
     328:	0000039a 	0x39a
     32c:	02ea3206 	0x2ea3206
     330:	b3030000 	0xb3030000
     334:	04000003 	bltz	zero,344 <_init-0x53fffcbc>
     338:	97041804 	lhu	a0,6148(t8)
     33c:	00000002 	srl	zero,zero,0x0
     340:	00060b04 	0x60b04
     344:	08040100 	j	100400 <_init-0x53effc00>
     348:	02000008 	jr	s0
     34c:	0006b404 	0x6b404
     350:	a2040300 	sb	a0,768(s0)
     354:	04000002 	bltz	zero,360 <_init-0x53fffca0>
     358:	00073f04 	0x73f04
     35c:	9a040500 	lwr	a0,1280(s0)
     360:	06000007 	bltz	s0,380 <_init-0x53fffc80>
     364:	0007a604 	0x7a604
     368:	c2040700 	ll	a0,1792(s0)
     36c:	08000003 	j	c <_init-0x53fffff4>
     370:	00083104 	0x83104
     374:	5d040900 	0x5d040900
     378:	0a000005 	j	8000014 <_init-0x4bffffec>
     37c:	00081904 	0x81904
     380:	d4040b00 	ldc1	$f4,2816(zero)
     384:	0c000000 	jal	0 <_init-0x54000000>
     388:	0001d404 	0x1d404
     38c:	41040d00 	0x41040d00
     390:	0e000002 	jal	8000008 <_init-0x4bfffff8>
     394:	00044204 	0x44204
     398:	b6040f00 	0xb6040f00
     39c:	10000000 	b	3a0 <_init-0x53fffc60>
     3a0:	0000c804 	sllv	t9,zero,zero
     3a4:	1e041100 	0x1e041100
     3a8:	12000007 	beqz	s0,3c8 <_init-0x53fffc38>
     3ac:	0007dd04 	0x7dd04
     3b0:	05001300 	bltz	t0,4fb4 <_init-0x53ffb04c>
     3b4:	00000699 	0x699
     3b8:	03322d04 	0x3322d04
     3bc:	df030000 	ldc3	$3,0(t8)
     3c0:	04000003 	bltz	zero,3d0 <_init-0x53fffc30>
     3c4:	54043004 	bnel	zero,a0,c3d8 <_init-0x53ff3c28>
     3c8:	00000005 	0x5
     3cc:	0003fd04 	0x3fd04
     3d0:	f1040100 	0xf1040100
     3d4:	02000004 	sllv	zero,zero,s0
     3d8:	00047804 	sllv	t7,a0,zero
     3dc:	05000300 	bltz	t0,fe0 <_init-0x53fff020>
     3e0:	00000753 	0x753
     3e4:	03be3504 	0x3be3504
     3e8:	490f0000 	bc2tl	$cc3,3ec <_init-0x53fffc14>
     3ec:	04003233 	bltz	zero,ccbc <_init-0x53ff3344>
     3f0:	00007649 	0x7649
     3f4:	38550f00 	xori	s5,v0,0xf00
     3f8:	254c0400 	addiu	t4,t2,1024
     3fc:	0c000000 	jal	0 <_init-0x54000000>
     400:	00000440 	sll	zero,zero,0x11
     404:	0d560410 	jal	5581040 <_init-0x4ea7efc0>
     408:	00000052 	mflhxu	zero
     40c:	03ea5204 	0x3ea5204
     410:	23020000 	addi	v0,t8,0
     414:	02c60d00 	0x2c60d00
     418:	53040000 	beql	t8,a0,41c <_init-0x53fffbe4>
     41c:	000003ea 	0x3ea
     420:	0d042302 	jal	4108c08 <_init-0x4fef73f8>
     424:	000003bd 	0x3bd
     428:	03ea5404 	0x3ea5404
     42c:	23020000 	addi	v0,t8,0
     430:	03a50d08 	0x3a50d08
     434:	55040000 	bnel	t0,a0,438 <_init-0x53fffbc8>
     438:	000003ea 	0x3ea
     43c:	000c2302 	srl	a0,t4,0xc
     440:	00065b05 	0x65b05
     444:	ff560400 	sdc3	$22,1024(k0)
     448:	0c000003 	jal	c <_init-0x53fffff4>
     44c:	000004ee 	0x4ee
     450:	0d650438 	jal	59410e0 <_init-0x4e6bef20>
     454:	00000803 	sra	at,zero,0x0
     458:	03b35a04 	0x3b35a04
     45c:	23020000 	addi	v0,t8,0
     460:	009b0d00 	0x9b0d00
     464:	5b040000 	0x5b040000
     468:	000004ee 	0x4ee
     46c:	0d042302 	jal	4108c08 <_init-0x4fef73f8>
     470:	000002cc 	syscall	0xb
     474:	04ee5c04 	tnei	a3,23556
     478:	23020000 	addi	v0,t8,0
     47c:	07940d08 	0x7940d08
     480:	5d040000 	0x5d040000
     484:	000003ea 	0x3ea
     488:	0d0c2302 	jal	4308c08 <_init-0x4fcf73f8>
     48c:	0000003f 	0x3f
     490:	03ea5e04 	0x3ea5e04
     494:	23020000 	addi	v0,t8,0
     498:	04550d10 	0x4550d10
     49c:	5f040000 	0x5f040000
     4a0:	000003ea 	0x3ea
     4a4:	0d142302 	jal	4508c08 <_init-0x4faf73f8>
     4a8:	00000787 	0x787
     4ac:	03ea6004 	sllv	t4,t2,ra
     4b0:	23020000 	addi	v0,t8,0
     4b4:	04120d18 	bltzall	zero,3918 <_init-0x53ffc6e8>
     4b8:	61040000 	0x61040000
     4bc:	000003df 	0x3df
     4c0:	0d1c2302 	jal	4708c08 <_init-0x4f8f73f8>
     4c4:	000002ae 	0x2ae
     4c8:	03ea6204 	0x3ea6204
     4cc:	23020000 	addi	v0,t8,0
     4d0:	08590d20 	j	1643480 <_init-0x529bcb80>
     4d4:	63040000 	0x63040000
     4d8:	000004ee 	0x4ee
     4dc:	0d242302 	jal	4908c08 <_init-0x4f6f73f8>
     4e0:	00000408 	jr.hb	zero
     4e4:	04406404 	bltz	v0,194f8 <_init-0x53fe6b08>
     4e8:	23020000 	addi	v0,t8,0
     4ec:	040b0028 	tltiu	zero,40
     4f0:	000003f5 	0x3f5
     4f4:	00012c05 	0x12c05
     4f8:	4b650400 	c2	0x1650400
     4fc:	03000004 	sllv	zero,zero,t8
     500:	0000057a 	0x57a
     504:	041e0304 	0x41e0304
     508:	000005cf 	0x5cf
     50c:	031a0400 	0x31a0400
     510:	04010000 	b	514 <_init-0x53fffaec>
     514:	000002dc 	0x2dc
     518:	006a0402 	0x6a0402
     51c:	04030000 	bgezl	zero,520 <_init-0x53fffae0>
     520:	0000015a 	0x15a
     524:	01b60404 	0x1b60404
     528:	04050000 	0x4050000
     52c:	000006e6 	0x6e6
     530:	02020406 	0x2020406
     534:	04070000 	0x4070000
     538:	0000061c 	0x61c
     53c:	07b10408 	bgezal	sp,1560 <_init-0x53ffeaa0>
     540:	04090000 	tgeiu	zero,0
     544:	000001f4 	teq	zero,zero,0x7
     548:	052a040a 	tlti	t1,1034
     54c:	040b0000 	tltiu	zero,0
     550:	00000672 	tlt	zero,zero,0x19
     554:	05c4040c 	0x5c4040c
     558:	040d0000 	0x40d0000
     55c:	000002b4 	teq	zero,zero,0xa
     560:	04fc040e 	0x4fc040e
     564:	040f0000 	0x40f0000
     568:	0000000e 	0xe
     56c:	03d60410 	0x3d60410
     570:	04110000 	bal	574 <_init-0x53fffa8c>
     574:	0000072f 	0x72f
     578:	84050012 	lh	a1,18(zero)
     57c:	03000004 	sllv	zero,zero,t8
     580:	0004ff49 	0x4ff49
     584:	04610500 	bgez	v1,1988 <_init-0x53ffe678>
     588:	52030000 	beql	s0,v1,58c <_init-0x53fffa74>
     58c:	00000590 	0x590
     590:	0596040b 	0x596040b
     594:	ac100000 	sw	s0,0(zero)
     598:	01000005 	0x1000005
     59c:	00010711 	0x10711
     5a0:	00611100 	0x611100
     5a4:	61110000 	0x61110000
     5a8:	00000000 	nop
     5ac:	0005df0c 	syscall	0x177c
     5b0:	5d031000 	0x5d031000
     5b4:	0006060d 	break	0x6,0x18
     5b8:	275a0300 	addiu	k0,k0,768
     5bc:	02000003 	0x2000003
     5c0:	440d0023 	0x440d0023
     5c4:	03000006 	srlv	zero,zero,t8
     5c8:	0001075b 	0x1075b
     5cc:	08230200 	j	8c0800 <_init-0x5373f800>
     5d0:	0002ae0d 	break	0x2,0x2b8
     5d4:	565c0300 	bnel	s2,gp,11d8 <_init-0x53ffee28>
     5d8:	02000000 	0x2000000
     5dc:	05000c23 	bltz	t0,366c <_init-0x53ffc994>
     5e0:	00000585 	0x585
     5e4:	05ac5d03 	teqi	t5,23811
     5e8:	0f0c0000 	jal	c300000 <_init-0x47d00000>
     5ec:	08000006 	j	18 <_init-0x53ffffe8>
     5f0:	030d6703 	0x30d6703
     5f4:	03000008 	jr	t8
     5f8:	00057a65 	0x57a65
     5fc:	00230200 	0x230200
     600:	0006040d 	break	0x6,0x10
     604:	df660300 	ldc3	$6,768(k1)
     608:	02000003 	0x2000003
     60c:	05000423 	bltz	t0,169c <_init-0x53ffe964>
     610:	00000326 	0x326
     614:	05ea6703 	tlti	t7,26371
     618:	850c0000 	lh	t4,0(t0)
     61c:	44000006 	0x44000006
     620:	190d2801 	0x190d2801
     624:	01000000 	0x1000000
     628:	0001a821 	addu	s5,zero,at
     62c:	00230200 	0x230200
     630:	00063c0d 	break	0x6,0xf0
     634:	6f220100 	0x6f220100
     638:	02000000 	0x2000000
     63c:	840d2823 	lh	t5,10275(zero)
     640:	01000000 	0x1000000
     644:	00006123 	0x6123
     648:	2c230200 	sltiu	v1,at,512
     64c:	0001530d 	break	0x1,0x14c
     650:	56240100 	bnel	s1,a0,a54 <_init-0x53fff5ac>
     654:	02000000 	0x2000000
     658:	060d3023 	0x60d3023
     65c:	01000006 	srlv	zero,zero,t0
     660:	00032725 	0x32725
     664:	34230200 	ori	v1,at,0x200
     668:	0006440d 	break	0x6,0x110
     66c:	07260100 	0x7260100
     670:	02000001 	movf	zero,s0,$fcc0
     674:	ae0d3c23 	sw	t5,15395(s0)
     678:	01000002 	0x1000002
     67c:	00005627 	0x5627
     680:	40230200 	0x40230200
     684:	037f0500 	0x37f0500
     688:	28010000 	slti	at,zero,0
     68c:	0000061a 	0x61a
     690:	0006fd0c 	syscall	0x1bf4
     694:	3301d400 	andi	at,t8,0xd400
     698:	0008740d 	break	0x8,0x1d0
     69c:	0f2c0100 	jal	cb00400 <_init-0x474ffc00>
     6a0:	02000006 	srlv	zero,zero,s0
     6a4:	4e0d0023 	c3	0xd0023
     6a8:	01000001 	movf	zero,t0,$fcc0
     6ac:	0000562d 	0x562d
     6b0:	08230200 	j	8c0800 <_init-0x5373f800>
     6b4:	0006f40d 	break	0x6,0x3d0
     6b8:	f42e0100 	sdc1	$f14,256(at)
     6bc:	02000004 	sllv	zero,zero,s0
     6c0:	390d0c23 	xori	t5,t0,0xc23
     6c4:	01000004 	sllv	zero,zero,t0
     6c8:	0005852f 	0x5852f
     6cc:	44230200 	0x44230200
     6d0:	0002d30d 	break	0x2,0x34c
     6d4:	85300100 	lh	s0,256(t1)
     6d8:	02000006 	srlv	zero,zero,s0
     6dc:	cd0d4823 	pref	0xd,18467(t0)
     6e0:	01000003 	0x1000003
     6e4:	00068531 	tgeu	zero,a2,0x214
     6e8:	8c230300 	lw	v1,768(at)
     6ec:	03500d01 	0x3500d01
     6f0:	32010000 	andi	at,s0,0x0
     6f4:	00000056 	0x56
     6f8:	01d02303 	0x1d02303
     6fc:	04920500 	bltzall	a0,1b00 <_init-0x53ffe500>
     700:	33010000 	andi	at,t8,0x0
     704:	00000690 	0x690
     708:	0007b912 	0x7b912
     70c:	00049b00 	sll	s3,a0,0xc
     710:	01ab0100 	0x1ab0100
     714:	00000056 	0x56
     718:	54000020 	bnezl	zero,79c <_init-0x53fff864>
     71c:	540001b8 	bnezl	zero,e00 <_init-0x53fff200>
     720:	66136d01 	0x66136d01
     724:	aa010064 	swl	at,100(s0)
     728:	00000061 	0x61
     72c:	66136601 	0x66136601
     730:	b9aa0100 	swr	t2,256(t5)
     734:	01000007 	srav	zero,zero,t0
     738:	756f1465 	jalx	5bc5194 <_init-0x4e43ae6c>
     73c:	bb010074 	swr	at,116(t8)
     740:	540000c0 	bnezl	zero,a44 <_init-0x53fff5bc>
     744:	00033e15 	0x33e15
     748:	0007cf00 	sll	t9,a3,0x1c
     74c:	03050100 	0x3050100
     750:	54008fe0 	bnezl	zero,fffe46d4 <dlook+0xabfcf070>
     754:	0007d416 	0x7d416
     758:	00006800 	sll	t5,zero,0x0
     75c:	0000c054 	0xc054
     760:	07e11754 	bgez	ra,64b4 <_init-0x53ff9b4c>
     764:	ec180000 	swc3	$24,0(zero)
     768:	01000007 	srav	zero,zero,t0
     76c:	07f51853 	0x7f51853
     770:	52010000 	beql	s0,at,774 <_init-0x53fff88c>
     774:	0007fe18 	0x7fe18
     778:	17550100 	bne	k0,s5,b7c <_init-0x53fff484>
     77c:	00000809 	jalr	at,zero
     780:	00081418 	0x81418
     784:	18540100 	0x18540100
     788:	0000081f 	0x81f
     78c:	00195301 	0x195301
     790:	1a000000 	blez	s0,794 <_init-0x53fff86c>
     794:	0000082a 	slt	at,zero,zero
     798:	331a6001 	andi	k0,t8,0x6001
     79c:	01000008 	jr	t0
     7a0:	083e1a63 	j	f8698c <_init-0x53079674>
     7a4:	64010000 	0x64010000
     7a8:	0008491a 	0x8491a
     7ac:	1a610100 	0x1a610100
     7b0:	00000854 	0x854
     7b4:	00006201 	0x6201
     7b8:	fd040b00 	sdc3	$4,2816(t0)
     7bc:	1b000006 	blez	t8,7d8 <_init-0x53fff828>
     7c0:	000007cf 	0x7cf
     7c4:	000000c6 	0xc6
     7c8:	0000331c 	0x331c
     7cc:	0a001300 	j	8004c00 <_init-0x4bffb400>
     7d0:	000007bf 	0x7bf
     7d4:	0008601d 	0x8601d
     7d8:	00064a00 	sll	t1,a2,0x8
     7dc:	01960100 	0x1960100
     7e0:	73641e01 	0x73641e01
     7e4:	94010074 	lhu	at,116(zero)
     7e8:	00000107 	0x107
     7ec:	0100781e 	0x100781e
     7f0:	00006194 	0x6194
     7f4:	00791e00 	0x791e00
     7f8:	00619401 	0x619401
     7fc:	491f0000 	bc2tl	$cc7,800 <_init-0x53fff800>
     800:	01000007 	srav	zero,zero,t0
     804:	00006194 	0x6194
     808:	72731e00 	0x72731e00
     80c:	95010063 	lhu	at,99(t0)
     810:	00000107 	0x107
     814:	0006681f 	0x6681f
     818:	61950100 	0x61950100
     81c:	1f000000 	bgtz	t8,820 <_init-0x53fff7e0>
     820:	0000087b 	0x87b
     824:	00619501 	0x619501
     828:	69200000 	0x69200000
     82c:	61970100 	0x61970100
     830:	21000000 	addi	zero,t0,0
     834:	0000027e 	0x27e
     838:	003a9801 	0x3a9801
     83c:	a0210000 	sb	at,0(at)
     840:	01000001 	movf	zero,t0,$fcc0
     844:	00003a98 	0x3a98
     848:	04232100 	bgezl	at,8c4c <_init-0x53ff73b4>
     84c:	99010000 	lwr	at,0(t0)
     850:	00000107 	0x107
     854:	0004af21 	0x4af21
     858:	07990100 	0x7990100
     85c:	00000001 	movf	zero,zero,$fcc0
     860:	0008cc22 	0x8cc22
     864:	0006cd00 	sll	t9,a2,0x14
     868:	01ff0100 	0x1ff0100
     86c:	00005601 	0x5601
     870:	0001b800 	sll	s7,at,0x0
     874:	00035054 	0x35054
     878:	236d0154 	addi	t5,k1,340
     87c:	fe010066 	sdc3	$1,102(s0)
     880:	0007b901 	0x7b901
     884:	24620100 	addiu	v0,v1,256
     888:	00000803 	sra	at,zero,0x0
     88c:	6101fe01 	0x6101fe01
     890:	01000000 	0x1000000
     894:	00692555 	0x692555
     898:	61020001 	0x61020001
     89c:	01000000 	0x1000000
     8a0:	64662553 	0x64662553
     8a4:	02000100 	0x2000100
     8a8:	00000061 	0x61
     8ac:	74256301 	jalx	958c04 <_init-0x536a73fc>
     8b0:	01010076 	tne	t0,at,0x1
     8b4:	0008cc02 	srl	t9,t0,0x10
     8b8:	15600100 	bnez	t3,cbc <_init-0x53fff344>
     8bc:	0000033e 	0x33e
     8c0:	000008e2 	0x8e2
     8c4:	f4030501 	sdc1	$f3,1281(zero)
     8c8:	0054008f 	0x54008f
     8cc:	04f4040b 	0x4f4040b
     8d0:	e21b0000 	sc	k1,0(s0)
     8d4:	c6000008 	lwc1	$f0,8(s0)
     8d8:	1c000000 	bgtz	zero,8dc <_init-0x53fff724>
     8dc:	00000033 	tltu	zero,zero
     8e0:	d20a000e 	0xd20a000e
     8e4:	22000008 	addi	zero,s0,8
     8e8:	00000958 	0x958
     8ec:	00000365 	0x365
     8f0:	01025101 	0x1025101
     8f4:	00000056 	0x56
     8f8:	54000350 	bnezl	zero,163c <_init-0x53ffe9c4>
     8fc:	54000478 	bnezl	zero,1ae0 <_init-0x53ffe520>
     900:	e0246d01 	sc	a0,27905(at)
     904:	01000006 	srlv	zero,zero,t0
     908:	09580250 	j	5600940 <_init-0x4e9ff6c0>
     90c:	60010000 	0x60010000
     910:	00020f24 	0x20f24
     914:	02500100 	0x2500100
     918:	00000056 	0x56
     91c:	6c256201 	0x6c256201
     920:	01006e65 	0x1006e65
     924:	00610252 	0x610252
     928:	61010000 	0x61010000
     92c:	00004b26 	0x4b26
     930:	02520100 	0x2520100
     934:	00000061 	0x61
     938:	0001cc27 	0x1cc27
     93c:	02530100 	0x2530100
     940:	00000204 	0x204
     944:	15189102 	bne	t0,t8,fffe4d50 <dlook+0xabfcf6ec>
     948:	0000033e 	0x33e
     94c:	0000096e 	0x96e
     950:	04030501 	bgezl	zero,1d58 <_init-0x53ffe2a8>
     954:	00540090 	0x540090
     958:	05df040b 	synci	1035(t6)
     95c:	6e1b0000 	0x6e1b0000
     960:	c6000009 	lwc1	$f0,9(s0)
     964:	1c000000 	bgtz	zero,968 <_init-0x53fff698>
     968:	00000033 	tltu	zero,zero
     96c:	5e0a0019 	0x5e0a0019
     970:	22000009 	addi	zero,s0,9
     974:	00000a0b 	0xa0b
     978:	0000050a 	0x50a
     97c:	01027801 	0x1027801
     980:	00000056 	0x56
     984:	54000478 	bnezl	zero,1b68 <_init-0x53ffe498>
     988:	5400079c 	bnezl	zero,27fc <_init-0x53ffd804>
     98c:	1c246d01 	0x1c246d01
     990:	01000000 	0x1000000
     994:	0a0b0277 	j	82c09dc <_init-0x4bd3f624>
     998:	64010000 	0x64010000
     99c:	0005dd24 	0x5dd24
     9a0:	02770100 	0x2770100
     9a4:	00000958 	0x958
     9a8:	0f246301 	jal	c918c04 <_init-0x476e73fc>
     9ac:	01000002 	0x1000002
     9b0:	00560277 	0x560277
     9b4:	65010000 	0x65010000
     9b8:	6e656c25 	0x6e656c25
     9bc:	02790100 	0x2790100
     9c0:	0000003a 	0x3a
     9c4:	62256001 	0x62256001
     9c8:	01007070 	tge	t0,zero,0x1c1
     9cc:	0061027a 	0x61027a
     9d0:	54010000 	bnel	zero,at,9d4 <_init-0x53fff62c>
     9d4:	0006dc27 	0x6dc27
     9d8:	027b0100 	0x27b0100
     9dc:	000005df 	0x5df
     9e0:	16209102 	bnez	s1,fffe4dec <dlook+0xabfcf788>
     9e4:	00000a11 	0xa11
     9e8:	54000484 	bnezl	zero,1bfc <_init-0x53ffe404>
     9ec:	54000488 	bnezl	zero,1c10 <_init-0x53ffe3f0>
     9f0:	000a2317 	0xa2317
     9f4:	00201900 	0x201900
     9f8:	2f1a0000 	sltiu	k0,t8,0
     9fc:	0100000a 	movz	zero,t0,zero
     a00:	0a3a1a61 	j	8e86984 <_init-0x4b17967c>
     a04:	62010000 	0x62010000
     a08:	0b000000 	j	c000000 <_init-0x48000000>
     a0c:	00068504 	0x68504
     a10:	0a512800 	j	944a000 <_init-0x4abb6000>
     a14:	07620000 	bltzl	k1,a18 <_init-0x53fff5e8>
     a18:	25010000 	addiu	at,t0,0
     a1c:	00560102 	0x560102
     a20:	29010000 	slti	at,t0,0
     a24:	000004ce 	0x4ce
     a28:	0b022401 	j	c089004 <_init-0x47f76ffc>
     a2c:	2a00000a 	slti	zero,s0,10
     a30:	01006466 	0x1006466
     a34:	00610226 	0x610226
     a38:	722a0000 	madd	s1,t2
     a3c:	01007465 	0x1007465
     a40:	00610226 	0x610226
     a44:	3e2b0000 	0x3e2b0000
     a48:	61000003 	0x61000003
     a4c:	0100000a 	movz	zero,t0,zero
     a50:	0a611b00 	j	9846c00 <_init-0x4a7b9400>
     a54:	00c60000 	0xc60000
     a58:	331c0000 	andi	gp,t8,0x0
     a5c:	0d000000 	jal	4000000 <_init-0x50000000>
     a60:	0a510a00 	j	9442800 <_init-0x4abbd800>
     a64:	912c0000 	lbu	t4,0(t1)
     a68:	0100000a 	movz	zero,t0,zero
     a6c:	000004df 	0x4df
     a70:	0102b701 	0x102b701
     a74:	00000056 	0x56
     a78:	5400079c 	bnezl	zero,28ec <_init-0x53ffd714>
     a7c:	54000848 	bnezl	zero,2ba0 <_init-0x53ffd460>
     a80:	74246d01 	jalx	91b404 <_init-0x536e4bfc>
     a84:	01000008 	jr	t0
     a88:	0a9102b6 	j	a440ad8 <_init-0x49bbf528>
     a8c:	61010000 	0x61010000
     a90:	0f040b00 	jal	c102c00 <_init-0x47efd400>
     a94:	2c000006 	sltiu	zero,zero,6
     a98:	00000ac2 	srl	at,zero,0xb
     a9c:	00013701 	0x13701
     aa0:	02c90100 	0x2c90100
     aa4:	00005601 	0x5601
     aa8:	00084800 	sll	t1,t0,0x0
     aac:	00093854 	0x93854
     ab0:	246d0154 	addiu	t5,v1,340
     ab4:	000006e0 	0x6e0
     ab8:	5802c801 	0x5802c801
     abc:	01000009 	jalr	zero,t0
     ac0:	ed2c0062 	swc3	$12,98(t1)
     ac4:	0100000a 	movz	zero,t0,zero
     ac8:	000007ed 	0x7ed
     acc:	0102ed01 	0x102ed01
     ad0:	00000056 	0x56
     ad4:	54000938 	bnezl	zero,2fb8 <_init-0x53ffd048>
     ad8:	54000aa0 	bnezl	zero,355c <_init-0x53ffcaa4>
     adc:	e0246d01 	sc	a0,27905(at)
     ae0:	01000006 	srlv	zero,zero,t0
     ae4:	095802ec 	j	5600bb0 <_init-0x4e9ff450>
     ae8:	61010000 	0x61010000
     aec:	0b442c00 	j	d10b000 <_init-0x46ef5000>
     af0:	ed010000 	swc3	$1,0(t0)
     af4:	01000003 	0x1000003
     af8:	56010344 	bnel	s0,at,180c <_init-0x53ffe7f4>
     afc:	a0000000 	sb	zero,0(zero)
     b00:	fc54000a 	sdc3	$20,10(v0)
     b04:	0154000b 	movn	zero,t2,s4
     b08:	03f6246d 	0x3f6246d
     b0c:	43010000 	c0	0x1010000
     b10:	000b4403 	sra	t0,t3,0x10
     b14:	27600100 	addiu	zero,k1,256
     b18:	00000058 	0x58
     b1c:	da034501 	ldc2	$3,17665(s0)
     b20:	02000002 	0x2000002
     b24:	66251891 	0x66251891
     b28:	46010064 	c1	0x10064
     b2c:	00006103 	sra	t4,zero,0x4
     b30:	15610100 	bne	t3,at,f34 <_init-0x53fff0cc>
     b34:	0000033e 	0x33e
     b38:	00000b5a 	0xb5a
     b3c:	30030501 	andi	v1,zero,0x501
     b40:	00540090 	0x540090
     b44:	006f040b 	0x6f040b
     b48:	5a1b0000 	0x5a1b0000
     b4c:	c600000b 	lwc1	$f0,11(s0)
     b50:	1c000000 	bgtz	zero,b54 <_init-0x53fff4ac>
     b54:	00000033 	tltu	zero,zero
     b58:	4a0a000f 	c2	0xa000f
     b5c:	2c00000b 	sltiu	zero,zero,11
     b60:	00000d7b 	0xd7b
     b64:	00051b01 	0x51b01
     b68:	040c0100 	teqi	zero,256
     b6c:	00005601 	0x5601
     b70:	000bfc00 	sll	ra,t3,0x10
     b74:	001ca454 	0x1ca454
     b78:	246d0154 	addiu	t5,v1,340
     b7c:	00000439 	0x439
     b80:	85040b01 	lh	a0,2817(t0)
     b84:	01000005 	0x1000005
     b88:	0bd12d67 	j	f44b59c <_init-0x44bb4a64>
     b8c:	0d7b0000 	jal	5ec0000 <_init-0x4e140000>
     b90:	0c500000 	jal	1400000 <_init-0x52c00000>
     b94:	0ca45400 	jal	2915000 <_init-0x516eb000>
     b98:	8d185400 	lw	t8,21504(t0)
     b9c:	0100000d 	break	0x100
     ba0:	0d991765 	jal	6645d94 <_init-0x4d9ba26c>
     ba4:	48190000 	mfc2	t9,$0
     ba8:	1a000000 	blez	s0,bac <_init-0x53fff454>
     bac:	00000da5 	0xda5
     bb0:	b12e6301 	0xb12e6301
     bb4:	1a00000d 	blez	s0,bec <_init-0x53fff414>
     bb8:	00000dbd 	0xdbd
     bbc:	1a189102 	0x1a189102
     bc0:	00000dc9 	0xdc9
     bc4:	d52f6e01 	ldc1	$f15,28161(t1)
     bc8:	8000000d 	lb	zero,13(zero)
     bcc:	0054000c 	syscall	0x15000
     bd0:	0c492d00 	jal	124b400 <_init-0x52db4c00>
     bd4:	0deb0000 	jal	7ac0000 <_init-0x4c540000>
     bd8:	0cf00000 	jal	3c00000 <_init-0x50400000>
     bdc:	0da85400 	jal	6a15000 <_init-0x4d5eb000>
     be0:	f8175400 	sdc2	$23,21504(zero)
     be4:	1800000d 	blez	zero,c1c <_init-0x53fff3e4>
     be8:	00000e03 	sra	at,zero,0x18
     bec:	0e186401 	jal	8619004 <_init-0x4b9e6ffc>
     bf0:	0100000e 	0x100000e
     bf4:	0e191762 	jal	8645d88 <_init-0x4b9ba278>
     bf8:	202d0000 	addi	t5,at,0
     bfc:	6d00000c 	0x6d00000c
     c00:	f800000e 	sdc2	$0,14(zero)
     c04:	9c54000c 	0x9c54000c
     c08:	1854000d 	0x1854000d
     c0c:	00000e7f 	0xe7f
     c10:	78195601 	0x78195601
     c14:	1a000000 	blez	s0,c18 <_init-0x53fff3e8>
     c18:	00000e89 	0xe89
     c1c:	00005201 	0x5201
     c20:	0000a819 	0xa819
     c24:	0e241a00 	jal	8906800 <_init-0x4b6f9800>
     c28:	55010000 	bnel	t0,at,c2c <_init-0x53fff3d4>
     c2c:	000e2d1a 	0xe2d1a
     c30:	1a580100 	0x1a580100
     c34:	00000e36 	tne	zero,zero,0x38
     c38:	412e6601 	0x412e6601
     c3c:	1a00000e 	blez	s0,c78 <_init-0x53fff388>
     c40:	00000e4c 	syscall	0x39
     c44:	001c9102 	srl	s2,gp,0x4
     c48:	0c5a3000 	jal	168c000 <_init-0x52974000>
     c4c:	00e00000 	0xe00000
     c50:	de1a0000 	ldc3	$26,0(s0)
     c54:	0100000d 	break	0x100
     c58:	bc2d0060 	cache	0xd,96(at)
     c5c:	9600000c 	lhu	zero,12(s0)
     c60:	2400000e 	li	zero,14
     c64:	54540010 	bnel	v0,s4,ca8 <_init-0x53fff358>
     c68:	18540011 	0x18540011
     c6c:	00000ea7 	0xea7
     c70:	f8196501 	sdc2	$25,25857(zero)
     c74:	1a000000 	blez	s0,c78 <_init-0x53fff388>
     c78:	00000eb0 	tge	zero,zero,0x3a
     c7c:	1a209102 	blez	s1,fffe5088 <dlook+0xabfcfa24>
     c80:	00000ebb 	0xebb
     c84:	c41a6001 	lwc1	$f26,24577(zero)
     c88:	0100000e 	0x100000e
     c8c:	0ece1a66 	jal	b386998 <_init-0x48c79668>
     c90:	63010000 	0x63010000
     c94:	000eda1a 	0xeda1a
     c98:	1a670100 	0x1a670100
     c9c:	00000ee6 	0xee6
     ca0:	1a249102 	0x1a249102
     ca4:	00000ef2 	tlt	zero,zero,0x3b
     ca8:	fe1a6e01 	sdc3	$26,28161(s0)
     cac:	0100000e 	0x100000e
     cb0:	0f132f62 	jal	c4cbd88 <_init-0x47b34278>
     cb4:	18380000 	0x18380000
     cb8:	00005400 	sll	t2,zero,0x10
     cbc:	000cf02d 	0xcf02d
     cc0:	000f2100 	sll	a0,t7,0x4
     cc4:	0011dc00 	sll	k1,s1,0x10
     cc8:	00129854 	0x129854
     ccc:	0f321854 	jal	cc86150 <_init-0x47379eb0>
     cd0:	65010000 	0x65010000
     cd4:	00014019 	0x14019
     cd8:	0f3b1a00 	jal	cec6800 <_init-0x47139800>
     cdc:	54010000 	bnel	zero,at,ce0 <_init-0x53fff320>
     ce0:	000f441a 	0xf441a
     ce4:	1a630100 	0x1a630100
     ce8:	00000f4e 	0xf4e
     cec:	00006201 	0x6201
     cf0:	000d242d 	0xd242d
     cf4:	000f6800 	sll	t5,t7,0x0
     cf8:	00129800 	sll	s3,s2,0x0
     cfc:	00136454 	0x136454
     d00:	0f7a1854 	jal	de86150 <_init-0x46179eb0>
     d04:	64010000 	0x64010000
     d08:	00016819 	0x16819
     d0c:	0f841a00 	jal	e106800 <_init-0x45ef9800>
     d10:	54010000 	bnel	zero,at,d14 <_init-0x53fff2ec>
     d14:	000f8e1a 	0xf8e1a
     d18:	1a630100 	0x1a630100
     d1c:	00000f99 	0xf99
     d20:	00006201 	0x6201
     d24:	000fc416 	0xfc416
     d28:	0013dc00 	sll	k1,s3,0x10
     d2c:	0014a054 	0x14a054
     d30:	0fd61854 	jal	f586150 <_init-0x44a79eb0>
     d34:	66010000 	0x66010000
     d38:	00019819 	0x19819
     d3c:	0fe01a00 	jal	f806800 <_init-0x447f9800>
     d40:	67010000 	0x67010000
     d44:	000fec1a 	0xfec1a
     d48:	1a600100 	blez	s3,114c <_init-0x53ffeeb4>
     d4c:	00000ff6 	tne	zero,zero,0x3f
     d50:	011a6301 	0x11a6301
     d54:	01000010 	0x1000010
     d58:	100d1a6e 	beq	zero,t5,7714 <_init-0x53ff88ec>
     d5c:	91020000 	lbu	v0,0(t0)
     d60:	10191a28 	beq	zero,t9,7604 <_init-0x53ff89fc>
     d64:	62010000 	0x62010000
     d68:	0010241a 	0x10241a
     d6c:	2f640100 	sltiu	a0,k1,256
     d70:	0000103a 	0x103a
     d74:	54001488 	bnezl	zero,5f98 <_init-0x53ffa068>
     d78:	28000000 	slti	zero,zero,0
     d7c:	00000deb 	0xdeb
     d80:	000005ee 	0x5ee
     d84:	01036301 	0x1036301
     d88:	00000056 	0x56
     d8c:	08742901 	j	1d0a404 <_init-0x522f5bfc>
     d90:	62010000 	0x62010000
     d94:	000a9103 	sra	s2,t2,0x4
     d98:	04392900 	0x4392900
     d9c:	62010000 	0x62010000
     da0:	00058503 	sra	s0,a1,0x14
     da4:	65722a00 	0x65722a00
     da8:	64010074 	0x64010074
     dac:	00005603 	sra	t2,zero,0x18
     db0:	656c2a00 	0x656c2a00
     db4:	6501006e 	0x6501006e
     db8:	00003a03 	sra	a3,zero,0x8
     dbc:	04732600 	bgezall	v1,a5c0 <_init-0x53ff5a40>
     dc0:	66010000 	0x66010000
     dc4:	00006f03 	sra	t5,zero,0x1c
     dc8:	03102600 	0x3102600
     dcc:	67010000 	0x67010000
     dd0:	00005603 	sra	t2,zero,0x18
     dd4:	06c13100 	bgez	s6,d1d8 <_init-0x53ff2e28>
     dd8:	f6010000 	sdc1	$f1,0(s0)
     ddc:	662a3203 	0x662a3203
     de0:	e9010064 	swc2	$1,100(t0)
     de4:	00006103 	sra	t4,zero,0x4
     de8:	1d000000 	bgtz	t0,dec <_init-0x53fff214>
     dec:	00000e62 	0xe62
     df0:	0000059f 	0x59f
     df4:	01014601 	0x1014601
     df8:	0005a71f 	0x5a71f
     dfc:	62450100 	0x62450100
     e00:	1f00000e 	bgtz	t8,e3c <_init-0x53fff1c4>
     e04:	00000794 	0x794
     e08:	00614501 	0x614501
     e0c:	3f1f0000 	0x3f1f0000
     e10:	01000000 	0x1000000
     e14:	00006145 	0x6145
     e18:	00841f00 	0x841f00
     e1c:	45010000 	bc1t	e20 <_init-0x53fff1e0>
     e20:	00000061 	0x61
     e24:	01007820 	add	t7,t0,zero
     e28:	00006147 	0x6147
     e2c:	00792000 	0x792000
     e30:	00614701 	0x614701
     e34:	5e210000 	0x5e210000
     e38:	01000003 	0x1000003
     e3c:	0001fe48 	0x1fe48
     e40:	08602100 	j	1808400 <_init-0x527f7c00>
     e44:	49010000 	bc2t	e48 <_init-0x53fff1b8>
     e48:	000001fe 	0x1fe
     e4c:	00068f21 	0x68f21
     e50:	564a0100 	bnel	s2,t2,1254 <_init-0x53ffedac>
     e54:	2b000000 	slti	zero,t8,0
     e58:	0000033e 	0x33e
     e5c:	00000e68 	0xe68
     e60:	040b0001 	tltiu	zero,1
     e64:	00000107 	0x107
     e68:	000b4a0a 	0xb4a0a
     e6c:	0e962800 	jal	a58a000 <_init-0x49a76000>
     e70:	00760000 	0x760000
     e74:	1c010000 	0x1c010000
     e78:	00610103 	0x610103
     e7c:	33010000 	andi	at,t8,0x0
     e80:	1b010066 	0x1b010066
     e84:	0007b903 	sra	s7,a3,0x4
     e88:	06922600 	bltzall	s4,a68c <_init-0x53ff5974>
     e8c:	1d010000 	0x1d010000
     e90:	00006103 	sra	t4,zero,0x4
     e94:	1c340000 	0x1c340000
     e98:	b700000f 	0xb700000f
     e9c:	01000004 	sllv	zero,zero,t0
     ea0:	005601fd 	0x5601fd
     ea4:	1e010000 	0x1e010000
     ea8:	fc010066 	sdc3	$1,102(zero)
     eac:	000007b9 	0x7b9
     eb0:	74657220 	jalx	195c880 <_init-0x526a3780>
     eb4:	56fe0100 	bnel	s7,s8,12b8 <_init-0x53ffed48>
     eb8:	20000000 	addi	zero,zero,0
     ebc:	ff010069 	sdc3	$1,105(t8)
     ec0:	00000061 	0x61
     ec4:	00646620 	0x646620
     ec8:	0061ff01 	0x61ff01
     ecc:	36260000 	ori	a2,s1,0x0
     ed0:	01000003 	0x1000003
     ed4:	01070100 	0x1070100
     ed8:	a7260000 	sh	a2,0(t9)
     edc:	01000005 	0x1000005
     ee0:	01070100 	0x1070100
     ee4:	62260000 	0x62260000
     ee8:	01000000 	0x1000000
     eec:	01070100 	0x1070100
     ef0:	7e260000 	ext	a2,s1,0x0,0x1
     ef4:	01000006 	srlv	zero,zero,t0
     ef8:	01070100 	0x1070100
     efc:	742a0000 	jalx	a80000 <_init-0x53580000>
     f00:	01010076 	tne	t0,at,0x1
     f04:	0008cc01 	0x8cc01
     f08:	033e2b00 	0x33e2b00
     f0c:	0f1c0000 	jal	c700000 <_init-0x47900000>
     f10:	35010000 	ori	at,t0,0x0
     f14:	0074756f 	0x74756f
     f18:	00017801 	movt	t7,zero,$fcc0
     f1c:	000b4a0a 	0xb4a0a
     f20:	0f633400 	jal	d8cd000 <_init-0x46733000>
     f24:	01a80000 	0x1a80000
     f28:	ce010000 	pref	0x1,0(s0)
     f2c:	00005601 	0x5601
     f30:	661e0100 	0x661e0100
     f34:	b9cd0100 	swr	t5,256(t6)
     f38:	20000007 	addi	zero,zero,7
     f3c:	cf010069 	pref	0x1,105(t8)
     f40:	00000061 	0x61
     f44:	00646620 	0x646620
     f48:	0061cf01 	0x61cf01
     f4c:	74200000 	jalx	800000 <_init-0x53800000>
     f50:	d0010076 	0xd0010076
     f54:	000008cc 	syscall	0x23
     f58:	00033e2b 	0x33e2b
     f5c:	000f6300 	sll	t4,t7,0xc
     f60:	0a000100 	j	8000400 <_init-0x4bfffc00>
     f64:	00000a51 	0xa51
     f68:	000faf28 	0xfaf28
     f6c:	00008a00 	sll	s1,zero,0x8
     f70:	01880100 	0x1880100
     f74:	00005601 	0x5601
     f78:	66330100 	0x66330100
     f7c:	01870100 	0x1870100
     f80:	000007b9 	0x7b9
     f84:	0100692a 	0x100692a
     f88:	00610189 	0x610189
     f8c:	662a0000 	0x662a0000
     f90:	89010064 	lwl	at,100(t0)
     f94:	00006101 	0x6101
     f98:	76742a00 	jalx	9d0a800 <_init-0x4a2f5800>
     f9c:	018a0100 	0x18a0100
     fa0:	000008cc 	syscall	0x23
     fa4:	00033e2b 	0x33e2b
     fa8:	000fbf00 	sll	s7,t7,0x1c
     fac:	1b000100 	blez	t8,13b0 <_init-0x53ffec50>
     fb0:	00000fbf 	0xfbf
     fb4:	000000c6 	0xc6
     fb8:	0000331c 	0x331c
     fbc:	0a001000 	j	8004000 <_init-0x4bffc000>
     fc0:	00000faf 	0xfaf
     fc4:	00104328 	0x104328
     fc8:	0000a800 	sll	s5,zero,0x0
     fcc:	01b80100 	0x1b80100
     fd0:	00005601 	0x5601
     fd4:	66330100 	0x66330100
     fd8:	01b70100 	0x1b70100
     fdc:	000007b9 	0x7b9
     fe0:	7465722a 	jalx	195c8a8 <_init-0x526a3758>
     fe4:	01b90100 	0x1b90100
     fe8:	00000056 	0x56
     fec:	0100692a 	0x100692a
     ff0:	006101ba 	0x6101ba
     ff4:	662a0000 	0x662a0000
     ff8:	ba010064 	swr	at,100(s0)
     ffc:	00006101 	0x6101
    1000:	05a72600 	0x5a72600
    1004:	bb010000 	swr	at,0(t8)
    1008:	00010701 	0x10701
    100c:	00622600 	0x622600
    1010:	bb010000 	swr	at,0(t8)
    1014:	00010701 	0x10701
    1018:	76742a00 	jalx	9d0a800 <_init-0x4a2f5800>
    101c:	01bc0100 	0x1bc0100
    1020:	000008cc 	syscall	0x23
    1024:	00028426 	0x28426
    1028:	01bd0100 	0x1bd0100
    102c:	00000061 	0x61
    1030:	00033e2b 	0x33e2b
    1034:	00104300 	sll	t0,s0,0xc
    1038:	6f350100 	0x6f350100
    103c:	01007475 	0x1007475
    1040:	0a0001f4 	j	80007d0 <_init-0x4bfff830>
    1044:	00000a51 	0xa51
    1048:	05750136 	0x5750136
    104c:	2a010000 	slti	at,s0,0
    1050:	00610104 	0x610104
    1054:	1ca40000 	0x1ca40000
    1058:	1ccc5400 	0x1ccc5400
    105c:	6d015400 	0x6d015400
    1060:	02160137 	0x2160137
    1064:	37010000 	ori	at,t8,0x0
    1068:	1ccc0104 	0x1ccc0104
    106c:	1cd45400 	0x1cd45400
    1070:	6d015400 	0x6d015400
    1074:	0001df38 	0x1df38
    1078:	cba90900 	lwc2	$9,2304(sp)
    107c:	01000000 	0x1000000
    1080:	56500305 	bnel	s2,s0,1c98 <_init-0x53ffe368>
    1084:	69385401 	0x69385401
    1088:	09000002 	j	4000008 <_init-0x4ffffff8>
    108c:	0000f2b5 	0xf2b5
    1090:	03050100 	0x3050100
    1094:	54015654 	bnel	zero,at,169e8 <_init-0x53fe9618>
    1098:	00042b39 	0x42b39
    109c:	fd350100 	sdc3	$21,256(t1)
    10a0:	05000006 	bltz	t0,10bc <_init-0x53ffef44>
    10a4:	01216c03 	0x1216c03
    10a8:	038d3954 	0x38d3954
    10ac:	36010000 	ori	at,s0,0x0
    10b0:	000010ba 	0x10ba
    10b4:	8fd80305 	lw	t8,773(s8)
    10b8:	ba0a5400 	swr	t2,21504(s0)
    10bc:	1b000000 	blez	t8,10c0 <_init-0x53ffef40>
    10c0:	000010cf 	0x10cf
    10c4:	0000057a 	0x57a
    10c8:	0000331c 	0x331c
    10cc:	39000a00 	xori	zero,t0,0xa00
    10d0:	0000086b 	0x86b
    10d4:	10bf3901 	beq	a1,ra,f4dc <_init-0x53ff0b24>
    10d8:	03050000 	0x3050000
    10dc:	5400a018 	bnezl	zero,fffe9140 <dlook+0xabfd3adc>
    10e0:	00062839 	0x62839
    10e4:	61400100 	0x61400100
    10e8:	05000000 	bltz	t0,10ec <_init-0x53ffef14>
    10ec:	01216803 	0x1216803
    10f0:	11011b54 	beq	t0,at,7e44 <_init-0x53ff81bc>
    10f4:	02e50000 	0x2e50000
    10f8:	331c0000 	andi	gp,t8,0x0
    10fc:	06000000 	bltz	s0,1100 <_init-0x53ffef00>
    1100:	06a62700 	0x6a62700
    1104:	17010000 	bne	t8,at,1108 <_init-0x53ffeef8>
    1108:	00111304 	0x111304
    110c:	bc030500 	cache	0x3,1280(zero)
    1110:	0a54008f 	j	950023c <_init-0x4aaffdc4>
    1114:	000010f1 	tgeu	zero,zero,0x43
    1118:	00042700 	sll	a0,a0,0x1c
    111c:	ee000200 	swc3	$0,512(s0)
    1120:	04000002 	bltz	zero,112c <_init-0x53ffeed4>
    1124:	00064c01 	0x64c01
    1128:	00207c00 	0x207c00
    112c:	001cd454 	0x1cd454
    1130:	0002eb54 	0x2eb54
    1134:	09db0100 	j	76c0400 <_init-0x4c93fc00>
    1138:	00df0000 	0xdf0000
    113c:	00020000 	sll	zero,v0,0x0
    1140:	01000000 	0x1000000
    1144:	03aa0208 	0x3aa0208
    1148:	07020000 	bltzl	t8,114c <_init-0x53ffeeb4>
    114c:	00070c02 	srl	at,a3,0x10
    1150:	02070400 	0x2070400
    1154:	00000711 	0x711
    1158:	56030704 	bnel	s0,v1,2d6c <_init-0x53ffd294>
    115c:	04000000 	bltz	zero,1160 <_init-0x53ffeea0>
    1160:	a2042602 	sb	a0,9730(s0)
    1164:	00000000 	nop
    1168:	0005e904 	0x5e904
    116c:	05000100 	bltz	t0,1570 <_init-0x53ffea90>
    1170:	0000016c 	0x16c
    1174:	00412902 	0x412902
    1178:	69060000 	0x69060000
    117c:	0400746e 	bltz	zero,1e338 <_init-0x53fe1cc8>
    1180:	08230205 	j	8c0814 <_init-0x5373f7ec>
    1184:	05080000 	tgei	t0,0
    1188:	00070c02 	srl	at,a3,0x10
    118c:	02070400 	0x2070400
    1190:	00000828 	0x828
    1194:	09020504 	j	4081410 <_init-0x4ff7ebf0>
    1198:	01000000 	0x1000000
    119c:	056b0206 	tltiu	t3,518
    11a0:	05020000 	bltzl	t0,11a4 <_init-0x53ffee5c>
    11a4:	00070702 	srl	zero,a3,0x1c
    11a8:	07070800 	0x7070800
    11ac:	0000007d 	0x7d
    11b0:	007d0408 	0x7d0408
    11b4:	c4030000 	lwc1	$f3,0(zero)
    11b8:	04000000 	bltz	zero,11bc <_init-0x53ffee44>
    11bc:	af04a305 	sw	a0,-23803(t8)
    11c0:	00000005 	0x5
    11c4:	00053c04 	0x53c04
    11c8:	50040100 	beql	zero,a0,15cc <_init-0x53ffea34>
    11cc:	02000002 	0x2000002
    11d0:	00017104 	0x17104
    11d4:	2b040300 	slti	a0,t8,768
    11d8:	00000002 	srl	zero,zero,0x0
    11dc:	00d90300 	0xd90300
    11e0:	05040000 	0x5040000
    11e4:	084104b0 	j	10412c0 <_init-0x52fbed40>
    11e8:	04000000 	bltz	zero,11ec <_init-0x53ffee14>
    11ec:	00000770 	tge	zero,zero,0x1d
    11f0:	fa030001 	sdc2	$3,1(s0)
    11f4:	04000000 	bltz	zero,11f8 <_init-0x53ffee08>
    11f8:	54043004 	bnel	zero,a0,d20c <_init-0x53ff2df4>
    11fc:	00000005 	0x5
    1200:	0003fd04 	0x3fd04
    1204:	f1040100 	0xf1040100
    1208:	02000004 	sllv	zero,zero,s0
    120c:	00047804 	sllv	t7,a0,zero
    1210:	05000300 	bltz	t0,1e14 <_init-0x53ffe1ec>
    1214:	00000753 	0x753
    1218:	00d93504 	0xd93504
    121c:	80030000 	lb	v1,0(zero)
    1220:	04000001 	bltz	zero,1228 <_init-0x53ffedd8>
    1224:	cf041e03 	pref	0x4,7683(t8)
    1228:	00000005 	0x5
    122c:	00031a04 	0x31a04
    1230:	dc040100 	ldc3	$4,256(zero)
    1234:	02000002 	0x2000002
    1238:	00006a04 	0x6a04
    123c:	5a040300 	0x5a040300
    1240:	04000001 	bltz	zero,1248 <_init-0x53ffedb8>
    1244:	0001b604 	0x1b604
    1248:	e6040500 	swc1	$f4,1280(s0)
    124c:	06000006 	bltz	s0,1268 <_init-0x53ffed98>
    1250:	00020204 	0x20204
    1254:	1c040700 	0x1c040700
    1258:	08000006 	j	18 <_init-0x53ffffe8>
    125c:	0007b104 	0x7b104
    1260:	f4040900 	sdc1	$f4,2304(zero)
    1264:	0a000001 	j	8000004 <_init-0x4bfffffc>
    1268:	00052a04 	0x52a04
    126c:	72040b00 	0x72040b00
    1270:	0c000006 	jal	18 <_init-0x53ffffe8>
    1274:	0005c404 	0x5c404
    1278:	b4040d00 	0xb4040d00
    127c:	0e000002 	jal	8000008 <_init-0x4bfffff8>
    1280:	0004fc04 	0x4fc04
    1284:	0e040f00 	jal	8103c00 <_init-0x4befc400>
    1288:	10000000 	b	128c <_init-0x53ffed74>
    128c:	0003d604 	0x3d604
    1290:	2f041100 	sltiu	a0,t8,4352
    1294:	12000007 	beqz	s0,12b4 <_init-0x53ffed4c>
    1298:	04840500 	0x4840500
    129c:	49030000 	bc2tl	12a0 <_init-0x53ffed60>
    12a0:	00000105 	0x105
    12a4:	0001b009 	0x1b009
    12a8:	67030800 	0x67030800
    12ac:	0008030a 	0x8030a
    12b0:	80650300 	lb	a1,768(v1)
    12b4:	02000001 	movf	zero,s0,$fcc0
    12b8:	040a0023 	tlti	zero,35
    12bc:	03000006 	srlv	zero,zero,t8
    12c0:	0000fa66 	0xfa66
    12c4:	04230200 	bgezl	at,1ac8 <_init-0x53ffe538>
    12c8:	03260500 	0x3260500
    12cc:	67030000 	0x67030000
    12d0:	0000018b 	0x18b
    12d4:	0001d603 	sra	k0,at,0x18
    12d8:	6e030400 	0x6e030400
    12dc:	00096504 	0x96504
    12e0:	bd040000 	cache	0x4,0(t0)
    12e4:	01000009 	jalr	zero,t0
    12e8:	0008bc04 	0x8bc04
    12ec:	05000200 	bltz	t0,1af0 <_init-0x53ffe510>
    12f0:	0000099e 	0x99e
    12f4:	01bb7503 	0x1bb7503
    12f8:	14030000 	bne	zero,v1,12fc <_init-0x53ffed04>
    12fc:	04000002 	bltz	zero,1308 <_init-0x53ffecf8>
    1300:	c7047c03 	lwc1	$f4,31747(t8)
    1304:	00000008 	jr	zero
    1308:	00090604 	0x90604
    130c:	87040100 	lh	a0,256(t8)
    1310:	02000009 	jalr	zero,s0
    1314:	00092904 	0x92904
    1318:	40040300 	0x40040300
    131c:	04000009 	bltz	zero,1344 <_init-0x53ffecbc>
    1320:	00097404 	0x97404
    1324:	ad040500 	sw	a0,1280(t0)
    1328:	06000009 	bltz	s0,1350 <_init-0x53ffecb0>
    132c:	09cd0500 	j	7341400 <_init-0x4ccbec00>
    1330:	8b030000 	lwl	v1,0(t8)
    1334:	000001e1 	0x1e1
    1338:	00024409 	0x24409
    133c:	1d010800 	0x1d010800
    1340:	0008940a 	0x8940a
    1344:	971b0100 	lhu	k1,256(t8)
    1348:	02000000 	0x2000000
    134c:	230a0023 	addi	t2,t8,35
    1350:	01000009 	jalr	zero,t0
    1354:	0000611c 	0x611c
    1358:	04230200 	bgezl	at,1b5c <_init-0x53ffe4a4>
    135c:	08ae0500 	j	2b81400 <_init-0x5147ec00>
    1360:	1d010000 	0x1d010000
    1364:	0000021f 	0x21f
    1368:	00027409 	0x27409
    136c:	23011800 	addi	at,t8,6144
    1370:	0008030a 	0x8030a
    1374:	44210100 	0x44210100
    1378:	02000002 	0x2000002
    137c:	640b0023 	0x640b0023
    1380:	01007269 	0x1007269
    1384:	00027422 	0x27422
    1388:	08230200 	j	8c0800 <_init-0x5373f800>
    138c:	02840c00 	0x2840c00
    1390:	02440000 	0x2440000
    1394:	330d0000 	andi	t5,t8,0x0
    1398:	01000000 	0x1000000
    139c:	08860500 	j	2181400 <_init-0x51e7ec00>
    13a0:	23010000 	addi	at,t8,0
    13a4:	0000024f 	0x24f
    13a8:	0002e20e 	0x2e20e
    13ac:	08f40100 	j	3d00400 <_init-0x502ffc00>
    13b0:	49010000 	bc2t	13b4 <_init-0x53ffec4c>
    13b4:	00005601 	0x5601
    13b8:	001cd400 	sll	k0,gp,0x10
    13bc:	001e1054 	0x1e1054
    13c0:	0f6d0154 	jal	db40550 <_init-0x464bfab0>
    13c4:	00000434 	teq	zero,zero,0x10
    13c8:	02144801 	movf	t1,s0,$fcc5
    13cc:	61010000 	0x61010000
    13d0:	00091d0f 	0x91d0f
    13d4:	d6480100 	ldc1	$f8,256(s2)
    13d8:	01000001 	movf	zero,t0,$fcc0
    13dc:	08740f63 	j	1d03d8c <_init-0x522fc274>
    13e0:	48010000 	mfc2	at,$0
    13e4:	000002e2 	0x2e2
    13e8:	3e106201 	0x3e106201
    13ec:	fd000003 	sdc3	$0,3(t0)
    13f0:	01000002 	0x1000002
    13f4:	90dc0305 	lbu	gp,773(a2)
    13f8:	08005400 	j	15000 <_init-0x53feb000>
    13fc:	0002e804 	sllv	sp,v0,zero
    1400:	01b00700 	0x1b00700
    1404:	fd0c0000 	sdc3	$12,0(t0)
    1408:	92000002 	lbu	zero,2(s0)
    140c:	0d000000 	jal	4000000 <_init-0x50000000>
    1410:	00000033 	tltu	zero,zero
    1414:	ed070011 	swc3	$7,17(t0)
    1418:	0e000002 	jal	8000008 <_init-0x4bfffff8>
    141c:	0000037b 	0x37b
    1420:	00095301 	0x95301
    1424:	01620100 	0x1620100
    1428:	00000056 	0x56
    142c:	54001e10 	bnezl	zero,8c70 <_init-0x53ff7390>
    1430:	54002074 	bnezl	zero,9604 <_init-0x53ff69fc>
    1434:	340f6d01 	li	t7,0x6d01
    1438:	01000004 	sllv	zero,zero,t0
    143c:	00021461 	0x21461
    1440:	0f610100 	jal	d840400 <_init-0x467bfc00>
    1444:	0000091d 	0x91d
    1448:	01d66101 	0x1d66101
    144c:	62010000 	0x62010000
    1450:	0008740f 	0x8740f
    1454:	7b610100 	0x7b610100
    1458:	01000003 	0x1000003
    145c:	04731163 	bgezall	v1,59ec <_init-0x53ffa614>
    1460:	63010000 	0x63010000
    1464:	00000061 	0x61
    1468:	10289102 	beq	at,t0,fffe5874 <dlook+0xabfd0210>
    146c:	0000033e 	0x33e
    1470:	00000381 	0x381
    1474:	f0030501 	0xf0030501
    1478:	12540090 	beq	s2,s4,16bc <_init-0x53ffe944>
    147c:	00000386 	0x386
    1480:	54001ed0 	bnezl	zero,8fc4 <_init-0x53ff703c>
    1484:	54001f2c 	bnezl	zero,9138 <_init-0x53ff6ec8>
    1488:	00039713 	0x39713
    148c:	03a21300 	0x3a21300
    1490:	00000000 	nop
    1494:	01b00408 	0x1b00408
    1498:	ed070000 	swc3	$7,0(t0)
    149c:	14000002 	bnez	zero,14a8 <_init-0x53ffeb58>
    14a0:	000003b8 	0x3b8
    14a4:	000008e7 	0x8e7
    14a8:	56013201 	bnel	s0,at,dcb0 <_init-0x53ff2350>
    14ac:	01000000 	0x1000000
    14b0:	00043415 	0x43415
    14b4:	14310100 	bne	at,s1,18b8 <_init-0x53ffe748>
    14b8:	15000002 	bnez	t0,14c4 <_init-0x53ffeb3c>
    14bc:	0000091d 	0x91d
    14c0:	01d63101 	0x1d63101
    14c4:	3e160000 	0x3e160000
    14c8:	c8000003 	lwc2	$0,3(zero)
    14cc:	01000003 	0x1000003
    14d0:	03c80c00 	0x3c80c00
    14d4:	00920000 	0x920000
    14d8:	330d0000 	andi	t5,t8,0x0
    14dc:	0c000000 	jal	0 <_init-0x54000000>
    14e0:	03b80700 	0x3b80700
    14e4:	01170000 	0x1170000
    14e8:	00000899 	0x899
    14ec:	56018901 	bnel	s0,at,fffe38f4 <dlook+0xabfce290>
    14f0:	74000000 	jalx	0 <_init-0x54000000>
    14f4:	7c540020 	0x7c540020
    14f8:	01540020 	add	zero,t2,s4
    14fc:	01df186d 	0x1df186d
    1500:	a9050000 	swl	a1,0(t0)
    1504:	0000009d 	0x9d
    1508:	50030501 	beql	zero,v1,2910 <_init-0x53ffd6f0>
    150c:	18540156 	0x18540156
    1510:	00000269 	0x269
    1514:	00c4b505 	0xc4b505
    1518:	05010000 	bgez	t0,151c <_init-0x53ffeae4>
    151c:	01565403 	0x1565403
    1520:	04180c54 	0x4180c54
    1524:	02840000 	0x2840000
    1528:	330d0000 	andi	t5,t8,0x0
    152c:	05000000 	bltz	t0,1530 <_init-0x53ffead0>
    1530:	08da1800 	j	3686000 <_init-0x5097a000>
    1534:	25010000 	addiu	at,t0,0
    1538:	00000408 	jr.hb	zero
    153c:	44030501 	0x44030501
    1540:	005400a0 	0x5400a0
Disassembly of section .debug_line:

00000000 <.debug_line>:
   0:	00000648 	0x648
   4:	013f0002 	0x13f0002
   8:	01010000 	0x1010000
   c:	000a0efb 	0xa0efb
  10:	01010101 	0x1010101
  14:	01000000 	0x1000000
  18:	2e2e2f2e 	sltiu	t6,s1,12078
  1c:	2f2e2e2f 	sltiu	t6,t9,11823
  20:	702f2e2e 	0x702f2e2e
  24:	725f7073 	0x725f7073
  28:	692f6c65 	0x692f6c65
  2c:	756c636e 	jalx	5b18db8 <_init-0x4e4e7248>
  30:	752f6564 	jalx	4bd9590 <_init-0x4f426a70>
  34:	2f736f63 	sltiu	s3,k1,28515
  38:	6c2f2e2e 	0x6c2f2e2e
  3c:	00636269 	0x636269
  40:	2e2e2f2e 	sltiu	t6,s1,12078
  44:	2f2e2e2f 	sltiu	t6,t9,11823
  48:	632f2e2e 	0x632f2e2e
  4c:	2f657361 	sltiu	a1,k1,29537
  50:	6c636e69 	0x6c636e69
  54:	00656475 	0x656475
  58:	2e2e2f2e 	sltiu	t6,s1,12078
  5c:	2f2e2e2f 	sltiu	t6,t9,11823
  60:	702f2e2e 	0x702f2e2e
  64:	725f7073 	0x725f7073
  68:	692f6c65 	0x692f6c65
  6c:	756c636e 	jalx	5b18db8 <_init-0x4e4e7248>
  70:	2e006564 	sltiu	zero,s0,25956
  74:	2f2e2e2f 	sltiu	t6,t9,11823
  78:	2e2f2e2e 	sltiu	t7,s1,11822
  7c:	61632f2e 	0x61632f2e
  80:	692f6573 	0x692f6573
  84:	756c636e 	jalx	5b18db8 <_init-0x4e4e7248>
  88:	612f6564 	0x612f6564
  8c:	696c7070 	0x696c7070
  90:	2f2e0062 	sltiu	t6,t9,98
  94:	2e2f2e2e 	sltiu	t7,s1,11822
  98:	2e2e2f2e 	sltiu	t6,s1,12078
  9c:	7073702f 	0x7073702f
  a0:	6c65725f 	0x6c65725f
  a4:	636e692f 	0x636e692f
  a8:	6564756c 	0x6564756c
  ac:	6975672f 	0x6975672f
  b0:	2e2f2e00 	sltiu	t7,s1,11776
  b4:	2e2e2f2e 	sltiu	t6,s1,12078
  b8:	2f2e2e2f 	sltiu	t6,t9,11823
  bc:	5f707370 	0x5f707370
  c0:	2f6c6572 	sltiu	t4,k1,25970
  c4:	6c636e69 	0x6c636e69
  c8:	2f656475 	sltiu	a1,k1,25717
  cc:	6362696c 	0x6362696c
  d0:	7379732f 	0x7379732f
  d4:	75660000 	jalx	5980000 <_init-0x4e680000>
  d8:	6e6f6973 	0x6e6f6973
  dc:	0000632e 	0x632e
  e0:	79740000 	0x79740000
  e4:	2e736570 	sltiu	s3,s3,25968
  e8:	00010068 	0x10068
  ec:	73756600 	0x73756600
  f0:	2e6e6f69 	sltiu	t6,s3,28521
  f4:	00020068 	0x20068
  f8:	61727400 	0x61727400
  fc:	6d69736e 	0x6d69736e
 100:	2e656761 	sltiu	a1,s3,26465
 104:	00030068 	0x30068
 108:	2e626600 	sltiu	v0,s3,26112
 10c:	00030068 	0x30068
 110:	79747300 	0x79747300
 114:	645f656c 	0x645f656c
 118:	00682e63 	0x682e63
 11c:	67000004 	0x67000004
 120:	695f6975 	0x695f6975
 124:	682e636e 	0x682e636e
 128:	00000500 	sll	zero,zero,0x14
 12c:	2e637472 	sltiu	v1,s3,29810
 130:	00030068 	0x30068
 134:	70797400 	0x70797400
 138:	682e7365 	0x682e7365
 13c:	00000600 	sll	zero,zero,0x18
 140:	682e6d70 	0x682e6d70
 144:	00000300 	sll	zero,zero,0xc
 148:	02050000 	0x2050000
 14c:	54000020 	bnezl	zero,1d0 <_init-0x53fffe30>
 150:	0101aa03 	0x101aa03
 154:	7d112402 	0x7d112402
 158:	037f8549 	0x37f8549
 15c:	42bc7f63 	c0	0xbc7f63
 160:	804c424c 	lb	t4,16972(v0)
 164:	b7b94948 	0xb7b94948
 168:	19034880 	0x19034880
 16c:	b786477f 	0xb786477f
 170:	02740386 	0x2740386
 174:	eff4012c 	swc3	$20,300(ra)
 178:	10400281 	beqz	v0,b80 <_init-0x53fff480>
 17c:	0263034b 	0x263034b
 180:	0347012c 	0x347012c
 184:	c3037f0f 	ll	v1,32527(t8)
 188:	034d7f02 	0x34d7f02
 18c:	0387477a 	0x387477a
 190:	b8bfef78 	swr	ra,-4232(a1)
 194:	4748b985 	c1	0x148b985
 198:	47790386 	c1	0x1790386
 19c:	03857f86 	0x3857f86
 1a0:	12037f70 	beq	s0,v1,1ff64 <_init-0x53fe009c>
 1a4:	380881ef 	xori	t0,zero,0x81ef
 1a8:	7f710348 	0x7f710348
 1ac:	08162c02 	j	58b008 <_init-0x53a74ff8>
 1b0:	034d803a 	0x34d803a
 1b4:	03a90878 	0x3a90878
 1b8:	01300270 	tge	t1,s0,0x9
 1bc:	40021203 	0x40021203
 1c0:	7f350301 	0x7f350301
 1c4:	804b3908 	lb	t3,14600(v0)
 1c8:	454e4346 	0x454e4346
 1cc:	be85b883 	cache	0x5,-18301(s4)
 1d0:	4a484844 	c2	0x484844
 1d4:	48484842 	0x48484842
 1d8:	4beb8749 	c2	0x1eb8749
 1dc:	817f6603 	lb	ra,26115(t3)
 1e0:	150381b8 	bne	t0,v1,fffe08c4 <dlook+0xabfcb260>
 1e4:	03014002 	0x3014002
 1e8:	1403ef6c 	bne	zero,v1,ffffbf9c <dlook+0xabfe6938>
 1ec:	7f710347 	0x7f710347
 1f0:	03ef1503 	0x3ef1503
 1f4:	03b77fb0 	tge	sp,s7,0x1fe
 1f8:	034700d0 	0x34700d0
 1fc:	03ef7fb0 	tge	ra,t7,0x1fe
 200:	03b700d0 	0x3b700d0
 204:	80b77fb0 	lb	s7,32688(a1)
 208:	f087f086 	0xf087f086
 20c:	0386f087 	0x386f087
 210:	a9087f35 	swl	t0,32565(t0)
 214:	0c03a908 	jal	ea420 <_init-0x53f15be0>
 218:	86f27108 	lh	s2,28936(s7)
 21c:	7f090347 	0x7f090347
 220:	b8f0bc7f 	swr	s0,-17281(a3)
 224:	48f2f083 	mthc2	s2,0xf083
 228:	48494846 	0x48494846
 22c:	28024e03 	slti	v0,zero,19971
 230:	7f090301 	0x7f090301
 234:	03472903 	0x3472903
 238:	28027efa 	slti	v0,zero,32506
 23c:	02110301 	0x2110301
 240:	09030148 	j	40c0520 <_init-0x4ff3fae0>
 244:	03012c02 	0x3012c02
 248:	0150026e 	0x150026e
 24c:	0200e403 	0x200e403
 250:	b8f00130 	swr	s0,304(a3)
 254:	710346bf 	sdbbp	0x40d1a
 258:	487d487f 	mfhc2	sp,0x487f
 25c:	1e03804e 	0x1e03804e
 260:	b84680b7 	swr	a2,-32585(v0)
 264:	857d4a7e 	lh	sp,19070(t3)
 268:	46484680 	c1	0x484680
 26c:	0879034a 	j	1e40d28 <_init-0x521bf2d8>
 270:	4b7c83a9 	c2	0x17c83a9
 274:	46484a43 	c1	0x484a43
 278:	49b1084a 	0x49b1084a
 27c:	beb54945 	cache	0x15,18757(s5)
 280:	7d498442 	0x7d498442
 284:	85390885 	lh	t9,2181(t1)
 288:	49488447 	0x49488447
 28c:	034b4645 	0x34b4645
 290:	47a90866 	c1	0x1a90866
 294:	817d4984 	lb	sp,18820(t3)
 298:	b70b0380 	0xb70b0380
 29c:	45494882 	0x45494882
 2a0:	7f0c0346 	0x7f0c0346
 2a4:	b7b94549 	0xb7b94549
 2a8:	85390884 	lh	t9,2180(t1)
 2ac:	494848bc 	0x494848bc
 2b0:	034a4843 	0x34a4843
 2b4:	bb807f0a 	swr	zero,32522(gp)
 2b8:	79034a48 	0x79034a48
 2bc:	44484a7f 	0x44484a7f
 2c0:	03484e48 	0x3484e48
 2c4:	47710856 	c1	0x1710856
 2c8:	087f2a03 	j	1fca80c <_init-0x520357f4>
 2cc:	476f036e 	c1	0x16f036e
 2d0:	48484848 	0x48484848
 2d4:	49470d03 	0x49470d03
 2d8:	48476d03 	0x48476d03
 2dc:	03484848 	0x3484848
 2e0:	03827f73 	tltu	gp,v0,0x1fd
 2e4:	a8087f0f 	swl	t0,32527(zero)
 2e8:	36033a08 	ori	v1,s0,0x3a08
 2ec:	837bbb7f 	lb	k1,-17537(k1)
 2f0:	86847abd 	lh	a0,31421(s4)
 2f4:	817f7903 	lb	ra,30979(t3)
 2f8:	08162c02 	j	58b008 <_init-0x53a74ff8>
 2fc:	7a03863a 	0x7a03863a
 300:	76034db7 	jalx	80d36dc <_init-0x4bf2c924>
 304:	03817f7f 	0x3817f7f
 308:	01300274 	teq	t1,s0,0x9
 30c:	40021403 	0x40021403
 310:	81487c01 	lb	t0,31745(t2)
 314:	ad0348b6 	sw	v1,18614(t0)
 318:	46487f01 	c1	0x487f01
 31c:	7f102802 	0x7f102802
 320:	46484881 	c1	0x484881
 324:	7ed80348 	0x7ed80348
 328:	477a0347 	c1	0x17a0347
 32c:	09034c48 	j	40d3120 <_init-0x4ff2cee0>
 330:	8503e108 	lh	v1,-7928(t0)
 334:	47bd4701 	c1	0x1bd4701
 338:	03484587 	0x3484587
 33c:	d5034710 	ldc1	$f3,18192(t0)
 340:	0130027e 	0x130027e
 344:	7f0e0347 	0x7f0e0347
 348:	79cf037f 	0x79cf037f
 34c:	05d6037f 	0x5d6037f
 350:	02854a7f 	0x2854a7f
 354:	2802162c 	slti	v0,zero,5676
 358:	0386b70f 	0x386b70f
 35c:	01280209 	0x1280209
 360:	7a8d0348 	0x7a8d0348
 364:	b2034947 	0xb2034947
 368:	434a7f06 	c0	0x14a7f06
 36c:	4b434949 	c2	0x1434949
 370:	037f1203 	0x37f1203
 374:	827f00d4 	lb	ra,212(s3)
 378:	72088547 	0x72088547
 37c:	038784f0 	tge	gp,a3,0x213
 380:	6c037f15 	0x6c037f15
 384:	48454c47 	0x48454c47
 388:	03471003 	0x3471003
 38c:	01300265 	0x1300265
 390:	7f9b0380 	ext	k1,gp,0xe,0x1
 394:	037ff17f 	0x37ff17f
 398:	240279ba 	li	v0,31162
 39c:	8184b801 	lb	a0,-18431(t4)
 3a0:	08220347 	j	880d1c <_init-0x5377f2e4>
 3a4:	03f64be1 	0x3f64be1
 3a8:	037f05f8 	0x37f05f8
 3ac:	847f7fa7 	lh	ra,32679(v1)
 3b0:	03471303 	0x3471303
 3b4:	477f019d 	c1	0x17f019d
 3b8:	037f0903 	0x37f0903
 3bc:	6503ef14 	0x6503ef14
 3c0:	7903867f 	0x7903867f
 3c4:	14038647 	bne	zero,v1,fffe1ce4 <dlook+0xabfcc680>
 3c8:	7ebc037f 	0x7ebc037f
 3cc:	034c847f 	0x34c847f
 3d0:	087f7ab3 	j	1fdeacc <_init-0x52021534>
 3d4:	4573083b 	0x4573083b
 3d8:	0f03eb49 	jal	c0fad24 <_init-0x47f052dc>
 3dc:	bb033908 	swr	v1,14600(t8)
 3e0:	1c037f06 	0x1c037f06
 3e4:	b70d0347 	0xb70d0347
 3e8:	03ef1403 	0x3ef1403
 3ec:	037f7fbf 	0x37f7fbf
 3f0:	ab034720 	swl	v1,18208(t8)
 3f4:	7c4fef7a 	0x7c4fef7a
 3f8:	444b434a 	0x444b434a
 3fc:	b774034a 	0xb774034a
 400:	85470d03 	lh	a3,3331(t2)
 404:	03853a08 	0x3853a08
 408:	0239081b 	0x239081b
 40c:	08f51224 	j	3d44890 <_init-0x502bb770>
 410:	7f57033e 	0x7f57033e
 414:	46424cf3 	c1	0x424cf3
 418:	7f4a4849 	0x7f4a4849
 41c:	037f0c03 	0x37f0c03
 420:	034d477a 	0x34d477a
 424:	4848477a 	0x4848477a
 428:	03814a48 	0x3814a48
 42c:	a90804f4 	swl	t0,1268(t0)
 430:	03473403 	0x3473403
 434:	b880ef44 	swr	zero,-4284(a0)
 438:	80e2087f 	lb	v0,2175(a3)
 43c:	03464846 	rorv	t1,a2,k0
 440:	034700c6 	0x34700c6
 444:	47477fbb 	c1	0x1477fbb
 448:	7f00c503 	0x7f00c503
 44c:	037f1403 	0x37f1403
 450:	457f79df 	0x457f79df
 454:	7803b749 	0x7803b749
 458:	470903b7 	c1	0x10903b7
 45c:	08090385 	j	240e14 <_init-0x53dbf1ec>
 460:	f63c0871 	sdc1	$f28,2161(s1)
 464:	67033f08 	0x67033f08
 468:	4846f27f 	0x4846f27f
 46c:	01af0381 	0x1af0381
 470:	48447108 	0x48447108
 474:	b7494c42 	0xb7494c42
 478:	090385b8 	j	40e16e0 <_init-0x4ff1e920>
 47c:	7408a908 	jalx	22a420 <_init-0x53dd5be0>
 480:	033f08f6 	tne	t9,ra,0x23
 484:	3c087f67 	lui	t0,0x7f67
 488:	03814846 	rorv	t1,at,gp
 48c:	39080491 	xori	t0,t0,0x491
 490:	03472803 	0x3472803
 494:	1803ef68 	0x1803ef68
 498:	ef780347 	swc3	$24,839(k1)
 49c:	ef70034f 	swc3	$16,847(k1)
 4a0:	03471003 	0x3471003
 4a4:	1403ef6c 	bne	zero,v1,ffffc258 <dlook+0xabfe6bf4>
 4a8:	034beb47 	0x34beb47
 4ac:	4fef7be6 	madd.ps	$f15,$f31,$f15,$f15
 4b0:	79034a48 	0x79034a48
 4b4:	47770347 	c1	0x1770347
 4b8:	470a0348 	c1	0x10a0348
 4bc:	3a08864c 	xori	t0,s0,0x864c
 4c0:	ef090385 	swc3	$9,901(t8)
 4c4:	03477903 	0x3477903
 4c8:	f5817f0b 	sdc1	$f1,32523(t4)
 4cc:	66033e08 	0x66033e08
 4d0:	1c03b77f 	0x1c03b77f
 4d4:	49464b7f 	0x49464b7f
 4d8:	7fbf0381 	0x7fbf0381
 4dc:	04ab037f 	tltiu	a1,895
 4e0:	ef140347 	swc3	$20,839(t8)
 4e4:	037f5f03 	0x37f5f03
 4e8:	39087fae 	xori	t0,t0,0x7fae
 4ec:	80804780 	lb	zero,18304(a0)
 4f0:	4779034e 	c1	0x179034e
 4f4:	76084648 	jalx	8211920 <_init-0x4bdee6e0>
 4f8:	477a0349 	c1	0x17a0349
 4fc:	4778034f 	c1	0x178034f
 500:	47780387 	c1	0x1780387
 504:	7803424f 	0x7803424f
 508:	470d0347 	c1	0x10d0347
 50c:	47790345 	c1	0x1790345
 510:	7f9d0348 	0x7f9d0348
 514:	8481847f 	lh	at,-31617(a0)
 518:	03470c03 	0x3470c03
 51c:	7a847f68 	0x7a847f68
 520:	7aaf0384 	0x7aaf0384
 524:	7f0d037f 	0x7f0d037f
 528:	e3083b08 	sc	t0,15112(t8)
 52c:	03eb4945 	0x3eb4945
 530:	03390819 	multu	$ac1,t9,t9
 534:	bb7f06ed 	swr	ra,1773(k1)
 538:	7f78ec03 	0x7f78ec03
 53c:	b5ab08f1 	0xb5ab08f1
 540:	2303eb49 	addi	v1,t8,-5303
 544:	038081ef 	0x38081ef
 548:	84b705aa 	lh	s7,1450(a1)
 54c:	7abcf67a 	0x7abcf67a
 550:	7a9c0384 	0x7a9c0384
 554:	06aa037f 	tlti	s5,895
 558:	03013c02 	0x3013c02
 55c:	037f7cb5 	0x37f7cb5
 560:	03b704a3 	0x3b704a3
 564:	037f7aed 	0x37f7aed
 568:	6e037f2d 	0x6e037f2d
 56c:	f5e4087f 	sdc1	$f4,2175(t7)
 570:	57033e08 	bnel	t8,v1,fd94 <_init-0x53ff026c>
 574:	4585b77f 	0x4585b77f
 578:	7a034d46 	0x7a034d46
 57c:	48484847 	0x48484847
 580:	0b037f4a 	j	c0dfd28 <_init-0x47f202d8>
 584:	464b447f 	c1	0x4b447f
 588:	477a0348 	c1	0x17a0348
 58c:	4a484848 	c2	0x484848
 590:	08160381 	j	580e04 <_init-0x53a7f1fc>
 594:	f47f4871 	sdc1	$f31,18545(v1)
 598:	81828182 	lb	v0,-32382(t4)
 59c:	7efa0382 	0x7efa0382
 5a0:	01860347 	0x1860347
 5a4:	e1034647 	sc	v1,17991(t0)
 5a8:	14034704 	bne	zero,v1,121bc <_init-0x53fede44>
 5ac:	7bd303ef 	0x7bd303ef
 5b0:	487d497f 	mfhc2	sp,0x497f
 5b4:	037f2203 	0x37f2203
 5b8:	01400209 	0x1400209
 5bc:	037f7103 	0x37f7103
 5c0:	01300246 	0x1300246
 5c4:	03103c02 	0x3103c02
 5c8:	03b704a8 	0x3b704a8
 5cc:	037f7bd0 	0x37f7bd0
 5d0:	30027ecc 	andi	v0,zero,0x7ecc
 5d4:	02790301 	0x2790301
 5d8:	78080138 	0x78080138
 5dc:	f6477903 	sdc1	$f7,30979(s2)
 5e0:	b701a203 	0xb701a203
 5e4:	40021a03 	0x40021a03
 5e8:	7ef40301 	0x7ef40301
 5ec:	00c7037f 	0xc7037f
 5f0:	03012c02 	0x3012c02
 5f4:	a9087ef0 	swl	t0,32496(t0)
 5f8:	0201bb03 	0x201bb03
 5fc:	a9030134 	swl	v1,308(t0)
 600:	7a03ef7f 	0x7a03ef7f
 604:	03013002 	0x3013002
 608:	01300255 	0x1300255
 60c:	0200f703 	0x200f703
 610:	fa030140 	sdc2	$3,320(s0)
 614:	8603477e 	lh	v1,18302(s0)
 618:	03464701 	0x3464701
 61c:	7a037f67 	0x7a037f67
 620:	03013002 	0x3013002
 624:	01300210 	0x1300210
 628:	0200df03 	0x200df03
 62c:	fc03012c 	sdc3	$3,300(zero)
 630:	0130027e 	0x130027e
 634:	30024503 	andi	v0,zero,0x4503
 638:	06980301 	0x6980301
 63c:	46013002 	mul.s	$f0,$f6,$f1
 640:	81484648 	lb	t0,17992(t2)
 644:	02ef0b03 	0x2ef0b03
 648:	01010008 	0x1010008
 64c:	00000166 	0x166
 650:	00d40002 	0xd40002
 654:	01010000 	0x1010000
 658:	000a0efb 	0xa0efb
 65c:	01010101 	0x1010101
 660:	01000000 	0x1000000
 664:	2e2e2f2e 	sltiu	t6,s1,12078
 668:	2f2e2e2f 	sltiu	t6,t9,11823
 66c:	702f2e2e 	0x702f2e2e
 670:	725f7073 	0x725f7073
 674:	692f6c65 	0x692f6c65
 678:	756c636e 	jalx	5b18db8 <_init-0x4e4e7248>
 67c:	752f6564 	jalx	4bd9590 <_init-0x4f426a70>
 680:	2f736f63 	sltiu	s3,k1,28515
 684:	6c2f2e2e 	0x6c2f2e2e
 688:	00636269 	0x636269
 68c:	2e2e2f2e 	sltiu	t6,s1,12078
 690:	2f2e2e2f 	sltiu	t6,t9,11823
 694:	632f2e2e 	0x632f2e2e
 698:	2f657361 	sltiu	a1,k1,29537
 69c:	6c636e69 	0x6c636e69
 6a0:	00656475 	0x656475
 6a4:	2e2e2f2e 	sltiu	t6,s1,12078
 6a8:	2f2e2e2f 	sltiu	t6,t9,11823
 6ac:	702f2e2e 	0x702f2e2e
 6b0:	725f7073 	0x725f7073
 6b4:	692f6c65 	0x692f6c65
 6b8:	756c636e 	jalx	5b18db8 <_init-0x4e4e7248>
 6bc:	2e006564 	sltiu	zero,s0,25956
 6c0:	2f2e2e2f 	sltiu	t6,t9,11823
 6c4:	2e2f2e2e 	sltiu	t7,s1,11822
 6c8:	73702f2e 	0x73702f2e
 6cc:	65725f70 	0x65725f70
 6d0:	6e692f6c 	0x6e692f6c
 6d4:	64756c63 	0x64756c63
 6d8:	696c2f65 	0x696c2f65
 6dc:	732f6362 	0x732f6362
 6e0:	00007379 	0x7379
 6e4:	69737566 	0x69737566
 6e8:	635f6e6f 	0x635f6e6f
 6ec:	69666e6f 	0x69666e6f
 6f0:	00632e67 	0x632e67
 6f4:	74000000 	jalx	0 <_init-0x54000000>
 6f8:	73657079 	0x73657079
 6fc:	0100682e 	0x100682e
 700:	75660000 	jalx	5980000 <_init-0x4e680000>
 704:	6e6f6973 	0x6e6f6973
 708:	0200682e 	0x200682e
 70c:	72740000 	madd	s3,s4
 710:	69736e61 	0x69736e61
 714:	6567616d 	0x6567616d
 718:	0300682e 	0x300682e
 71c:	79740000 	0x79740000
 720:	2e736570 	sltiu	s3,s3,25968
 724:	00040068 	0x40068
 728:	05000000 	bltz	t0,72c <_init-0x53fff8d4>
 72c:	001cd402 	srl	k0,gp,0x10
 730:	00c80354 	0xc80354
 734:	4846b801 	0x4846b801
 738:	ef7e4846 	swc3	$30,18502(k1)
 73c:	79038648 	0x79038648
 740:	03823908 	0x3823908
 744:	014c0211 	0x14c0211
 748:	71087003 	0x71087003
 74c:	03471003 	0x3471003
 750:	44827f73 	0x44827f73
 754:	08824782 	j	2091e08 <_init-0x51f6e1f8>
 758:	4782443c 	c1	0x182443c
 75c:	48700883 	mfhc2	s0,0x883
 760:	4a44ba83 	c2	0x44ba83
 764:	ef7c4a44 	swc3	$28,19012(k1)
 768:	023c084a 	0x23c084a
 76c:	1d03104c 	0x1d03104c
 770:	7fad0347 	0x7fad0347
 774:	85012402 	lh	at,9218(t0)
 778:	850f2c02 	lh	t7,11266(t0)
 77c:	e1082f03 	sc	t0,12035(t0)
 780:	b6484682 	0xb6484682
 784:	7f0a034f 	0x7f0a034f
 788:	46804680 	c1	0x804680
 78c:	46804648 	c1	0x804648
 790:	03484948 	0x3484948
 794:	24027faf 	li	v0,32687
 798:	02390301 	0x2390301
 79c:	08860148 	j	2180520 <_init-0x51e7fae0>
 7a0:	8087ef71 	lb	a3,-4239(a0)
 7a4:	470a0345 	c1	0x10a0345
 7a8:	24027203 	li	v0,29187
 7ac:	14037e01 	bne	zero,v1,1ffb4 <_init-0x53fe004c>
 7b0:	0008027f 	0x8027f
 7b4:	Address 0x7b4 is out of bounds.

Disassembly of section .debug_frame:

00000000 <.debug_frame>:
   0:	0000000c 	syscall
   4:	ffffffff 	sdc3	$31,-1(ra)
   8:	04010001 	b	10 <_init-0x53fffff0>
   c:	001d0c1f 	0x1d0c1f
  10:	00000028 	0x28
  14:	00000000 	nop
  18:	54000020 	bnezl	zero,9c <_init-0x53ffff64>
  1c:	00000198 	0x198
  20:	60380e44 	0x60380e44
  24:	11781011 	beq	t3,t8,406c <_init-0x53ffbf94>
  28:	12117911 	beq	s0,s1,1e470 <_init-0x53fe1b90>
  2c:	7b13117a 	0x7b13117a
  30:	117c1411 	beq	t3,gp,5078 <_init-0x53ffaf88>
  34:	15117f1f 	bne	t0,s1,1fcb4 <_init-0x53fe034c>
  38:	7e16117d 	0x7e16117d
  3c:	00000020 	add	zero,zero,zero
  40:	00000000 	nop
  44:	540001b8 	bnezl	zero,728 <_init-0x53fff8d8>
  48:	00000198 	0x198
  4c:	48300e44 	0x48300e44
  50:	607c1211 	0x607c1211
  54:	117b1111 	beq	t3,k1,449c <_init-0x53ffbb64>
  58:	10117e1f 	beq	zero,s1,1f8d8 <_init-0x53fe0728>
  5c:	7d13117a 	0x7d13117a
  60:	0000001c 	0x1c
  64:	00000000 	nop
  68:	54000350 	bnezl	zero,dac <_init-0x53fff254>
  6c:	00000128 	0x128
  70:	50400e44 	beqzl	v0,3984 <_init-0x53ffc67c>
  74:	117f1f11 	beq	t3,ra,7cbc <_init-0x53ff8344>
  78:	11117c10 	beq	t0,s1,1f0bc <_init-0x53fe0f44>
  7c:	7e12117d 	0x7e12117d
  80:	00000028 	0x28
  84:	00000000 	nop
  88:	54000478 	bnezl	zero,126c <_init-0x53ffed94>
  8c:	00000324 	0x324
  90:	44500e44 	0x44500e44
  94:	507c1411 	beql	v1,gp,50dc <_init-0x53ffaf24>
  98:	117b1311 	beq	t3,k1,4ce0 <_init-0x53ffb320>
  9c:	11607d15 	beqz	t3,1f4f4 <_init-0x53fe0b0c>
  a0:	12117810 	beq	s0,s1,1e0e4 <_init-0x53fe1f1c>
  a4:	7e1f117a 	0x7e1f117a
  a8:	00791111 	0x791111
  ac:	00000020 	add	zero,zero,zero
  b0:	00000000 	nop
  b4:	5400079c 	bnezl	zero,1f28 <_init-0x53ffe0d8>
  b8:	000000ac 	0xac
  bc:	44200e44 	0x44200e44
  c0:	507e1211 	beql	v1,s8,4908 <_init-0x53ffb6f8>
  c4:	117f1f11 	beq	t3,ra,7d0c <_init-0x53ff82f4>
  c8:	11117c10 	beq	t0,s1,1f10c <_init-0x53fe0ef4>
  cc:	0000007d 	0x7d
  d0:	00000020 	add	zero,zero,zero
  d4:	00000000 	nop
  d8:	54000848 	bnezl	zero,21fc <_init-0x53ffde04>
  dc:	000000f0 	tge	zero,zero,0x3
  e0:	48200e44 	0x48200e44
  e4:	587d1111 	0x587d1111
  e8:	117f1f11 	beq	t3,ra,7d30 <_init-0x53ff82d0>
  ec:	12117c10 	beq	s0,s1,1f130 <_init-0x53fe0ed0>
  f0:	0000007e 	0x7e
  f4:	0000001c 	0x1c
  f8:	00000000 	nop
  fc:	54000938 	bnezl	zero,25e0 <_init-0x53ffda20>
 100:	00000168 	0x168
 104:	50200e44 	beqzl	at,3a18 <_init-0x53ffc5e8>
 108:	117e1f11 	beq	t3,s8,7d50 <_init-0x53ff82b0>
 10c:	11117c10 	beq	t0,s1,1f150 <_init-0x53fe0eb0>
 110:	0000007d 	0x7d
 114:	0000001c 	0x1c
 118:	00000000 	nop
 11c:	54000aa0 	bnezl	zero,2ba0 <_init-0x53ffd460>
 120:	0000015c 	0x15c
 124:	44500e44 	0x44500e44
 128:	547c1011 	bnel	v1,gp,4170 <_init-0x53ffbe90>
 12c:	117e1f11 	beq	t3,s8,7d74 <_init-0x53ff828c>
 130:	00007d11 	0x7d11
 134:	00000030 	tge	zero,zero
 138:	00000000 	nop
 13c:	54000bfc 	bnezl	zero,3130 <_init-0x53ffced0>
 140:	000010a8 	0x10a8
 144:	6c580e44 	0x6c580e44
 148:	11761011 	beq	t3,s6,4190 <_init-0x53ffbe70>
 14c:	13117812 	beq	t8,s1,1e198 <_init-0x53fe1e68>
 150:	7a141179 	0x7a141179
 154:	117b1511 	beq	t3,k1,559c <_init-0x53ffaa64>
 158:	1e117c16 	0x1e117c16
 15c:	7f1f117e 	0x7f1f117e
 160:	11771111 	beq	t3,s7,45a8 <_init-0x53ffba58>
 164:	00007d17 	0x7d17
 168:	00000014 	0x14
 16c:	00000000 	nop
 170:	54001ca4 	bnezl	zero,7404 <_init-0x53ff8bfc>
 174:	00000028 	0x28
 178:	48180e48 	0x48180e48
 17c:	007e1f11 	0x7e1f11
 180:	0000000c 	syscall
 184:	00000000 	nop
 188:	54001ccc 	bnezl	zero,74bc <_init-0x53ff8b44>
 18c:	00000008 	jr	zero
 190:	0000000c 	syscall
 194:	ffffffff 	sdc3	$31,-1(ra)
 198:	04010001 	b	1a0 <_init-0x53fffe60>
 19c:	001d0c1f 	0x1d0c1f
 1a0:	00000024 	and	zero,zero,zero
 1a4:	00000190 	0x190
 1a8:	54001cd4 	bnezl	zero,74fc <_init-0x53ff8b04>
 1ac:	0000013c 	0x13c
 1b0:	44400e44 	0x44400e44
 1b4:	4c7c1211 	0x4c7c1211
 1b8:	607b1111 	0x607b1111
 1bc:	117a1011 	beq	t3,k0,4204 <_init-0x53ffbdfc>
 1c0:	1f117e14 	0x1f117e14
 1c4:	7d13117f 	0x7d13117f
 1c8:	00000024 	and	zero,zero,zero
 1cc:	00000190 	0x190
 1d0:	54001e10 	bnezl	zero,7a14 <_init-0x53ff85ec>
 1d4:	00000264 	0x264
 1d8:	44480e44 	0x44480e44
 1dc:	4c7d1311 	0x4c7d1311
 1e0:	607b1111 	0x607b1111
 1e4:	117a1011 	beq	t3,k0,422c <_init-0x53ffbdd4>
 1e8:	1f117e14 	0x1f117e14
 1ec:	7c12117f 	0x7c12117f
 1f0:	0000000c 	syscall
 1f4:	00000190 	0x190
 1f8:	54002074 	bnezl	zero,83cc <_init-0x53ff7c34>
 1fc:	00000008 	jr	zero
Disassembly of section .debug_pubnames:

00000000 <.debug_pubnames>:
   0:	000000da 	0xda
   4:	00000002 	srl	zero,zero,0x0
   8:	11190000 	beq	t0,t9,c <_init-0x53fffff4>
   c:	0a660000 	j	9980000 <_init-0x4a680000>
  10:	75660000 	jalx	5980000 <_init-0x4e680000>
  14:	6e6f6973 	0x6e6f6973
  18:	7465735f 	jalx	195cd7c <_init-0x526a3284>
  1c:	6666655f 	0x6666655f
  20:	00746365 	0x746365
  24:	00000a97 	0xa97
  28:	69737566 	0x69737566
  2c:	735f6e6f 	0x735f6e6f
  30:	665f7465 	0x665f7465
  34:	74737269 	jalx	1cdc9a4 <_init-0x5232365c>
  38:	6172665f 	0x6172665f
  3c:	c200656d 	ll	zero,25965(s0)
  40:	6600000a 	0x6600000a
  44:	6f697375 	0x6f697375
  48:	65735f6e 	0x65735f6e
  4c:	616c5f74 	0x616c5f74
  50:	665f7473 	0x665f7473
  54:	656d6172 	0x656d6172
  58:	000aed00 	sll	sp,t2,0x14
  5c:	65675f00 	0x65675f00
  60:	74725f74 	jalx	1c97dd0 <_init-0x52368230>
  64:	74735f63 	jalx	1cd7d8c <_init-0x52328274>
  68:	63657364 	0x63657364
  6c:	000b5f00 	sll	t3,t3,0x1c
  70:	73756600 	0x73756600
  74:	5f6e6f69 	0x5f6e6f69
  78:	70736964 	0x70736964
  7c:	0079616c 	0x79616c
  80:	00001048 	0x1048
  84:	69737566 	0x69737566
  88:	615f6e6f 	0x615f6e6f
  8c:	695f6970 	0x695f6970
  90:	0074696e 	0x74696e
  94:	00001060 	0x1060
  98:	69737566 	0x69737566
  9c:	615f6e6f 	0x615f6e6f
  a0:	655f6970 	0x655f6970
  a4:	00746978 	0x746978
  a8:	00001074 	teq	zero,zero,0x41
  ac:	72687470 	0x72687470
  b0:	5f646165 	0x5f646165
  b4:	6574756d 	0x6574756d
  b8:	79745f78 	0x79745f78
  bc:	745f6570 	jalx	17d95c0 <_init-0x52826a40>
  c0:	00108600 	sll	s0,s0,0x18
  c4:	68747000 	0x68747000
  c8:	64616572 	0x64616572
  cc:	6168735f 	0x6168735f
  d0:	745f6572 	jalx	17d95c8 <_init-0x52826a38>
  d4:	5f657079 	0x5f657079
  d8:	00000074 	teq	zero,zero,0x1
  dc:	00960000 	0x960000
  e0:	00020000 	sll	zero,v0,0x0
  e4:	00001119 	0x1119
  e8:	0000042b 	0x42b
  ec:	0000028f 	0x28f
  f0:	69737566 	0x69737566
  f4:	735f6e6f 	0x735f6e6f
  f8:	635f7465 	0x635f7465
  fc:	69666e6f 	0x69666e6f
 100:	03020067 	0x3020067
 104:	75660000 	jalx	5980000 <_init-0x4e680000>
 108:	6e6f6973 	0x6e6f6973
 10c:	7465675f 	jalx	1959d7c <_init-0x526a6284>
 110:	6e6f635f 	0x6e6f635f
 114:	00676966 	0x676966
 118:	000003cd 	break	0x0,0xf
 11c:	69737566 	0x69737566
 120:	755f6e6f 	jalx	57db9bc <_init-0x4e824644>
 124:	74616470 	jalx	18591c0 <_init-0x527a6e40>
 128:	6f635f65 	0x6f635f65
 12c:	6769666e 	0x6769666e
 130:	0003e400 	sll	gp,v1,0x10
 134:	68747000 	0x68747000
 138:	64616572 	0x64616572
 13c:	74756d5f 	jalx	1d5b57c <_init-0x522a4a84>
 140:	745f7865 	jalx	17de194 <_init-0x52821e6c>
 144:	5f657079 	0x5f657079
 148:	03f60074 	teq	ra,s6,0x1
 14c:	74700000 	jalx	1c00000 <_init-0x52400000>
 150:	61657268 	0x61657268
 154:	68735f64 	0x68735f64
 158:	5f657261 	0x5f657261
 15c:	65707974 	0x65707974
 160:	1800745f 	blez	zero,1d2e0 <_init-0x53fe2d20>
 164:	73000004 	msub	t8,zero
 168:	7375665f 	udi15	k1,s5,t4,0x19
 16c:	5f6e6f69 	0x5f6e6f69
 170:	00676663 	0x676663
 174:	00000000 	nop
Disassembly of section .debug_aranges:

00000000 <.debug_aranges>:
   0:	0000001c 	0x1c
   4:	00000002 	srl	zero,zero,0x0
   8:	00040000 	sll	zero,a0,0x0
   c:	00000000 	nop
  10:	54000020 	bnezl	zero,94 <_init-0x53ffff6c>
  14:	00001cb4 	teq	zero,zero,0x72
	...
  20:	0000001c 	0x1c
  24:	11190002 	beq	t0,t9,30 <_init-0x53ffffd0>
  28:	00040000 	sll	zero,a0,0x0
  2c:	00000000 	nop
  30:	54001cd4 	bnezl	zero,7384 <_init-0x53ff8c7c>
  34:	000003a8 	0x3a8
	...
Disassembly of section .debug_ranges:

00000000 <.debug_ranges>:
   0:	00000054 	0x54
   4:	00000058 	0x58
   8:	00000064 	0x64
   c:	000000a0 	0xa0
  10:	0000005c 	0x5c
  14:	00000060 	0x60
	...
  20:	00000464 	0x464
  24:	00000468 	0x468
  28:	0000062c 	0x62c
  2c:	00000720 	0x720
  30:	00000490 	0x490
  34:	000004f0 	tge	zero,zero,0x13
  38:	00000478 	0x478
  3c:	00000484 	0x484
	...
  48:	00000c30 	tge	zero,zero,0x30
  4c:	00000c34 	teq	zero,zero,0x30
  50:	00000e48 	0xe48
  54:	00001c84 	0x1c84
  58:	00000e08 	0xe08
  5c:	00000e18 	0xe18
  60:	00000cb4 	teq	zero,zero,0x32
  64:	00000e04 	0xe04
  68:	00000c38 	0xc38
  6c:	00000c84 	0xc84
	...
  78:	00000cdc 	0xcdc
  7c:	00000d7c 	0xd7c
  80:	00001674 	teq	zero,zero,0x59
  84:	000016b8 	0x16b8
  88:	00001534 	teq	zero,zero,0x54
  8c:	00001578 	0x1578
  90:	00000f54 	0xf54
  94:	00000f68 	0xf68
  98:	00000ef8 	0xef8
  9c:	00000f0c 	syscall	0x3c
	...
  a8:	00000d7c 	0xd7c
  ac:	00000d88 	0xd88
  b0:	000016b8 	0x16b8
  b4:	000016fc 	0x16fc
  b8:	000015fc 	0x15fc
  bc:	00001674 	teq	zero,zero,0x59
  c0:	00001578 	0x1578
  c4:	000015e8 	0x15e8
  c8:	00000f68 	0xf68
  cc:	00000fc8 	0xfc8
  d0:	00000e94 	0xe94
  d4:	00000ef8 	0xef8
	...
  e0:	00000db8 	0xdb8
  e4:	00000dfc 	0xdfc
  e8:	000015e8 	0x15e8
  ec:	000015fc 	0x15fc
	...
  f8:	00001004 	sllv	v0,zero,zero
  fc:	00001030 	tge	zero,zero,0x40
 100:	00001c24 	0x1c24
 104:	00001c84 	0x1c84
 108:	00001b5c 	0x1b5c
 10c:	00001bf4 	teq	zero,zero,0x6f
 110:	00001ab4 	teq	zero,zero,0x6a
 114:	00001b58 	0x1b58
 118:	00001a28 	0x1a28
 11c:	00001a70 	tge	zero,zero,0x69
 120:	00001840 	sll	v1,zero,0x1
 124:	00001848 	0x1848
 128:	00001710 	0x1710
 12c:	0000183c 	0x183c
 130:	00001034 	teq	zero,zero,0x40
 134:	00001134 	teq	zero,zero,0x44
	...
 140:	000011bc 	0x11bc
 144:	000011dc 	0x11dc
 148:	00001a70 	tge	zero,zero,0x69
 14c:	00001aa4 	0x1aa4
 150:	00001970 	tge	zero,zero,0x65
 154:	000019e0 	0x19e0
 158:	000011e0 	0x11e0
 15c:	00001278 	0x1278
	...
 168:	00001278 	0x1278
 16c:	00001344 	0x1344
 170:	00001aa4 	0x1aa4
 174:	00001ab4 	teq	zero,zero,0x6a
 178:	000019e0 	0x19e0
 17c:	00001a28 	0x1a28
 180:	000018f0 	tge	zero,zero,0x63
 184:	00001970 	tge	zero,zero,0x65
 188:	000016fc 	0x16fc
 18c:	00001710 	0x1710
	...
 198:	000013bc 	0x13bc
 19c:	000013d0 	0x13d0
 1a0:	00001bf4 	teq	zero,zero,0x6f
 1a4:	00001c24 	0x1c24
 1a8:	00001860 	0x1860
 1ac:	000018f0 	tge	zero,zero,0x63
 1b0:	000013d4 	0x13d4
 1b4:	00001480 	sll	v0,zero,0x12
	...
Disassembly of section .debug_str:

00000000 <.debug_str>:
   0:	69736e75 	0x69736e75
   4:	64656e67 	0x64656e67
   8:	61686320 	0x61686320
   c:	55460072 	bnel	t2,a2,1d8 <_init-0x53fffe28>
  10:	4e4f4953 	c3	0x4f4953
  14:	5455435f 	bnel	v0,s5,10d94 <_init-0x53fef26c>
  18:	5f626600 	0x5f626600
  1c:	6f666e69 	0x6f666e69
  20:	69756700 	0x69756700
  24:	5f62665f 	0x5f62665f
  28:	61657261 	0x61657261
  2c:	7200745f 	udi15	s0,zero,t6,0x11
  30:	645f6374 	0x645f6374
  34:	5f657461 	0x5f657461
  38:	656d6974 	0x656d6974
  3c:	6800745f 	0x6800745f
  40:	68676965 	0x68676965
  44:	65790074 	0x65790074
  48:	72007261 	0x72007261
  4c:	6c757365 	0x6c757365
  50:	76780074 	jalx	9e001d0 <_init-0x4a1ffe30>
  54:	00776569 	0x776569
  58:	65746164 	0x65746164
  5c:	6d69745f 	0x6d69745f
  60:	73640065 	0x73640065
  64:	75625f74 	jalx	5897dd0 <_init-0x4e768230>
  68:	55460066 	bnel	t2,a2,204 <_init-0x53fffdfc>
  6c:	4e4f4953 	c3	0x4f4953
  70:	4255435f 	c0	0x55435f
  74:	675f0045 	0x675f0045
  78:	725f7465 	0x725f7465
  7c:	7461746f 	jalx	185d1bc <_init-0x527a2e44>
  80:	5f6e6f69 	0x5f6e6f69
  84:	6c676e61 	0x6c676e61
  88:	645f0065 	0x645f0065
  8c:	6c707369 	0x6c707369
  90:	725f7961 	0x725f7961
  94:	72657665 	0x72657665
  98:	73006573 	0x73006573
  9c:	75626372 	jalx	5898dc8 <_init-0x4e767238>
  a0:	61660066 	0x61660066
  a4:	0065736c 	0x65736c
  a8:	7369645f 	udi15	k1,t1,t4,0x11
  ac:	79616c70 	0x79616c70
  b0:	6761705f 	0x6761705f
  b4:	52540065 	beql	s2,s4,24c <_init-0x53fffdb4>
  b8:	5f534e41 	0x5f534e41
  bc:	41544f52 	0x41544f52
  c0:	4e4f4954 	c3	0x4f4954
  c4:	0044325f 	0x44325f
  c8:	4e415254 	c3	0x415254
  cc:	4f505f53 	c3	0x1505f53
  d0:	00505550 	0x505550
  d4:	4e415254 	c3	0x415254
  d8:	41465f53 	0x41465f53
  dc:	2f004544 	sltiu	zero,t8,17732
  e0:	64677963 	0x64677963
  e4:	65766972 	0x65766972
  e8:	622f632f 	0x622f632f
  ec:	6e616e69 	0x6e616e69
  f0:	2f6e616e 	sltiu	t6,k1,24942
  f4:	31327375 	andi	s2,t1,0x7375
  f8:	622f4633 	0x622f4633
  fc:	6e616e69 	0x6e616e69
 100:	5f6e616e 	0x5f6e616e
 104:	31327375 	andi	s2,t1,0x7375
 108:	752f6633 	jalx	4bd98cc <_init-0x4f426734>
 10c:	2f626f76 	sltiu	v0,k1,28534
 110:	6b647375 	0x6b647375
 114:	66333132 	0x66333132
 118:	7361632f 	0x7361632f
 11c:	696c2f65 	0x696c2f65
 120:	63727362 	0x63727362
 124:	7375662f 	0x7375662f
 128:	006e6f69 	0x6e6f69
 12c:	6e617274 	0x6e617274
 130:	6c617673 	0x6c617673
 134:	6600745f 	0x6600745f
 138:	6f697375 	0x6f697375
 13c:	65735f6e 	0x65735f6e
 140:	69665f74 	0x69665f74
 144:	5f747372 	0x5f747372
 148:	6d617266 	0x6d617266
 14c:	6f6d0065 	0x6f6d0065
 150:	695f6564 	0x695f6564
 154:	6574696e 	0x6574696e
 158:	55460064 	bnel	t2,a2,2ec <_init-0x53fffd14>
 15c:	4e4f4953 	c3	0x4f4953
 160:	504f505f 	beql	v0,t7,142e0 <_init-0x53febd20>
 164:	4c415055 	0x4c415055
 168:	00414850 	0x414850
 16c:	6c6f6f62 	0x6c6f6f62
 170:	48545000 	cfc2	s4,$10
 174:	44414552 	0x44414552
 178:	54554d5f 	bnel	v0,s5,136f8 <_init-0x53fec908>
 17c:	495f5845 	0x495f5845
 180:	4c41564e 	0x4c41564e
 184:	63004449 	0x63004449
 188:	645f6b6c 	0x645f6b6c
 18c:	69616d6f 	0x69616d6f
 190:	00745f6e 	0x745f6e
 194:	656e696c 	0x656e696c
 198:	6e656c5f 	0x6e656c5f
 19c:	00687467 	0x687467
 1a0:	5f6e656c 	0x5f6e656c
 1a4:	00747364 	0x747364
 1a8:	7369645f 	udi15	k1,t1,t4,0x11
 1ac:	79616c70 	0x79616c70
 1b0:	6275635f 	0x6275635f
 1b4:	55460065 	bnel	t2,a2,34c <_init-0x53fffcb4>
 1b8:	4e4f4953 	c3	0x4f4953
 1bc:	564f4d5f 	bnel	s2,t7,1373c <_init-0x53fec8c4>
 1c0:	504c4145 	beql	v0,t4,106d8 <_init-0x53fef928>
 1c4:	79004148 	0x79004148
 1c8:	00736572 	tlt	v1,s3,0x195
 1cc:	615f6266 	0x615f6266
 1d0:	00616572 	tlt	v1,at,0x195
 1d4:	4e415254 	c3	0x415254
 1d8:	4f5a5f53 	c3	0x15a5f53
 1dc:	70004d4f 	0x70004d4f
 1e0:	65726874 	0x65726874
 1e4:	6d5f6461 	0x6d5f6461
 1e8:	78657475 	0x78657475
 1ec:	7079745f 	udi15	v1,t9,t6,0x11
 1f0:	00745f65 	0x745f65
 1f4:	49535546 	0x49535546
 1f8:	4c5f4e4f 	0x4c5f4e4f
 1fc:	4556554f 	0x4556554f
 200:	55460052 	bnel	t2,a2,34c <_init-0x53fffcb4>
 204:	4e4f4953 	c3	0x4f4953
 208:	504f505f 	beql	v0,t7,14388 <_init-0x53febc78>
 20c:	75005055 	jalx	4014154 <_init-0x4ffebeac>
 210:	74616470 	jalx	18591c0 <_init-0x527a6e40>
 214:	75660065 	jalx	5980194 <_init-0x4e67fe6c>
 218:	6e6f6973 	0x6e6f6973
 21c:	6970615f 	0x6970615f
 220:	6978655f 	0x6978655f
 224:	64770074 	0x64770074
 228:	50007961 	beqzl	zero,1e7b0 <_init-0x53fe1850>
 22c:	45524854 	0x45524854
 230:	4d5f4441 	0x4d5f4441
 234:	58455455 	0x58455455
 238:	4645445f 	c1	0x45445f
 23c:	544c5541 	bnel	v0,t4,15744 <_init-0x53fea8bc>
 240:	41525400 	0x41525400
 244:	465f534e 	c1	0x5f534e
 248:	5a454441 	0x5a454441
 24c:	004d4f4f 	0x4d4f4f
 250:	52485450 	beql	s2,t0,15394 <_init-0x53feac6c>
 254:	5f444145 	0x5f444145
 258:	4554554d 	0x4554554d
 25c:	52455f58 	beql	s2,a1,17fc0 <_init-0x53fe8040>
 260:	43524f52 	c0	0x1524f52
 264:	4b434548 	c2	0x1434548
 268:	68747000 	0x68747000
 26c:	64616572 	0x64616572
 270:	6168735f 	0x6168735f
 274:	745f6572 	jalx	17d95c8 <_init-0x52826a38>
 278:	5f657079 	0x5f657079
 27c:	70630074 	0x70630074
 280:	006e656c 	0x6e656c
 284:	5f727563 	0x5f727563
 288:	00726964 	0x726964
 28c:	5f637472 	0x5f637472
 290:	656d6974 	0x656d6974
 294:	5400745f 	bnezl	zero,1d414 <_init-0x53fe2bec>
 298:	534e4152 	beql	k0,t6,107e4 <_init-0x53fef81c>
 29c:	4741505f 	c1	0x141505f
 2a0:	52540045 	beql	s2,s4,3b8 <_init-0x53fffc48>
 2a4:	5f534e41 	0x5f534e41
 2a8:	53415245 	beql	k0,at,14bc0 <_init-0x53feb440>
 2ac:	6c610045 	0x6c610045
 2b0:	00616870 	tge	v1,at,0x1a1
 2b4:	49535546 	0x49535546
 2b8:	505f4e4f 	beql	v0,ra,13bf8 <_init-0x53fec408>
 2bc:	00454741 	0x454741
 2c0:	746e6f6d 	jalx	1b9bdb4 <_init-0x5246424c>
 2c4:	76790068 	jalx	9e401a0 <_init-0x4a1bfe60>
 2c8:	00776569 	0x776569
 2cc:	62736564 	0x62736564
 2d0:	73006675 	0x73006675
 2d4:	695f6372 	0x695f6372
 2d8:	006f666e 	0x6f666e
 2dc:	49535546 	0x49535546
 2e0:	525f4e4f 	beql	s2,ra,13c20 <_init-0x53fec3e0>
 2e4:	52455645 	beql	s2,a1,15bfc <_init-0x53fea404>
 2e8:	47004553 	c1	0x1004553
 2ec:	4320554e 	c0	0x120554e
 2f0:	342e3320 	ori	t6,at,0x3320
 2f4:	6d20342e 	0x6d20342e
 2f8:	73737069 	0x73737069
 2fc:	362d6564 	ori	t5,s1,0x6564
 300:	2e36302e 	sltiu	s6,s1,12334
 304:	322d3130 	andi	t5,s1,0x3130
 308:	30373030 	andi	s7,at,0x3030
 30c:	00303234 	teq	at,s0,0xc8
 310:	725f7369 	0x725f7369
 314:	6f646e61 	0x6f646e61
 318:	5546006d 	bnel	t2,a2,4d0 <_init-0x53fffb30>
 31c:	4e4f4953 	c3	0x4f4953
 320:	5355505f 	beql	k0,s5,144a0 <_init-0x53febb60>
 324:	75660048 	jalx	5980120 <_init-0x4e67fee0>
 328:	6e6f6973 	0x6e6f6973
 32c:	6666655f 	0x6666655f
 330:	5f746365 	0x5f746365
 334:	6d740074 	0x6d740074
 338:	75625f70 	jalx	5897dc0 <_init-0x4e768240>
 33c:	5f5f0066 	0x5f5f0066
 340:	636e7566 	0x636e7566
 344:	66005f5f 	0x66005f5f
 348:	6f697375 	0x6f697375
 34c:	00632e6e 	0x632e6e
 350:	65666665 	0x65666665
 354:	695f7463 	0x695f7463
 358:	6574696e 	0x6574696e
 35c:	6d740064 	0x6d740064
 360:	66756270 	0x66756270
 364:	65675f00 	0x65675f00
 368:	75635f74 	jalx	58d7dd0 <_init-0x4e728230>
 36c:	72665f72 	0x72665f72
 370:	62656d61 	0x62656d61
 374:	65666675 	0x65666675
 378:	61645f72 	0x61645f72
 37c:	66006174 	0x66006174
 380:	6f697375 	0x6f697375
 384:	6e695f6e 	0x6e695f6e
 388:	745f6f66 	jalx	17dbd98 <_init-0x52824268>
 38c:	635f7300 	0x635f7300
 390:	645f6b6c 	0x645f6b6c
 394:	69616d6f 	0x69616d6f
 398:	7473006e 	jalx	1cc01b8 <_init-0x5233fe48>
 39c:	65725f79 	0x65725f79
 3a0:	745f7463 	jalx	17dd18c <_init-0x52822e74>
 3a4:	6f707900 	0x6f707900
 3a8:	68730073 	0x68730073
 3ac:	2074726f 	addi	s4,v1,29295
 3b0:	69736e75 	0x69736e75
 3b4:	64656e67 	0x64656e67
 3b8:	746e6920 	jalx	1b9a480 <_init-0x52465b80>
 3bc:	6f707800 	0x6f707800
 3c0:	52540073 	beql	s2,s4,590 <_init-0x53fffa70>
 3c4:	5f534e41 	0x5f534e41
 3c8:	45564157 	0x45564157
 3cc:	74736400 	jalx	1cd9000 <_init-0x52327000>
 3d0:	666e695f 	0x666e695f
 3d4:	5546006f 	bnel	t2,a2,594 <_init-0x53fffa6c>
 3d8:	4e4f4953 	c3	0x4f4953
 3dc:	4152455f 	0x4152455f
 3e0:	68004553 	0x68004553
 3e4:	0072756f 	0x72756f
 3e8:	73657278 	0x73657278
 3ec:	65675f00 	0x65675f00
 3f0:	74725f74 	jalx	1c97dd0 <_init-0x52368230>
 3f4:	74735f63 	jalx	1cd7d8c <_init-0x52328274>
 3f8:	63657364 	0x63657364
 3fc:	41525400 	0x41525400
 400:	445f534e 	0x445f534e
 404:	004e574f 	0x4e574f
 408:	77656976 	jalx	d95a5d8 <_init-0x466a5a28>
 40c:	61726170 	0x61726170
 410:	6964006d 	0x6964006d
 414:	74636572 	jalx	18d95c8 <_init-0x52726a38>
 418:	67616c66 	0x67616c66
 41c:	65726700 	0x65726700
 420:	74006e65 	jalx	1b994 <_init-0x53fe466c>
 424:	735f706d 	0x735f706d
 428:	73006372 	0x73006372
 42c:	7375665f 	udi15	k1,s5,t4,0x19
 430:	006e6f69 	0x6e6f69
 434:	65707974 	0x65707974
 438:	6c616300 	0x6c616300
 43c:	6361626c 	0x6361626c
 440:	5254006b 	beql	s2,s4,5f0 <_init-0x53fffa10>
 444:	5f534e41 	0x5f534e41
 448:	41544f52 	0x41544f52
 44c:	4e4f4954 	c3	0x4f4954
 450:	4d4f4f5a 	0x4d4f4f5a
 454:	746f7400 	jalx	1bdd000 <_init-0x52423000>
 458:	72666c61 	0x72666c61
 45c:	73656d61 	0x73656d61
 460:	73756600 	0x73756600
 464:	5f6e6f69 	0x5f6e6f69
 468:	6c6c6163 	0x6c6c6163
 46c:	6b636162 	0x6b636162
 470:	7400745f 	jalx	1d17c <_init-0x53fe2e84>
 474:	00706d65 	0x706d65
 478:	4e415254 	c3	0x415254
 47c:	49525f53 	0x49525f53
 480:	00544847 	0x544847
 484:	69737566 	0x69737566
 488:	6d5f6e6f 	0x6d5f6e6f
 48c:	5f65646f 	0x5f65646f
 490:	75660065 	jalx	5980194 <_init-0x4e67fe6c>
 494:	6e6f6973 	0x6e6f6973
 498:	5f00745f 	bgtzl	t8,1d618 <_init-0x53fe29e8>
 49c:	61647075 	0x61647075
 4a0:	665f6574 	0x665f6574
 4a4:	656d6172 	0x656d6172
 4a8:	66667562 	0x66667562
 4ac:	74007265 	jalx	1c994 <_init-0x53fe366c>
 4b0:	645f706d 	0x645f706d
 4b4:	5f007473 	bgtzl	t8,1d684 <_init-0x53fe297c>
 4b8:	70736964 	0x70736964
 4bc:	5f79616c 	0x5f79616c
 4c0:	61746f72 	0x61746f72
 4c4:	6d006574 	0x6d006574
 4c8:	74756e69 	jalx	1d5b9a4 <_init-0x522a465c>
 4cc:	75660065 	jalx	5980194 <_init-0x4e67fe6c>
 4d0:	6e6f6973 	0x6e6f6973
 4d4:	0062665f 	0x62665f
 4d8:	6f636573 	0x6f636573
 4dc:	6600646e 	0x6600646e
 4e0:	6f697375 	0x6f697375
 4e4:	65735f6e 	0x65735f6e
 4e8:	66655f74 	0x66655f74
 4ec:	74636566 	jalx	18d9598 <_init-0x52726a68>
 4f0:	41525400 	0x41525400
 4f4:	4c5f534e 	0x4c5f534e
 4f8:	00544645 	0x544645
 4fc:	49535546 	0x49535546
 500:	525f4e4f 	beql	s2,ra,13e40 <_init-0x53fec1c0>
 504:	4f444e41 	c3	0x1444e41
 508:	675f004d 	0x675f004d
 50c:	665f7465 	0x665f7465
 510:	6f697375 	0x6f697375
 514:	6e695f6e 	0x6e695f6e
 518:	66006f66 	0x66006f66
 51c:	6f697375 	0x6f697375
 520:	69645f6e 	0x69645f6e
 524:	616c7073 	0x616c7073
 528:	55460079 	bnel	t2,a2,710 <_init-0x53fff8f0>
 52c:	4e4f4953 	c3	0x4f4953
 530:	4e41525f 	c3	0x41525f
 534:	4c4d4f44 	0x4c4d4f44
 538:	00454e49 	0x454e49
 53c:	52485450 	beql	s2,t0,15680 <_init-0x53fea980>
 540:	5f444145 	0x5f444145
 544:	4554554d 	0x4554554d
 548:	45525f58 	0x45525f58
 54c:	53525543 	beql	k0,s2,15a5c <_init-0x53fea5a4>
 550:	00455649 	0x455649
 554:	4e415254 	c3	0x415254
 558:	50555f53 	beql	v0,s5,182a8 <_init-0x53fe7d58>
 55c:	41525400 	0x41525400
 560:	525f534e 	beql	s2,ra,1529c <_init-0x53fead64>
 564:	52455645 	beql	s2,a1,15e7c <_init-0x53fea184>
 568:	73004553 	udi3	t8,zero,t0,0x15
 56c:	74726f68 	jalx	1c9bda0 <_init-0x52364260>
 570:	746e6920 	jalx	1b9a480 <_init-0x52465b80>
 574:	73756600 	0x73756600
 578:	5f6e6f69 	0x5f6e6f69
 57c:	5f697061 	0x5f697061
 580:	74696e69 	jalx	1a5b9a4 <_init-0x525a465c>
 584:	73756600 	0x73756600
 588:	5f6e6f69 	0x5f6e6f69
 58c:	6d617266 	0x6d617266
 590:	00745f65 	0x745f65
 594:	5f637472 	0x5f637472
 598:	65746164 	0x65746164
 59c:	5f00745f 	bgtzl	t8,1d71c <_init-0x53fe28e4>
 5a0:	61746f72 	0x61746f72
 5a4:	735f6574 	0x735f6574
 5a8:	625f6372 	0x625f6372
 5ac:	50006675 	beqzl	zero,19f84 <_init-0x53fe607c>
 5b0:	45524854 	0x45524854
 5b4:	4d5f4441 	0x4d5f4441
 5b8:	58455455 	0x58455455
 5bc:	524f4e5f 	beql	s2,t7,13f3c <_init-0x53fec0c4>
 5c0:	004c414d 	break	0x4c,0x105
 5c4:	49535546 	0x49535546
 5c8:	505f4e4f 	beql	v0,ra,13f08 <_init-0x53fec0f8>
 5cc:	46005450 	c1	0x5450
 5d0:	4f495355 	c3	0x1495355
 5d4:	4f4e5f4e 	c3	0x14e5f4e
 5d8:	4c414d52 	0x4c414d52
 5dc:	706e6900 	0x706e6900
 5e0:	665f7475 	0x665f7475
 5e4:	656d6172 	0x656d6172
 5e8:	75727400 	jalx	5c9d000 <_init-0x4e363000>
 5ec:	75660065 	jalx	5980194 <_init-0x4e67fe6c>
 5f0:	6e6f6973 	0x6e6f6973
 5f4:	7369645f 	udi15	k1,t1,t4,0x11
 5f8:	79616c70 	0x79616c70
 5fc:	7375635f 	udi15	k1,s5,t4,0xd
 600:	006d6f74 	teq	v1,t5,0x1bd
 604:	65726964 	0x65726964
 608:	54007463 	bnezl	zero,1d798 <_init-0x53fe2868>
 60c:	534e4152 	beql	k0,t6,10b58 <_init-0x53fef4a8>
 610:	4f4d535f 	c3	0x14d535f
 614:	4d48544f 	0x4d48544f
 618:	0045564f 	0x45564f
 61c:	49535546 	0x49535546
 620:	465f4e4f 	c1	0x5f4e4f
 624:	00454441 	0x454441
 628:	616c5f73 	0x616c5f73
 62c:	725f7473 	0x725f7473
 630:	6f646e61 	0x6f646e61
 634:	6e695f6d 	0x6e695f6d
 638:	00786564 	0x786564
 63c:	615f6266 	0x615f6266
 640:	00726464 	0x726464
 644:	74616470 	jalx	18591c0 <_init-0x527a6e40>
 648:	635f0061 	0x635f0061
 64c:	5f79706f 	0x5f79706f
 650:	69676572 	0x69676572
 654:	625f6e6f 	0x625f6e6f
 658:	63006675 	0x63006675
 65c:	64726f6f 	0x64726f6f
 660:	74616e69 	jalx	185b9a4 <_init-0x527a465c>
 664:	00745f65 	0x745f65
 668:	74646977 	jalx	191a5dc <_init-0x526e5a24>
 66c:	72735f68 	0x72735f68
 670:	55460063 	bnel	t2,a2,800 <_init-0x53fff800>
 674:	4e4f4953 	c3	0x4f4953
 678:	5641575f 	bnel	s2,at,163f8 <_init-0x53fe9c08>
 67c:	72660045 	0x72660045
 680:	5f656d61 	0x5f656d61
 684:	00667562 	0x667562
 688:	7366666f 	0x7366666f
 68c:	69007465 	0x69007465
 690:	6f725f73 	0x6f725f73
 694:	65746174 	0x65746174
 698:	61727400 	0x61727400
 69c:	6d5f736e 	0x6d5f736e
 6a0:	5f65646f 	0x5f65646f
 6a4:	75660074 	jalx	59801d0 <_init-0x4e67fe30>
 6a8:	6e6f6973 	0x6e6f6973
 6ac:	6970615f 	0x6970615f
 6b0:	006c6274 	teq	v1,t4,0x189
 6b4:	4e415254 	c3	0x415254
 6b8:	4f4c5f53 	c3	0x14c5f53
 6bc:	52455655 	beql	s2,a1,16014 <_init-0x53fe9fec>
 6c0:	646e6500 	0x646e6500
 6c4:	7369645f 	udi15	k1,t1,t4,0x11
 6c8:	79616c70 	0x79616c70
 6cc:	69645f00 	0x69645f00
 6d0:	616c7073 	0x616c7073
 6d4:	746f5f79 	jalx	1bd7de4 <_init-0x5242821c>
 6d8:	00726568 	0x726568
 6dc:	5f706d74 	0x5f706d74
 6e0:	6d617266 	0x6d617266
 6e4:	55460065 	bnel	t2,a2,87c <_init-0x53fff784>
 6e8:	4e4f4953 	c3	0x4f4953
 6ec:	544f525f 	bnel	v0,t7,1506c <_init-0x53feaf94>
 6f0:	00455441 	0x455441
 6f4:	6e617274 	0x6e617274
 6f8:	6c617673 	0x6c617673
 6fc:	5f626600 	0x5f626600
 700:	6f666e69 	0x6f666e69
 704:	6c00745f 	0x6c00745f
 708:	20676e6f 	addi	a3,v1,28271
 70c:	676e6f6c 	0x676e6f6c
 710:	736e7520 	0x736e7520
 714:	656e6769 	0x656e6769
 718:	6e692064 	0x6e692064
 71c:	52540074 	beql	s2,s4,8f0 <_init-0x53fff710>
 720:	5f534e41 	0x5f534e41
 724:	55504f50 	bnel	t2,s0,14468 <_init-0x53febb98>
 728:	504c4150 	beql	v0,t4,10c6c <_init-0x53fef394>
 72c:	46004148 	round.l.s	$f5,$f8
 730:	4f495355 	c3	0x1495355
 734:	4f4d5f4e 	c3	0x14d5f4e
 738:	4d5f4544 	0x4d5f4544
 73c:	54005841 	bnezl	zero,16844 <_init-0x53fe97bc>
 740:	534e4152 	beql	k0,t6,10c8c <_init-0x53fef374>
 744:	5455435f 	bnel	v0,s5,114c4 <_init-0x53feeb3c>
 748:	64697700 	0x64697700
 74c:	645f6874 	0x645f6874
 750:	74007473 	jalx	1d1cc <_init-0x53fe2e34>
 754:	736e6172 	0x736e6172
 758:	7269645f 	udi15	s3,t1,t4,0x11
 75c:	5f746365 	0x5f746365
 760:	675f0074 	0x675f0074
 764:	6c5f7465 	0x6c5f7465
 768:	695f6463 	0x695f6463
 76c:	006f666e 	0x6f666e
 770:	52485450 	beql	s2,t0,158b4 <_init-0x53fea74c>
 774:	5f444145 	0x5f444145
 778:	434f5250 	c0	0x14f5250
 77c:	5f535345 	0x5f535345
 780:	52414853 	beql	s2,at,128d0 <_init-0x53fed730>
 784:	63004445 	0x63004445
 788:	65727275 	0x65727275
 78c:	7266746e 	0x7266746e
 790:	00656d61 	0x656d61
 794:	74646977 	jalx	191a5dc <_init-0x526e5a24>
 798:	52540068 	beql	s2,s4,93c <_init-0x53fff6c4>
 79c:	5f534e41 	0x5f534e41
 7a0:	43454843 	c0	0x1454843
 7a4:	5254004b 	beql	s2,s4,8d4 <_init-0x53fff72c>
 7a8:	5f534e41 	0x5f534e41
 7ac:	45425543 	0x45425543
 7b0:	53554600 	beql	k0,s5,11fb4 <_init-0x53fee04c>
 7b4:	5f4e4f49 	0x5f4e4f49
 7b8:	43454843 	c0	0x1454843
 7bc:	6962004b 	0x6962004b
 7c0:	705f7374 	0x705f7374
 7c4:	705f7265 	0x705f7265
 7c8:	6c657869 	0x6c657869
 7cc:	5f626600 	0x5f626600
 7d0:	6f6c6f63 	0x6f6c6f63
 7d4:	61705f72 	0x61705f72
 7d8:	745f6172 	jalx	17d85c8 <_init-0x52827a38>
 7dc:	41525400 	0x41525400
 7e0:	4d5f534e 	0x4d5f534e
 7e4:	4145564f 	0x4145564f
 7e8:	4148504c 	0x4148504c
 7ec:	73756600 	0x73756600
 7f0:	5f6e6f69 	0x5f6e6f69
 7f4:	5f746573 	0x5f746573
 7f8:	7473616c 	jalx	1cd85b0 <_init-0x52327a50>
 7fc:	6172665f 	0x6172665f
 800:	6d00656d 	0x6d00656d
 804:	0065646f 	0x65646f
 808:	4e415254 	c3	0x415254
 80c:	41525f53 	0x41525f53
 810:	4d4f444e 	0x4d4f444e
 814:	454e494c 	0x454e494c
 818:	41525400 	0x41525400
 81c:	505f534e 	beql	v0,ra,15558 <_init-0x53feaaa8>
 820:	6c005450 	0x6c005450
 824:	20676e6f 	addi	a3,v1,28271
 828:	676e6f6c 	0x676e6f6c
 82c:	746e6920 	jalx	1b9a480 <_init-0x52465b80>
 830:	41525400 	0x41525400
 834:	4d5f534e 	0x4d5f534e
 838:	0045564f 	0x45564f
 83c:	65756c62 	0x65756c62
 840:	48545000 	cfc2	s4,$10
 844:	44414552 	0x44414552
 848:	4f52505f 	c3	0x152505f
 84c:	53534543 	beql	k0,s3,11d5c <_init-0x53fee2a4>
 850:	4952505f 	0x4952505f
 854:	45544156 	0x45544156
 858:	66756200 	0x66756200
 85c:	0074756f 	0x74756f
 860:	62706d74 	0x62706d74
 864:	735f6675 	0x735f6675
 868:	73006372 	0x73006372
 86c:	6e61725f 	0x6e61725f
 870:	5f6d6f64 	0x5f6d6f64
 874:	65666665 	0x65666665
 878:	68007463 	0x68007463
 87c:	68676965 	0x68676965
 880:	72735f74 	0x72735f74
 884:	6f630063 	0x6f630063
 888:	6769666e 	0x6769666e
 88c:	7079745f 	udi15	v1,t9,t6,0x11
 890:	00745f65 	0x745f65
 894:	656d616e 	0x656d616e
 898:	73756600 	0x73756600
 89c:	5f6e6f69 	0x5f6e6f69
 8a0:	61647075 	0x61647075
 8a4:	635f6574 	0x635f6574
 8a8:	69666e6f 	0x69666e6f
 8ac:	6f630067 	0x6f630067
 8b0:	6769666e 	0x6769666e
 8b4:	6574695f 	0x6574695f
 8b8:	00745f6d 	0x745f6d
 8bc:	49535546 	0x49535546
 8c0:	4d5f4e4f 	0x4d5f4e4f
 8c4:	46005841 	sub.s	$f1,$f11,$f0
 8c8:	4f495355 	c3	0x1495355
 8cc:	59545f4e 	0x59545f4e
 8d0:	435f4550 	c0	0x15f4550
 8d4:	4f4d4d4f 	c3	0x14d4d4f
 8d8:	5f73004e 	0x5f73004e
 8dc:	69737566 	0x69737566
 8e0:	635f6e6f 	0x635f6e6f
 8e4:	5f006766 	bgtzl	t8,1a680 <_init-0x53fe5980>
 8e8:	5f746567 	0x5f746567
 8ec:	666e6f63 	0x666e6f63
 8f0:	00736769 	0x736769
 8f4:	69737566 	0x69737566
 8f8:	735f6e6f 	0x735f6e6f
 8fc:	635f7465 	0x635f7465
 900:	69666e6f 	0x69666e6f
 904:	55460067 	bnel	t2,a2,aa4 <_init-0x53fff55c>
 908:	4e4f4953 	c3	0x4f4953
 90c:	5059545f 	beql	v0,t9,15a8c <_init-0x53fea574>
 910:	50415f45 	beql	v0,at,18628 <_init-0x53fe79d8>
 914:	48435f50 	0x48435f50
 918:	45474e41 	0x45474e41
 91c:	746e6500 	jalx	1b99400 <_init-0x52466c00>
 920:	76007265 	jalx	801c994 <_init-0x4bfe366c>
 924:	65756c61 	0x65756c61
 928:	53554600 	beql	k0,s5,1212c <_init-0x53feded4>
 92c:	5f4e4f49 	0x5f4e4f49
 930:	45505954 	0x45505954
 934:	54504f5f 	bnel	v0,s0,146b4 <_init-0x53feb94c>
 938:	5f4e4f49 	0x5f4e4f49
 93c:	00565559 	0x565559
 940:	49535546 	0x49535546
 944:	545f4e4f 	bnel	v0,ra,14284 <_init-0x53febd7c>
 948:	5f455059 	0x5f455059
 94c:	41544f52 	0x41544f52
 950:	66004554 	0x66004554
 954:	6f697375 	0x6f697375
 958:	65675f6e 	0x65675f6e
 95c:	6f635f74 	0x6f635f74
 960:	6769666e 	0x6769666e
 964:	53554600 	beql	k0,s5,12168 <_init-0x53fede98>
 968:	5f4e4f49 	0x5f4e4f49
 96c:	57524f46 	bnel	k0,s2,14688 <_init-0x53feb978>
 970:	00445241 	0x445241
 974:	49535546 	0x49535546
 978:	545f4e4f 	bnel	v0,ra,142b8 <_init-0x53febd48>
 97c:	5f455059 	0x5f455059
 980:	4c414944 	0x4c414944
 984:	4600474f 	floor.w.s	$f29,$f8
 988:	4f495355 	c3	0x1495355
 98c:	59545f4e 	0x59545f4e
 990:	4f5f4550 	c3	0x15f4550
 994:	4f495450 	c3	0x1495450
 998:	47525f4e 	c1	0x1525f4e
 99c:	75660042 	jalx	5980108 <_init-0x4e67fef8>
 9a0:	6e6f6973 	0x6e6f6973
 9a4:	746e655f 	jalx	1b9957c <_init-0x52466a84>
 9a8:	655f7265 	0x655f7265
 9ac:	53554600 	beql	k0,s5,121b0 <_init-0x53fede50>
 9b0:	5f4e4f49 	0x5f4e4f49
 9b4:	45505954 	0x45505954
 9b8:	58414d5f 	0x58414d5f
 9bc:	53554600 	beql	k0,s5,121c0 <_init-0x53fede40>
 9c0:	5f4e4f49 	0x5f4e4f49
 9c4:	4b434142 	c2	0x1434142
 9c8:	44524157 	0x44524157
 9cc:	73756600 	0x73756600
 9d0:	5f6e6f69 	0x5f6e6f69
 9d4:	65707974 	0x65707974
 9d8:	6600655f 	0x6600655f
 9dc:	6f697375 	0x6f697375
 9e0:	6f635f6e 	0x6f635f6e
 9e4:	6769666e 	0x6769666e
 9e8:	Address 0x9e8 is out of bounds.

Disassembly of section .comment:

00000000 <.comment>:
   0:	43434700 	c0	0x1434700
   4:	4728203a 	c1	0x128203a
   8:	2029554e 	addi	t1,at,21838
   c:	2e342e33 	sltiu	s4,s1,11827
  10:	696d2034 	0x696d2034
  14:	64737370 	0x64737370
  18:	2e362d65 	sltiu	s6,s1,11621
  1c:	302e3630 	andi	t6,at,0x3630
  20:	30322d31 	andi	s2,at,0x2d31
  24:	34303730 	ori	s0,at,0x3730
  28:	00003032 	tlt	zero,zero,0xc0
  2c:	3a434347 	xori	v1,s2,0x4347
  30:	4e472820 	madd.s	$f0,$f18,$f5,$f7
  34:	33202955 	andi	zero,t9,0x2955
  38:	342e342e 	ori	t6,at,0x342e
  3c:	70696d20 	0x70696d20
  40:	65647373 	0x65647373
  44:	302e362d 	andi	t6,at,0x362d
  48:	31302e36 	andi	s0,t1,0x2e36
  4c:	3030322d 	andi	s0,at,0x322d
  50:	32343037 	andi	s4,s1,0x3037
  54:	47000030 	c1	0x1000030
  58:	203a4343 	addi	k0,at,17219
  5c:	554e4728 	bnel	t2,t6,11d00 <_init-0x53fee300>
  60:	2e332029 	sltiu	s3,s1,8233
  64:	20342e34 	addi	s4,at,11828
  68:	7370696d 	0x7370696d
  6c:	2d656473 	sltiu	a1,t3,25715
  70:	36302e36 	ori	s0,s1,0x2e36
  74:	2d31302e 	sltiu	s1,t1,12334
  78:	37303032 	ori	s0,t9,0x3032
  7c:	30323430 	andi	s2,at,0x3430
  80:	43470000 	c0	0x1470000
  84:	28203a43 	slti	zero,at,14915
  88:	29554e47 	slti	s5,t2,20039
  8c:	342e3320 	ori	t6,at,0x3320
  90:	6d20342e 	0x6d20342e
  94:	73737069 	0x73737069
  98:	362d6564 	ori	t5,s1,0x6564
  9c:	2e36302e 	sltiu	s6,s1,12334
  a0:	322d3130 	andi	t5,s1,0x3130
  a4:	30373030 	andi	s7,at,0x3030
  a8:	00303234 	teq	at,s0,0xc8
  ac:	43434700 	c0	0x1434700
  b0:	4728203a 	c1	0x128203a
  b4:	2029554e 	addi	t1,at,21838
  b8:	2e342e33 	sltiu	s4,s1,11827
  bc:	696d2034 	0x696d2034
  c0:	64737370 	0x64737370
  c4:	2e362d65 	sltiu	s6,s1,11621
  c8:	302e3630 	andi	t6,at,0x3630
  cc:	30322d31 	andi	s2,at,0x2d31
  d0:	34303730 	ori	s0,at,0x3730
  d4:	00003032 	tlt	zero,zero,0xc0
  d8:	3a434347 	xori	v1,s2,0x4347
  dc:	4e472820 	madd.s	$f0,$f18,$f5,$f7
  e0:	33202955 	andi	zero,t9,0x2955
  e4:	342e342e 	ori	t6,at,0x342e
  e8:	70696d20 	0x70696d20
  ec:	65647373 	0x65647373
  f0:	302e362d 	andi	t6,at,0x362d
  f4:	31302e36 	andi	s0,t1,0x2e36
  f8:	3030322d 	andi	s0,at,0x322d
  fc:	32343037 	andi	s4,s1,0x3037
 100:	47000030 	c1	0x1000030
 104:	203a4343 	addi	k0,at,17219
 108:	554e4728 	bnel	t2,t6,11dac <_init-0x53fee254>
 10c:	2e332029 	sltiu	s3,s1,8233
 110:	20342e34 	addi	s4,at,11828
 114:	7370696d 	0x7370696d
 118:	2d656473 	sltiu	a1,t3,25715
 11c:	36302e36 	ori	s0,s1,0x2e36
 120:	2d31302e 	sltiu	s1,t1,12334
 124:	37303032 	ori	s0,t9,0x3032
 128:	30323430 	andi	s2,at,0x3430
 12c:	43470000 	c0	0x1470000
 130:	28203a43 	slti	zero,at,14915
 134:	29554e47 	slti	s5,t2,20039
 138:	342e3320 	ori	t6,at,0x3320
 13c:	6d20342e 	0x6d20342e
 140:	73737069 	0x73737069
 144:	362d6564 	ori	t5,s1,0x6564
 148:	2e36302e 	sltiu	s6,s1,12334
 14c:	322d3130 	andi	t5,s1,0x3130
 150:	30373030 	andi	s7,at,0x3030
 154:	00303234 	teq	at,s0,0xc8
 158:	43434700 	c0	0x1434700
 15c:	4728203a 	c1	0x128203a
 160:	2029554e 	addi	t1,at,21838
 164:	2e342e33 	sltiu	s4,s1,11827
 168:	696d2034 	0x696d2034
 16c:	64737370 	0x64737370
 170:	2e362d65 	sltiu	s6,s1,11621
 174:	302e3630 	andi	t6,at,0x3630
 178:	30322d31 	andi	s2,at,0x2d31
 17c:	34303730 	ori	s0,at,0x3730
 180:	00003032 	tlt	zero,zero,0xc0
 184:	3a434347 	xori	v1,s2,0x4347
 188:	4e472820 	madd.s	$f0,$f18,$f5,$f7
 18c:	33202955 	andi	zero,t9,0x2955
 190:	342e342e 	ori	t6,at,0x342e
 194:	70696d20 	0x70696d20
 198:	65647373 	0x65647373
 19c:	302e362d 	andi	t6,at,0x362d
 1a0:	31302e36 	andi	s0,t1,0x2e36
 1a4:	3030322d 	andi	s0,at,0x322d
 1a8:	32343037 	andi	s4,s1,0x3037
 1ac:	47000030 	c1	0x1000030
 1b0:	203a4343 	addi	k0,at,17219
 1b4:	554e4728 	bnel	t2,t6,11e58 <_init-0x53fee1a8>
 1b8:	2e332029 	sltiu	s3,s1,8233
 1bc:	20342e34 	addi	s4,at,11828
 1c0:	7370696d 	0x7370696d
 1c4:	2d656473 	sltiu	a1,t3,25715
 1c8:	36302e36 	ori	s0,s1,0x2e36
 1cc:	2d31302e 	sltiu	s1,t1,12334
 1d0:	37303032 	ori	s0,t9,0x3032
 1d4:	30323430 	andi	s2,at,0x3430
 1d8:	43470000 	c0	0x1470000
 1dc:	28203a43 	slti	zero,at,14915
 1e0:	29554e47 	slti	s5,t2,20039
 1e4:	342e3320 	ori	t6,at,0x3320
 1e8:	6d20342e 	0x6d20342e
 1ec:	73737069 	0x73737069
 1f0:	362d6564 	ori	t5,s1,0x6564
 1f4:	2e36302e 	sltiu	s6,s1,12334
 1f8:	322d3130 	andi	t5,s1,0x3130
 1fc:	30373030 	andi	s7,at,0x3030
 200:	00303234 	teq	at,s0,0xc8
 204:	43434700 	c0	0x1434700
 208:	4728203a 	c1	0x128203a
 20c:	2029554e 	addi	t1,at,21838
 210:	2e342e33 	sltiu	s4,s1,11827
 214:	696d2034 	0x696d2034
 218:	64737370 	0x64737370
 21c:	2e362d65 	sltiu	s6,s1,11621
 220:	302e3630 	andi	t6,at,0x3630
 224:	30322d31 	andi	s2,at,0x2d31
 228:	34303730 	ori	s0,at,0x3730
 22c:	00003032 	tlt	zero,zero,0xc0
 230:	3a434347 	xori	v1,s2,0x4347
 234:	4e472820 	madd.s	$f0,$f18,$f5,$f7
 238:	33202955 	andi	zero,t9,0x2955
 23c:	342e342e 	ori	t6,at,0x342e
 240:	70696d20 	0x70696d20
 244:	65647373 	0x65647373
 248:	302e362d 	andi	t6,at,0x362d
 24c:	31302e36 	andi	s0,t1,0x2e36
 250:	3030322d 	andi	s0,at,0x322d
 254:	32343037 	andi	s4,s1,0x3037
 258:	47000030 	c1	0x1000030
 25c:	203a4343 	addi	k0,at,17219
 260:	554e4728 	bnel	t2,t6,11f04 <_init-0x53fee0fc>
 264:	2e332029 	sltiu	s3,s1,8233
 268:	20342e34 	addi	s4,at,11828
 26c:	7370696d 	0x7370696d
 270:	2d656473 	sltiu	a1,t3,25715
 274:	36302e36 	ori	s0,s1,0x2e36
 278:	2d31302e 	sltiu	s1,t1,12334
 27c:	37303032 	ori	s0,t9,0x3032
 280:	30323430 	andi	s2,at,0x3430
 284:	43470000 	c0	0x1470000
 288:	28203a43 	slti	zero,at,14915
 28c:	29554e47 	slti	s5,t2,20039
 290:	342e3320 	ori	t6,at,0x3320
 294:	6d20342e 	0x6d20342e
 298:	73737069 	0x73737069
 29c:	362d6564 	ori	t5,s1,0x6564
 2a0:	2e36302e 	sltiu	s6,s1,12334
 2a4:	322d3130 	andi	t5,s1,0x3130
 2a8:	30373030 	andi	s7,at,0x3030
 2ac:	00303234 	teq	at,s0,0xc8
 2b0:	43434700 	c0	0x1434700
 2b4:	4728203a 	c1	0x128203a
 2b8:	2029554e 	addi	t1,at,21838
 2bc:	2e342e33 	sltiu	s4,s1,11827
 2c0:	696d2034 	0x696d2034
 2c4:	64737370 	0x64737370
 2c8:	2e362d65 	sltiu	s6,s1,11621
 2cc:	302e3630 	andi	t6,at,0x3630
 2d0:	30322d31 	andi	s2,at,0x2d31
 2d4:	34303730 	ori	s0,at,0x3730
 2d8:	Address 0x2d8 is out of bounds.

